                                        ; Entry Point
                                        ; --- START PROC L0000 ---
0000: C3 00 01                   L0000: JP      L0100

0003: FF                         L0003: DB      0FFh
0004: FF                                DB      0FFh
0005: FF                                DB      0FFh
0006: FF                                DB      0FFh
0007: FF                                DB      0FFh
0008: ED                                DB      0EDh
0009: 4D                                DB      4Dh     ; 'M'
000A: FF                                DB      0FFh
000B: FF                                DB      0FFh
000C: FF                                DB      0FFh
000D: FF                                DB      0FFh
000E: FF                                DB      0FFh
000F: FF                                DB      0FFh
0010: ED                                DB      0EDh
0011: 4D                                DB      4Dh     ; 'M'
0012: FF                                DB      0FFh
0013: FF                                DB      0FFh
0014: FF                                DB      0FFh
0015: FF                                DB      0FFh
0016: FF                                DB      0FFh
0017: FF                                DB      0FFh
0018: ED                                DB      0EDh
0019: 4D                                DB      4Dh     ; 'M'
001A: FF                                DB      0FFh
001B: FF                                DB      0FFh
001C: FF                                DB      0FFh
001D: FF                                DB      0FFh
001E: FF                                DB      0FFh
001F: FF                                DB      0FFh
0020: ED                                DB      0EDh
0021: 4D                                DB      4Dh     ; 'M'
0022: FF                                DB      0FFh
0023: FF                                DB      0FFh
0024: FF                                DB      0FFh
0025: FF                                DB      0FFh
0026: FF                                DB      0FFh
0027: FF                                DB      0FFh
0028: ED                                DB      0EDh
0029: 4D                                DB      4Dh     ; 'M'
002A: FF                                DB      0FFh
002B: FF                                DB      0FFh
002C: FF                                DB      0FFh
002D: FF                                DB      0FFh
002E: FF                                DB      0FFh
002F: FF                                DB      0FFh
0030: ED                                DB      0EDh
0031: 4D                                DB      4Dh     ; 'M'
0032: FF                                DB      0FFh
0033: FF                                DB      0FFh
0034: FF                                DB      0FFh
0035: FF                                DB      0FFh
0036: FF                                DB      0FFh
0037: FF                                DB      0FFh
0038: ED                                DB      0EDh
0039: 4D                                DB      4Dh     ; 'M'
003A: FF                                DB      0FFh
003B: FF                                DB      0FFh
003C: FF                                DB      0FFh
003D: FF                                DB      0FFh
003E: FF                                DB      0FFh
003F: FF                                DB      0FFh
0040: FF                                DB      0FFh
0041: FF                                DB      0FFh
0042: FF                                DB      0FFh
0043: FF                                DB      0FFh
0044: FF                                DB      0FFh
0045: FF                                DB      0FFh
0046: FF                                DB      0FFh
0047: FF                                DB      0FFh
0048: FF                                DB      0FFh
0049: FF                                DB      0FFh
004A: FF                                DB      0FFh
004B: FF                                DB      0FFh
004C: FF                                DB      0FFh
004D: FF                                DB      0FFh
004E: FF                                DB      0FFh
004F: FF                                DB      0FFh
0050: FF                                DB      0FFh
0051: FF                                DB      0FFh
0052: FF                                DB      0FFh
0053: FF                                DB      0FFh
0054: FF                                DB      0FFh
0055: FF                                DB      0FFh
0056: FF                                DB      0FFh
0057: FF                                DB      0FFh
0058: FF                                DB      0FFh
0059: FF                                DB      0FFh
005A: FF                                DB      0FFh
005B: FF                                DB      0FFh
005C: FF                                DB      0FFh
005D: FF                                DB      0FFh
005E: FF                                DB      0FFh
005F: FF                                DB      0FFh
0060: FF                                DB      0FFh
0061: FF                                DB      0FFh
0062: FF                                DB      0FFh
0063: FF                                DB      0FFh
0064: FF                                DB      0FFh
0065: FF                                DB      0FFh
0066: ED                                DB      0EDh
0067: 4D                                DB      4Dh     ; 'M'
0068: FF                                DB      0FFh
0069: FF                                DB      0FFh
006A: FF                                DB      0FFh
006B: FF                                DB      0FFh
006C: FF                                DB      0FFh
006D: FF                                DB      0FFh
006E: FF                                DB      0FFh
006F: FF                                DB      0FFh
0070: FF                                DB      0FFh
0071: FF                                DB      0FFh
0072: FF                                DB      0FFh
0073: FF                                DB      0FFh
0074: FF                                DB      0FFh
0075: FF                                DB      0FFh
0076: FF                                DB      0FFh
0077: FF                                DB      0FFh
0078: FF                                DB      0FFh
0079: FF                                DB      0FFh
007A: FF                                DB      0FFh
007B: FF                                DB      0FFh
007C: FF                                DB      0FFh
007D: FF                                DB      0FFh
007E: FF                                DB      0FFh
007F: FF                                DB      0FFh
0080: FF                                DB      0FFh
0081: FF                                DB      0FFh
0082: FF                                DB      0FFh
0083: FF                                DB      0FFh
0084: FF                                DB      0FFh
0085: FF                                DB      0FFh
0086: FF                                DB      0FFh
0087: FF                                DB      0FFh
0088: FF                                DB      0FFh
0089: FF                                DB      0FFh
008A: FF                                DB      0FFh
008B: FF                                DB      0FFh
008C: FF                                DB      0FFh
008D: FF                                DB      0FFh
008E: FF                                DB      0FFh
008F: FF                                DB      0FFh
0090: FF                                DB      0FFh
0091: FF                                DB      0FFh
0092: FF                                DB      0FFh
0093: FF                                DB      0FFh
0094: FF                                DB      0FFh
0095: FF                                DB      0FFh
0096: FF                                DB      0FFh
0097: FF                                DB      0FFh
0098: FF                                DB      0FFh
0099: FF                                DB      0FFh
009A: FF                                DB      0FFh
009B: FF                                DB      0FFh
009C: FF                                DB      0FFh
009D: FF                                DB      0FFh
009E: FF                                DB      0FFh
009F: FF                                DB      0FFh
00A0: FF                                DB      0FFh
00A1: FF                                DB      0FFh
00A2: FF                                DB      0FFh
00A3: FF                                DB      0FFh
00A4: FF                                DB      0FFh
00A5: FF                                DB      0FFh
00A6: FF                                DB      0FFh
00A7: FF                                DB      0FFh
00A8: FF                                DB      0FFh
00A9: FF                                DB      0FFh
00AA: FF                                DB      0FFh
00AB: FF                                DB      0FFh
00AC: FF                                DB      0FFh
00AD: FF                                DB      0FFh
00AE: FF                                DB      0FFh
00AF: FF                                DB      0FFh
00B0: FF                                DB      0FFh
00B1: FF                                DB      0FFh
00B2: FF                                DB      0FFh
00B3: FF                                DB      0FFh
00B4: FF                                DB      0FFh
00B5: FF                                DB      0FFh
00B6: FF                                DB      0FFh
00B7: FF                                DB      0FFh
00B8: FF                                DB      0FFh
00B9: FF                                DB      0FFh
00BA: FF                                DB      0FFh
00BB: FF                                DB      0FFh
00BC: FF                                DB      0FFh
00BD: FF                                DB      0FFh
00BE: FF                                DB      0FFh
00BF: FF                                DB      0FFh
00C0: FF                                DB      0FFh
00C1: FF                                DB      0FFh
00C2: FF                                DB      0FFh
00C3: FF                                DB      0FFh
00C4: FF                                DB      0FFh
00C5: FF                                DB      0FFh
00C6: FF                                DB      0FFh
00C7: FF                                DB      0FFh
00C8: FF                                DB      0FFh
00C9: FF                                DB      0FFh
00CA: FF                                DB      0FFh
00CB: FF                                DB      0FFh
00CC: FF                                DB      0FFh
00CD: FF                                DB      0FFh
00CE: FF                                DB      0FFh
00CF: FF                                DB      0FFh
00D0: FF                                DB      0FFh
00D1: FF                                DB      0FFh
00D2: FF                                DB      0FFh
00D3: FF                                DB      0FFh
00D4: FF                                DB      0FFh
00D5: FF                                DB      0FFh
00D6: FF                                DB      0FFh
00D7: FF                                DB      0FFh
00D8: FF                                DB      0FFh
00D9: FF                                DB      0FFh
00DA: FF                                DB      0FFh
00DB: FF                                DB      0FFh
00DC: FF                                DB      0FFh
00DD: FF                                DB      0FFh
00DE: FF                                DB      0FFh
00DF: FF                                DB      0FFh
00E0: FF                                DB      0FFh
00E1: FF                                DB      0FFh
00E2: FF                                DB      0FFh
00E3: FF                                DB      0FFh
00E4: FF                                DB      0FFh
00E5: FF                                DB      0FFh
00E6: FF                                DB      0FFh
00E7: FF                                DB      0FFh
00E8: FF                                DB      0FFh
00E9: FF                                DB      0FFh
00EA: FF                                DB      0FFh
00EB: FF                                DB      0FFh
00EC: FF                                DB      0FFh
00ED: FF                                DB      0FFh
00EE: FF                                DB      0FFh
00EF: FF                                DB      0FFh
00F0: FF                                DB      0FFh
00F1: FF                                DB      0FFh
00F2: FF                                DB      0FFh
00F3: FF                                DB      0FFh
00F4: FF                                DB      0FFh
00F5: FF                                DB      0FFh
00F6: FF                                DB      0FFh
00F7: FF                                DB      0FFh
00F8: FF                                DB      0FFh
00F9: FF                                DB      0FFh
00FA: FF                                DB      0FFh
00FB: FF                                DB      0FFh
00FC: FF                                DB      0FFh
00FD: FF                                DB      0FFh
00FE: FF                                DB      0FFh
00FF: FF                                DB      0FFh

0100: 06 40                      L0100: LD      B,40h   ; '@'
0102: 10 FE                      L0102: DJNZ    L0102
0104: 31 00 F0                          LD      SP,0F000h
0107: CD F9 50                          CALL    L50F9
010A: CD 10 01                          CALL    L0110
010D: 18 FE                      L010D: JR      L010D

010F: FF                         L010F: DB      0FFh

                                        ; --- START PROC L0110 ---
0110: DD E5                      L0110: PUSH    IX
0112: DD 21 00 00                       LD      IX,0000h
0116: DD 39                             ADD     IX,SP
0118: 21 D6 FD                          LD      HL,0FDD6h
011B: 39                                ADD     HL,SP
011C: F9                                LD      SP,HL
011D: 21 4A 02                          LD      HL,024Ah
0120: E5                                PUSH    HL
0121: CD DF 12                          CALL    L12DF
0124: 21 62 02                          LD      HL,0262h
0127: E3                                EX      (SP),HL
0128: CD DF 12                          CALL    L12DF
012B: 26 01                             LD      H,01h
012D: E3                                EX      (SP),HL
012E: 33                                INC     SP
012F: 21 48 02                          LD      HL,0248h
0132: E5                                PUSH    HL
0133: 21 00 82                          LD      HL,8200h
0136: E5                                PUSH    HL
0137: CD 11 0F                          CALL    L0F11
013A: F1                                POP     AF
013B: F1                                POP     AF
013C: 33                                INC     SP
013D: 7D                                LD      A,L
013E: B7                                OR      A
013F: 28 0B                             JR      Z,L014C
0141: 21 76 02                          LD      HL,0276h
0144: E5                                PUSH    HL
0145: CD DF 12                          CALL    L12DF
0148: F1                                POP     AF
0149: C3 43 02                          JP      L0243

014C: 21 7F 02                   L014C: LD      HL,027Fh
014F: E5                                PUSH    HL
0150: CD DF 12                          CALL    L12DF
0153: 21 84 02                          LD      HL,0284h
0156: E3                                EX      (SP),HL
0157: CD DF 12                          CALL    L12DF
015A: F1                                POP     AF
015B: 21 00 00                          LD      HL,0000h
015E: 39                                ADD     HL,SP
015F: EB                                EX      DE,HL
0160: 4B                                LD      C,E
0161: 42                                LD      B,D
0162: D5                                PUSH    DE
0163: AF                                XOR     A
0164: F5                                PUSH    AF
0165: 33                                INC     SP
0166: 21 9A 02                          LD      HL,029Ah
0169: E5                                PUSH    HL
016A: C5                                PUSH    BC
016B: CD 4F 09                          CALL    L094F
016E: F1                                POP     AF
016F: F1                                POP     AF
0170: 33                                INC     SP
0171: 7D                                LD      A,L
0172: D1                                POP     DE
0173: B7                                OR      A
0174: 28 0B                             JR      Z,L0181
0176: 21 76 02                          LD      HL,0276h
0179: E5                                PUSH    HL
017A: CD DF 12                          CALL    L12DF
017D: F1                                POP     AF
017E: C3 43 02                          JP      L0243

0181: D5                         L0181: PUSH    DE
0182: 21 7F 02                          LD      HL,027Fh
0185: E5                                PUSH    HL
0186: CD DF 12                          CALL    L12DF
0189: F1                                POP     AF
018A: D1                                POP     DE
018B: 6B                                LD      L,E
018C: 62                                LD      H,D
018D: 01 0E 00                          LD      BC,000Eh
0190: 09                                ADD     HL,BC
0191: 4E                                LD      C,(HL)
0192: 06 00                             LD      B,00h
0194: D5                                PUSH    DE
0195: C5                                PUSH    BC
0196: 21 A8 02                          LD      HL,02A8h
0199: E5                                PUSH    HL
019A: 21 00 80                          LD      HL,8000h
019D: E5                                PUSH    HL
019E: CD BE 10                          CALL    L10BE
01A1: 21 06 00                          LD      HL,0006h
01A4: 39                                ADD     HL,SP
01A5: F9                                LD      SP,HL
01A6: 21 00 80                          LD      HL,8000h
01A9: E5                                PUSH    HL
01AA: CD DF 12                          CALL    L12DF
01AD: F1                                POP     AF
01AE: D1                                POP     DE
01AF: 01 00 00                          LD      BC,0000h
01B2: DD 73 FA                          LD      (IX-06h),E
01B5: DD 72 FB                          LD      (IX-05h),D
01B8: AF                         L01B8: XOR     A
01B9: DD 77 F8                          LD      (IX-08h),A
01BC: DD 77 F9                          LD      (IX-07h),A
01BF: 21 22 02                          LD      HL,0222h
01C2: 39                                ADD     HL,SP
01C3: DD 75 FC                          LD      (IX-04h),L
01C6: DD 74 FD                          LD      (IX-03h),H
01C9: DD 7E FA                          LD      A,(IX-06h)
01CC: DD 77 FE                          LD      (IX-02h),A
01CF: DD 7E FB                          LD      A,(IX-05h)
01D2: DD 77 FF                          LD      (IX-01h),A
01D5: C5                                PUSH    BC
01D6: D5                                PUSH    DE
01D7: DD 6E FC                          LD      L,(IX-04h)
01DA: DD 66 FD                          LD      H,(IX-03h)
01DD: E5                                PUSH    HL
01DE: 21 00 02                          LD      HL,0200h
01E1: E5                                PUSH    HL
01E2: 21 00 80                          LD      HL,8000h
01E5: E5                                PUSH    HL
01E6: DD 6E FE                          LD      L,(IX-02h)
01E9: DD 66 FF                          LD      H,(IX-01h)
01EC: E5                                PUSH    HL
01ED: CD 83 03                          CALL    L0383
01F0: F1                                POP     AF
01F1: F1                                POP     AF
01F2: F1                                POP     AF
01F3: F1                                POP     AF
01F4: D1                                POP     DE
01F5: C1                                POP     BC
01F6: 26 00                             LD      H,00h
01F8: C5                                PUSH    BC
01F9: D5                                PUSH    DE
01FA: E5                                PUSH    HL
01FB: 21 B2 02                          LD      HL,02B2h
01FE: E5                                PUSH    HL
01FF: 21 00 80                          LD      HL,8000h
0202: E5                                PUSH    HL
0203: CD BE 10                          CALL    L10BE
0206: 21 06 00                          LD      HL,0006h
0209: 39                                ADD     HL,SP
020A: F9                                LD      SP,HL
020B: 21 00 80                          LD      HL,8000h
020E: E5                                PUSH    HL
020F: CD DF 12                          CALL    L12DF
0212: F1                                POP     AF
0213: D1                                POP     DE
0214: C1                                POP     BC
0215: 79                                LD      A,C
0216: DD 86 F8                          ADD     A,(IX-08h)
0219: 4F                                LD      C,A
021A: 78                                LD      A,B
021B: DD 8E F9                          ADC     A,(IX-07h)
021E: 47                                LD      B,A
021F: DD 7E F9                          LD      A,(IX-07h)
0222: D6 02                             SUB     02h
0224: 30 92                             JR      NC,L01B8
0226: C5                                PUSH    BC
0227: D5                                PUSH    DE
0228: CD 59 17                          CALL    L1759
022B: 21 C3 02                          LD      HL,02C3h
022E: E3                                EX      (SP),HL
022F: 21 00 80                          LD      HL,8000h
0232: E5                                PUSH    HL
0233: CD BE 10                          CALL    L10BE
0236: 21 06 00                          LD      HL,0006h
0239: 39                                ADD     HL,SP
023A: F9                                LD      SP,HL
023B: 21 00 80                          LD      HL,8000h
023E: E5                                PUSH    HL
023F: CD DF 12                          CALL    L12DF
0242: F1                                POP     AF
0243: DD F9                      L0243: LD      SP,IX
0245: DD E1                             POP     IX
0247: C9                                RET

0248: 30                         L0248: DB      30h     ; '0'
0249: 00                                DB      00h
024A: 48 65 6C 6C 6F 20 77 6F           DB      "Hello world from Big80"
0252: 72 6C 64 20 66 72 6F 6D
025A: 20 42 69 67 38 30
0260: 0A                                DB      0Ah
0261: 00                                DB      00h
0262: 4D 6F 75 6E 74 69 6E 67           DB      "Mounting SD card..."
026A: 20 53 44 20 63 61 72 64
0272: 2E 2E 2E
0275: 00                                DB      00h
0276: 20 46 41 49 4C 45 44              DB      " FAILED"
027D: 0A                                DB      0Ah
027E: 00                                DB      00h
027F: 20                                DB      20h     ; ' '
0280: 4F                                DB      4Fh     ; 'O'
0281: 4B                                DB      4Bh     ; 'K'
0282: 0A                                DB      0Ah
0283: 00                                DB      00h
0284: 4F 70 65 6E 69 6E 67 20           DB      "Opening model1.rom..."
028C: 6D 6F 64 65 6C 31 2E 72
0294: 6F 6D 2E 2E 2E
0299: 00                                DB      00h
029A: 30 3A 2F 6D 6F 64 65 6C           DB      "0:/model1.rom"
02A2: 31 2E 72 6F 6D
02A7: 00                                DB      00h
02A8: 46 6C 61 67 3A 20 25 69           DB      "Flag: %i"
02B0: 0A                                DB      0Ah
02B1: 00                                DB      00h
02B2: 72 65 61 64 20 72 65 73           DB      "read result: %i"
02BA: 75 6C 74 3A 20 25 69
02C1: 0A                                DB      0Ah
02C2: 00                                DB      00h
02C3: 52 65 61 64 20 25 69 20           DB      "Read %i bytes."
02CB: 62 79 74 65 73 2E
02D1: 00                                DB      00h

                                        ; --- START PROC L02D2 ---
02D2: DB 91                      L02D2: IN      A,(91h)
02D4: 0F                                RRCA
02D5: 38 FB                             JR      C,L02D2
02D7: DB 91                             IN      A,(91h)
02D9: CB 77                             BIT     6,A
02DB: 28 04                             JR      Z,L02E1
02DD: 21 00 00                          LD      HL,0000h
02E0: C9                                RET

02E1: 21 02 00                   L02E1: LD      HL,0002h
02E4: C9                                RET

                                        ; --- START PROC L02E5 ---
02E5: DB 91                      L02E5: IN      A,(91h)
02E7: CB 77                             BIT     6,A
02E9: 28 04                             JR      Z,L02EF
02EB: 21 00 00                          LD      HL,0000h
02EE: C9                                RET

02EF: 21 02 00                   L02EF: LD      HL,0002h
02F2: C9                                RET

                                        ; --- START PROC L02F3 ---
02F3: DD E5                      L02F3: PUSH    IX
02F5: DD 21 00 00                       LD      IX,0000h
02F9: DD 39                             ADD     IX,SP
02FB: 21 F6 FF                          LD      HL,0FFF6h
02FE: 39                                ADD     HL,SP
02FF: F9                                LD      SP,HL
0300: 21 06 00                          LD      HL,0006h
0303: 39                                ADD     HL,SP
0304: EB                                EX      DE,HL
0305: 21 11 00                          LD      HL,0011h
0308: 39                                ADD     HL,SP
0309: 01 04 00                          LD      BC,0004h
030C: ED B0                             LDIR
030E: DD 46 05                          LD      B,(IX+05h)
0311: DD 4E 06                          LD      C,(IX+06h)
0314: DD 5E 0B                          LD      E,(IX+0Bh)
0317: DD 56 0C                          LD      D,(IX+0Ch)
031A: 7A                         L031A: LD      A,D
031B: B3                                OR      E
031C: 28 58                             JR      Z,L0376
031E: DD 70 F6                          LD      (IX-0Ah),B
0321: DD 71 F7                          LD      (IX-09h),C
0324: DD 7E FC                          LD      A,(IX-04h)
0327: DD 77 F8                          LD      (IX-08h),A
032A: DD 7E FD                          LD      A,(IX-03h)
032D: DD 77 F9                          LD      (IX-07h),A
0330: DD 7E FE                          LD      A,(IX-02h)
0333: DD 77 FA                          LD      (IX-06h),A
0336: DD 7E FF                          LD      A,(IX-01h)
0339: DD 77 FB                          LD      (IX-05h),A
033C: DD 34 FC                          INC     (IX-04h)
033F: 20 0D                             JR      NZ,L034E
0341: DD 34 FD                          INC     (IX-03h)
0344: 20 08                             JR      NZ,L034E
0346: DD 34 FE                          INC     (IX-02h)
0349: 20 03                             JR      NZ,L034E
034B: DD 34 FF                          INC     (IX-01h)
034E: C5                         L034E: PUSH    BC
034F: D5                                PUSH    DE
0350: DD 6E F6                          LD      L,(IX-0Ah)
0353: DD 66 F7                          LD      H,(IX-09h)
0356: E5                                PUSH    HL
0357: DD 6E FA                          LD      L,(IX-06h)
035A: DD 66 FB                          LD      H,(IX-05h)
035D: E5                                PUSH    HL
035E: DD 6E F8                          LD      L,(IX-08h)
0361: DD 66 F9                          LD      H,(IX-07h)
0364: E5                                PUSH    HL
0365: CD 53 12                          CALL    L1253
0368: 21 06 00                          LD      HL,0006h
036B: 39                                ADD     HL,SP
036C: F9                                LD      SP,HL
036D: D1                                POP     DE
036E: C1                                POP     BC
036F: 79                                LD      A,C
0370: C6 02                             ADD     A,02h
0372: 4F                                LD      C,A
0373: 1B                                DEC     DE
0374: 18 A4                             JR      L031A

0376: 2E 00                      L0376: LD      L,00h
0378: DD F9                             LD      SP,IX
037A: DD E1                             POP     IX
037C: C9                                RET

                                        ; --- START PROC L037D ---
037D: 2E 04                      L037D: LD      L,04h
037F: C9                                RET

                                        ; --- START PROC L0380 ---
0380: 2E 04                      L0380: LD      L,04h
0382: C9                                RET

                                        ; --- START PROC L0383 ---
0383: CD D2 13                   L0383: CALL    L13D2
0386: 21 D4 FF                          LD      HL,0FFD4h
0389: 39                                ADD     HL,SP
038A: F9                                LD      SP,HL
038B: DD 7E 06                          LD      A,(IX+06h)
038E: DD 77 FE                          LD      (IX-02h),A
0391: DD 7E 07                          LD      A,(IX+07h)
0394: DD 77 FF                          LD      (IX-01h),A
0397: DD 7E 0A                          LD      A,(IX+0Ah)
039A: DD 77 DA                          LD      (IX-26h),A
039D: DD 7E 0B                          LD      A,(IX+0Bh)
03A0: DD 77 DB                          LD      (IX-25h),A
03A3: DD 6E DA                          LD      L,(IX-26h)
03A6: DD 66 DB                          LD      H,(IX-25h)
03A9: AF                                XOR     A
03AA: 77                                LD      (HL),A
03AB: 23                                INC     HL
03AC: 77                                LD      (HL),A
03AD: 21 04 00                          LD      HL,0004h
03B0: 39                                ADD     HL,SP
03B1: DD 7E 04                          LD      A,(IX+04h)
03B4: DD 77 DC                          LD      (IX-24h),A
03B7: DD 7E 05                          LD      A,(IX+05h)
03BA: DD 77 DD                          LD      (IX-23h),A
03BD: E5                                PUSH    HL
03BE: DD 6E DC                          LD      L,(IX-24h)
03C1: DD 66 DD                          LD      H,(IX-23h)
03C4: E5                                PUSH    HL
03C5: CD F2 10                          CALL    L10F2
03C8: F1                                POP     AF
03C9: F1                                POP     AF
03CA: 4D                                LD      C,L
03CB: DD 71 FD                          LD      (IX-03h),C
03CE: 79                                LD      A,C
03CF: B7                                OR      A
03D0: 20 1D                             JR      NZ,L03EF
03D2: DD 7E DC                          LD      A,(IX-24h)
03D5: C6 0F                             ADD     A,0Fh
03D7: DD 77 DE                          LD      (IX-22h),A
03DA: DD 7E DD                          LD      A,(IX-23h)
03DD: CE 00                             ADC     A,00h
03DF: DD 77 DF                          LD      (IX-21h),A
03E2: DD 6E DE                          LD      L,(IX-22h)
03E5: DD 66 DF                          LD      H,(IX-21h)
03E8: 7E                                LD      A,(HL)
03E9: DD 77 FD                          LD      (IX-03h),A
03EC: B7                                OR      A
03ED: 28 06                             JR      Z,L03F5
03EF: DD 6E FD                   L03EF: LD      L,(IX-03h)
03F2: C3 13 09                          JP      L0913

03F5: DD 7E DC                   L03F5: LD      A,(IX-24h)
03F8: DD 77 E0                          LD      (IX-20h),A
03FB: DD 7E DD                          LD      A,(IX-23h)
03FE: DD 77 E1                          LD      (IX-1Fh),A
0401: DD 7E DC                          LD      A,(IX-24h)
0404: C6 0E                             ADD     A,0Eh
0406: DD 77 E2                          LD      (IX-1Eh),A
0409: DD 7E DD                          LD      A,(IX-23h)
040C: CE 00                             ADC     A,00h
040E: DD 77 E3                          LD      (IX-1Dh),A
0411: DD 6E E2                          LD      L,(IX-1Eh)
0414: DD 66 E3                          LD      H,(IX-1Dh)
0417: 7E                                LD      A,(HL)
0418: 0F                                RRCA
0419: 38 05                             JR      C,L0420
041B: 2E 07                             LD      L,07h
041D: C3 13 09                          JP      L0913

0420: DD 6E DC                   L0420: LD      L,(IX-24h)
0423: DD 66 DD                          LD      H,(IX-23h)
0426: 11 0A 00                          LD      DE,000Ah
0429: 19                                ADD     HL,DE
042A: 4E                                LD      C,(HL)
042B: 23                                INC     HL
042C: 46                                LD      B,(HL)
042D: 23                                INC     HL
042E: 5E                                LD      E,(HL)
042F: 23                                INC     HL
0430: 56                                LD      D,(HL)
0431: DD 7E DC                          LD      A,(IX-24h)
0434: C6 10                             ADD     A,10h
0436: DD 77 E4                          LD      (IX-1Ch),A
0439: DD 7E DD                          LD      A,(IX-23h)
043C: CE 00                             ADC     A,00h
043E: DD 77 E5                          LD      (IX-1Bh),A
0441: D5                                PUSH    DE
0442: C5                                PUSH    BC
0443: DD 5E E4                          LD      E,(IX-1Ch)
0446: DD 56 E5                          LD      D,(IX-1Bh)
0449: 21 2A 00                          LD      HL,002Ah
044C: 39                                ADD     HL,SP
044D: EB                                EX      DE,HL
044E: 01 04 00                          LD      BC,0004h
0451: ED B0                             LDIR
0453: C1                                POP     BC
0454: D1                                POP     DE
0455: 79                                LD      A,C
0456: DD 96 FA                          SUB     (IX-06h)
0459: 4F                                LD      C,A
045A: 78                                LD      A,B
045B: DD 9E FB                          SBC     A,(IX-05h)
045E: 47                                LD      B,A
045F: 7B                                LD      A,E
0460: DD 9E FC                          SBC     A,(IX-04h)
0463: 5F                                LD      E,A
0464: 7A                                LD      A,D
0465: DD 9E FD                          SBC     A,(IX-03h)
0468: 57                                LD      D,A
0469: DD 7E 08                          LD      A,(IX+08h)
046C: DD 77 FA                          LD      (IX-06h),A
046F: DD 7E 09                          LD      A,(IX+09h)
0472: DD 77 FB                          LD      (IX-05h),A
0475: AF                                XOR     A
0476: DD 77 FC                          LD      (IX-04h),A
0479: DD 77 FD                          LD      (IX-03h),A
047C: 79                                LD      A,C
047D: DD 96 FA                          SUB     (IX-06h)
0480: 78                                LD      A,B
0481: DD 9E FB                          SBC     A,(IX-05h)
0484: 7B                                LD      A,E
0485: DD 9E FC                          SBC     A,(IX-04h)
0488: 7A                                LD      A,D
0489: DD 9E FD                          SBC     A,(IX-03h)
048C: 30 06                             JR      NC,L0494
048E: DD 71 08                          LD      (IX+08h),C
0491: DD 70 09                          LD      (IX+09h),B
0494: DD 7E DC                   L0494: LD      A,(IX-24h)
0497: DD 77 E6                          LD      (IX-1Ah),A
049A: DD 7E DD                          LD      A,(IX-23h)
049D: DD 77 E7                          LD      (IX-19h),A
04A0: DD 7E DC                          LD      A,(IX-24h)
04A3: DD 77 E8                          LD      (IX-18h),A
04A6: DD 7E DD                          LD      A,(IX-23h)
04A9: DD 77 E9                          LD      (IX-17h),A
04AC: DD 7E E4                          LD      A,(IX-1Ch)
04AF: DD 77 EA                          LD      (IX-16h),A
04B2: DD 7E E5                          LD      A,(IX-1Bh)
04B5: DD 77 EB                          LD      (IX-15h),A
04B8: DD 7E DC                          LD      A,(IX-24h)
04BB: C6 22                             ADD     A,22h   ; '"'
04BD: DD 77 EC                          LD      (IX-14h),A
04C0: DD 7E DD                          LD      A,(IX-23h)
04C3: CE 00                             ADC     A,00h
04C5: DD 77 ED                          LD      (IX-13h),A
04C8: DD 7E DC                          LD      A,(IX-24h)
04CB: DD 77 EE                          LD      (IX-12h),A
04CE: DD 7E DD                          LD      A,(IX-23h)
04D1: DD 77 EF                          LD      (IX-11h),A
04D4: DD 7E 09                   L04D4: LD      A,(IX+09h)
04D7: DD B6 08                          OR      (IX+08h)
04DA: CA 11 09                          JP      Z,L0911
04DD: DD 5E E4                          LD      E,(IX-1Ch)
04E0: DD 56 E5                          LD      D,(IX-1Bh)
04E3: 21 26 00                          LD      HL,0026h
04E6: 39                                ADD     HL,SP
04E7: EB                                EX      DE,HL
04E8: 01 04 00                          LD      BC,0004h
04EB: ED B0                             LDIR
04ED: DD 7E FA                          LD      A,(IX-06h)
04F0: B7                                OR      A
04F1: C2 47 08                          JP      NZ,L0847
04F4: DD CB FB 46                       BIT     0,(IX-05h)
04F8: C2 47 08                          JP      NZ,L0847
04FB: DD 4E FB                          LD      C,(IX-05h)
04FE: DD 46 FC                          LD      B,(IX-04h)
0501: DD 5E FD                          LD      E,(IX-03h)
0504: CB 3B                             SRL     E
0506: CB 18                             RR      B
0508: CB 19                             RR      C
050A: DD 6E D8                          LD      L,(IX-28h)
050D: DD 66 D9                          LD      H,(IX-27h)
0510: C5                                PUSH    BC
0511: 01 0A 00                          LD      BC,000Ah
0514: 09                                ADD     HL,BC
0515: C1                                POP     BC
0516: 7E                                LD      A,(HL)
0517: 2B                                DEC     HL
0518: 6E                                LD      L,(HL)
0519: 67                                LD      H,A
051A: 2B                                DEC     HL
051B: 7D                                LD      A,L
051C: A1                                AND     C
051D: 4F                                LD      C,A
051E: 7C                                LD      A,H
051F: A0                                AND     B
0520: 47                                LD      B,A
0521: DD 71 F0                          LD      (IX-10h),C
0524: DD 70 F1                          LD      (IX-0Fh),B
0527: 78                                LD      A,B
0528: DD B6 F0                          OR      (IX-10h)
052B: C2 E7 05                          JP      NZ,L05E7
052E: DD 7E FD                          LD      A,(IX-03h)
0531: DD B6 FC                          OR      (IX-04h)
0534: DD B6 FB                          OR      (IX-05h)
0537: DD B6 FA                          OR      (IX-06h)
053A: 20 1F                             JR      NZ,L055B
053C: DD 6E E6                          LD      L,(IX-1Ah)
053F: DD 66 E7                          LD      H,(IX-19h)
0542: 11 06 00                          LD      DE,0006h
0545: 19                                ADD     HL,DE
0546: 7E                                LD      A,(HL)
0547: DD 77 FA                          LD      (IX-06h),A
054A: 23                                INC     HL
054B: 7E                                LD      A,(HL)
054C: DD 77 FB                          LD      (IX-05h),A
054F: 23                                INC     HL
0550: 7E                                LD      A,(HL)
0551: DD 77 FC                          LD      (IX-04h),A
0554: 23                                INC     HL
0555: 7E                                LD      A,(HL)
0556: DD 77 FD                          LD      (IX-03h),A
0559: 18 38                             JR      L0593

055B: DD 7E E0                   L055B: LD      A,(IX-20h)
055E: DD 77 FC                          LD      (IX-04h),A
0561: DD 7E E1                          LD      A,(IX-1Fh)
0564: DD 77 FD                          LD      (IX-03h),A
0567: DD 6E FC                          LD      L,(IX-04h)
056A: DD 66 FD                          LD      H,(IX-03h)
056D: 11 14 00                          LD      DE,0014h
0570: 19                                ADD     HL,DE
0571: 4E                                LD      C,(HL)
0572: 23                                INC     HL
0573: 46                                LD      B,(HL)
0574: 23                                INC     HL
0575: 5E                                LD      E,(HL)
0576: 23                                INC     HL
0577: 56                                LD      D,(HL)
0578: D5                                PUSH    DE
0579: C5                                PUSH    BC
057A: DD 6E E0                          LD      L,(IX-20h)
057D: DD 66 E1                          LD      H,(IX-1Fh)
0580: E5                                PUSH    HL
0581: CD 4B 14                          CALL    L144B
0584: F1                                POP     AF
0585: F1                                POP     AF
0586: F1                                POP     AF
0587: DD 75 FA                          LD      (IX-06h),L
058A: DD 74 FB                          LD      (IX-05h),H
058D: DD 73 FC                          LD      (IX-04h),E
0590: DD 72 FD                          LD      (IX-03h),D
0593: DD 7E FA                   L0593: LD      A,(IX-06h)
0596: D6 02                             SUB     02h
0598: DD 7E FB                          LD      A,(IX-05h)
059B: DE 00                             SBC     A,00h
059D: DD 7E FC                          LD      A,(IX-04h)
05A0: DE 00                             SBC     A,00h
05A2: DD 7E FD                          LD      A,(IX-03h)
05A5: DE 00                             SBC     A,00h
05A7: 30 0D                             JR      NC,L05B6
05A9: DD 6E DE                          LD      L,(IX-22h)
05AC: DD 66 DF                          LD      H,(IX-21h)
05AF: 36 02                             LD      (HL),02h
05B1: 2E 02                             LD      L,02h
05B3: C3 13 09                          JP      L0913

05B6: DD 7E FA                   L05B6: LD      A,(IX-06h)
05B9: DD A6 FB                          AND     (IX-05h)
05BC: DD A6 FC                          AND     (IX-04h)
05BF: DD A6 FD                          AND     (IX-03h)
05C2: 3C                                INC     A
05C3: 20 0D                             JR      NZ,L05D2
05C5: DD 6E DE                          LD      L,(IX-22h)
05C8: DD 66 DF                          LD      H,(IX-21h)
05CB: 36 01                             LD      (HL),01h
05CD: 2E 01                             LD      L,01h
05CF: C3 13 09                          JP      L0913

05D2: DD 7E E8                   L05D2: LD      A,(IX-18h)
05D5: C6 14                             ADD     A,14h
05D7: 5F                                LD      E,A
05D8: DD 7E E9                          LD      A,(IX-17h)
05DB: CE 00                             ADC     A,00h
05DD: 57                                LD      D,A
05DE: 21 26 00                          LD      HL,0026h
05E1: 39                                ADD     HL,SP
05E2: 01 04 00                          LD      BC,0004h
05E5: ED B0                             LDIR
05E7: DD 6E DC                   L05E7: LD      L,(IX-24h)
05EA: DD 66 DD                          LD      H,(IX-23h)
05ED: 11 14 00                          LD      DE,0014h
05F0: 19                                ADD     HL,DE
05F1: 4E                                LD      C,(HL)
05F2: 23                                INC     HL
05F3: 46                                LD      B,(HL)
05F4: 23                                INC     HL
05F5: 5E                                LD      E,(HL)
05F6: 23                                INC     HL
05F7: 56                                LD      D,(HL)
05F8: D5                                PUSH    DE
05F9: C5                                PUSH    BC
05FA: DD 6E D8                          LD      L,(IX-28h)
05FD: DD 66 D9                          LD      H,(IX-27h)
0600: E5                                PUSH    HL
0601: CD 0B 13                          CALL    L130B
0604: F1                                POP     AF
0605: F1                                POP     AF
0606: F1                                POP     AF
0607: 7A                                LD      A,D
0608: B3                                OR      E
0609: B4                                OR      H
060A: B5                                OR      L
060B: 20 0D                             JR      NZ,L061A
060D: DD 6E DE                          LD      L,(IX-22h)
0610: DD 66 DF                          LD      H,(IX-21h)
0613: 36 02                             LD      (HL),02h
0615: 2E 02                             LD      L,02h
0617: C3 13 09                          JP      L0913

061A: DD 7E F0                   L061A: LD      A,(IX-10h)
061D: DD 77 FA                          LD      (IX-06h),A
0620: DD 7E F1                          LD      A,(IX-0Fh)
0623: DD 77 FB                          LD      (IX-05h),A
0626: AF                                XOR     A
0627: DD 77 FC                          LD      (IX-04h),A
062A: DD 77 FD                          LD      (IX-03h),A
062D: 7D                                LD      A,L
062E: DD 86 FA                          ADD     A,(IX-06h)
0631: 4F                                LD      C,A
0632: 7C                                LD      A,H
0633: DD 8E FB                          ADC     A,(IX-05h)
0636: 47                                LD      B,A
0637: 7B                                LD      A,E
0638: DD 8E FC                          ADC     A,(IX-04h)
063B: 5F                                LD      E,A
063C: 7A                                LD      A,D
063D: DD 8E FD                          ADC     A,(IX-03h)
0640: 57                                LD      D,A
0641: DD 71 F2                          LD      (IX-0Eh),C
0644: DD 70 F3                          LD      (IX-0Dh),B
0647: DD 73 F4                          LD      (IX-0Ch),E
064A: DD 72 F5                          LD      (IX-0Bh),D
064D: DD 7E 09                          LD      A,(IX+09h)
0650: CB 3F                             SRL     A
0652: 4F                                LD      C,A
0653: 06 00                             LD      B,00h
0655: DD 5E D8                          LD      E,(IX-28h)
0658: DD 56 D9                          LD      D,(IX-27h)
065B: DD 7E DC                          LD      A,(IX-24h)
065E: C6 18                             ADD     A,18h
0660: DD 77 F6                          LD      (IX-0Ah),A
0663: DD 7E DD                          LD      A,(IX-23h)
0666: CE 00                             ADC     A,00h
0668: DD 77 F7                          LD      (IX-09h),A
066B: DD 7E DC                          LD      A,(IX-24h)
066E: C6 22                             ADD     A,22h   ; '"'
0670: DD 77 F8                          LD      (IX-08h),A
0673: DD 7E DD                          LD      A,(IX-23h)
0676: CE 00                             ADC     A,00h
0678: DD 77 F9                          LD      (IX-07h),A
067B: 21 01 00                          LD      HL,0001h
067E: 19                                ADD     HL,DE
067F: DD 75 FA                          LD      (IX-06h),L
0682: DD 74 FB                          LD      (IX-05h),H
0685: 78                                LD      A,B
0686: B1                                OR      C
0687: CA 82 07                          JP      Z,L0782
068A: DD 7E F0                          LD      A,(IX-10h)
068D: 81                                ADD     A,C
068E: DD 77 FC                          LD      (IX-04h),A
0691: DD 7E F1                          LD      A,(IX-0Fh)
0694: 88                                ADC     A,B
0695: DD 77 FD                          LD      (IX-03h),A
0698: EB                                EX      DE,HL
0699: 11 09 00                          LD      DE,0009h
069C: 19                                ADD     HL,DE
069D: 5E                                LD      E,(HL)
069E: 23                                INC     HL
069F: 56                                LD      D,(HL)
06A0: DD 6E FC                          LD      L,(IX-04h)
06A3: DD 66 FD                          LD      H,(IX-03h)
06A6: 7B                                LD      A,E
06A7: 95                                SUB     L
06A8: 7A                                LD      A,D
06A9: 9C                                SBC     A,H
06AA: 30 0A                             JR      NC,L06B6
06AC: 7B                                LD      A,E
06AD: DD 96 F0                          SUB     (IX-10h)
06B0: 4F                                LD      C,A
06B1: 7A                                LD      A,D
06B2: DD 9E F1                          SBC     A,(IX-0Fh)
06B5: 47                                LD      B,A
06B6: DD 6E FA                   L06B6: LD      L,(IX-06h)
06B9: DD 66 FB                          LD      H,(IX-05h)
06BC: 56                                LD      D,(HL)
06BD: C5                                PUSH    BC
06BE: C5                                PUSH    BC
06BF: DD 6E F4                          LD      L,(IX-0Ch)
06C2: DD 66 F5                          LD      H,(IX-0Bh)
06C5: E5                                PUSH    HL
06C6: DD 6E F2                          LD      L,(IX-0Eh)
06C9: DD 66 F3                          LD      H,(IX-0Dh)
06CC: E5                                PUSH    HL
06CD: DD 6E FE                          LD      L,(IX-02h)
06D0: DD 66 FF                          LD      H,(IX-01h)
06D3: E5                                PUSH    HL
06D4: D5                                PUSH    DE
06D5: 33                                INC     SP
06D6: CD F3 02                          CALL    L02F3
06D9: FD 21 09 00                       LD      IY,0009h
06DD: FD 39                             ADD     IY,SP
06DF: FD F9                             LD      SP,IY
06E1: 7D                                LD      A,L
06E2: C1                                POP     BC
06E3: B7                                OR      A
06E4: 28 0D                             JR      Z,L06F3
06E6: DD 6E DE                          LD      L,(IX-22h)
06E9: DD 66 DF                          LD      H,(IX-21h)
06EC: 36 01                             LD      (HL),01h
06EE: 2E 01                             LD      L,01h
06F0: C3 13 09                          JP      L0913

06F3: DD 6E E2                   L06F3: LD      L,(IX-1Eh)
06F6: DD 66 E3                          LD      H,(IX-1Dh)
06F9: 7E                                LD      A,(HL)
06FA: 07                                RLCA
06FB: D2 7A 07                          JP      NC,L077A
06FE: C5                                PUSH    BC
06FF: DD 5E F6                          LD      E,(IX-0Ah)
0702: DD 56 F7                          LD      D,(IX-09h)
0705: 21 28 00                          LD      HL,0028h
0708: 39                                ADD     HL,SP
0709: EB                                EX      DE,HL
070A: 01 04 00                          LD      BC,0004h
070D: ED B0                             LDIR
070F: C1                                POP     BC
0710: DD 7E FA                          LD      A,(IX-06h)
0713: DD 96 F2                          SUB     (IX-0Eh)
0716: 5F                                LD      E,A
0717: DD 7E FB                          LD      A,(IX-05h)
071A: DD 9E F3                          SBC     A,(IX-0Dh)
071D: 57                                LD      D,A
071E: DD 7E FC                          LD      A,(IX-04h)
0721: DD 9E F4                          SBC     A,(IX-0Ch)
0724: 6F                                LD      L,A
0725: DD 7E FD                          LD      A,(IX-03h)
0728: DD 9E F5                          SBC     A,(IX-0Bh)
072B: 67                                LD      H,A
072C: DD 71 D4                          LD      (IX-2Ch),C
072F: DD 70 D5                          LD      (IX-2Bh),B
0732: AF                                XOR     A
0733: DD 77 D6                          LD      (IX-2Ah),A
0736: DD 77 D7                          LD      (IX-29h),A
0739: 7B                                LD      A,E
073A: DD 96 D4                          SUB     (IX-2Ch)
073D: 7A                                LD      A,D
073E: DD 9E D5                          SBC     A,(IX-2Bh)
0741: 7D                                LD      A,L
0742: DD 9E D6                          SBC     A,(IX-2Ah)
0745: 7C                                LD      A,H
0746: DD 9E D7                          SBC     A,(IX-29h)
0749: 30 2F                             JR      NC,L077A
074B: DD 6E FA                          LD      L,(IX-06h)
074E: DD 66 FB                          LD      H,(IX-05h)
0751: DD 5E F2                          LD      E,(IX-0Eh)
0754: DD 56 F3                          LD      D,(IX-0Dh)
0757: BF                                CP      A
0758: ED 52                             SBC     HL,DE
075A: 7D                                LD      A,L
075B: 87                                ADD     A,A
075C: 57                                LD      D,A
075D: 1E 00                             LD      E,00h
075F: DD 6E FE                          LD      L,(IX-02h)
0762: DD 66 FF                          LD      H,(IX-01h)
0765: 19                                ADD     HL,DE
0766: C5                                PUSH    BC
0767: 11 00 02                          LD      DE,0200h
076A: D5                                PUSH    DE
076B: DD 5E F8                          LD      E,(IX-08h)
076E: DD 56 F9                          LD      D,(IX-07h)
0771: D5                                PUSH    DE
0772: E5                                PUSH    HL
0773: CD 18 09                          CALL    L0918
0776: F1                                POP     AF
0777: F1                                POP     AF
0778: F1                                POP     AF
0779: C1                                POP     BC
077A: 79                         L077A: LD      A,C
077B: 87                                ADD     A,A
077C: 47                                LD      B,A
077D: 0E 00                             LD      C,00h
077F: C3 9B 08                          JP      L089B

0782: DD 6E F6                   L0782: LD      L,(IX-0Ah)
0785: DD 66 F7                          LD      H,(IX-09h)
0788: 4E                                LD      C,(HL)
0789: 23                                INC     HL
078A: 46                                LD      B,(HL)
078B: 23                                INC     HL
078C: 5E                                LD      E,(HL)
078D: 23                                INC     HL
078E: 56                                LD      D,(HL)
078F: DD 7E F2                          LD      A,(IX-0Eh)
0792: 91                                SUB     C
0793: 20 12                             JR      NZ,L07A7
0795: DD 7E F3                          LD      A,(IX-0Dh)
0798: 90                                SUB     B
0799: 20 0C                             JR      NZ,L07A7
079B: DD 6E F4                          LD      L,(IX-0Ch)
079E: DD 66 F5                          LD      H,(IX-0Bh)
07A1: BF                                CP      A
07A2: ED 52                             SBC     HL,DE
07A4: CA 38 08                          JP      Z,L0838
07A7: DD 6E E2                   L07A7: LD      L,(IX-1Eh)
07AA: DD 66 E3                          LD      H,(IX-1Dh)
07AD: 7E                                LD      A,(HL)
07AE: 07                                RLCA
07AF: 30 48                             JR      NC,L07F9
07B1: DD 6E FA                          LD      L,(IX-06h)
07B4: DD 66 FB                          LD      H,(IX-05h)
07B7: 7E                                LD      A,(HL)
07B8: DD 77 FD                          LD      (IX-03h),A
07BB: 21 01 00                          LD      HL,0001h
07BE: E5                                PUSH    HL
07BF: D5                                PUSH    DE
07C0: C5                                PUSH    BC
07C1: DD 6E F8                          LD      L,(IX-08h)
07C4: DD 66 F9                          LD      H,(IX-07h)
07C7: E5                                PUSH    HL
07C8: DD 7E FD                          LD      A,(IX-03h)
07CB: F5                                PUSH    AF
07CC: 33                                INC     SP
07CD: CD 7D 03                          CALL    L037D
07D0: FD 21 09 00                       LD      IY,0009h
07D4: FD 39                             ADD     IY,SP
07D6: FD F9                             LD      SP,IY
07D8: 7D                                LD      A,L
07D9: B7                                OR      A
07DA: 28 0D                             JR      Z,L07E9
07DC: DD 6E DE                          LD      L,(IX-22h)
07DF: DD 66 DF                          LD      H,(IX-21h)
07E2: 36 01                             LD      (HL),01h
07E4: 2E 01                             LD      L,01h
07E6: C3 13 09                          JP      L0913

07E9: DD 6E E2                   L07E9: LD      L,(IX-1Eh)
07EC: DD 66 E3                          LD      H,(IX-1Dh)
07EF: 7E                                LD      A,(HL)
07F0: CB BF                             RES     7,A
07F2: DD 6E E2                          LD      L,(IX-1Eh)
07F5: DD 66 E3                          LD      H,(IX-1Dh)
07F8: 77                                LD      (HL),A
07F9: DD 6E D8                   L07F9: LD      L,(IX-28h)
07FC: DD 66 D9                          LD      H,(IX-27h)
07FF: 23                                INC     HL
0800: 46                                LD      B,(HL)
0801: 21 01 00                          LD      HL,0001h
0804: E5                                PUSH    HL
0805: DD 6E F4                          LD      L,(IX-0Ch)
0808: DD 66 F5                          LD      H,(IX-0Bh)
080B: E5                                PUSH    HL
080C: DD 6E F2                          LD      L,(IX-0Eh)
080F: DD 66 F3                          LD      H,(IX-0Dh)
0812: E5                                PUSH    HL
0813: DD 6E F8                          LD      L,(IX-08h)
0816: DD 66 F9                          LD      H,(IX-07h)
0819: E5                                PUSH    HL
081A: C5                                PUSH    BC
081B: 33                                INC     SP
081C: CD F3 02                          CALL    L02F3
081F: FD 21 09 00                       LD      IY,0009h
0823: FD 39                             ADD     IY,SP
0825: FD F9                             LD      SP,IY
0827: 7D                                LD      A,L
0828: B7                                OR      A
0829: 28 0D                             JR      Z,L0838
082B: DD 6E DE                          LD      L,(IX-22h)
082E: DD 66 DF                          LD      H,(IX-21h)
0831: 36 01                             LD      (HL),01h
0833: 2E 01                             LD      L,01h
0835: C3 13 09                          JP      L0913

0838: DD 5E F6                   L0838: LD      E,(IX-0Ah)
083B: DD 56 F7                          LD      D,(IX-09h)
083E: 21 1E 00                          LD      HL,001Eh
0841: 39                                ADD     HL,SP
0842: 01 04 00                          LD      BC,0004h
0845: ED B0                             LDIR
0847: DD 5E EA                   L0847: LD      E,(IX-16h)
084A: DD 56 EB                          LD      D,(IX-15h)
084D: 21 26 00                          LD      HL,0026h
0850: 39                                ADD     HL,SP
0851: EB                                EX      DE,HL
0852: 01 04 00                          LD      BC,0004h
0855: ED B0                             LDIR
0857: DD 4E FA                          LD      C,(IX-06h)
085A: DD 7E FB                          LD      A,(IX-05h)
085D: E6 01                             AND     01h
085F: 47                                LD      B,A
0860: AF                                XOR     A
0861: 91                                SUB     C
0862: 4F                                LD      C,A
0863: 3E 02                             LD      A,02h
0865: 98                                SBC     A,B
0866: 47                                LD      B,A
0867: DD 7E 08                          LD      A,(IX+08h)
086A: 91                                SUB     C
086B: DD 7E 09                          LD      A,(IX+09h)
086E: 98                                SBC     A,B
086F: 30 06                             JR      NC,L0877
0871: DD 4E 08                          LD      C,(IX+08h)
0874: DD 46 09                          LD      B,(IX+09h)
0877: DD 5E FA                   L0877: LD      E,(IX-06h)
087A: DD 7E FB                          LD      A,(IX-05h)
087D: E6 01                             AND     01h
087F: 57                                LD      D,A
0880: 7B                                LD      A,E
0881: DD 86 EC                          ADD     A,(IX-14h)
0884: 5F                                LD      E,A
0885: 7A                                LD      A,D
0886: DD 8E ED                          ADC     A,(IX-13h)
0889: 57                                LD      D,A
088A: DD 6E FE                          LD      L,(IX-02h)
088D: DD 66 FF                          LD      H,(IX-01h)
0890: C5                                PUSH    BC
0891: C5                                PUSH    BC
0892: D5                                PUSH    DE
0893: E5                                PUSH    HL
0894: CD 18 09                          CALL    L0918
0897: F1                                POP     AF
0898: F1                                POP     AF
0899: F1                                POP     AF
089A: C1                                POP     BC
089B: DD 7E 08                   L089B: LD      A,(IX+08h)
089E: 91                                SUB     C
089F: DD 77 08                          LD      (IX+08h),A
08A2: DD 7E 09                          LD      A,(IX+09h)
08A5: 98                                SBC     A,B
08A6: DD 77 09                          LD      (IX+09h),A
08A9: DD 6E DA                          LD      L,(IX-26h)
08AC: DD 66 DB                          LD      H,(IX-25h)
08AF: 7E                                LD      A,(HL)
08B0: 23                                INC     HL
08B1: 66                                LD      H,(HL)
08B2: 6F                                LD      L,A
08B3: 09                                ADD     HL,BC
08B4: EB                                EX      DE,HL
08B5: DD 6E DA                          LD      L,(IX-26h)
08B8: DD 66 DB                          LD      H,(IX-25h)
08BB: 73                                LD      (HL),E
08BC: 23                                INC     HL
08BD: 72                                LD      (HL),D
08BE: DD 7E FE                          LD      A,(IX-02h)
08C1: 81                                ADD     A,C
08C2: DD 77 FE                          LD      (IX-02h),A
08C5: DD 7E FF                          LD      A,(IX-01h)
08C8: 88                                ADC     A,B
08C9: DD 77 FF                          LD      (IX-01h),A
08CC: DD 7E EE                          LD      A,(IX-12h)
08CF: C6 10                             ADD     A,10h
08D1: 5F                                LD      E,A
08D2: DD 7E EF                          LD      A,(IX-11h)
08D5: CE 00                             ADC     A,00h
08D7: 57                                LD      D,A
08D8: D5                                PUSH    DE
08D9: C5                                PUSH    BC
08DA: 21 26 00                          LD      HL,0026h
08DD: 39                                ADD     HL,SP
08DE: EB                                EX      DE,HL
08DF: 01 04 00                          LD      BC,0004h
08E2: ED B0                             LDIR
08E4: C1                                POP     BC
08E5: D1                                POP     DE
08E6: 21 00 00                          LD      HL,0000h
08E9: 79                                LD      A,C
08EA: DD 86 F6                          ADD     A,(IX-0Ah)
08ED: DD 77 FA                          LD      (IX-06h),A
08F0: 78                                LD      A,B
08F1: DD 8E F7                          ADC     A,(IX-09h)
08F4: DD 77 FB                          LD      (IX-05h),A
08F7: 7D                                LD      A,L
08F8: DD 8E F8                          ADC     A,(IX-08h)
08FB: DD 77 FC                          LD      (IX-04h),A
08FE: 7C                                LD      A,H
08FF: DD 8E F9                          ADC     A,(IX-07h)
0902: DD 77 FD                          LD      (IX-03h),A
0905: 21 26 00                          LD      HL,0026h
0908: 39                                ADD     HL,SP
0909: 01 04 00                          LD      BC,0004h
090C: ED B0                             LDIR
090E: C3 D4 04                          JP      L04D4

0911: 2E 00                      L0911: LD      L,00h
0913: DD F9                      L0913: LD      SP,IX
0915: DD E1                             POP     IX
0917: C9                                RET

                                        ; --- START PROC L0918 ---
0918: CD D2 13                   L0918: CALL    L13D2
091B: F5                                PUSH    AF
091C: DD 4E 04                          LD      C,(IX+04h)
091F: DD 46 05                          LD      B,(IX+05h)
0922: DD 5E 06                          LD      E,(IX+06h)
0925: DD 56 07                          LD      D,(IX+07h)
0928: DD 7E 09                          LD      A,(IX+09h)
092B: DD B6 08                          OR      (IX+08h)
092E: 28 1B                             JR      Z,L094B
0930: 33                                INC     SP
0931: 33                                INC     SP
0932: C5                                PUSH    BC
0933: DD 4E 08                          LD      C,(IX+08h)
0936: DD 46 09                          LD      B,(IX+09h)
0939: 1A                         L0939: LD      A,(DE)
093A: 13                                INC     DE
093B: E1                                POP     HL
093C: E5                                PUSH    HL
093D: 77                                LD      (HL),A
093E: DD 34 FE                          INC     (IX-02h)
0941: 20 03                             JR      NZ,L0946
0943: DD 34 FF                          INC     (IX-01h)
0946: 0B                         L0946: DEC     BC
0947: 78                                LD      A,B
0948: B1                                OR      C
0949: 20 EE                             JR      NZ,L0939
094B: F1                         L094B: POP     AF
094C: DD E1                             POP     IX
094E: C9                                RET

                                        ; --- START PROC L094F ---
094F: CD D2 13                   L094F: CALL    L13D2
0952: 21 BF FF                          LD      HL,0FFBFh
0955: 39                                ADD     HL,SP
0956: F9                                LD      SP,HL
0957: DD 7E 05                          LD      A,(IX+05h)
095A: DD B6 04                          OR      (IX+04h)
095D: 20 05                             JR      NZ,L0964
095F: 2E 09                             LD      L,09h
0961: C3 0C 0F                          JP      L0F0C

0964: DD 7E 08                   L0964: LD      A,(IX+08h)
0967: E6 3F                             AND     3Fh     ; '?'
0969: DD 77 08                          LD      (IX+08h),A
096C: 21 2A 00                          LD      HL,002Ah
096F: 39                                ADD     HL,SP
0970: EB                                EX      DE,HL
0971: 21 47 00                          LD      HL,0047h
0974: 39                                ADD     HL,SP
0975: 4D                                LD      C,L
0976: 44                                LD      B,H
0977: DD 7E 08                          LD      A,(IX+08h)
097A: F5                                PUSH    AF
097B: 33                                INC     SP
097C: D5                                PUSH    DE
097D: C5                                PUSH    BC
097E: CD B1 1A                          CALL    L1AB1
0981: F1                                POP     AF
0982: F1                                POP     AF
0983: 33                                INC     SP
0984: DD 75 EB                          LD      (IX-15h),L
0987: DD 7E 04                          LD      A,(IX+04h)
098A: DD 77 EC                          LD      (IX-14h),A
098D: DD 7E 05                          LD      A,(IX+05h)
0990: DD 77 ED                          LD      (IX-13h),A
0993: DD 7E EB                          LD      A,(IX-15h)
0996: B7                                OR      A
0997: C2 F9 0E                          JP      NZ,L0EF9
099A: 21 00 00                          LD      HL,0000h
099D: 39                                ADD     HL,SP
099E: DD 7E E9                          LD      A,(IX-17h)
09A1: 77                                LD      (HL),A
09A2: 23                                INC     HL
09A3: DD 7E EA                          LD      A,(IX-16h)
09A6: 77                                LD      (HL),A
09A7: 21 00 00                          LD      HL,0000h
09AA: 39                                ADD     HL,SP
09AB: DD 75 F7                          LD      (IX-09h),L
09AE: DD 74 F8                          LD      (IX-08h),H
09B1: 4D                                LD      C,L
09B2: 44                                LD      B,H
09B3: DD 6E 06                          LD      L,(IX+06h)
09B6: DD 66 07                          LD      H,(IX+07h)
09B9: E5                                PUSH    HL
09BA: C5                                PUSH    BC
09BB: CD 8B 17                          CALL    L178B
09BE: F1                                POP     AF
09BF: F1                                POP     AF
09C0: DD 75 EB                          LD      (IX-15h),L
09C3: 7D                                LD      A,L
09C4: B7                                OR      A
09C5: 20 12                             JR      NZ,L09D9
09C7: DD 6E F7                          LD      L,(IX-09h)
09CA: DD 66 F8                          LD      H,(IX-08h)
09CD: 11 27 00                          LD      DE,0027h
09D0: 19                                ADD     HL,DE
09D1: 7E                                LD      A,(HL)
09D2: 07                                RLCA
09D3: 30 04                             JR      NC,L09D9
09D5: DD 36 EB 06                       LD      (IX-15h),06h
09D9: DD 7E 08                   L09D9: LD      A,(IX+08h)
09DC: DD 77 F9                          LD      (IX-07h),A
09DF: DD 7E F7                          LD      A,(IX-09h)
09E2: C6 04                             ADD     A,04h
09E4: DD 77 FE                          LD      (IX-02h),A
09E7: DD 7E F8                          LD      A,(IX-08h)
09EA: CE 00                             ADC     A,00h
09EC: DD 77 FF                          LD      (IX-01h),A
09EF: DD 7E F7                          LD      A,(IX-09h)
09F2: C6 1A                             ADD     A,1Ah
09F4: DD 77 FA                          LD      (IX-06h),A
09F7: DD 7E F8                          LD      A,(IX-08h)
09FA: CE 00                             ADC     A,00h
09FC: DD 77 FB                          LD      (IX-05h),A
09FF: DD 7E 08                          LD      A,(IX+08h)
0A02: E6 1C                             AND     1Ch
0A04: CA 98 0B                          JP      Z,L0B98
0A07: DD 7E EB                          LD      A,(IX-15h)
0A0A: B7                                OR      A
0A0B: 28 2B                             JR      Z,L0A38
0A0D: DD 7E EB                          LD      A,(IX-15h)
0A10: D6 04                             SUB     04h
0A12: 20 1A                             JR      NZ,L0A2E
0A14: DD 7E F7                          LD      A,(IX-09h)
0A17: DD 77 FE                          LD      (IX-02h),A
0A1A: DD 7E F8                          LD      A,(IX-08h)
0A1D: DD 77 FF                          LD      (IX-01h),A
0A20: DD 6E FE                          LD      L,(IX-02h)
0A23: DD 66 FF                          LD      H,(IX-01h)
0A26: E5                                PUSH    HL
0A27: CD C0 0F                          CALL    L0FC0
0A2A: F1                                POP     AF
0A2B: DD 75 EB                          LD      (IX-15h),L
0A2E: DD 7E F9                   L0A2E: LD      A,(IX-07h)
0A31: F6 08                             OR      08h
0A33: DD 77 08                          LD      (IX+08h),A
0A36: 18 1B                             JR      L0A53

0A38: DD 6E FE                   L0A38: LD      L,(IX-02h)
0A3B: DD 66 FF                          LD      H,(IX-01h)
0A3E: 7E                                LD      A,(HL)
0A3F: E6 11                             AND     11h
0A41: 28 06                             JR      Z,L0A49
0A43: DD 36 EB 07                       LD      (IX-15h),07h
0A47: 18 0A                             JR      L0A53

0A49: DD CB F9 56                L0A49: BIT     2,(IX-07h)
0A4D: 28 04                             JR      Z,L0A53
0A4F: DD 36 EB 08                       LD      (IX-15h),08h
0A53: DD 7E 08                   L0A53: LD      A,(IX+08h)
0A56: DD 77 F9                          LD      (IX-07h),A
0A59: DD 7E EB                          LD      A,(IX-15h)
0A5C: B7                                OR      A
0A5D: C2 BC 0B                          JP      NZ,L0BBC
0A60: DD CB F9 5E                       BIT     3,(IX-07h)
0A64: CA BC 0B                          JP      Z,L0BBC
0A67: DD 6E FA                          LD      L,(IX-06h)
0A6A: DD 66 FB                          LD      H,(IX-05h)
0A6D: 4E                                LD      C,(HL)
0A6E: 23                                INC     HL
0A6F: 46                                LD      B,(HL)
0A70: C5                                PUSH    BC
0A71: DD 6E E9                          LD      L,(IX-17h)
0A74: DD 66 EA                          LD      H,(IX-16h)
0A77: E5                                PUSH    HL
0A78: CD DC 13                          CALL    L13DC
0A7B: F1                                POP     AF
0A7C: F1                                POP     AF
0A7D: DD 75 FC                          LD      (IX-04h),L
0A80: DD 74 FD                          LD      (IX-03h),H
0A83: DD 73 FE                          LD      (IX-02h),E
0A86: DD 72 FF                          LD      (IX-01h),D
0A89: DD 6E FA                          LD      L,(IX-06h)
0A8C: DD 66 FB                          LD      H,(IX-05h)
0A8F: 4E                                LD      C,(HL)
0A90: 23                                INC     HL
0A91: 46                                LD      B,(HL)
0A92: 21 0E 00                          LD      HL,000Eh
0A95: 09                                ADD     HL,BC
0A96: EB                                EX      DE,HL
0A97: 21 21 50                          LD      HL,5021h
0A9A: E5                                PUSH    HL
0A9B: 21 00 00                          LD      HL,0000h
0A9E: E5                                PUSH    HL
0A9F: D5                                PUSH    DE
0AA0: CD 56 19                          CALL    L1956
0AA3: F1                                POP     AF
0AA4: F1                                POP     AF
0AA5: F1                                POP     AF
0AA6: DD 6E FA                          LD      L,(IX-06h)
0AA9: DD 66 FB                          LD      H,(IX-05h)
0AAC: 4E                                LD      C,(HL)
0AAD: 23                                INC     HL
0AAE: 46                                LD      B,(HL)
0AAF: 21 0B 00                          LD      HL,000Bh
0AB2: 09                                ADD     HL,BC
0AB3: 36 20                             LD      (HL),20h        ; ' '
0AB5: DD 6E FA                          LD      L,(IX-06h)
0AB8: DD 66 FB                          LD      H,(IX-05h)
0ABB: 4E                                LD      C,(HL)
0ABC: 23                                INC     HL
0ABD: 46                                LD      B,(HL)
0ABE: 21 00 00                          LD      HL,0000h
0AC1: E5                                PUSH    HL
0AC2: 21 00 00                          LD      HL,0000h
0AC5: E5                                PUSH    HL
0AC6: C5                                PUSH    BC
0AC7: DD 6E E9                          LD      L,(IX-17h)
0ACA: DD 66 EA                          LD      H,(IX-16h)
0ACD: E5                                PUSH    HL
0ACE: CD 79 25                          CALL    L2579
0AD1: F1                                POP     AF
0AD2: F1                                POP     AF
0AD3: F1                                POP     AF
0AD4: F1                                POP     AF
0AD5: DD 6E FA                          LD      L,(IX-06h)
0AD8: DD 66 FB                          LD      H,(IX-05h)
0ADB: 4E                                LD      C,(HL)
0ADC: 23                                INC     HL
0ADD: 46                                LD      B,(HL)
0ADE: 21 1C 00                          LD      HL,001Ch
0AE1: 09                                ADD     HL,BC
0AE2: EB                                EX      DE,HL
0AE3: 21 00 00                          LD      HL,0000h
0AE6: E5                                PUSH    HL
0AE7: 21 00 00                          LD      HL,0000h
0AEA: E5                                PUSH    HL
0AEB: D5                                PUSH    DE
0AEC: CD 56 19                          CALL    L1956
0AEF: F1                                POP     AF
0AF0: F1                                POP     AF
0AF1: F1                                POP     AF
0AF2: DD 6E E9                          LD      L,(IX-17h)
0AF5: DD 66 EA                          LD      H,(IX-16h)
0AF8: 23                                INC     HL
0AF9: 23                                INC     HL
0AFA: 23                                INC     HL
0AFB: 36 01                             LD      (HL),01h
0AFD: DD 7E FF                          LD      A,(IX-01h)
0B00: DD B6 FE                          OR      (IX-02h)
0B03: DD B6 FD                          OR      (IX-03h)
0B06: DD B6 FC                          OR      (IX-04h)
0B09: CA BC 0B                          JP      Z,L0BBC
0B0C: DD 6E E9                          LD      L,(IX-17h)
0B0F: DD 66 EA                          LD      H,(IX-16h)
0B12: 11 2F 00                          LD      DE,002Fh
0B15: 19                                ADD     HL,DE
0B16: 4E                                LD      C,(HL)
0B17: 23                                INC     HL
0B18: 46                                LD      B,(HL)
0B19: 23                                INC     HL
0B1A: 5E                                LD      E,(HL)
0B1B: 23                                INC     HL
0B1C: 56                                LD      D,(HL)
0B1D: DD 6E F7                          LD      L,(IX-09h)
0B20: DD 66 F8                          LD      H,(IX-08h)
0B23: DD 75 F7                          LD      (IX-09h),L
0B26: DD 74 F8                          LD      (IX-08h),H
0B29: C5                                PUSH    BC
0B2A: D5                                PUSH    DE
0B2B: 21 00 00                          LD      HL,0000h
0B2E: E5                                PUSH    HL
0B2F: 21 00 00                          LD      HL,0000h
0B32: E5                                PUSH    HL
0B33: DD 6E FE                          LD      L,(IX-02h)
0B36: DD 66 FF                          LD      H,(IX-01h)
0B39: E5                                PUSH    HL
0B3A: DD 6E FC                          LD      L,(IX-04h)
0B3D: DD 66 FD                          LD      H,(IX-03h)
0B40: E5                                PUSH    HL
0B41: DD 6E F7                          LD      L,(IX-09h)
0B44: DD 66 F8                          LD      H,(IX-08h)
0B47: E5                                PUSH    HL
0B48: CD 95 23                          CALL    L2395
0B4B: FD 21 0A 00                       LD      IY,000Ah
0B4F: FD 39                             ADD     IY,SP
0B51: FD F9                             LD      SP,IY
0B53: D1                                POP     DE
0B54: C1                                POP     BC
0B55: DD 75 EB                          LD      (IX-15h),L
0B58: 7D                                LD      A,L
0B59: B7                                OR      A
0B5A: 20 60                             JR      NZ,L0BBC
0B5C: D5                                PUSH    DE
0B5D: C5                                PUSH    BC
0B5E: DD 6E E9                          LD      L,(IX-17h)
0B61: DD 66 EA                          LD      H,(IX-16h)
0B64: E5                                PUSH    HL
0B65: CD E2 22                          CALL    L22E2
0B68: F1                                POP     AF
0B69: F1                                POP     AF
0B6A: F1                                POP     AF
0B6B: DD 75 EB                          LD      (IX-15h),L
0B6E: DD 4E E9                          LD      C,(IX-17h)
0B71: DD 46 EA                          LD      B,(IX-16h)
0B74: 21 0B 00                          LD      HL,000Bh
0B77: 09                                ADD     HL,BC
0B78: DD 7E FC                          LD      A,(IX-04h)
0B7B: C6 FF                             ADD     A,0FFh
0B7D: 4F                                LD      C,A
0B7E: DD 7E FD                          LD      A,(IX-03h)
0B81: CE FF                             ADC     A,0FFh
0B83: 47                                LD      B,A
0B84: DD 7E FE                          LD      A,(IX-02h)
0B87: CE FF                             ADC     A,0FFh
0B89: 5F                                LD      E,A
0B8A: DD 7E FF                          LD      A,(IX-01h)
0B8D: CE FF                             ADC     A,0FFh
0B8F: 71                                LD      (HL),C
0B90: 23                                INC     HL
0B91: 70                                LD      (HL),B
0B92: 23                                INC     HL
0B93: 73                                LD      (HL),E
0B94: 23                                INC     HL
0B95: 77                                LD      (HL),A
0B96: 18 24                             JR      L0BBC

0B98: DD 7E EB                   L0B98: LD      A,(IX-15h)
0B9B: B7                                OR      A
0B9C: 20 1E                             JR      NZ,L0BBC
0B9E: DD 6E FE                          LD      L,(IX-02h)
0BA1: DD 66 FF                          LD      H,(IX-01h)
0BA4: 7E                                LD      A,(HL)
0BA5: CB 67                             BIT     4,A
0BA7: 28 06                             JR      Z,L0BAF
0BA9: DD 36 EB 04                       LD      (IX-15h),04h
0BAD: 18 0D                             JR      L0BBC

0BAF: DD CB F9 4E                L0BAF: BIT     1,(IX-07h)
0BB3: 28 07                             JR      Z,L0BBC
0BB5: 0F                                RRCA
0BB6: 30 04                             JR      NC,L0BBC
0BB8: DD 36 EB 07                       LD      (IX-15h),07h
0BBC: DD 7E EB                   L0BBC: LD      A,(IX-15h)
0BBF: B7                                OR      A
0BC0: 20 56                             JR      NZ,L0C18
0BC2: DD CB F9 5E                       BIT     3,(IX-07h)
0BC6: 28 08                             JR      Z,L0BD0
0BC8: DD 7E F9                          LD      A,(IX-07h)
0BCB: F6 40                             OR      40h     ; '@'
0BCD: DD 77 08                          LD      (IX+08h),A
0BD0: DD 7E EC                   L0BD0: LD      A,(IX-14h)
0BD3: C6 1C                             ADD     A,1Ch
0BD5: DD 77 FE                          LD      (IX-02h),A
0BD8: DD 7E ED                          LD      A,(IX-13h)
0BDB: CE 00                             ADC     A,00h
0BDD: DD 77 FF                          LD      (IX-01h),A
0BE0: DD 6E E9                          LD      L,(IX-17h)
0BE3: DD 66 EA                          LD      H,(IX-16h)
0BE6: 11 2F 00                          LD      DE,002Fh
0BE9: 19                                ADD     HL,DE
0BEA: 4E                                LD      C,(HL)
0BEB: 23                                INC     HL
0BEC: 46                                LD      B,(HL)
0BED: 23                                INC     HL
0BEE: 5E                                LD      E,(HL)
0BEF: 23                                INC     HL
0BF0: 56                                LD      D,(HL)
0BF1: DD 6E FE                          LD      L,(IX-02h)
0BF4: DD 66 FF                          LD      H,(IX-01h)
0BF7: 71                                LD      (HL),C
0BF8: 23                                INC     HL
0BF9: 70                                LD      (HL),B
0BFA: 23                                INC     HL
0BFB: 73                                LD      (HL),E
0BFC: 23                                INC     HL
0BFD: 72                                LD      (HL),D
0BFE: DD 7E EC                          LD      A,(IX-14h)
0C01: C6 20                             ADD     A,20h   ; ' '
0C03: 4F                                LD      C,A
0C04: DD 7E ED                          LD      A,(IX-13h)
0C07: CE 00                             ADC     A,00h
0C09: 47                                LD      B,A
0C0A: DD 6E FA                          LD      L,(IX-06h)
0C0D: DD 66 FB                          LD      H,(IX-05h)
0C10: 5E                                LD      E,(HL)
0C11: 23                                INC     HL
0C12: 56                                LD      D,(HL)
0C13: 7B                                LD      A,E
0C14: 02                                LD      (BC),A
0C15: 03                                INC     BC
0C16: 7A                                LD      A,D
0C17: 02                                LD      (BC),A
0C18: DD 7E EB                   L0C18: LD      A,(IX-15h)
0C1B: B7                                OR      A
0C1C: C2 F9 0E                          JP      NZ,L0EF9
0C1F: DD 7E EC                          LD      A,(IX-14h)
0C22: DD 77 EE                          LD      (IX-12h),A
0C25: DD 7E ED                          LD      A,(IX-13h)
0C28: DD 77 EF                          LD      (IX-11h),A
0C2B: DD 7E EC                          LD      A,(IX-14h)
0C2E: C6 06                             ADD     A,06h
0C30: DD 77 FC                          LD      (IX-04h),A
0C33: DD 7E ED                          LD      A,(IX-13h)
0C36: CE 00                             ADC     A,00h
0C38: DD 77 FD                          LD      (IX-03h),A
0C3B: DD 6E FA                          LD      L,(IX-06h)
0C3E: DD 66 FB                          LD      H,(IX-05h)
0C41: 4E                                LD      C,(HL)
0C42: 23                                INC     HL
0C43: 46                                LD      B,(HL)
0C44: C5                                PUSH    BC
0C45: DD 6E E9                          LD      L,(IX-17h)
0C48: DD 66 EA                          LD      H,(IX-16h)
0C4B: E5                                PUSH    HL
0C4C: CD DC 13                          CALL    L13DC
0C4F: F1                                POP     AF
0C50: F1                                POP     AF
0C51: 4D                                LD      C,L
0C52: 44                                LD      B,H
0C53: DD 6E FC                          LD      L,(IX-04h)
0C56: DD 66 FD                          LD      H,(IX-03h)
0C59: 71                                LD      (HL),C
0C5A: 23                                INC     HL
0C5B: 70                                LD      (HL),B
0C5C: 23                                INC     HL
0C5D: 73                                LD      (HL),E
0C5E: 23                                INC     HL
0C5F: 72                                LD      (HL),D
0C60: DD 7E EC                          LD      A,(IX-14h)
0C63: C6 0A                             ADD     A,0Ah
0C65: DD 77 FE                          LD      (IX-02h),A
0C68: DD 7E ED                          LD      A,(IX-13h)
0C6B: CE 00                             ADC     A,00h
0C6D: DD 77 FF                          LD      (IX-01h),A
0C70: DD 6E FA                          LD      L,(IX-06h)
0C73: DD 66 FB                          LD      H,(IX-05h)
0C76: 4E                                LD      C,(HL)
0C77: 23                                INC     HL
0C78: 46                                LD      B,(HL)
0C79: 21 1C 00                          LD      HL,001Ch
0C7C: 09                                ADD     HL,BC
0C7D: E5                                PUSH    HL
0C7E: CD 7A 11                          CALL    L117A
0C81: F1                                POP     AF
0C82: 4D                                LD      C,L
0C83: 44                                LD      B,H
0C84: DD 6E FE                          LD      L,(IX-02h)
0C87: DD 66 FF                          LD      H,(IX-01h)
0C8A: 71                                LD      (HL),C
0C8B: 23                                INC     HL
0C8C: 70                                LD      (HL),B
0C8D: 23                                INC     HL
0C8E: 73                                LD      (HL),E
0C8F: 23                                INC     HL
0C90: 72                                LD      (HL),D
0C91: DD 6E EC                          LD      L,(IX-14h)
0C94: DD 66 ED                          LD      H,(IX-13h)
0C97: DD 7E E9                          LD      A,(IX-17h)
0C9A: 77                                LD      (HL),A
0C9B: 23                                INC     HL
0C9C: DD 7E EA                          LD      A,(IX-16h)
0C9F: 77                                LD      (HL),A
0CA0: DD 4E EC                          LD      C,(IX-14h)
0CA3: DD 46 ED                          LD      B,(IX-13h)
0CA6: 03                                INC     BC
0CA7: 03                                INC     BC
0CA8: DD 6E E9                          LD      L,(IX-17h)
0CAB: DD 66 EA                          LD      H,(IX-16h)
0CAE: 11 05 00                          LD      DE,0005h
0CB1: 19                                ADD     HL,DE
0CB2: 5E                                LD      E,(HL)
0CB3: 23                                INC     HL
0CB4: 56                                LD      D,(HL)
0CB5: 7B                                LD      A,E
0CB6: 02                                LD      (BC),A
0CB7: 03                                INC     BC
0CB8: 7A                                LD      A,D
0CB9: 02                                LD      (BC),A
0CBA: DD 7E EC                          LD      A,(IX-14h)
0CBD: C6 0E                             ADD     A,0Eh
0CBF: 4F                                LD      C,A
0CC0: DD 7E ED                          LD      A,(IX-13h)
0CC3: CE 00                             ADC     A,00h
0CC5: 47                                LD      B,A
0CC6: DD 7E 08                          LD      A,(IX+08h)
0CC9: 02                                LD      (BC),A
0CCA: DD 7E EC                          LD      A,(IX-14h)
0CCD: C6 0F                             ADD     A,0Fh
0CCF: 4F                                LD      C,A
0CD0: DD 7E ED                          LD      A,(IX-13h)
0CD3: CE 00                             ADC     A,00h
0CD5: 47                                LD      B,A
0CD6: AF                                XOR     A
0CD7: 02                                LD      (BC),A
0CD8: DD 7E EC                          LD      A,(IX-14h)
0CDB: C6 18                             ADD     A,18h
0CDD: DD 77 F0                          LD      (IX-10h),A
0CE0: DD 7E ED                          LD      A,(IX-13h)
0CE3: CE 00                             ADC     A,00h
0CE5: DD 77 F1                          LD      (IX-0Fh),A
0CE8: DD 6E F0                          LD      L,(IX-10h)
0CEB: DD 66 F1                          LD      H,(IX-0Fh)
0CEE: AF                                XOR     A
0CEF: 77                                LD      (HL),A
0CF0: 23                                INC     HL
0CF1: 77                                LD      (HL),A
0CF2: 23                                INC     HL
0CF3: 77                                LD      (HL),A
0CF4: 23                                INC     HL
0CF5: 77                                LD      (HL),A
0CF6: DD 7E EC                          LD      A,(IX-14h)
0CF9: C6 10                             ADD     A,10h
0CFB: DD 77 FA                          LD      (IX-06h),A
0CFE: DD 7E ED                          LD      A,(IX-13h)
0D01: CE 00                             ADC     A,00h
0D03: DD 77 FB                          LD      (IX-05h),A
0D06: DD 6E FA                          LD      L,(IX-06h)
0D09: DD 66 FB                          LD      H,(IX-05h)
0D0C: AF                                XOR     A
0D0D: 77                                LD      (HL),A
0D0E: 23                                INC     HL
0D0F: 77                                LD      (HL),A
0D10: 23                                INC     HL
0D11: 77                                LD      (HL),A
0D12: 23                                INC     HL
0D13: 77                                LD      (HL),A
0D14: DD 7E EC                          LD      A,(IX-14h)
0D17: C6 22                             ADD     A,22h   ; '"'
0D19: DD 77 F2                          LD      (IX-0Eh),A
0D1C: DD 7E ED                          LD      A,(IX-13h)
0D1F: CE 00                             ADC     A,00h
0D21: DD 77 F3                          LD      (IX-0Dh),A
0D24: DD 4E F2                          LD      C,(IX-0Eh)
0D27: DD 46 F3                          LD      B,(IX-0Dh)
0D2A: 21 00 02                          LD      HL,0200h
0D2D: E5                                PUSH    HL
0D2E: 26 00                             LD      H,00h
0D30: E5                                PUSH    HL
0D31: C5                                PUSH    BC
0D32: CD AB 22                          CALL    L22AB
0D35: F1                                POP     AF
0D36: F1                                POP     AF
0D37: F1                                POP     AF
0D38: DD CB 08 6E                       BIT     5,(IX+08h)
0D3C: CA F9 0E                          JP      Z,L0EF9
0D3F: DD 6E FE                          LD      L,(IX-02h)
0D42: DD 66 FF                          LD      H,(IX-01h)
0D45: 4E                                LD      C,(HL)
0D46: 23                                INC     HL
0D47: 46                                LD      B,(HL)
0D48: 23                                INC     HL
0D49: 5E                                LD      E,(HL)
0D4A: 23                                INC     HL
0D4B: 56                                LD      D,(HL)
0D4C: 7A                                LD      A,D
0D4D: B3                                OR      E
0D4E: B0                                OR      B
0D4F: B1                                OR      C
0D50: CA F9 0E                          JP      Z,L0EF9
0D53: DD 6E FA                          LD      L,(IX-06h)
0D56: DD 66 FB                          LD      H,(IX-05h)
0D59: 71                                LD      (HL),C
0D5A: 23                                INC     HL
0D5B: 70                                LD      (HL),B
0D5C: 23                                INC     HL
0D5D: 73                                LD      (HL),E
0D5E: 23                                INC     HL
0D5F: 72                                LD      (HL),D
0D60: DD 6E E9                          LD      L,(IX-17h)
0D63: DD 66 EA                          LD      H,(IX-16h)
0D66: 11 09 00                          LD      DE,0009h
0D69: 19                                ADD     HL,DE
0D6A: 4E                                LD      C,(HL)
0D6B: 23                                INC     HL
0D6C: 46                                LD      B,(HL)
0D6D: 1E 00                             LD      E,00h
0D6F: DD 71 F5                          LD      (IX-0Bh),C
0D72: DD 70 F6                          LD      (IX-0Ah),B
0D75: DD 73 F7                          LD      (IX-09h),E
0D78: AF                                XOR     A
0D79: DD 77 F4                          LD      (IX-0Ch),A
0D7C: DD CB F5 26                       SLA     (IX-0Bh)
0D80: DD CB F6 16                       RL      (IX-0Ah)
0D84: DD CB F7 16                       RL      (IX-09h)
0D88: DD 5E FC                          LD      E,(IX-04h)
0D8B: DD 56 FD                          LD      D,(IX-03h)
0D8E: 21 39 00                          LD      HL,0039h
0D91: 39                                ADD     HL,SP
0D92: EB                                EX      DE,HL
0D93: 01 04 00                          LD      BC,0004h
0D96: ED B0                             LDIR
0D98: DD 5E FE                          LD      E,(IX-02h)
0D9B: DD 56 FF                          LD      D,(IX-01h)
0D9E: 21 3D 00                          LD      HL,003Dh
0DA1: 39                                ADD     HL,SP
0DA2: EB                                EX      DE,HL
0DA3: 01 04 00                          LD      BC,0004h
0DA6: ED B0                             LDIR
0DA8: DD 7E EB                   L0DA8: LD      A,(IX-15h)
0DAB: B7                                OR      A
0DAC: C2 44 0E                          JP      NZ,L0E44
0DAF: DD 7E F4                          LD      A,(IX-0Ch)
0DB2: DD 96 FC                          SUB     (IX-04h)
0DB5: DD 7E F5                          LD      A,(IX-0Bh)
0DB8: DD 9E FD                          SBC     A,(IX-03h)
0DBB: DD 7E F6                          LD      A,(IX-0Ah)
0DBE: DD 9E FE                          SBC     A,(IX-02h)
0DC1: DD 7E F7                          LD      A,(IX-09h)
0DC4: DD 9E FF                          SBC     A,(IX-01h)
0DC7: 30 7B                             JR      NC,L0E44
0DC9: DD 6E FA                          LD      L,(IX-06h)
0DCC: DD 66 FB                          LD      H,(IX-05h)
0DCF: E5                                PUSH    HL
0DD0: DD 6E F8                          LD      L,(IX-08h)
0DD3: DD 66 F9                          LD      H,(IX-07h)
0DD6: E5                                PUSH    HL
0DD7: DD 6E EE                          LD      L,(IX-12h)
0DDA: DD 66 EF                          LD      H,(IX-11h)
0DDD: E5                                PUSH    HL
0DDE: CD 4B 14                          CALL    L144B
0DE1: F1                                POP     AF
0DE2: F1                                POP     AF
0DE3: F1                                POP     AF
0DE4: DD 75 F8                          LD      (IX-08h),L
0DE7: DD 74 F9                          LD      (IX-07h),H
0DEA: DD 73 FA                          LD      (IX-06h),E
0DED: DD 72 FB                          LD      (IX-05h),D
0DF0: 3E 01                             LD      A,01h
0DF2: DD BE F8                          CP      (IX-08h)
0DF5: 3E 00                             LD      A,00h
0DF7: DD 9E F9                          SBC     A,(IX-07h)
0DFA: 3E 00                             LD      A,00h
0DFC: DD 9E FA                          SBC     A,(IX-06h)
0DFF: 3E 00                             LD      A,00h
0E01: DD 9E FB                          SBC     A,(IX-05h)
0E04: 38 04                             JR      C,L0E0A
0E06: DD 36 EB 02                       LD      (IX-15h),02h
0E0A: DD 7E F8                   L0E0A: LD      A,(IX-08h)
0E0D: DD A6 F9                          AND     (IX-07h)
0E10: DD A6 FA                          AND     (IX-06h)
0E13: DD A6 FB                          AND     (IX-05h)
0E16: 3C                                INC     A
0E17: 20 04                             JR      NZ,L0E1D
0E19: DD 36 EB 01                       LD      (IX-15h),01h
0E1D: DD 7E FC                   L0E1D: LD      A,(IX-04h)
0E20: DD 96 F4                          SUB     (IX-0Ch)
0E23: DD 77 FC                          LD      (IX-04h),A
0E26: DD 7E FD                          LD      A,(IX-03h)
0E29: DD 9E F5                          SBC     A,(IX-0Bh)
0E2C: DD 77 FD                          LD      (IX-03h),A
0E2F: DD 7E FE                          LD      A,(IX-02h)
0E32: DD 9E F6                          SBC     A,(IX-0Ah)
0E35: DD 77 FE                          LD      (IX-02h),A
0E38: DD 7E FF                          LD      A,(IX-01h)
0E3B: DD 9E F7                          SBC     A,(IX-09h)
0E3E: DD 77 FF                          LD      (IX-01h),A
0E41: C3 A8 0D                          JP      L0DA8

0E44: DD 7E EC                   L0E44: LD      A,(IX-14h)
0E47: C6 14                             ADD     A,14h
0E49: 5F                                LD      E,A
0E4A: DD 7E ED                          LD      A,(IX-13h)
0E4D: CE 00                             ADC     A,00h
0E4F: 57                                LD      D,A
0E50: 21 39 00                          LD      HL,0039h
0E53: 39                                ADD     HL,SP
0E54: 01 04 00                          LD      BC,0004h
0E57: ED B0                             LDIR
0E59: DD 7E EB                          LD      A,(IX-15h)
0E5C: B7                                OR      A
0E5D: C2 F9 0E                          JP      NZ,L0EF9
0E60: DD 7E FC                          LD      A,(IX-04h)
0E63: B7                                OR      A
0E64: 20 07                             JR      NZ,L0E6D
0E66: DD CB FD 46                       BIT     0,(IX-03h)
0E6A: CA F9 0E                          JP      Z,L0EF9
0E6D: DD 6E FA                   L0E6D: LD      L,(IX-06h)
0E70: DD 66 FB                          LD      H,(IX-05h)
0E73: E5                                PUSH    HL
0E74: DD 6E F8                          LD      L,(IX-08h)
0E77: DD 66 F9                          LD      H,(IX-07h)
0E7A: E5                                PUSH    HL
0E7B: DD 6E E9                          LD      L,(IX-17h)
0E7E: DD 66 EA                          LD      H,(IX-16h)
0E81: E5                                PUSH    HL
0E82: CD 0B 13                          CALL    L130B
0E85: F1                                POP     AF
0E86: F1                                POP     AF
0E87: F1                                POP     AF
0E88: 7A                                LD      A,D
0E89: B3                                OR      E
0E8A: B4                                OR      H
0E8B: B5                                OR      L
0E8C: 20 06                             JR      NZ,L0E94
0E8E: DD 36 EB 02                       LD      (IX-15h),02h
0E92: 18 65                             JR      L0EF9

0E94: 06 09                      L0E94: LD      B,09h
0E96: DD CB FF 3E                L0E96: SRL     (IX-01h)
0E9A: DD CB FE 1E                       RR      (IX-02h)
0E9E: DD CB FD 1E                       RR      (IX-03h)
0EA2: DD CB FC 1E                       RR      (IX-04h)
0EA6: 10 EE                             DJNZ    L0E96
0EA8: 7D                                LD      A,L
0EA9: DD 86 FC                          ADD     A,(IX-04h)
0EAC: 4F                                LD      C,A
0EAD: 7C                                LD      A,H
0EAE: DD 8E FD                          ADC     A,(IX-03h)
0EB1: 47                                LD      B,A
0EB2: 7B                                LD      A,E
0EB3: DD 8E FE                          ADC     A,(IX-02h)
0EB6: 5F                                LD      E,A
0EB7: 7A                                LD      A,D
0EB8: DD 8E FF                          ADC     A,(IX-01h)
0EBB: 57                                LD      D,A
0EBC: DD 6E F0                          LD      L,(IX-10h)
0EBF: DD 66 F1                          LD      H,(IX-0Fh)
0EC2: 71                                LD      (HL),C
0EC3: 23                                INC     HL
0EC4: 70                                LD      (HL),B
0EC5: 23                                INC     HL
0EC6: 73                                LD      (HL),E
0EC7: 23                                INC     HL
0EC8: 72                                LD      (HL),D
0EC9: DD 6E E9                          LD      L,(IX-17h)
0ECC: DD 66 EA                          LD      H,(IX-16h)
0ECF: 23                                INC     HL
0ED0: 7E                                LD      A,(HL)
0ED1: DD 77 FF                          LD      (IX-01h),A
0ED4: 21 01 00                          LD      HL,0001h
0ED7: E5                                PUSH    HL
0ED8: D5                                PUSH    DE
0ED9: C5                                PUSH    BC
0EDA: DD 6E F2                          LD      L,(IX-0Eh)
0EDD: DD 66 F3                          LD      H,(IX-0Dh)
0EE0: E5                                PUSH    HL
0EE1: DD 7E FF                          LD      A,(IX-01h)
0EE4: F5                                PUSH    AF
0EE5: 33                                INC     SP
0EE6: CD F3 02                          CALL    L02F3
0EE9: FD 21 09 00                       LD      IY,0009h
0EED: FD 39                             ADD     IY,SP
0EEF: FD F9                             LD      SP,IY
0EF1: 7D                                LD      A,L
0EF2: B7                                OR      A
0EF3: 28 04                             JR      Z,L0EF9
0EF5: DD 36 EB 01                       LD      (IX-15h),01h
0EF9: DD 7E EB                   L0EF9: LD      A,(IX-15h)
0EFC: B7                                OR      A
0EFD: 28 0A                             JR      Z,L0F09
0EFF: DD 6E EC                          LD      L,(IX-14h)
0F02: DD 66 ED                          LD      H,(IX-13h)
0F05: AF                                XOR     A
0F06: 77                                LD      (HL),A
0F07: 23                                INC     HL
0F08: 77                                LD      (HL),A
0F09: DD 6E EB                   L0F09: LD      L,(IX-15h)
0F0C: DD F9                      L0F0C: LD      SP,IX
0F0E: DD E1                             POP     IX
0F10: C9                                RET

                                        ; --- START PROC L0F11 ---
0F11: CD D2 13                   L0F11: CALL    L13D2
0F14: F5                                PUSH    AF
0F15: F5                                PUSH    AF
0F16: F5                                PUSH    AF
0F17: DD 7E 06                          LD      A,(IX+06h)
0F1A: DD 77 FA                          LD      (IX-06h),A
0F1D: DD 7E 07                          LD      A,(IX+07h)
0F20: DD 77 FB                          LD      (IX-05h),A
0F23: 21 00 00                          LD      HL,0000h
0F26: 39                                ADD     HL,SP
0F27: E5                                PUSH    HL
0F28: CD 4D 3A                          CALL    L3A4D
0F2B: F1                                POP     AF
0F2C: DD 75 FE                          LD      (IX-02h),L
0F2F: DD 74 FF                          LD      (IX-01h),H
0F32: DD CB FF 7E                       BIT     7,(IX-01h)
0F36: 28 05                             JR      Z,L0F3D
0F38: 2E 0B                             LD      L,0Bh
0F3A: C3 BB 0F                          JP      L0FBB

0F3D: 01 33 84                   L0F3D: LD      BC,8433h
0F40: DD 6E FE                          LD      L,(IX-02h)
0F43: DD 66 FF                          LD      H,(IX-01h)
0F46: 29                                ADD     HL,HL
0F47: 09                                ADD     HL,BC
0F48: DD 75 FE                          LD      (IX-02h),L
0F4B: DD 74 FF                          LD      (IX-01h),H
0F4E: 4E                                LD      C,(HL)
0F4F: 23                                INC     HL
0F50: 46                                LD      B,(HL)
0F51: 59                                LD      E,C
0F52: 78                                LD      A,B
0F53: 57                                LD      D,A
0F54: B1                                OR      C
0F55: 28 02                             JR      Z,L0F59
0F57: AF                                XOR     A
0F58: 12                                LD      (DE),A
0F59: DD 7E 05                   L0F59: LD      A,(IX+05h)
0F5C: DD B6 04                          OR      (IX+04h)
0F5F: 28 08                             JR      Z,L0F69
0F61: DD 4E 04                          LD      C,(IX+04h)
0F64: DD 46 05                          LD      B,(IX+05h)
0F67: AF                                XOR     A
0F68: 02                                LD      (BC),A
0F69: DD 6E FE                   L0F69: LD      L,(IX-02h)
0F6C: DD 66 FF                          LD      H,(IX-01h)
0F6F: DD 7E 04                          LD      A,(IX+04h)
0F72: 77                                LD      (HL),A
0F73: 23                                INC     HL
0F74: DD 7E 05                          LD      A,(IX+05h)
0F77: 77                                LD      (HL),A
0F78: DD 7E 08                          LD      A,(IX+08h)
0F7B: B7                                OR      A
0F7C: 20 03                             JR      NZ,L0F81
0F7E: 6F                                LD      L,A
0F7F: 18 3A                             JR      L0FBB

0F81: 21 0A 00                   L0F81: LD      HL,000Ah
0F84: 39                                ADD     HL,SP
0F85: DD 75 FE                          LD      (IX-02h),L
0F88: DD 74 FF                          LD      (IX-01h),H
0F8B: DD 7E FE                          LD      A,(IX-02h)
0F8E: DD 77 FC                          LD      (IX-04h),A
0F91: DD 7E FF                          LD      A,(IX-01h)
0F94: DD 77 FD                          LD      (IX-03h),A
0F97: 21 0C 00                          LD      HL,000Ch
0F9A: 39                                ADD     HL,SP
0F9B: DD 75 FE                          LD      (IX-02h),L
0F9E: DD 74 FF                          LD      (IX-01h),H
0FA1: AF                                XOR     A
0FA2: F5                                PUSH    AF
0FA3: 33                                INC     SP
0FA4: DD 6E FC                          LD      L,(IX-04h)
0FA7: DD 66 FD                          LD      H,(IX-03h)
0FAA: E5                                PUSH    HL
0FAB: DD 6E FE                          LD      L,(IX-02h)
0FAE: DD 66 FF                          LD      H,(IX-01h)
0FB1: E5                                PUSH    HL
0FB2: CD B1 1A                          CALL    L1AB1
0FB5: F1                                POP     AF
0FB6: F1                                POP     AF
0FB7: 33                                INC     SP
0FB8: DD 75 FF                          LD      (IX-01h),L
0FBB: DD F9                      L0FBB: LD      SP,IX
0FBD: DD E1                             POP     IX
0FBF: C9                                RET

                                        ; --- START PROC L0FC0 ---
0FC0: CD D2 13                   L0FC0: CALL    L13D2
0FC3: F5                                PUSH    AF
0FC4: F5                                PUSH    AF
0FC5: F5                                PUSH    AF
0FC6: DD 4E 04                          LD      C,(IX+04h)
0FC9: DD 46 05                          LD      B,(IX+05h)
0FCC: 0A                                LD      A,(BC)
0FCD: DD 77 FA                          LD      (IX-06h),A
0FD0: 03                                INC     BC
0FD1: 0A                                LD      A,(BC)
0FD2: DD 77 FB                          LD      (IX-05h),A
0FD5: 0B                                DEC     BC
0FD6: C5                                PUSH    BC
0FD7: 21 01 00                          LD      HL,0001h
0FDA: E5                                PUSH    HL
0FDB: C5                                PUSH    BC
0FDC: CD D5 19                          CALL    L19D5
0FDF: F1                                POP     AF
0FE0: F1                                POP     AF
0FE1: 7D                                LD      A,L
0FE2: C1                                POP     BC
0FE3: 5F                                LD      E,A
0FE4: B7                                OR      A
0FE5: C2 66 10                          JP      NZ,L1066
0FE8: 69                                LD      L,C
0FE9: 60                                LD      H,B
0FEA: 11 16 00                          LD      DE,0016h
0FED: 19                                ADD     HL,DE
0FEE: 5E                                LD      E,(HL)
0FEF: 23                                INC     HL
0FF0: 56                                LD      D,(HL)
0FF1: 23                                INC     HL
0FF2: 23                                INC     HL
0FF3: 7E                                LD      A,(HL)
0FF4: 2B                                DEC     HL
0FF5: 6E                                LD      L,(HL)
0FF6: 67                                LD      H,A
0FF7: C5                                PUSH    BC
0FF8: E5                                PUSH    HL
0FF9: D5                                PUSH    DE
0FFA: DD 6E FA                          LD      L,(IX-06h)
0FFD: DD 66 FB                          LD      H,(IX-05h)
1000: E5                                PUSH    HL
1001: CD E2 22                          CALL    L22E2
1004: F1                                POP     AF
1005: F1                                POP     AF
1006: F1                                POP     AF
1007: 7D                                LD      A,L
1008: C1                                POP     BC
1009: 5F                                LD      E,A
100A: B7                                OR      A
100B: 20 59                             JR      NZ,L1066
100D: 21 1A 00                          LD      HL,001Ah
1010: 09                                ADD     HL,BC
1011: DD 75 FC                          LD      (IX-04h),L
1014: DD 74 FD                          LD      (IX-03h),H
1017: 56                                LD      D,(HL)
1018: 23                                INC     HL
1019: 6E                                LD      L,(HL)
101A: DD 72 FE                          LD      (IX-02h),D
101D: DD 75 FF                          LD      (IX-01h),L
1020: C5                                PUSH    BC
1021: D5                                PUSH    DE
1022: 21 20 00                          LD      HL,0020h
1025: E5                                PUSH    HL
1026: 2E 00                             LD      L,00h
1028: E5                                PUSH    HL
1029: DD 6E FE                          LD      L,(IX-02h)
102C: DD 66 FF                          LD      H,(IX-01h)
102F: E5                                PUSH    HL
1030: CD AB 22                          CALL    L22AB
1033: F1                                POP     AF
1034: F1                                POP     AF
1035: F1                                POP     AF
1036: D1                                POP     DE
1037: C1                                POP     BC
1038: 21 1C 00                          LD      HL,001Ch
103B: 09                                ADD     HL,BC
103C: DD 75 FE                          LD      (IX-02h),L
103F: DD 74 FF                          LD      (IX-01h),H
1042: DD 6E FC                          LD      L,(IX-04h)
1045: DD 66 FD                          LD      H,(IX-03h)
1048: 4E                                LD      C,(HL)
1049: 23                                INC     HL
104A: 46                                LD      B,(HL)
104B: D5                                PUSH    DE
104C: 21 0B 00                          LD      HL,000Bh
104F: E5                                PUSH    HL
1050: DD 6E FE                          LD      L,(IX-02h)
1053: DD 66 FF                          LD      H,(IX-01h)
1056: E5                                PUSH    HL
1057: C5                                PUSH    BC
1058: CD 18 09                          CALL    L0918
105B: F1                                POP     AF
105C: F1                                POP     AF
105D: F1                                POP     AF
105E: D1                                POP     DE
105F: E1                                POP     HL
1060: E5                                PUSH    HL
1061: 23                                INC     HL
1062: 23                                INC     HL
1063: 23                                INC     HL
1064: 36 01                             LD      (HL),01h
1066: 6B                         L1066: LD      L,E
1067: DD F9                             LD      SP,IX
1069: DD E1                             POP     IX
106B: C9                                RET

106C: DD                         L106C: DB      0DDh
106D: E5                                DB      0E5h
106E: DD                                DB      0DDh
106F: 21                                DB      21h     ; '!'
1070: 00                                DB      00h
1071: 00                                DB      00h
1072: DD                                DB      0DDh
1073: 39                                DB      39h     ; '9'
1074: DD                                DB      0DDh
1075: 6E                                DB      6Eh     ; 'n'
1076: 05                                DB      05h
1077: DD                                DB      0DDh
1078: 66                                DB      66h     ; 'f'
1079: 06                                DB      06h
107A: 4E 23 46 2B 59 50                 DB      "N#F+YP"
1080: 13                                DB      13h
1081: 73                                DB      73h     ; 's'
1082: 23                                DB      23h     ; '#'
1083: 72                                DB      72h     ; 'r'
1084: DD                                DB      0DDh
1085: 7E                                DB      7Eh     ; '~'
1086: 04                                DB      04h
1087: 02                                DB      02h
1088: DD                                DB      0DDh
1089: E1                                DB      0E1h
108A: C9                                DB      0C9h
108B: 21                                DB      21h     ; '!'
108C: 02                                DB      02h
108D: 00                                DB      00h
108E: 39                                DB      39h     ; '9'
108F: FD                                DB      0FDh
1090: 21                                DB      21h     ; '!'
1091: 06                                DB      06h
1092: 00                                DB      00h
1093: FD                                DB      0FDh
1094: 39                                DB      39h     ; '9'
1095: FD                                DB      0FDh
1096: 4E                                DB      4Eh     ; 'N'
1097: 00                                DB      00h
1098: FD                                DB      0FDh
1099: 46                                DB      46h     ; 'F'
109A: 01                                DB      01h
109B: C5                                DB      0C5h
109C: FD                                DB      0FDh
109D: 2B                                DB      2Bh     ; '+'
109E: FD                                DB      0FDh
109F: 2B                                DB      2Bh     ; '+'
10A0: FD                                DB      0FDh
10A1: 4E                                DB      4Eh     ; 'N'
10A2: 00                                DB      00h
10A3: FD                                DB      0FDh
10A4: 46                                DB      46h     ; 'F'
10A5: 01                                DB      01h
10A6: C5                                DB      0C5h
10A7: E5                                DB      0E5h
10A8: 21                                DB      21h     ; '!'
10A9: 6C                                DB      6Ch     ; 'l'
10AA: 10                                DB      10h
10AB: E5                                DB      0E5h
10AC: CD                                DB      0CDh
10AD: C3                                DB      0C3h
10AE: 2E                                DB      2Eh     ; '.'
10AF: F1                                DB      0F1h
10B0: F1                                DB      0F1h
10B1: F1                                DB      0F1h
10B2: F1                                DB      0F1h
10B3: 4D                                DB      4Dh     ; 'M'
10B4: 44                                DB      44h     ; 'D'
10B5: D1                                DB      0D1h
10B6: E1                                DB      0E1h
10B7: E5                                DB      0E5h
10B8: D5                                DB      0D5h
10B9: 36                                DB      36h     ; '6'
10BA: 00                                DB      00h
10BB: 69                                DB      69h     ; 'i'
10BC: 60                                DB      60h     ; '`'
10BD: C9                                DB      0C9h

                                        ; --- START PROC L10BE ---
10BE: DD E5                      L10BE: PUSH    IX
10C0: DD 21 00 00                       LD      IX,0000h
10C4: DD 39                             ADD     IX,SP
10C6: 21 08 00                          LD      HL,0008h
10C9: 39                                ADD     HL,SP
10CA: EB                                EX      DE,HL
10CB: 21 04 00                          LD      HL,0004h
10CE: 39                                ADD     HL,SP
10CF: D5                                PUSH    DE
10D0: DD 4E 06                          LD      C,(IX+06h)
10D3: DD 46 07                          LD      B,(IX+07h)
10D6: C5                                PUSH    BC
10D7: E5                                PUSH    HL
10D8: 21 6C 10                          LD      HL,106Ch
10DB: E5                                PUSH    HL
10DC: CD C3 2E                          CALL    L2EC3
10DF: F1                                POP     AF
10E0: F1                                POP     AF
10E1: F1                                POP     AF
10E2: F1                                POP     AF
10E3: 4D                                LD      C,L
10E4: 44                                LD      B,H
10E5: DD 5E 04                          LD      E,(IX+04h)
10E8: DD 56 05                          LD      D,(IX+05h)
10EB: AF                                XOR     A
10EC: 12                                LD      (DE),A
10ED: 69                                LD      L,C
10EE: 60                                LD      H,B
10EF: DD E1                             POP     IX
10F1: C9                                RET

                                        ; --- START PROC L10F2 ---
10F2: CD D2 13                   L10F2: CALL    L13D2
10F5: F5                                PUSH    AF
10F6: F5                                PUSH    AF
10F7: 3B                                DEC     SP
10F8: DD 36 FB 09                       LD      (IX-05h),09h
10FC: DD 4E 04                          LD      C,(IX+04h)
10FF: DD 46 05                          LD      B,(IX+05h)
1102: DD 7E 05                          LD      A,(IX+05h)
1105: DD B6 04                          OR      (IX+04h)
1108: 28 4D                             JR      Z,L1157
110A: 69                                LD      L,C
110B: 60                                LD      H,B
110C: 5E                                LD      E,(HL)
110D: 23                                INC     HL
110E: 56                                LD      D,(HL)
110F: 7A                                LD      A,D
1110: B3                                OR      E
1111: 28 44                             JR      Z,L1157
1113: 1A                                LD      A,(DE)
1114: B7                                OR      A
1115: 28 40                             JR      Z,L1157
1117: 69                                LD      L,C
1118: 60                                LD      H,B
1119: 23                                INC     HL
111A: 23                                INC     HL
111B: 7E                                LD      A,(HL)
111C: DD 77 FC                          LD      (IX-04h),A
111F: 23                                INC     HL
1120: 7E                                LD      A,(HL)
1121: DD 77 FD                          LD      (IX-03h),A
1124: 6B                                LD      L,E
1125: 62                                LD      H,D
1126: 23                                INC     HL
1127: 23                                INC     HL
1128: 23                                INC     HL
1129: 23                                INC     HL
112A: 23                                INC     HL
112B: 7E                                LD      A,(HL)
112C: DD 77 FE                          LD      (IX-02h),A
112F: 23                                INC     HL
1130: 7E                                LD      A,(HL)
1131: DD 77 FF                          LD      (IX-01h),A
1134: DD 7E FC                          LD      A,(IX-04h)
1137: DD 96 FE                          SUB     (IX-02h)
113A: 20 1B                             JR      NZ,L1157
113C: DD 7E FD                          LD      A,(IX-03h)
113F: DD 96 FF                          SUB     (IX-01h)
1142: 20 13                             JR      NZ,L1157
1144: EB                                EX      DE,HL
1145: 23                                INC     HL
1146: 7E                                LD      A,(HL)
1147: C5                                PUSH    BC
1148: F5                                PUSH    AF
1149: 33                                INC     SP
114A: CD E5 02                          CALL    L02E5
114D: 33                                INC     SP
114E: 7D                                LD      A,L
114F: C1                                POP     BC
1150: 0F                                RRCA
1151: 38 04                             JR      C,L1157
1153: AF                                XOR     A
1154: DD 77 FB                          LD      (IX-05h),A
1157: DD 5E 06                   L1157: LD      E,(IX+06h)
115A: DD 56 07                          LD      D,(IX+07h)
115D: DD 7E FB                          LD      A,(IX-05h)
1160: B7                                OR      A
1161: 20 07                             JR      NZ,L116A
1163: 69                                LD      L,C
1164: 60                                LD      H,B
1165: 4E                                LD      C,(HL)
1166: 23                                INC     HL
1167: 46                                LD      B,(HL)
1168: 18 03                             JR      L116D

116A: 01 00 00                   L116A: LD      BC,0000h
116D: 79                         L116D: LD      A,C
116E: 12                                LD      (DE),A
116F: 13                                INC     DE
1170: 78                                LD      A,B
1171: 12                                LD      (DE),A
1172: DD 6E FB                          LD      L,(IX-05h)
1175: DD F9                             LD      SP,IX
1177: DD E1                             POP     IX
1179: C9                                RET

                                        ; --- START PROC L117A ---
117A: CD D2 13                   L117A: CALL    L13D2
117D: F5                                PUSH    AF
117E: F5                                PUSH    AF
117F: DD 6E 04                          LD      L,(IX+04h)
1182: DD 66 05                          LD      H,(IX+05h)
1185: 23                                INC     HL
1186: 23                                INC     HL
1187: 23                                INC     HL
1188: 4E                                LD      C,(HL)
1189: 06 00                             LD      B,00h
118B: 1E 00                             LD      E,00h
118D: DD 71 FD                          LD      (IX-03h),C
1190: DD 70 FE                          LD      (IX-02h),B
1193: DD 73 FF                          LD      (IX-01h),E
1196: AF                                XOR     A
1197: DD 77 FC                          LD      (IX-04h),A
119A: DD 6E 04                          LD      L,(IX+04h)
119D: DD 66 05                          LD      H,(IX+05h)
11A0: 23                                INC     HL
11A1: 23                                INC     HL
11A2: 4E                                LD      C,(HL)
11A3: 06 00                             LD      B,00h
11A5: 11 00 00                          LD      DE,0000h
11A8: 79                                LD      A,C
11A9: DD B6 FC                          OR      (IX-04h)
11AC: 4F                                LD      C,A
11AD: 78                                LD      A,B
11AE: DD B6 FD                          OR      (IX-03h)
11B1: 47                                LD      B,A
11B2: 7B                                LD      A,E
11B3: DD B6 FE                          OR      (IX-02h)
11B6: 5F                                LD      E,A
11B7: 7A                                LD      A,D
11B8: DD B6 FF                          OR      (IX-01h)
11BB: DD 71 FD                          LD      (IX-03h),C
11BE: DD 70 FE                          LD      (IX-02h),B
11C1: DD 73 FF                          LD      (IX-01h),E
11C4: AF                                XOR     A
11C5: DD 77 FC                          LD      (IX-04h),A
11C8: DD 6E 04                          LD      L,(IX+04h)
11CB: DD 66 05                          LD      H,(IX+05h)
11CE: 23                                INC     HL
11CF: 4E                                LD      C,(HL)
11D0: 06 00                             LD      B,00h
11D2: 11 00 00                          LD      DE,0000h
11D5: 79                                LD      A,C
11D6: DD B6 FC                          OR      (IX-04h)
11D9: 4F                                LD      C,A
11DA: 78                                LD      A,B
11DB: DD B6 FD                          OR      (IX-03h)
11DE: 47                                LD      B,A
11DF: 7B                                LD      A,E
11E0: DD B6 FE                          OR      (IX-02h)
11E3: 5F                                LD      E,A
11E4: 7A                                LD      A,D
11E5: DD B6 FF                          OR      (IX-01h)
11E8: DD 71 FD                          LD      (IX-03h),C
11EB: DD 70 FE                          LD      (IX-02h),B
11EE: DD 73 FF                          LD      (IX-01h),E
11F1: AF                                XOR     A
11F2: DD 77 FC                          LD      (IX-04h),A
11F5: DD 6E 04                          LD      L,(IX+04h)
11F8: DD 66 05                          LD      H,(IX+05h)
11FB: 4E                                LD      C,(HL)
11FC: 06 00                             LD      B,00h
11FE: 11 00 00                          LD      DE,0000h
1201: DD 7E FC                          LD      A,(IX-04h)
1204: B1                                OR      C
1205: 6F                                LD      L,A
1206: DD 7E FD                          LD      A,(IX-03h)
1209: B0                                OR      B
120A: 67                                LD      H,A
120B: DD 7E FE                          LD      A,(IX-02h)
120E: B3                                OR      E
120F: 5F                                LD      E,A
1210: DD 7E FF                          LD      A,(IX-01h)
1213: B2                                OR      D
1214: 57                                LD      D,A
1215: DD F9                             LD      SP,IX
1217: DD E1                             POP     IX
1219: C9                                RET

                                        ; --- START PROC L121A ---
121A: FD 21 02 00                L121A: LD      IY,0002h
121E: FD 39                             ADD     IY,SP
1220: FD 6E 02                          LD      L,(IY+02h)
1223: FD 66 03                          LD      H,(IY+03h)
1226: E5                                PUSH    HL
1227: FD 6E 00                          LD      L,(IY+00h)
122A: FD 66 01                          LD      H,(IY+01h)
122D: E5                                PUSH    HL
122E: CD F6 12                          CALL    L12F6
1231: F1                                POP     AF
1232: F1                                POP     AF
1233: 3E 01                             LD      A,01h
1235: D3 91                             OUT     (91h),A
1237: DB 91                      L1237: IN      A,(91h)
1239: 0F                                RRCA
123A: D0                                RET     NC
123B: 2A 38 84                          LD      HL,(8438h)
123E: CD B1 3D                          CALL    L3DB1
1241: 18 F4                             JR      L1237

                                        ; --- START PROC L1243 ---
1243: 21 02 00                   L1243: LD      HL,0002h
1246: 39                                ADD     HL,SP
1247: 7E                                LD      A,(HL)
1248: 23                                INC     HL
1249: 66                                LD      H,(HL)
124A: 6F                                LD      L,A
124B: 01 92 00                          LD      BC,0092h
124E: ED B2                             INIR
1250: ED B2                             INIR
1252: C9                                RET

                                        ; --- START PROC L1253 ---
1253: FD 21 02 00                L1253: LD      IY,0002h
1257: FD 39                             ADD     IY,SP
1259: FD 6E 02                          LD      L,(IY+02h)
125C: FD 66 03                          LD      H,(IY+03h)
125F: E5                                PUSH    HL
1260: FD 6E 00                          LD      L,(IY+00h)
1263: FD 66 01                          LD      H,(IY+01h)
1266: E5                                PUSH    HL
1267: CD 1A 12                          CALL    L121A
126A: F1                                POP     AF
126B: F1                                POP     AF
126C: 21 06 00                          LD      HL,0006h
126F: 39                                ADD     HL,SP
1270: 4E                                LD      C,(HL)
1271: 23                                INC     HL
1272: 46                                LD      B,(HL)
1273: C5                                PUSH    BC
1274: CD 43 12                          CALL    L1243
1277: F1                                POP     AF
1278: C9                                RET

                                        ; --- START PROC L1279 ---
1279: FD 21 00 00                L1279: LD      IY,0000h
127D: FD 39                             ADD     IY,SP
127F: FD 6E 02                          LD      L,(IY+02h)
1282: FD 66 03                          LD      H,(IY+03h)
1285: FD 46 04                          LD      B,(IY+04h)
1288: 0E 80                             LD      C,80h
128A: ED B3                             OTIR
128C: C9                                RET

                                        ; --- START PROC L128D ---
128D: DD E5                      L128D: PUSH    IX
128F: DD 21 00 00                       LD      IX,0000h
1293: DD 39                             ADD     IX,SP
1295: DD 4E 04                          LD      C,(IX+04h)
1298: DD 46 05                          LD      B,(IX+05h)
129B: DD 7E 06                   L129B: LD      A,(IX+06h)
129E: B7                                OR      A
129F: 28 3B                             JR      Z,L12DC
12A1: DB 80                             IN      A,(80h)
12A3: 5F                                LD      E,A
12A4: 3E FF                             LD      A,0FFh
12A6: 93                                SUB     E
12A7: 67                                LD      H,A
12A8: DD 7E 06                          LD      A,(IX+06h)
12AB: 94                                SUB     H
12AC: 30 03                             JR      NC,L12B1
12AE: DD 66 06                          LD      H,(IX+06h)
12B1: 7C                         L12B1: LD      A,H
12B2: B7                                OR      A
12B3: 20 0A                             JR      NZ,L12BF
12B5: C5                                PUSH    BC
12B6: 2A 38 84                          LD      HL,(8438h)
12B9: CD B1 3D                          CALL    L3DB1
12BC: C1                                POP     BC
12BD: 18 DC                             JR      L129B

12BF: 59                         L12BF: LD      E,C
12C0: 50                                LD      D,B
12C1: E5                                PUSH    HL
12C2: C5                                PUSH    BC
12C3: E5                                PUSH    HL
12C4: 33                                INC     SP
12C5: D5                                PUSH    DE
12C6: CD 79 12                          CALL    L1279
12C9: F1                                POP     AF
12CA: 33                                INC     SP
12CB: C1                                POP     BC
12CC: E1                                POP     HL
12CD: 79                                LD      A,C
12CE: 84                                ADD     A,H
12CF: 4F                                LD      C,A
12D0: 30 01                             JR      NC,L12D3
12D2: 04                                INC     B
12D3: DD 7E 06                   L12D3: LD      A,(IX+06h)
12D6: 94                                SUB     H
12D7: DD 77 06                          LD      (IX+06h),A
12DA: 18 BF                             JR      L129B

12DC: DD E1                      L12DC: POP     IX
12DE: C9                                RET

                                        ; --- START PROC L12DF ---
12DF: C1                         L12DF: POP     BC
12E0: E1                                POP     HL
12E1: E5                                PUSH    HL
12E2: C5                                PUSH    BC
12E3: E5                                PUSH    HL
12E4: CD C3 13                          CALL    L13C3
12E7: F1                                POP     AF
12E8: 65                                LD      H,L
12E9: D1                                POP     DE
12EA: C1                                POP     BC
12EB: C5                                PUSH    BC
12EC: D5                                PUSH    DE
12ED: E5                                PUSH    HL
12EE: 33                                INC     SP
12EF: C5                                PUSH    BC
12F0: CD 8D 12                          CALL    L128D
12F3: F1                                POP     AF
12F4: 33                                INC     SP
12F5: C9                                RET

                                        ; --- START PROC L12F6 ---
12F6: 21 02 00                   L12F6: LD      HL,0002h
12F9: 39                                ADD     HL,SP
12FA: 01 90 04                          LD      BC,0490h
12FD: ED B3                             OTIR
12FF: C9                                RET

1300: 81                         L1300: DB      81h
1301: 9F                         L1301: DB      9Fh
1302: E0                                DB      0E0h
1303: FC                         L1303: DB      0FCh
1304: 40                                DB      40h     ; '@'
1305: 7E                         L1305: DB      7Eh     ; '~'
1306: 80                                DB      80h
1307: FC                         L1307: DB      0FCh
1308: 00                                DB      00h
1309: 00                         L1309: DB      00h
130A: C9                                DB      0C9h

                                        ; --- START PROC L130B ---
130B: CD D2 13                   L130B: CALL    L13D2
130E: F5                                PUSH    AF
130F: F5                                PUSH    AF
1310: DD 7E 06                          LD      A,(IX+06h)
1313: C6 FE                             ADD     A,0FEh
1315: DD 77 06                          LD      (IX+06h),A
1318: DD 7E 07                          LD      A,(IX+07h)
131B: CE FF                             ADC     A,0FFh
131D: DD 77 07                          LD      (IX+07h),A
1320: DD 7E 08                          LD      A,(IX+08h)
1323: CE FF                             ADC     A,0FFh
1325: DD 77 08                          LD      (IX+08h),A
1328: DD 7E 09                          LD      A,(IX+09h)
132B: CE FF                             ADC     A,0FFh
132D: DD 77 09                          LD      (IX+09h),A
1330: DD 4E 04                          LD      C,(IX+04h)
1333: DD 46 05                          LD      B,(IX+05h)
1336: 69                                LD      L,C
1337: 60                                LD      H,B
1338: 11 17 00                          LD      DE,0017h
133B: 19                                ADD     HL,DE
133C: 5E                                LD      E,(HL)
133D: 23                                INC     HL
133E: 56                                LD      D,(HL)
133F: 23                                INC     HL
1340: 23                                INC     HL
1341: 7E                                LD      A,(HL)
1342: 2B                                DEC     HL
1343: 6E                                LD      L,(HL)
1344: 67                                LD      H,A
1345: 7B                                LD      A,E
1346: C6 FE                             ADD     A,0FEh
1348: 5F                                LD      E,A
1349: 7A                                LD      A,D
134A: CE FF                             ADC     A,0FFh
134C: 57                                LD      D,A
134D: 7D                                LD      A,L
134E: CE FF                             ADC     A,0FFh
1350: 6F                                LD      L,A
1351: 7C                                LD      A,H
1352: CE FF                             ADC     A,0FFh
1354: 67                                LD      H,A
1355: DD 7E 06                          LD      A,(IX+06h)
1358: 93                                SUB     E
1359: DD 7E 07                          LD      A,(IX+07h)
135C: 9A                                SBC     A,D
135D: DD 7E 08                          LD      A,(IX+08h)
1360: 9D                                SBC     A,L
1361: DD 7E 09                          LD      A,(IX+09h)
1364: 9C                                SBC     A,H
1365: 38 07                             JR      C,L136E
1367: 21 00 00                          LD      HL,0000h
136A: 5D                                LD      E,L
136B: 54                                LD      D,H
136C: 18 50                             JR      L13BE

136E: 69                         L136E: LD      L,C
136F: 60                                LD      H,B
1370: 11 2B 00                          LD      DE,002Bh
1373: 19                                ADD     HL,DE
1374: 7E                                LD      A,(HL)
1375: DD 77 FC                          LD      (IX-04h),A
1378: 23                                INC     HL
1379: 7E                                LD      A,(HL)
137A: DD 77 FD                          LD      (IX-03h),A
137D: 23                                INC     HL
137E: 7E                                LD      A,(HL)
137F: DD 77 FE                          LD      (IX-02h),A
1382: 23                                INC     HL
1383: 7E                                LD      A,(HL)
1384: DD 77 FF                          LD      (IX-01h),A
1387: 69                                LD      L,C
1388: 60                                LD      H,B
1389: 11 09 00                          LD      DE,0009h
138C: 19                                ADD     HL,DE
138D: 4E                                LD      C,(HL)
138E: 23                                INC     HL
138F: 46                                LD      B,(HL)
1390: 11 00 00                          LD      DE,0000h
1393: DD 6E 08                          LD      L,(IX+08h)
1396: DD 66 09                          LD      H,(IX+09h)
1399: E5                                PUSH    HL
139A: DD 6E 06                          LD      L,(IX+06h)
139D: DD 66 07                          LD      H,(IX+07h)
13A0: E5                                PUSH    HL
13A1: D5                                PUSH    DE
13A2: C5                                PUSH    BC
13A3: CD E7 4E                          CALL    L4EE7
13A6: F1                                POP     AF
13A7: F1                                POP     AF
13A8: F1                                POP     AF
13A9: F1                                POP     AF
13AA: DD 7E FC                          LD      A,(IX-04h)
13AD: 85                                ADD     A,L
13AE: 6F                                LD      L,A
13AF: DD 7E FD                          LD      A,(IX-03h)
13B2: 8C                                ADC     A,H
13B3: 67                                LD      H,A
13B4: DD 7E FE                          LD      A,(IX-02h)
13B7: 8B                                ADC     A,E
13B8: 5F                                LD      E,A
13B9: DD 7E FF                          LD      A,(IX-01h)
13BC: 8A                                ADC     A,D
13BD: 57                                LD      D,A
13BE: DD F9                      L13BE: LD      SP,IX
13C0: DD E1                             POP     IX
13C2: C9                                RET

                                        ; --- START PROC L13C3 ---
13C3: C1                         L13C3: POP     BC
13C4: E1                                POP     HL
13C5: E5                                PUSH    HL
13C6: C5                                PUSH    BC
13C7: AF                                XOR     A
13C8: 47                                LD      B,A
13C9: 4F                                LD      C,A
13CA: ED B1                             CPIR
13CC: 21 FF FF                          LD      HL,0FFFFh
13CF: ED 42                             SBC     HL,BC
13D1: C9                                RET

                                        ; --- START PROC L13D2 ---
13D2: E1                         L13D2: POP     HL
13D3: DD E5                             PUSH    IX
13D5: DD 21 00 00                       LD      IX,0000h
13D9: DD 39                             ADD     IX,SP
13DB: E9                                JP      (HL)

                                        ; --- START PROC L13DC ---
13DC: CD D2 13                   L13DC: CALL    L13D2
13DF: F5                                PUSH    AF
13E0: F5                                PUSH    AF
13E1: DD 7E 06                          LD      A,(IX+06h)
13E4: C6 1A                             ADD     A,1Ah
13E6: 4F                                LD      C,A
13E7: DD 7E 07                          LD      A,(IX+07h)
13EA: CE 00                             ADC     A,00h
13EC: 47                                LD      B,A
13ED: C5                                PUSH    BC
13EE: CD C3 22                          CALL    L22C3
13F1: F1                                POP     AF
13F2: DD 75 FC                          LD      (IX-04h),L
13F5: DD 74 FD                          LD      (IX-03h),H
13F8: AF                                XOR     A
13F9: DD 77 FE                          LD      (IX-02h),A
13FC: DD 77 FF                          LD      (IX-01h),A
13FF: DD 4E 04                          LD      C,(IX+04h)
1402: DD 46 05                          LD      B,(IX+05h)
1405: 0A                                LD      A,(BC)
1406: D6 03                             SUB     03h
1408: 20 30                             JR      NZ,L143A
140A: DD 7E 06                          LD      A,(IX+06h)
140D: C6 14                             ADD     A,14h
140F: 4F                                LD      C,A
1410: DD 7E 07                          LD      A,(IX+07h)
1413: CE 00                             ADC     A,00h
1415: 47                                LD      B,A
1416: C5                                PUSH    BC
1417: CD C3 22                          CALL    L22C3
141A: F1                                POP     AF
141B: 01 00 00                          LD      BC,0000h
141E: DD 7E FC                          LD      A,(IX-04h)
1421: B1                                OR      C
1422: DD 77 FC                          LD      (IX-04h),A
1425: DD 7E FD                          LD      A,(IX-03h)
1428: B0                                OR      B
1429: DD 77 FD                          LD      (IX-03h),A
142C: DD 7E FE                          LD      A,(IX-02h)
142F: B5                                OR      L
1430: DD 77 FE                          LD      (IX-02h),A
1433: DD 7E FF                          LD      A,(IX-01h)
1436: B4                                OR      H
1437: DD 77 FF                          LD      (IX-01h),A
143A: DD 6E FC                   L143A: LD      L,(IX-04h)
143D: DD 66 FD                          LD      H,(IX-03h)
1440: DD 5E FE                          LD      E,(IX-02h)
1443: DD 56 FF                          LD      D,(IX-01h)
1446: DD F9                             LD      SP,IX
1448: DD E1                             POP     IX
144A: C9                                RET

                                        ; --- START PROC L144B ---
144B: CD D2 13                   L144B: CALL    L13D2
144E: 21 F0 FF                          LD      HL,0FFF0h
1451: 39                                ADD     HL,SP
1452: F9                                LD      SP,HL
1453: DD 4E 04                          LD      C,(IX+04h)
1456: DD 46 05                          LD      B,(IX+05h)
1459: 0A                                LD      A,(BC)
145A: DD 77 F0                          LD      (IX-10h),A
145D: 03                                INC     BC
145E: 0A                                LD      A,(BC)
145F: DD 77 F1                          LD      (IX-0Fh),A
1462: DD 7E 06                          LD      A,(IX+06h)
1465: D6 02                             SUB     02h
1467: DD 7E 07                          LD      A,(IX+07h)
146A: DE 00                             SBC     A,00h
146C: DD 7E 08                          LD      A,(IX+08h)
146F: DE 00                             SBC     A,00h
1471: DD 7E 09                          LD      A,(IX+09h)
1474: DE 00                             SBC     A,00h
1476: 38 1F                             JR      C,L1497
1478: E1                                POP     HL
1479: E5                                PUSH    HL
147A: 11 17 00                          LD      DE,0017h
147D: 19                                ADD     HL,DE
147E: 4E                                LD      C,(HL)
147F: 23                                INC     HL
1480: 46                                LD      B,(HL)
1481: 23                                INC     HL
1482: 5E                                LD      E,(HL)
1483: 23                                INC     HL
1484: 56                                LD      D,(HL)
1485: DD 7E 06                          LD      A,(IX+06h)
1488: 91                                SUB     C
1489: DD 7E 07                          LD      A,(IX+07h)
148C: 98                                SBC     A,B
148D: DD 7E 08                          LD      A,(IX+08h)
1490: 9B                                SBC     A,E
1491: DD 7E 09                          LD      A,(IX+09h)
1494: 9A                                SBC     A,D
1495: 38 11                             JR      C,L14A8
1497: DD 36 F2 01                L1497: LD      (IX-0Eh),01h
149B: AF                                XOR     A
149C: DD 77 F3                          LD      (IX-0Dh),A
149F: DD 77 F4                          LD      (IX-0Ch),A
14A2: DD 77 F5                          LD      (IX-0Bh),A
14A5: C3 48 17                          JP      L1748

14A8: DD 36 F2 FF                L14A8: LD      (IX-0Eh),0FFh
14AC: DD 36 F3 FF                       LD      (IX-0Dh),0FFh
14B0: DD 36 F4 FF                       LD      (IX-0Ch),0FFh
14B4: DD 36 F5 FF                       LD      (IX-0Bh),0FFh
14B8: E1                                POP     HL
14B9: E5                                PUSH    HL
14BA: 4E                                LD      C,(HL)
14BB: DD 7E F0                          LD      A,(IX-10h)
14BE: C6 23                             ADD     A,23h   ; '#'
14C0: DD 77 FE                          LD      (IX-02h),A
14C3: DD 7E F1                          LD      A,(IX-0Fh)
14C6: CE 00                             ADC     A,00h
14C8: DD 77 FF                          LD      (IX-01h),A
14CB: DD 7E F0                          LD      A,(IX-10h)
14CE: C6 33                             ADD     A,33h   ; '3'
14D0: DD 77 F6                          LD      (IX-0Ah),A
14D3: DD 7E F1                          LD      A,(IX-0Fh)
14D6: CE 00                             ADC     A,00h
14D8: DD 77 F7                          LD      (IX-09h),A
14DB: 79                                LD      A,C
14DC: 3D                                DEC     A
14DD: 28 0E                             JR      Z,L14ED
14DF: 79                                LD      A,C
14E0: FE 02                             CP      02h
14E2: CA 3F 16                          JP      Z,L163F
14E5: D6 03                             SUB     03h
14E7: CA B4 16                          JP      Z,L16B4
14EA: C3 3A 17                          JP      L173A

14ED: DD 4E 06                   L14ED: LD      C,(IX+06h)
14F0: DD 46 07                          LD      B,(IX+07h)
14F3: 69                                LD      L,C
14F4: 60                                LD      H,B
14F5: CB 3C                             SRL     H
14F7: CB 1D                             RR      L
14F9: 09                                ADD     HL,BC
14FA: E5                                PUSH    HL
14FB: DD 5E FE                          LD      E,(IX-02h)
14FE: DD 56 FF                          LD      D,(IX-01h)
1501: 21 0C 00                          LD      HL,000Ch
1504: 39                                ADD     HL,SP
1505: EB                                EX      DE,HL
1506: 01 04 00                          LD      BC,0004h
1509: ED B0                             LDIR
150B: D1                                POP     DE
150C: 7A                                LD      A,D
150D: CB 3F                             SRL     A
150F: 4F                                LD      C,A
1510: 06 00                             LD      B,00h
1512: 21 00 00                          LD      HL,0000h
1515: DD 7E FA                          LD      A,(IX-06h)
1518: 81                                ADD     A,C
1519: 4F                                LD      C,A
151A: DD 7E FB                          LD      A,(IX-05h)
151D: 88                                ADC     A,B
151E: 47                                LD      B,A
151F: DD 7E FC                          LD      A,(IX-04h)
1522: 8D                                ADC     A,L
1523: 6F                                LD      L,A
1524: DD 7E FD                          LD      A,(IX-03h)
1527: 8C                                ADC     A,H
1528: 67                                LD      H,A
1529: D5                                PUSH    DE
152A: E5                                PUSH    HL
152B: C5                                PUSH    BC
152C: DD 6E F0                          LD      L,(IX-10h)
152F: DD 66 F1                          LD      H,(IX-0Fh)
1532: E5                                PUSH    HL
1533: CD E2 22                          CALL    L22E2
1536: F1                                POP     AF
1537: F1                                POP     AF
1538: F1                                POP     AF
1539: 7D                                LD      A,L
153A: D1                                POP     DE
153B: B7                                OR      A
153C: C2 48 17                          JP      NZ,L1748
153F: 4B                                LD      C,E
1540: 42                                LD      B,D
1541: 13                                INC     DE
1542: DD 73 F8                          LD      (IX-08h),E
1545: DD 72 F9                          LD      (IX-07h),D
1548: 78                                LD      A,B
1549: E6 01                             AND     01h
154B: 47                                LD      B,A
154C: 79                                LD      A,C
154D: DD 86 F6                          ADD     A,(IX-0Ah)
1550: DD 77 FC                          LD      (IX-04h),A
1553: 78                                LD      A,B
1554: DD 8E F7                          ADC     A,(IX-09h)
1557: DD 77 FD                          LD      (IX-03h),A
155A: DD 6E FC                          LD      L,(IX-04h)
155D: DD 66 FD                          LD      H,(IX-03h)
1560: 7E                                LD      A,(HL)
1561: DD 77 FD                          LD      (IX-03h),A
1564: DD 77 FA                          LD      (IX-06h),A
1567: AF                                XOR     A
1568: DD 77 FB                          LD      (IX-05h),A
156B: DD 5E FE                          LD      E,(IX-02h)
156E: DD 56 FF                          LD      D,(IX-01h)
1571: 21 0C 00                          LD      HL,000Ch
1574: 39                                ADD     HL,SP
1575: EB                                EX      DE,HL
1576: 01 04 00                          LD      BC,0004h
1579: ED B0                             LDIR
157B: DD 7E F9                          LD      A,(IX-07h)
157E: CB 3F                             SRL     A
1580: 4F                                LD      C,A
1581: 06 00                             LD      B,00h
1583: 11 00 00                          LD      DE,0000h
1586: DD 7E FC                          LD      A,(IX-04h)
1589: 81                                ADD     A,C
158A: 4F                                LD      C,A
158B: DD 7E FD                          LD      A,(IX-03h)
158E: 88                                ADC     A,B
158F: 47                                LD      B,A
1590: DD 7E FE                          LD      A,(IX-02h)
1593: 8B                                ADC     A,E
1594: 5F                                LD      E,A
1595: DD 7E FF                          LD      A,(IX-01h)
1598: 8A                                ADC     A,D
1599: 57                                LD      D,A
159A: D5                                PUSH    DE
159B: C5                                PUSH    BC
159C: DD 6E F0                          LD      L,(IX-10h)
159F: DD 66 F1                          LD      H,(IX-0Fh)
15A2: E5                                PUSH    HL
15A3: CD E2 22                          CALL    L22E2
15A6: F1                                POP     AF
15A7: F1                                POP     AF
15A8: F1                                POP     AF
15A9: 7D                                LD      A,L
15AA: B7                                OR      A
15AB: C2 48 17                          JP      NZ,L1748
15AE: DD 7E F8                          LD      A,(IX-08h)
15B1: DD 77 FE                          LD      (IX-02h),A
15B4: DD 7E F9                          LD      A,(IX-07h)
15B7: E6 01                             AND     01h
15B9: DD 77 FF                          LD      (IX-01h),A
15BC: DD 7E FE                          LD      A,(IX-02h)
15BF: DD 86 F6                          ADD     A,(IX-0Ah)
15C2: DD 77 FC                          LD      (IX-04h),A
15C5: DD 7E FF                          LD      A,(IX-01h)
15C8: DD 8E F7                          ADC     A,(IX-09h)
15CB: DD 77 FD                          LD      (IX-03h),A
15CE: DD 6E FC                          LD      L,(IX-04h)
15D1: DD 66 FD                          LD      H,(IX-03h)
15D4: 7E                                LD      A,(HL)
15D5: DD 77 FF                          LD      (IX-01h),A
15D8: DD 77 FE                          LD      (IX-02h),A
15DB: AF                                XOR     A
15DC: DD 77 FF                          LD      (IX-01h),A
15DF: DD 7E FE                          LD      A,(IX-02h)
15E2: DD 77 FF                          LD      (IX-01h),A
15E5: DD 36 FE 00                       LD      (IX-02h),00h
15E9: DD 7E FA                          LD      A,(IX-06h)
15EC: DD B6 FE                          OR      (IX-02h)
15EF: DD 77 FC                          LD      (IX-04h),A
15F2: DD 7E FB                          LD      A,(IX-05h)
15F5: DD B6 FF                          OR      (IX-01h)
15F8: DD 77 FD                          LD      (IX-03h),A
15FB: DD CB 06 46                       BIT     0,(IX+06h)
15FF: 28 1A                             JR      Z,L161B
1601: DD 7E FC                          LD      A,(IX-04h)
1604: DD 77 FE                          LD      (IX-02h),A
1607: DD 7E FD                          LD      A,(IX-03h)
160A: DD 77 FF                          LD      (IX-01h),A
160D: 06 04                             LD      B,04h
160F: DD CB FF 3E                L160F: SRL     (IX-01h)
1613: DD CB FE 1E                       RR      (IX-02h)
1617: 10 F6                             DJNZ    L160F
1619: 18 0E                             JR      L1629

161B: DD 7E FC                   L161B: LD      A,(IX-04h)
161E: DD 77 FE                          LD      (IX-02h),A
1621: DD 7E FD                          LD      A,(IX-03h)
1624: E6 0F                             AND     0Fh
1626: DD 77 FF                          LD      (IX-01h),A
1629: DD 7E FE                   L1629: LD      A,(IX-02h)
162C: DD 77 F2                          LD      (IX-0Eh),A
162F: DD 7E FF                          LD      A,(IX-01h)
1632: DD 77 F3                          LD      (IX-0Dh),A
1635: AF                                XOR     A
1636: DD 77 F4                          LD      (IX-0Ch),A
1639: DD 77 F5                          LD      (IX-0Bh),A
163C: C3 48 17                          JP      L1748

163F: DD 5E FE                   L163F: LD      E,(IX-02h)
1642: DD 56 FF                          LD      D,(IX-01h)
1645: 21 0C 00                          LD      HL,000Ch
1648: 39                                ADD     HL,SP
1649: EB                                EX      DE,HL
164A: 01 04 00                          LD      BC,0004h
164D: ED B0                             LDIR
164F: DD 4E 07                          LD      C,(IX+07h)
1652: DD 46 08                          LD      B,(IX+08h)
1655: DD 5E 09                          LD      E,(IX+09h)
1658: 16 00                             LD      D,00h
165A: DD 7E FC                          LD      A,(IX-04h)
165D: 81                                ADD     A,C
165E: 4F                                LD      C,A
165F: DD 7E FD                          LD      A,(IX-03h)
1662: 88                                ADC     A,B
1663: 47                                LD      B,A
1664: DD 7E FE                          LD      A,(IX-02h)
1667: 8B                                ADC     A,E
1668: 5F                                LD      E,A
1669: DD 7E FF                          LD      A,(IX-01h)
166C: 8A                                ADC     A,D
166D: 57                                LD      D,A
166E: D5                                PUSH    DE
166F: C5                                PUSH    BC
1670: DD 6E F0                          LD      L,(IX-10h)
1673: DD 66 F1                          LD      H,(IX-0Fh)
1676: E5                                PUSH    HL
1677: CD E2 22                          CALL    L22E2
167A: F1                                POP     AF
167B: F1                                POP     AF
167C: F1                                POP     AF
167D: 7D                                LD      A,L
167E: B7                                OR      A
167F: C2 48 17                          JP      NZ,L1748
1682: DD 4E 06                          LD      C,(IX+06h)
1685: DD 46 07                          LD      B,(IX+07h)
1688: DD 6E 08                          LD      L,(IX+08h)
168B: DD 66 09                          LD      H,(IX+09h)
168E: CB 21                             SLA     C
1690: CB 10                             RL      B
1692: ED 6A                             ADC     HL,HL
1694: 78                                LD      A,B
1695: E6 01                             AND     01h
1697: 47                                LD      B,A
1698: DD 6E F6                          LD      L,(IX-0Ah)
169B: DD 66 F7                          LD      H,(IX-09h)
169E: 09                                ADD     HL,BC
169F: E5                                PUSH    HL
16A0: CD C3 22                          CALL    L22C3
16A3: F1                                POP     AF
16A4: DD 75 F2                          LD      (IX-0Eh),L
16A7: DD 74 F3                          LD      (IX-0Dh),H
16AA: AF                                XOR     A
16AB: DD 77 F4                          LD      (IX-0Ch),A
16AE: DD 77 F5                          LD      (IX-0Bh),A
16B1: C3 48 17                          JP      L1748

16B4: DD 5E FE                   L16B4: LD      E,(IX-02h)
16B7: DD 56 FF                          LD      D,(IX-01h)
16BA: 21 0C 00                          LD      HL,000Ch
16BD: 39                                ADD     HL,SP
16BE: EB                                EX      DE,HL
16BF: 01 04 00                          LD      BC,0004h
16C2: ED B0                             LDIR
16C4: DD 5E 06                          LD      E,(IX+06h)
16C7: DD 56 07                          LD      D,(IX+07h)
16CA: DD 6E 08                          LD      L,(IX+08h)
16CD: DD 66 09                          LD      H,(IX+09h)
16D0: 06 07                             LD      B,07h
16D2: CB 3C                      L16D2: SRL     H
16D4: CB 1D                             RR      L
16D6: CB 1A                             RR      D
16D8: CB 1B                             RR      E
16DA: 10 F6                             DJNZ    L16D2
16DC: DD 7E FC                          LD      A,(IX-04h)
16DF: 83                                ADD     A,E
16E0: 4F                                LD      C,A
16E1: DD 7E FD                          LD      A,(IX-03h)
16E4: 8A                                ADC     A,D
16E5: 47                                LD      B,A
16E6: DD 7E FE                          LD      A,(IX-02h)
16E9: 8D                                ADC     A,L
16EA: 5F                                LD      E,A
16EB: DD 7E FF                          LD      A,(IX-01h)
16EE: 8C                                ADC     A,H
16EF: 57                                LD      D,A
16F0: D5                                PUSH    DE
16F1: C5                                PUSH    BC
16F2: DD 6E F0                          LD      L,(IX-10h)
16F5: DD 66 F1                          LD      H,(IX-0Fh)
16F8: E5                                PUSH    HL
16F9: CD E2 22                          CALL    L22E2
16FC: F1                                POP     AF
16FD: F1                                POP     AF
16FE: F1                                POP     AF
16FF: 7D                                LD      A,L
1700: B7                                OR      A
1701: 20 45                             JR      NZ,L1748
1703: DD 5E 06                          LD      E,(IX+06h)
1706: DD 56 07                          LD      D,(IX+07h)
1709: DD 6E 08                          LD      L,(IX+08h)
170C: DD 66 09                          LD      H,(IX+09h)
170F: 06 02                             LD      B,02h
1711: CB 23                      L1711: SLA     E
1713: CB 12                             RL      D
1715: ED 6A                             ADC     HL,HL
1717: 10 F8                             DJNZ    L1711
1719: 7A                                LD      A,D
171A: E6 01                             AND     01h
171C: 57                                LD      D,A
171D: DD 6E F6                          LD      L,(IX-0Ah)
1720: DD 66 F7                          LD      H,(IX-09h)
1723: 19                                ADD     HL,DE
1724: E5                                PUSH    HL
1725: CD 7A 11                          CALL    L117A
1728: F1                                POP     AF
1729: DD 75 F2                          LD      (IX-0Eh),L
172C: DD 74 F3                          LD      (IX-0Dh),H
172F: DD 73 F4                          LD      (IX-0Ch),E
1732: 7A                                LD      A,D
1733: E6 0F                             AND     0Fh
1735: DD 77 F5                          LD      (IX-0Bh),A
1738: 18 0E                             JR      L1748

173A: DD 36 F2 01                L173A: LD      (IX-0Eh),01h
173E: AF                                XOR     A
173F: DD 77 F3                          LD      (IX-0Dh),A
1742: DD 77 F4                          LD      (IX-0Ch),A
1745: DD 77 F5                          LD      (IX-0Bh),A
1748: DD 6E F2                   L1748: LD      L,(IX-0Eh)
174B: DD 66 F3                          LD      H,(IX-0Dh)
174E: DD 5E F4                          LD      E,(IX-0Ch)
1751: DD 56 F5                          LD      D,(IX-0Bh)
1754: DD F9                             LD      SP,IX
1756: DD E1                             POP     IX
1758: C9                                RET

                                        ; --- START PROC L1759 ---
1759: F5                         L1759: PUSH    AF
175A: 21 04 00                          LD      HL,0004h
175D: 39                                ADD     HL,SP
175E: 4E                                LD      C,(HL)
175F: 23                                INC     HL
1760: 46                                LD      B,(HL)
1761: C5                                PUSH    BC
1762: CD 2A 3C                          CALL    L3C2A
1765: F1                                POP     AF
1766: 7D                                LD      A,L
1767: B7                                OR      A
1768: 20 1E                             JR      NZ,L1788
176A: 21 00 00                          LD      HL,0000h
176D: 39                                ADD     HL,SP
176E: EB                                EX      DE,HL
176F: 21 04 00                          LD      HL,0004h
1772: 39                                ADD     HL,SP
1773: 7E                                LD      A,(HL)
1774: 23                                INC     HL
1775: 66                                LD      H,(HL)
1776: 6F                                LD      L,A
1777: E5                                PUSH    HL
1778: D5                                PUSH    DE
1779: E5                                PUSH    HL
177A: CD F2 10                          CALL    L10F2
177D: F1                                POP     AF
177E: F1                                POP     AF
177F: 7D                                LD      A,L
1780: E1                                POP     HL
1781: B7                                OR      A
1782: 20 04                             JR      NZ,L1788
1784: 77                                LD      (HL),A
1785: 23                                INC     HL
1786: 36 00                             LD      (HL),00h
1788: 6F                         L1788: LD      L,A
1789: F1                                POP     AF
178A: C9                                RET

                                        ; --- START PROC L178B ---
178B: CD D2 13                   L178B: CALL    L13D2
178E: 21 F2 FF                          LD      HL,0FFF2h
1791: 39                                ADD     HL,SP
1792: F9                                LD      SP,HL
1793: DD 4E 04                          LD      C,(IX+04h)
1796: DD 46 05                          LD      B,(IX+05h)
1799: 59                                LD      E,C
179A: 50                                LD      D,B
179B: 0A                                LD      A,(BC)
179C: DD 77 F2                          LD      (IX-0Eh),A
179F: 03                                INC     BC
17A0: 0A                                LD      A,(BC)
17A1: DD 77 F3                          LD      (IX-0Dh),A
17A4: 0B                                DEC     BC
17A5: DD 6E 06                          LD      L,(IX+06h)
17A8: DD 66 07                          LD      H,(IX+07h)
17AB: 7E                                LD      A,(HL)
17AC: DD 77 FF                          LD      (IX-01h),A
17AF: 79                                LD      A,C
17B0: C6 06                             ADD     A,06h
17B2: DD 77 F4                          LD      (IX-0Ch),A
17B5: 78                                LD      A,B
17B6: CE 00                             ADC     A,00h
17B8: DD 77 F5                          LD      (IX-0Bh),A
17BB: DD 7E FF                          LD      A,(IX-01h)
17BE: D6 2F                             SUB     2Fh     ; '/'
17C0: 28 37                             JR      Z,L17F9
17C2: DD 7E FF                          LD      A,(IX-01h)
17C5: D6 5C                             SUB     5Ch     ; '\'
17C7: 28 30                             JR      Z,L17F9
17C9: E1                                POP     HL
17CA: E5                                PUSH    HL
17CB: C5                                PUSH    BC
17CC: 01 13 00                          LD      BC,0013h
17CF: 09                                ADD     HL,BC
17D0: C1                                POP     BC
17D1: 7E                                LD      A,(HL)
17D2: DD 77 FC                          LD      (IX-04h),A
17D5: 23                                INC     HL
17D6: 7E                                LD      A,(HL)
17D7: DD 77 FD                          LD      (IX-03h),A
17DA: 23                                INC     HL
17DB: 7E                                LD      A,(HL)
17DC: DD 77 FE                          LD      (IX-02h),A
17DF: 23                                INC     HL
17E0: 7E                                LD      A,(HL)
17E1: DD 77 FF                          LD      (IX-01h),A
17E4: D5                                PUSH    DE
17E5: C5                                PUSH    BC
17E6: DD 5E F4                          LD      E,(IX-0Ch)
17E9: DD 56 F5                          LD      D,(IX-0Bh)
17EC: 21 0E 00                          LD      HL,000Eh
17EF: 39                                ADD     HL,SP
17F0: 01 04 00                          LD      BC,0004h
17F3: ED B0                             LDIR
17F5: C1                                POP     BC
17F6: D1                                POP     DE
17F7: 18 24                             JR      L181D

17F9: 7E                         L17F9: LD      A,(HL)
17FA: FE 2F                             CP      2Fh     ; '/'
17FC: 28 04                             JR      Z,L1802
17FE: D6 5C                             SUB     5Ch     ; '\'
1800: 20 09                             JR      NZ,L180B
1802: 23                         L1802: INC     HL
1803: DD 75 06                          LD      (IX+06h),L
1806: DD 74 07                          LD      (IX+07h),H
1809: 18 EE                             JR      L17F9

180B: DD 75 06                   L180B: LD      (IX+06h),L
180E: DD 74 07                          LD      (IX+07h),H
1811: 21 06 00                          LD      HL,0006h
1814: 19                                ADD     HL,DE
1815: AF                                XOR     A
1816: 77                                LD      (HL),A
1817: 23                                INC     HL
1818: 77                                LD      (HL),A
1819: 23                                INC     HL
181A: 77                                LD      (HL),A
181B: 23                                INC     HL
181C: 77                                LD      (HL),A
181D: DD 6E 06                   L181D: LD      L,(IX+06h)
1820: DD 66 07                          LD      H,(IX+07h)
1823: 6E                                LD      L,(HL)
1824: 26 00                             LD      H,00h
1826: 7D                                LD      A,L
1827: D6 20                             SUB     20h     ; ' '
1829: 7C                                LD      A,H
182A: DE 00                             SBC     A,00h
182C: 30 1B                             JR      NC,L1849
182E: 21 27 00                          LD      HL,0027h
1831: 19                                ADD     HL,DE
1832: 36 80                             LD      (HL),80h
1834: 21 00 00                          LD      HL,0000h
1837: E5                                PUSH    HL
1838: 21 00 00                          LD      HL,0000h
183B: E5                                PUSH    HL
183C: D5                                PUSH    DE
183D: CD C7 42                          CALL    L42C7
1840: F1                                POP     AF
1841: F1                                POP     AF
1842: F1                                POP     AF
1843: DD 75 FC                          LD      (IX-04h),L
1846: C3 4E 19                          JP      L194E

1849: 21 14 00                   L1849: LD      HL,0014h
184C: 39                                ADD     HL,SP
184D: C5                                PUSH    BC
184E: D5                                PUSH    DE
184F: E5                                PUSH    HL
1850: D5                                PUSH    DE
1851: CD 9D 2A                          CALL    L2A9D
1854: F1                                POP     AF
1855: F1                                POP     AF
1856: D1                                POP     DE
1857: C1                                POP     BC
1858: DD 75 FC                          LD      (IX-04h),L
185B: 7D                                LD      A,L
185C: B7                                OR      A
185D: C2 4E 19                          JP      NZ,L194E
1860: C5                                PUSH    BC
1861: D5                                PUSH    DE
1862: D5                                PUSH    DE
1863: CD 22 3B                          CALL    L3B22
1866: F1                                POP     AF
1867: D1                                POP     DE
1868: C1                                POP     BC
1869: DD 75 FC                          LD      (IX-04h),L
186C: 21 27 00                          LD      HL,0027h
186F: 09                                ADD     HL,BC
1870: 7E                                LD      A,(HL)
1871: DD 77 FD                          LD      (IX-03h),A
1874: E6 04                             AND     04h
1876: DD 77 FE                          LD      (IX-02h),A
1879: DD 36 FF 00                       LD      (IX-01h),00h
187D: DD 7E FC                          LD      A,(IX-04h)
1880: B7                                OR      A
1881: 28 2F                             JR      Z,L18B2
1883: DD 7E FC                          LD      A,(IX-04h)
1886: D6 04                             SUB     04h
1888: C2 4E 19                          JP      NZ,L194E
188B: DD CB FD 6E                       BIT     5,(IX-03h)
188F: 28 11                             JR      Z,L18A2
1891: DD 7E FF                          LD      A,(IX-01h)
1894: DD B6 FE                          OR      (IX-02h)
1897: 28 B0                             JR      Z,L1849
1899: 36 80                             LD      (HL),80h
189B: AF                                XOR     A
189C: DD 77 FC                          LD      (IX-04h),A
189F: C3 4E 19                          JP      L194E

18A2: DD 7E FF                   L18A2: LD      A,(IX-01h)
18A5: DD B6 FE                          OR      (IX-02h)
18A8: C2 4E 19                          JP      NZ,L194E
18AB: DD 36 FC 05                       LD      (IX-04h),05h
18AF: C3 4E 19                          JP      L194E

18B2: DD 7E FF                   L18B2: LD      A,(IX-01h)
18B5: DD B6 FE                          OR      (IX-02h)
18B8: C2 4E 19                          JP      NZ,L194E
18BB: 69                                LD      L,C
18BC: 60                                LD      H,B
18BD: 23                                INC     HL
18BE: 23                                INC     HL
18BF: 23                                INC     HL
18C0: 23                                INC     HL
18C1: CB 66                             BIT     4,(HL)
18C3: 20 07                             JR      NZ,L18CC
18C5: DD 36 FC 05                       LD      (IX-04h),05h
18C9: C3 4E 19                          JP      L194E

18CC: DD 7E F2                   L18CC: LD      A,(IX-0Eh)
18CF: C6 33                             ADD     A,33h   ; '3'
18D1: DD 77 F6                          LD      (IX-0Ah),A
18D4: DD 7E F3                          LD      A,(IX-0Dh)
18D7: CE 00                             ADC     A,00h
18D9: DD 77 F7                          LD      (IX-09h),A
18DC: 69                                LD      L,C
18DD: 60                                LD      H,B
18DE: C5                                PUSH    BC
18DF: 01 0E 00                          LD      BC,000Eh
18E2: 09                                ADD     HL,BC
18E3: C1                                POP     BC
18E4: 7E                                LD      A,(HL)
18E5: DD 77 F8                          LD      (IX-08h),A
18E8: 23                                INC     HL
18E9: 7E                                LD      A,(HL)
18EA: DD 77 F9                          LD      (IX-07h),A
18ED: 23                                INC     HL
18EE: 7E                                LD      A,(HL)
18EF: DD 77 FA                          LD      (IX-06h),A
18F2: 23                                INC     HL
18F3: 7E                                LD      A,(HL)
18F4: DD 77 FB                          LD      (IX-05h),A
18F7: DD 7E F8                          LD      A,(IX-08h)
18FA: DD 77 FC                          LD      (IX-04h),A
18FD: DD 7E F9                          LD      A,(IX-07h)
1900: E6 01                             AND     01h
1902: DD 77 FD                          LD      (IX-03h),A
1905: DD 36 FE 00                       LD      (IX-02h),00h
1909: DD 36 FF 00                       LD      (IX-01h),00h
190D: DD 7E FC                          LD      A,(IX-04h)
1910: DD 86 F6                          ADD     A,(IX-0Ah)
1913: 6F                                LD      L,A
1914: DD 7E FD                          LD      A,(IX-03h)
1917: DD 8E F7                          ADC     A,(IX-09h)
191A: 67                                LD      H,A
191B: C5                                PUSH    BC
191C: D5                                PUSH    DE
191D: E5                                PUSH    HL
191E: DD 6E F2                          LD      L,(IX-0Eh)
1921: DD 66 F3                          LD      H,(IX-0Dh)
1924: E5                                PUSH    HL
1925: CD DC 13                          CALL    L13DC
1928: F1                                POP     AF
1929: F1                                POP     AF
192A: DD 75 FC                          LD      (IX-04h),L
192D: DD 74 FD                          LD      (IX-03h),H
1930: DD 73 FE                          LD      (IX-02h),E
1933: DD 72 FF                          LD      (IX-01h),D
1936: D1                                POP     DE
1937: C1                                POP     BC
1938: D5                                PUSH    DE
1939: C5                                PUSH    BC
193A: DD 5E F4                          LD      E,(IX-0Ch)
193D: DD 56 F5                          LD      D,(IX-0Bh)
1940: 21 0E 00                          LD      HL,000Eh
1943: 39                                ADD     HL,SP
1944: 01 04 00                          LD      BC,0004h
1947: ED B0                             LDIR
1949: C1                                POP     BC
194A: D1                                POP     DE
194B: C3 49 18                          JP      L1849

194E: DD 6E FC                   L194E: LD      L,(IX-04h)
1951: DD F9                             LD      SP,IX
1953: DD E1                             POP     IX
1955: C9                                RET

                                        ; --- START PROC L1956 ---
1956: CD D2 13                   L1956: CALL    L13D2
1959: DD 4E 04                          LD      C,(IX+04h)
195C: DD 46 05                          LD      B,(IX+05h)
195F: DD 7E 06                          LD      A,(IX+06h)
1962: 02                                LD      (BC),A
1963: 03                                INC     BC
1964: DD 71 04                          LD      (IX+04h),C
1967: DD 70 05                          LD      (IX+05h),B
196A: 06 08                             LD      B,08h
196C: DD CB 09 3E                L196C: SRL     (IX+09h)
1970: DD CB 08 1E                       RR      (IX+08h)
1974: DD CB 07 1E                       RR      (IX+07h)
1978: DD CB 06 1E                       RR      (IX+06h)
197C: 10 EE                             DJNZ    L196C
197E: DD 4E 04                          LD      C,(IX+04h)
1981: DD 46 05                          LD      B,(IX+05h)
1984: DD 7E 06                          LD      A,(IX+06h)
1987: 02                                LD      (BC),A
1988: 03                                INC     BC
1989: DD 71 04                          LD      (IX+04h),C
198C: DD 70 05                          LD      (IX+05h),B
198F: 06 08                             LD      B,08h
1991: DD CB 09 3E                L1991: SRL     (IX+09h)
1995: DD CB 08 1E                       RR      (IX+08h)
1999: DD CB 07 1E                       RR      (IX+07h)
199D: DD CB 06 1E                       RR      (IX+06h)
19A1: 10 EE                             DJNZ    L1991
19A3: DD 4E 04                          LD      C,(IX+04h)
19A6: DD 46 05                          LD      B,(IX+05h)
19A9: DD 7E 06                          LD      A,(IX+06h)
19AC: 02                                LD      (BC),A
19AD: 03                                INC     BC
19AE: DD 71 04                          LD      (IX+04h),C
19B1: DD 70 05                          LD      (IX+05h),B
19B4: 06 08                             LD      B,08h
19B6: DD CB 09 3E                L19B6: SRL     (IX+09h)
19BA: DD CB 08 1E                       RR      (IX+08h)
19BE: DD CB 07 1E                       RR      (IX+07h)
19C2: DD CB 06 1E                       RR      (IX+06h)
19C6: 10 EE                             DJNZ    L19B6
19C8: DD 4E 04                          LD      C,(IX+04h)
19CB: DD 46 05                          LD      B,(IX+05h)
19CE: DD 7E 06                          LD      A,(IX+06h)
19D1: 02                                LD      (BC),A
19D2: DD E1                             POP     IX
19D4: C9                                RET

                                        ; --- START PROC L19D5 ---
19D5: CD D2 13                   L19D5: CALL    L13D2
19D8: 21 F7 FF                          LD      HL,0FFF7h
19DB: 39                                ADD     HL,SP
19DC: F9                                LD      SP,HL
19DD: DD 7E 04                          LD      A,(IX+04h)
19E0: DD 77 FC                          LD      (IX-04h),A
19E3: DD 7E 05                          LD      A,(IX+05h)
19E6: DD 77 FD                          LD      (IX-03h),A
19E9: DD 6E FC                          LD      L,(IX-04h)
19EC: DD 66 FD                          LD      H,(IX-03h)
19EF: 7E                                LD      A,(HL)
19F0: DD 77 F7                          LD      (IX-09h),A
19F3: 23                                INC     HL
19F4: 7E                                LD      A,(HL)
19F5: DD 77 F8                          LD      (IX-08h),A
19F8: 21 00 00                          LD      HL,0000h
19FB: E5                                PUSH    HL
19FC: 21 00 00                          LD      HL,0000h
19FF: E5                                PUSH    HL
1A00: DD 6E FC                          LD      L,(IX-04h)
1A03: DD 66 FD                          LD      H,(IX-03h)
1A06: E5                                PUSH    HL
1A07: CD C7 42                          CALL    L42C7
1A0A: F1                                POP     AF
1A0B: F1                                POP     AF
1A0C: F1                                POP     AF
1A0D: DD 75 F9                          LD      (IX-07h),L
1A10: 7D                                LD      A,L
1A11: B7                                OR      A
1A12: C2 9E 1A                          JP      NZ,L1A9E
1A15: AF                                XOR     A
1A16: DD 77 FE                          LD      (IX-02h),A
1A19: DD 77 FF                          LD      (IX-01h),A
1A1C: DD 7E FC                          LD      A,(IX-04h)
1A1F: DD 77 FA                          LD      (IX-06h),A
1A22: DD 7E FD                          LD      A,(IX-03h)
1A25: DD 77 FB                          LD      (IX-05h),A
1A28: DD 6E FC                   L1A28: LD      L,(IX-04h)
1A2B: DD 66 FD                          LD      H,(IX-03h)
1A2E: 11 16 00                          LD      DE,0016h
1A31: 19                                ADD     HL,DE
1A32: 4E                                LD      C,(HL)
1A33: 23                                INC     HL
1A34: 46                                LD      B,(HL)
1A35: 23                                INC     HL
1A36: 5E                                LD      E,(HL)
1A37: 23                                INC     HL
1A38: 56                                LD      D,(HL)
1A39: D5                                PUSH    DE
1A3A: C5                                PUSH    BC
1A3B: DD 6E F7                          LD      L,(IX-09h)
1A3E: DD 66 F8                          LD      H,(IX-08h)
1A41: E5                                PUSH    HL
1A42: CD E2 22                          CALL    L22E2
1A45: F1                                POP     AF
1A46: F1                                POP     AF
1A47: F1                                POP     AF
1A48: DD 75 F9                          LD      (IX-07h),L
1A4B: 7D                                LD      A,L
1A4C: B7                                OR      A
1A4D: 20 4F                             JR      NZ,L1A9E
1A4F: DD 6E FA                          LD      L,(IX-06h)
1A52: DD 66 FB                          LD      H,(IX-05h)
1A55: 11 1A 00                          LD      DE,001Ah
1A58: 19                                ADD     HL,DE
1A59: 4E                                LD      C,(HL)
1A5A: 23                                INC     HL
1A5B: 46                                LD      B,(HL)
1A5C: 0A                                LD      A,(BC)
1A5D: FE E5                             CP      0E5h
1A5F: 28 03                             JR      Z,L1A64
1A61: B7                                OR      A
1A62: 20 1C                             JR      NZ,L1A80
1A64: DD 34 FE                   L1A64: INC     (IX-02h)
1A67: 20 03                             JR      NZ,L1A6C
1A69: DD 34 FF                          INC     (IX-01h)
1A6C: DD 7E FE                   L1A6C: LD      A,(IX-02h)
1A6F: DD 96 06                          SUB     (IX+06h)
1A72: 20 13                             JR      NZ,L1A87
1A74: DD 7E FF                          LD      A,(IX-01h)
1A77: DD 96 07                          SUB     (IX+07h)
1A7A: 28 22                             JR      Z,L1A9E
1A7C: 18 09                             JR      L1A87

1A7E: 18                         L1A7E: DB      18h
1A7F: 1E                                DB      1Eh

1A80: AF                         L1A80: XOR     A
1A81: DD 77 FE                          LD      (IX-02h),A
1A84: DD 77 FF                          LD      (IX-01h),A
1A87: 21 01 00                   L1A87: LD      HL,0001h
1A8A: E5                                PUSH    HL
1A8B: DD 6E FA                          LD      L,(IX-06h)
1A8E: DD 66 FB                          LD      H,(IX-05h)
1A91: E5                                PUSH    HL
1A92: CD 55 3F                          CALL    L3F55
1A95: F1                                POP     AF
1A96: F1                                POP     AF
1A97: DD 75 F9                          LD      (IX-07h),L
1A9A: 7D                                LD      A,L
1A9B: B7                                OR      A
1A9C: 28 8A                             JR      Z,L1A28
1A9E: DD 7E F9                   L1A9E: LD      A,(IX-07h)
1AA1: D6 04                             SUB     04h
1AA3: 20 04                             JR      NZ,L1AA9
1AA5: DD 36 F9 07                       LD      (IX-07h),07h
1AA9: DD 6E F9                   L1AA9: LD      L,(IX-07h)
1AAC: DD F9                             LD      SP,IX
1AAE: DD E1                             POP     IX
1AB0: C9                                RET

                                        ; --- START PROC L1AB1 ---
1AB1: CD D2 13                   L1AB1: CALL    L13D2
1AB4: 21 DC FF                          LD      HL,0FFDCh
1AB7: 39                                ADD     HL,SP
1AB8: F9                                LD      SP,HL
1AB9: DD 7E 06                          LD      A,(IX+06h)
1ABC: DD 77 FC                          LD      (IX-04h),A
1ABF: DD 7E 07                          LD      A,(IX+07h)
1AC2: DD 77 FD                          LD      (IX-03h),A
1AC5: DD 6E FC                          LD      L,(IX-04h)
1AC8: DD 66 FD                          LD      H,(IX-03h)
1ACB: AF                                XOR     A
1ACC: 77                                LD      (HL),A
1ACD: 23                                INC     HL
1ACE: 77                                LD      (HL),A
1ACF: DD 6E 04                          LD      L,(IX+04h)
1AD2: DD 66 05                          LD      H,(IX+05h)
1AD5: E5                                PUSH    HL
1AD6: CD 4D 3A                          CALL    L3A4D
1AD9: F1                                POP     AF
1ADA: DD 75 FE                          LD      (IX-02h),L
1ADD: DD 74 FF                          LD      (IX-01h),H
1AE0: DD CB FF 7E                       BIT     7,(IX-01h)
1AE4: 28 05                             JR      Z,L1AEB
1AE6: 2E 0B                             LD      L,0Bh
1AE8: C3 A6 22                          JP      L22A6

1AEB: 01 33 84                   L1AEB: LD      BC,8433h
1AEE: DD 6E FE                          LD      L,(IX-02h)
1AF1: DD 66 FF                          LD      H,(IX-01h)
1AF4: 29                                ADD     HL,HL
1AF5: 09                                ADD     HL,BC
1AF6: 7E                                LD      A,(HL)
1AF7: DD 77 E0                          LD      (IX-20h),A
1AFA: 23                                INC     HL
1AFB: 7E                                LD      A,(HL)
1AFC: DD 77 E1                          LD      (IX-1Fh),A
1AFF: DD B6 E0                          OR      (IX-20h)
1B02: 20 05                             JR      NZ,L1B09
1B04: 2E 0C                             LD      L,0Ch
1B06: C3 A6 22                          JP      L22A6

1B09: DD 6E FC                   L1B09: LD      L,(IX-04h)
1B0C: DD 66 FD                          LD      H,(IX-03h)
1B0F: DD 7E E0                          LD      A,(IX-20h)
1B12: 77                                LD      (HL),A
1B13: 23                                INC     HL
1B14: DD 7E E1                          LD      A,(IX-1Fh)
1B17: 77                                LD      (HL),A
1B18: DD 7E 08                          LD      A,(IX+08h)
1B1B: E6 FE                             AND     0FEh
1B1D: DD 77 08                          LD      (IX+08h),A
1B20: DD 6E E0                          LD      L,(IX-20h)
1B23: DD 66 E1                          LD      H,(IX-1Fh)
1B26: 7E                                LD      A,(HL)
1B27: DD 4E E0                          LD      C,(IX-20h)
1B2A: DD 46 E1                          LD      B,(IX-1Fh)
1B2D: 03                                INC     BC
1B2E: B7                                OR      A
1B2F: 28 21                             JR      Z,L1B52
1B31: 0A                                LD      A,(BC)
1B32: C5                                PUSH    BC
1B33: F5                                PUSH    AF
1B34: 33                                INC     SP
1B35: CD E5 02                          CALL    L02E5
1B38: 33                                INC     SP
1B39: C1                                POP     BC
1B3A: CB 45                             BIT     0,L
1B3C: 20 14                             JR      NZ,L1B52
1B3E: DD 7E 08                          LD      A,(IX+08h)
1B41: B7                                OR      A
1B42: 28 09                             JR      Z,L1B4D
1B44: CB 55                             BIT     2,L
1B46: 28 05                             JR      Z,L1B4D
1B48: 2E 0A                             LD      L,0Ah
1B4A: C3 A6 22                          JP      L22A6

1B4D: 2E 00                      L1B4D: LD      L,00h
1B4F: C3 A6 22                          JP      L22A6

1B52: DD 6E E0                   L1B52: LD      L,(IX-20h)
1B55: DD 66 E1                          LD      H,(IX-1Fh)
1B58: 36 00                             LD      (HL),00h
1B5A: DD 7E FE                          LD      A,(IX-02h)
1B5D: 02                                LD      (BC),A
1B5E: F5                                PUSH    AF
1B5F: 33                                INC     SP
1B60: CD D2 02                          CALL    L02D2
1B63: 33                                INC     SP
1B64: CB 45                             BIT     0,L
1B66: 28 05                             JR      Z,L1B6D
1B68: 2E 03                             LD      L,03h
1B6A: C3 A6 22                          JP      L22A6

1B6D: DD 7E 08                   L1B6D: LD      A,(IX+08h)
1B70: B7                                OR      A
1B71: 28 09                             JR      Z,L1B7C
1B73: CB 55                             BIT     2,L
1B75: 28 05                             JR      Z,L1B7C
1B77: 2E 0A                             LD      L,0Ah
1B79: C3 A6 22                          JP      L22A6

1B7C: 21 00 00                   L1B7C: LD      HL,0000h
1B7F: E5                                PUSH    HL
1B80: DD 6E E0                          LD      L,(IX-20h)
1B83: DD 66 E1                          LD      H,(IX-1Fh)
1B86: E5                                PUSH    HL
1B87: CD 1E 3E                          CALL    L3E1E
1B8A: F1                                POP     AF
1B8B: F1                                POP     AF
1B8C: 7D                                LD      A,L
1B8D: D6 04                             SUB     04h
1B8F: B4                                OR      H
1B90: 20 05                             JR      NZ,L1B97
1B92: 2E 01                             LD      L,01h
1B94: C3 A6 22                          JP      L22A6

1B97: 7D                         L1B97: LD      A,L
1B98: D6 02                             SUB     02h
1B9A: 7C                                LD      A,H
1B9B: DE 00                             SBC     A,00h
1B9D: 38 05                             JR      C,L1BA4
1B9F: 2E 0D                             LD      L,0Dh
1BA1: C3 A6 22                          JP      L22A6

1BA4: DD 6E E0                   L1BA4: LD      L,(IX-20h)
1BA7: DD 66 E1                          LD      H,(IX-1Fh)
1BAA: 11 2F 00                          LD      DE,002Fh
1BAD: 19                                ADD     HL,DE
1BAE: 7E                                LD      A,(HL)
1BAF: DD 77 E2                          LD      (IX-1Eh),A
1BB2: 23                                INC     HL
1BB3: 7E                                LD      A,(HL)
1BB4: DD 77 E3                          LD      (IX-1Dh),A
1BB7: 23                                INC     HL
1BB8: 7E                                LD      A,(HL)
1BB9: DD 77 E4                          LD      (IX-1Ch),A
1BBC: 23                                INC     HL
1BBD: 7E                                LD      A,(HL)
1BBE: DD 77 E5                          LD      (IX-1Bh),A
1BC1: DD 7E E0                          LD      A,(IX-20h)
1BC4: C6 33                             ADD     A,33h   ; '3'
1BC6: DD 77 E6                          LD      (IX-1Ah),A
1BC9: DD 7E E1                          LD      A,(IX-1Fh)
1BCC: CE 00                             ADC     A,00h
1BCE: DD 77 E7                          LD      (IX-19h),A
1BD1: DD 7E E6                          LD      A,(IX-1Ah)
1BD4: C6 0B                             ADD     A,0Bh
1BD6: 4F                                LD      C,A
1BD7: DD 7E E7                          LD      A,(IX-19h)
1BDA: CE 00                             ADC     A,00h
1BDC: 47                                LD      B,A
1BDD: C5                                PUSH    BC
1BDE: CD C3 22                          CALL    L22C3
1BE1: F1                                POP     AF
1BE2: 7D                                LD      A,L
1BE3: B7                                OR      A
1BE4: 20 05                             JR      NZ,L1BEB
1BE6: 7C                                LD      A,H
1BE7: D6 02                             SUB     02h
1BE9: 28 05                             JR      Z,L1BF0
1BEB: 2E 0D                      L1BEB: LD      L,0Dh
1BED: C3 A6 22                          JP      L22A6

1BF0: DD 7E E6                   L1BF0: LD      A,(IX-1Ah)
1BF3: C6 16                             ADD     A,16h
1BF5: 4F                                LD      C,A
1BF6: DD 7E E7                          LD      A,(IX-19h)
1BF9: CE 00                             ADC     A,00h
1BFB: 47                                LD      B,A
1BFC: C5                                PUSH    BC
1BFD: CD C3 22                          CALL    L22C3
1C00: F1                                POP     AF
1C01: 4D                                LD      C,L
1C02: 44                                LD      B,H
1C03: 11 00 00                          LD      DE,0000h
1C06: 7A                                LD      A,D
1C07: B3                                OR      E
1C08: B0                                OR      B
1C09: B1                                OR      C
1C0A: 20 13                             JR      NZ,L1C1F
1C0C: DD 7E E6                          LD      A,(IX-1Ah)
1C0F: C6 24                             ADD     A,24h   ; '$'
1C11: 4F                                LD      C,A
1C12: DD 7E E7                          LD      A,(IX-19h)
1C15: CE 00                             ADC     A,00h
1C17: 47                                LD      B,A
1C18: C5                                PUSH    BC
1C19: CD 7A 11                          CALL    L117A
1C1C: F1                                POP     AF
1C1D: 4D                                LD      C,L
1C1E: 44                                LD      B,H
1C1F: DD 7E E0                   L1C1F: LD      A,(IX-20h)
1C22: C6 1B                             ADD     A,1Bh
1C24: DD 77 E8                          LD      (IX-18h),A
1C27: DD 7E E1                          LD      A,(IX-1Fh)
1C2A: CE 00                             ADC     A,00h
1C2C: DD 77 E9                          LD      (IX-17h),A
1C2F: DD 6E E8                          LD      L,(IX-18h)
1C32: DD 66 E9                          LD      H,(IX-17h)
1C35: 71                                LD      (HL),C
1C36: 23                                INC     HL
1C37: 70                                LD      (HL),B
1C38: 23                                INC     HL
1C39: 73                                LD      (HL),E
1C3A: 23                                INC     HL
1C3B: 72                                LD      (HL),D
1C3C: DD 7E E0                          LD      A,(IX-20h)
1C3F: C6 02                             ADD     A,02h
1C41: DD 77 FE                          LD      (IX-02h),A
1C44: DD 7E E1                          LD      A,(IX-1Fh)
1C47: CE 00                             ADC     A,00h
1C49: DD 77 FF                          LD      (IX-01h),A
1C4C: DD 6E E6                          LD      L,(IX-1Ah)
1C4F: DD 66 E7                          LD      H,(IX-19h)
1C52: C5                                PUSH    BC
1C53: 01 10 00                          LD      BC,0010h
1C56: 09                                ADD     HL,BC
1C57: C1                                POP     BC
1C58: 7E                                LD      A,(HL)
1C59: DD 6E FE                          LD      L,(IX-02h)
1C5C: DD 66 FF                          LD      H,(IX-01h)
1C5F: 77                                LD      (HL),A
1C60: DD 6E FE                          LD      L,(IX-02h)
1C63: DD 66 FF                          LD      H,(IX-01h)
1C66: 6E                                LD      L,(HL)
1C67: 3D                                DEC     A
1C68: 28 0A                             JR      Z,L1C74
1C6A: 7D                                LD      A,L
1C6B: D6 02                             SUB     02h
1C6D: 28 05                             JR      Z,L1C74
1C6F: 2E 0D                             LD      L,0Dh
1C71: C3 A6 22                          JP      L22A6

1C74: DD 75 FC                   L1C74: LD      (IX-04h),L
1C77: AF                                XOR     A
1C78: DD 77 FD                          LD      (IX-03h),A
1C7B: DD 77 FE                          LD      (IX-02h),A
1C7E: DD 77 FF                          LD      (IX-01h),A
1C81: 6F                                LD      L,A
1C82: 67                                LD      H,A
1C83: E5                                PUSH    HL
1C84: DD 6E FC                          LD      L,(IX-04h)
1C87: DD 66 FD                          LD      H,(IX-03h)
1C8A: E5                                PUSH    HL
1C8B: D5                                PUSH    DE
1C8C: C5                                PUSH    BC
1C8D: CD E7 4E                          CALL    L4EE7
1C90: F1                                POP     AF
1C91: F1                                POP     AF
1C92: F1                                POP     AF
1C93: F1                                POP     AF
1C94: DD 75 EA                          LD      (IX-16h),L
1C97: DD 74 EB                          LD      (IX-15h),H
1C9A: DD 73 EC                          LD      (IX-14h),E
1C9D: DD 72 ED                          LD      (IX-13h),D
1CA0: DD 7E E0                          LD      A,(IX-20h)
1CA3: C6 09                             ADD     A,09h
1CA5: DD 77 FA                          LD      (IX-06h),A
1CA8: DD 7E E1                          LD      A,(IX-1Fh)
1CAB: CE 00                             ADC     A,00h
1CAD: DD 77 FB                          LD      (IX-05h),A
1CB0: DD 6E E6                          LD      L,(IX-1Ah)
1CB3: DD 66 E7                          LD      H,(IX-19h)
1CB6: 11 0D 00                          LD      DE,000Dh
1CB9: 19                                ADD     HL,DE
1CBA: 5E                                LD      E,(HL)
1CBB: 16 00                             LD      D,00h
1CBD: DD 6E FA                          LD      L,(IX-06h)
1CC0: DD 66 FB                          LD      H,(IX-05h)
1CC3: 73                                LD      (HL),E
1CC4: 23                                INC     HL
1CC5: 72                                LD      (HL),D
1CC6: DD 6E FA                          LD      L,(IX-06h)
1CC9: DD 66 FB                          LD      H,(IX-05h)
1CCC: 4E                                LD      C,(HL)
1CCD: 23                                INC     HL
1CCE: 46                                LD      B,(HL)
1CCF: 7A                                LD      A,D
1CD0: B3                                OR      E
1CD1: 28 0B                             JR      Z,L1CDE
1CD3: 59                                LD      E,C
1CD4: 50                                LD      D,B
1CD5: 1B                                DEC     DE
1CD6: 79                                LD      A,C
1CD7: A3                                AND     E
1CD8: 4F                                LD      C,A
1CD9: 78                                LD      A,B
1CDA: A2                                AND     D
1CDB: B1                                OR      C
1CDC: 28 05                             JR      Z,L1CE3
1CDE: 2E 0D                      L1CDE: LD      L,0Dh
1CE0: C3 A6 22                          JP      L22A6

1CE3: DD 7E E0                   L1CE3: LD      A,(IX-20h)
1CE6: C6 07                             ADD     A,07h
1CE8: DD 77 EE                          LD      (IX-12h),A
1CEB: DD 7E E1                          LD      A,(IX-1Fh)
1CEE: CE 00                             ADC     A,00h
1CF0: DD 77 EF                          LD      (IX-11h),A
1CF3: DD 7E E6                          LD      A,(IX-1Ah)
1CF6: C6 11                             ADD     A,11h
1CF8: 4F                                LD      C,A
1CF9: DD 7E E7                          LD      A,(IX-19h)
1CFC: CE 00                             ADC     A,00h
1CFE: 47                                LD      B,A
1CFF: C5                                PUSH    BC
1D00: CD C3 22                          CALL    L22C3
1D03: F1                                POP     AF
1D04: 4D                                LD      C,L
1D05: 44                                LD      B,H
1D06: DD 6E EE                          LD      L,(IX-12h)
1D09: DD 66 EF                          LD      H,(IX-11h)
1D0C: 71                                LD      (HL),C
1D0D: 23                                INC     HL
1D0E: 70                                LD      (HL),B
1D0F: 79                                LD      A,C
1D10: E6 0F                             AND     0Fh
1D12: 28 05                             JR      Z,L1D19
1D14: 2E 0D                             LD      L,0Dh
1D16: C3 A6 22                          JP      L22A6

1D19: DD 7E E6                   L1D19: LD      A,(IX-1Ah)
1D1C: C6 13                             ADD     A,13h
1D1E: 4F                                LD      C,A
1D1F: DD 7E E7                          LD      A,(IX-19h)
1D22: CE 00                             ADC     A,00h
1D24: 47                                LD      B,A
1D25: C5                                PUSH    BC
1D26: CD C3 22                          CALL    L22C3
1D29: F1                                POP     AF
1D2A: 4D                                LD      C,L
1D2B: 44                                LD      B,H
1D2C: 11 00 00                          LD      DE,0000h
1D2F: 7A                                LD      A,D
1D30: B3                                OR      E
1D31: B0                                OR      B
1D32: B1                                OR      C
1D33: 20 13                             JR      NZ,L1D48
1D35: DD 7E E6                          LD      A,(IX-1Ah)
1D38: C6 20                             ADD     A,20h   ; ' '
1D3A: 4F                                LD      C,A
1D3B: DD 7E E7                          LD      A,(IX-19h)
1D3E: CE 00                             ADC     A,00h
1D40: 47                                LD      B,A
1D41: C5                                PUSH    BC
1D42: CD 7A 11                          CALL    L117A
1D45: F1                                POP     AF
1D46: 4D                                LD      C,L
1D47: 44                                LD      B,H
1D48: DD 7E E6                   L1D48: LD      A,(IX-1Ah)
1D4B: C6 0E                             ADD     A,0Eh
1D4D: 6F                                LD      L,A
1D4E: DD 7E E7                          LD      A,(IX-19h)
1D51: CE 00                             ADC     A,00h
1D53: 67                                LD      H,A
1D54: C5                                PUSH    BC
1D55: D5                                PUSH    DE
1D56: E5                                PUSH    HL
1D57: CD C3 22                          CALL    L22C3
1D5A: F1                                POP     AF
1D5B: D1                                POP     DE
1D5C: C1                                POP     BC
1D5D: DD 75 FE                          LD      (IX-02h),L
1D60: DD 74 FF                          LD      (IX-01h),H
1D63: 7C                                LD      A,H
1D64: B5                                OR      L
1D65: 20 05                             JR      NZ,L1D6C
1D67: 2E 0D                             LD      L,0Dh
1D69: C3 A6 22                          JP      L22A6

1D6C: DD 7E FE                   L1D6C: LD      A,(IX-02h)
1D6F: DD 77 F0                          LD      (IX-10h),A
1D72: DD 7E FF                          LD      A,(IX-01h)
1D75: DD 77 F1                          LD      (IX-0Fh),A
1D78: AF                                XOR     A
1D79: DD 77 F2                          LD      (IX-0Eh),A
1D7C: DD 77 F3                          LD      (IX-0Dh),A
1D7F: DD 7E F0                          LD      A,(IX-10h)
1D82: DD 86 EA                          ADD     A,(IX-16h)
1D85: DD 77 DC                          LD      (IX-24h),A
1D88: DD 7E F1                          LD      A,(IX-0Fh)
1D8B: DD 8E EB                          ADC     A,(IX-15h)
1D8E: DD 77 DD                          LD      (IX-23h),A
1D91: DD 7E F2                          LD      A,(IX-0Eh)
1D94: DD 8E EC                          ADC     A,(IX-14h)
1D97: DD 77 DE                          LD      (IX-22h),A
1D9A: DD 7E F3                          LD      A,(IX-0Dh)
1D9D: DD 8E ED                          ADC     A,(IX-13h)
1DA0: DD 77 DF                          LD      (IX-21h),A
1DA3: DD 6E EE                          LD      L,(IX-12h)
1DA6: DD 66 EF                          LD      H,(IX-11h)
1DA9: 7E                                LD      A,(HL)
1DAA: 23                                INC     HL
1DAB: 66                                LD      H,(HL)
1DAC: 6F                                LD      L,A
1DAD: 3E 04                             LD      A,04h
1DAF: CB 3C                      L1DAF: SRL     H
1DB1: CB 1D                             RR      L
1DB3: 3D                                DEC     A
1DB4: 20 F9                             JR      NZ,L1DAF
1DB6: DD 75 F6                          LD      (IX-0Ah),L
1DB9: DD 74 F7                          LD      (IX-09h),H
1DBC: AF                                XOR     A
1DBD: DD 77 F8                          LD      (IX-08h),A
1DC0: DD 77 F9                          LD      (IX-07h),A
1DC3: DD 7E DC                          LD      A,(IX-24h)
1DC6: DD 86 F6                          ADD     A,(IX-0Ah)
1DC9: DD 77 FC                          LD      (IX-04h),A
1DCC: DD 7E DD                          LD      A,(IX-23h)
1DCF: DD 8E F7                          ADC     A,(IX-09h)
1DD2: DD 77 FD                          LD      (IX-03h),A
1DD5: DD 7E DE                          LD      A,(IX-22h)
1DD8: DD 8E F8                          ADC     A,(IX-08h)
1DDB: DD 77 FE                          LD      (IX-02h),A
1DDE: DD 7E DF                          LD      A,(IX-21h)
1DE1: DD 8E F9                          ADC     A,(IX-07h)
1DE4: DD 77 FF                          LD      (IX-01h),A
1DE7: D5                                PUSH    DE
1DE8: C5                                PUSH    BC
1DE9: 21 1C 00                          LD      HL,001Ch
1DEC: 39                                ADD     HL,SP
1DED: EB                                EX      DE,HL
1DEE: 21 24 00                          LD      HL,0024h
1DF1: 39                                ADD     HL,SP
1DF2: 01 04 00                          LD      BC,0004h
1DF5: ED B0                             LDIR
1DF7: C1                                POP     BC
1DF8: D1                                POP     DE
1DF9: 79                                LD      A,C
1DFA: DD 96 F4                          SUB     (IX-0Ch)
1DFD: 78                                LD      A,B
1DFE: DD 9E F5                          SBC     A,(IX-0Bh)
1E01: 7B                                LD      A,E
1E02: DD 9E F6                          SBC     A,(IX-0Ah)
1E05: 7A                                LD      A,D
1E06: DD 9E F7                          SBC     A,(IX-09h)
1E09: 30 05                             JR      NC,L1E10
1E0B: 2E 0D                             LD      L,0Dh
1E0D: C3 A6 22                          JP      L22A6

1E10: 79                         L1E10: LD      A,C
1E11: DD 96 F4                          SUB     (IX-0Ch)
1E14: DD 77 FC                          LD      (IX-04h),A
1E17: 78                                LD      A,B
1E18: DD 9E F5                          SBC     A,(IX-0Bh)
1E1B: DD 77 FD                          LD      (IX-03h),A
1E1E: 7B                                LD      A,E
1E1F: DD 9E F6                          SBC     A,(IX-0Ah)
1E22: DD 77 FE                          LD      (IX-02h),A
1E25: 7A                                LD      A,D
1E26: DD 9E F7                          SBC     A,(IX-09h)
1E29: DD 77 FF                          LD      (IX-01h),A
1E2C: DD 6E FA                          LD      L,(IX-06h)
1E2F: DD 66 FB                          LD      H,(IX-05h)
1E32: 4E                                LD      C,(HL)
1E33: 23                                INC     HL
1E34: 46                                LD      B,(HL)
1E35: 11 00 00                          LD      DE,0000h
1E38: D5                                PUSH    DE
1E39: C5                                PUSH    BC
1E3A: DD 6E FE                          LD      L,(IX-02h)
1E3D: DD 66 FF                          LD      H,(IX-01h)
1E40: E5                                PUSH    HL
1E41: DD 6E FC                          LD      L,(IX-04h)
1E44: DD 66 FD                          LD      H,(IX-03h)
1E47: E5                                PUSH    HL
1E48: CD 65 50                          CALL    L5065
1E4B: F1                                POP     AF
1E4C: F1                                POP     AF
1E4D: F1                                POP     AF
1E4E: F1                                POP     AF
1E4F: 4D                                LD      C,L
1E50: 44                                LD      B,H
1E51: 7A                                LD      A,D
1E52: B3                                OR      E
1E53: B0                                OR      B
1E54: B1                                OR      C
1E55: 20 05                             JR      NZ,L1E5C
1E57: 2E 0D                             LD      L,0Dh
1E59: C3 A6 22                          JP      L22A6

1E5C: AF                         L1E5C: XOR     A
1E5D: DD 77 F8                          LD      (IX-08h),A
1E60: DD 77 F9                          LD      (IX-07h),A
1E63: 3E F5                             LD      A,0F5h
1E65: B9                                CP      C
1E66: 3E FF                             LD      A,0FFh
1E68: 98                                SBC     A,B
1E69: 21 FF 0F                          LD      HL,0FFFh
1E6C: ED 52                             SBC     HL,DE
1E6E: 38 08                             JR      C,L1E78
1E70: DD 36 F8 03                       LD      (IX-08h),03h
1E74: AF                                XOR     A
1E75: DD 77 F9                          LD      (IX-07h),A
1E78: 3E F5                      L1E78: LD      A,0F5h
1E7A: B9                                CP      C
1E7B: 3E FF                             LD      A,0FFh
1E7D: 98                                SBC     A,B
1E7E: 21 00 00                          LD      HL,0000h
1E81: ED 52                             SBC     HL,DE
1E83: 38 08                             JR      C,L1E8D
1E85: DD 36 F8 02                       LD      (IX-08h),02h
1E89: AF                                XOR     A
1E8A: DD 77 F9                          LD      (IX-07h),A
1E8D: 3E F5                      L1E8D: LD      A,0F5h
1E8F: B9                                CP      C
1E90: 3E 0F                             LD      A,0Fh
1E92: 98                                SBC     A,B
1E93: 21 00 00                          LD      HL,0000h
1E96: ED 52                             SBC     HL,DE
1E98: 38 08                             JR      C,L1EA2
1E9A: DD 36 F8 01                       LD      (IX-08h),01h
1E9E: AF                                XOR     A
1E9F: DD 77 F9                          LD      (IX-07h),A
1EA2: DD 7E F9                   L1EA2: LD      A,(IX-07h)
1EA5: DD B6 F8                          OR      (IX-08h)
1EA8: 20 05                             JR      NZ,L1EAF
1EAA: 2E 0D                             LD      L,0Dh
1EAC: C3 A6 22                          JP      L22A6

1EAF: DD 7E E0                   L1EAF: LD      A,(IX-20h)
1EB2: C6 17                             ADD     A,17h
1EB4: DD 77 FA                          LD      (IX-06h),A
1EB7: DD 7E E1                          LD      A,(IX-1Fh)
1EBA: CE 00                             ADC     A,00h
1EBC: DD 77 FB                          LD      (IX-05h),A
1EBF: 79                                LD      A,C
1EC0: C6 02                             ADD     A,02h
1EC2: 4F                                LD      C,A
1EC3: 78                                LD      A,B
1EC4: CE 00                             ADC     A,00h
1EC6: 47                                LD      B,A
1EC7: 30 01                             JR      NC,L1ECA
1EC9: 13                                INC     DE
1ECA: DD 6E FA                   L1ECA: LD      L,(IX-06h)
1ECD: DD 66 FB                          LD      H,(IX-05h)
1ED0: 71                                LD      (HL),C
1ED1: 23                                INC     HL
1ED2: 70                                LD      (HL),B
1ED3: 23                                INC     HL
1ED4: 73                                LD      (HL),E
1ED5: 23                                INC     HL
1ED6: 72                                LD      (HL),D
1ED7: DD 7E E0                          LD      A,(IX-20h)
1EDA: C6 1F                             ADD     A,1Fh
1EDC: 5F                                LD      E,A
1EDD: DD 7E E1                          LD      A,(IX-1Fh)
1EE0: CE 00                             ADC     A,00h
1EE2: 57                                LD      D,A
1EE3: 21 06 00                          LD      HL,0006h
1EE6: 39                                ADD     HL,SP
1EE7: 01 04 00                          LD      BC,0004h
1EEA: ED B0                             LDIR
1EEC: DD 7E E0                          LD      A,(IX-20h)
1EEF: C6 23                             ADD     A,23h   ; '#'
1EF1: 4F                                LD      C,A
1EF2: DD 7E E1                          LD      A,(IX-1Fh)
1EF5: CE 00                             ADC     A,00h
1EF7: 47                                LD      B,A
1EF8: DD 7E F0                          LD      A,(IX-10h)
1EFB: DD 86 E2                          ADD     A,(IX-1Eh)
1EFE: DD 77 FC                          LD      (IX-04h),A
1F01: DD 7E F1                          LD      A,(IX-0Fh)
1F04: DD 8E E3                          ADC     A,(IX-1Dh)
1F07: DD 77 FD                          LD      (IX-03h),A
1F0A: DD 7E F2                          LD      A,(IX-0Eh)
1F0D: DD 8E E4                          ADC     A,(IX-1Ch)
1F10: DD 77 FE                          LD      (IX-02h),A
1F13: DD 7E F3                          LD      A,(IX-0Dh)
1F16: DD 8E E5                          ADC     A,(IX-1Bh)
1F19: DD 77 FF                          LD      (IX-01h),A
1F1C: C5                                PUSH    BC
1F1D: 59                                LD      E,C
1F1E: 50                                LD      D,B
1F1F: 21 22 00                          LD      HL,0022h
1F22: 39                                ADD     HL,SP
1F23: 01 04 00                          LD      BC,0004h
1F26: ED B0                             LDIR
1F28: C1                                POP     BC
1F29: DD 7E E0                          LD      A,(IX-20h)
1F2C: C6 2B                             ADD     A,2Bh   ; '+'
1F2E: 5F                                LD      E,A
1F2F: DD 7E E1                          LD      A,(IX-1Fh)
1F32: CE 00                             ADC     A,00h
1F34: 57                                LD      D,A
1F35: DD 7E F4                          LD      A,(IX-0Ch)
1F38: DD 86 E2                          ADD     A,(IX-1Eh)
1F3B: DD 77 FC                          LD      (IX-04h),A
1F3E: DD 7E F5                          LD      A,(IX-0Bh)
1F41: DD 8E E3                          ADC     A,(IX-1Dh)
1F44: DD 77 FD                          LD      (IX-03h),A
1F47: DD 7E F6                          LD      A,(IX-0Ah)
1F4A: DD 8E E4                          ADC     A,(IX-1Ch)
1F4D: DD 77 FE                          LD      (IX-02h),A
1F50: DD 7E F7                          LD      A,(IX-09h)
1F53: DD 8E E5                          ADC     A,(IX-1Bh)
1F56: DD 77 FF                          LD      (IX-01h),A
1F59: C5                                PUSH    BC
1F5A: 21 22 00                          LD      HL,0022h
1F5D: 39                                ADD     HL,SP
1F5E: 01 04 00                          LD      BC,0004h
1F61: ED B0                             LDIR
1F63: C1                                POP     BC
1F64: DD 7E F8                          LD      A,(IX-08h)
1F67: D6 03                             SUB     03h
1F69: DD B6 F9                          OR      (IX-07h)
1F6C: 3E 01                             LD      A,01h
1F6E: 28 01                             JR      Z,L1F71
1F70: AF                                XOR     A
1F71: DD 77 FF                   L1F71: LD      (IX-01h),A
1F74: DD 7E E0                          LD      A,(IX-20h)
1F77: C6 27                             ADD     A,27h   ; '''
1F79: 5F                                LD      E,A
1F7A: DD 7E E1                          LD      A,(IX-1Fh)
1F7D: CE 00                             ADC     A,00h
1F7F: 57                                LD      D,A
1F80: DD 7E FF                          LD      A,(IX-01h)
1F83: B7                                OR      A
1F84: CA 0B 20                          JP      Z,L200B
1F87: DD 7E E6                          LD      A,(IX-1Ah)
1F8A: C6 2A                             ADD     A,2Ah   ; '*'
1F8C: 4F                                LD      C,A
1F8D: DD 7E E7                          LD      A,(IX-19h)
1F90: CE 00                             ADC     A,00h
1F92: 47                                LD      B,A
1F93: D5                                PUSH    DE
1F94: C5                                PUSH    BC
1F95: CD C3 22                          CALL    L22C3
1F98: F1                                POP     AF
1F99: D1                                POP     DE
1F9A: 7C                                LD      A,H
1F9B: B5                                OR      L
1F9C: 28 05                             JR      Z,L1FA3
1F9E: 2E 0D                             LD      L,0Dh
1FA0: C3 A6 22                          JP      L22A6

1FA3: DD 6E EE                   L1FA3: LD      L,(IX-12h)
1FA6: DD 66 EF                          LD      H,(IX-11h)
1FA9: 7E                                LD      A,(HL)
1FAA: 23                                INC     HL
1FAB: B6                                OR      (HL)
1FAC: 28 05                             JR      Z,L1FB3
1FAE: 2E 0D                             LD      L,0Dh
1FB0: C3 A6 22                          JP      L22A6

1FB3: DD 7E E6                   L1FB3: LD      A,(IX-1Ah)
1FB6: C6 2C                             ADD     A,2Ch   ; ','
1FB8: 4F                                LD      C,A
1FB9: DD 7E E7                          LD      A,(IX-19h)
1FBC: CE 00                             ADC     A,00h
1FBE: 47                                LD      B,A
1FBF: D5                                PUSH    DE
1FC0: C5                                PUSH    BC
1FC1: CD 7A 11                          CALL    L117A
1FC4: F1                                POP     AF
1FC5: DD 75 F4                          LD      (IX-0Ch),L
1FC8: DD 74 F5                          LD      (IX-0Bh),H
1FCB: DD 73 F6                          LD      (IX-0Ah),E
1FCE: DD 72 F7                          LD      (IX-09h),D
1FD1: D1                                POP     DE
1FD2: 21 18 00                          LD      HL,0018h
1FD5: 39                                ADD     HL,SP
1FD6: 01 04 00                          LD      BC,0004h
1FD9: ED B0                             LDIR
1FDB: DD 6E FA                          LD      L,(IX-06h)
1FDE: DD 66 FB                          LD      H,(IX-05h)
1FE1: 4E                                LD      C,(HL)
1FE2: 23                                INC     HL
1FE3: 46                                LD      B,(HL)
1FE4: 23                                INC     HL
1FE5: 5E                                LD      E,(HL)
1FE6: 23                                INC     HL
1FE7: 56                                LD      D,(HL)
1FE8: DD 71 F4                          LD      (IX-0Ch),C
1FEB: DD 70 F5                          LD      (IX-0Bh),B
1FEE: DD 73 F6                          LD      (IX-0Ah),E
1FF1: DD 72 F7                          LD      (IX-09h),D
1FF4: 06 02                             LD      B,02h
1FF6: DD CB F4 26                L1FF6: SLA     (IX-0Ch)
1FFA: DD CB F5 16                       RL      (IX-0Bh)
1FFE: DD CB F6 16                       RL      (IX-0Ah)
2002: DD CB F7 16                       RL      (IX-09h)
2006: 10 EE                             DJNZ    L1FF6
2008: C3 D6 20                          JP      L20D6

200B: DD 6E EE                   L200B: LD      L,(IX-12h)
200E: DD 66 EF                          LD      H,(IX-11h)
2011: 23                                INC     HL
2012: 7E                                LD      A,(HL)
2013: 2B                                DEC     HL
2014: 6E                                LD      L,(HL)
2015: B5                                OR      L
2016: 20 05                             JR      NZ,L201D
2018: 2E 0D                             LD      L,0Dh
201A: C3 A6 22                          JP      L22A6

201D: 69                         L201D: LD      L,C
201E: 60                                LD      H,B
201F: 4E                                LD      C,(HL)
2020: 23                                INC     HL
2021: 46                                LD      B,(HL)
2022: 23                                INC     HL
2023: 23                                INC     HL
2024: 7E                                LD      A,(HL)
2025: 2B                                DEC     HL
2026: 6E                                LD      L,(HL)
2027: 67                                LD      H,A
2028: 79                                LD      A,C
2029: DD 86 EA                          ADD     A,(IX-16h)
202C: DD 77 F4                          LD      (IX-0Ch),A
202F: 78                                LD      A,B
2030: DD 8E EB                          ADC     A,(IX-15h)
2033: DD 77 F5                          LD      (IX-0Bh),A
2036: 7D                                LD      A,L
2037: DD 8E EC                          ADC     A,(IX-14h)
203A: DD 77 F6                          LD      (IX-0Ah),A
203D: 7C                                LD      A,H
203E: DD 8E ED                          ADC     A,(IX-13h)
2041: DD 77 F7                          LD      (IX-09h),A
2044: 21 18 00                          LD      HL,0018h
2047: 39                                ADD     HL,SP
2048: 01 04 00                          LD      BC,0004h
204B: ED B0                             LDIR
204D: DD 5E FA                          LD      E,(IX-06h)
2050: DD 56 FB                          LD      D,(IX-05h)
2053: 21 18 00                          LD      HL,0018h
2056: 39                                ADD     HL,SP
2057: EB                                EX      DE,HL
2058: 01 04 00                          LD      BC,0004h
205B: ED B0                             LDIR
205D: DD 7E F8                          LD      A,(IX-08h)
2060: D6 02                             SUB     02h
2062: DD B6 F9                          OR      (IX-07h)
2065: 20 16                             JR      NZ,L207D
2067: DD 4E F4                          LD      C,(IX-0Ch)
206A: DD 46 F5                          LD      B,(IX-0Bh)
206D: DD 5E F6                          LD      E,(IX-0Ah)
2070: DD 56 F7                          LD      D,(IX-09h)
2073: CB 21                             SLA     C
2075: CB 10                             RL      B
2077: CB 13                             RL      E
2079: CB 12                             RL      D
207B: 18 4D                             JR      L20CA

207D: DD 6E F6                   L207D: LD      L,(IX-0Ah)
2080: DD 66 F7                          LD      H,(IX-09h)
2083: E5                                PUSH    HL
2084: DD 6E F4                          LD      L,(IX-0Ch)
2087: DD 66 F5                          LD      H,(IX-0Bh)
208A: E5                                PUSH    HL
208B: 21 00 00                          LD      HL,0000h
208E: E5                                PUSH    HL
208F: 21 03 00                          LD      HL,0003h
2092: E5                                PUSH    HL
2093: CD E7 4E                          CALL    L4EE7
2096: F1                                POP     AF
2097: F1                                POP     AF
2098: F1                                POP     AF
2099: F1                                POP     AF
209A: CB 3A                             SRL     D
209C: CB 1B                             RR      E
209E: CB 1C                             RR      H
20A0: CB 1D                             RR      L
20A2: DD 7E F4                          LD      A,(IX-0Ch)
20A5: E6 01                             AND     01h
20A7: DD 77 FB                          LD      (IX-05h),A
20AA: DD 36 FC 00                       LD      (IX-04h),00h
20AE: DD 36 FD 00                       LD      (IX-03h),00h
20B2: DD 36 FE 00                       LD      (IX-02h),00h
20B6: 7D                                LD      A,L
20B7: DD 86 FB                          ADD     A,(IX-05h)
20BA: 4F                                LD      C,A
20BB: 7C                                LD      A,H
20BC: DD 8E FC                          ADC     A,(IX-04h)
20BF: 47                                LD      B,A
20C0: 7B                                LD      A,E
20C1: DD 8E FD                          ADC     A,(IX-03h)
20C4: 5F                                LD      E,A
20C5: 7A                                LD      A,D
20C6: DD 8E FE                          ADC     A,(IX-02h)
20C9: 57                                LD      D,A
20CA: DD 71 F4                   L20CA: LD      (IX-0Ch),C
20CD: DD 70 F5                          LD      (IX-0Bh),B
20D0: DD 73 F6                          LD      (IX-0Ah),E
20D3: DD 72 F7                          LD      (IX-09h),D
20D6: DD 5E E8                   L20D6: LD      E,(IX-18h)
20D9: DD 56 E9                          LD      D,(IX-17h)
20DC: 21 1F 00                          LD      HL,001Fh
20DF: 39                                ADD     HL,SP
20E0: EB                                EX      DE,HL
20E1: 01 04 00                          LD      BC,0004h
20E4: ED B0                             LDIR
20E6: DD 7E F4                          LD      A,(IX-0Ch)
20E9: C6 FF                             ADD     A,0FFh
20EB: DD 7E F5                          LD      A,(IX-0Bh)
20EE: CE 01                             ADC     A,01h
20F0: 47                                LD      B,A
20F1: DD 7E F6                          LD      A,(IX-0Ah)
20F4: CE 00                             ADC     A,00h
20F6: 5F                                LD      E,A
20F7: DD 7E F7                          LD      A,(IX-09h)
20FA: CE 00                             ADC     A,00h
20FC: 6F                                LD      L,A
20FD: 48                                LD      C,B
20FE: 43                                LD      B,E
20FF: 26 00                             LD      H,00h
2101: CB 3D                             SRL     L
2103: CB 18                             RR      B
2105: CB 19                             RR      C
2107: DD 7E FB                          LD      A,(IX-05h)
210A: 91                                SUB     C
210B: DD 7E FC                          LD      A,(IX-04h)
210E: 98                                SBC     A,B
210F: DD 7E FD                          LD      A,(IX-03h)
2112: 9D                                SBC     A,L
2113: DD 7E FE                          LD      A,(IX-02h)
2116: 9C                                SBC     A,H
2117: 30 05                             JR      NC,L211E
2119: 2E 0D                             LD      L,0Dh
211B: C3 A6 22                          JP      L22A6

211E: DD 7E E0                   L211E: LD      A,(IX-20h)
2121: C6 0B                             ADD     A,0Bh
2123: DD 77 FB                          LD      (IX-05h),A
2126: DD 7E E1                          LD      A,(IX-1Fh)
2129: CE 00                             ADC     A,00h
212B: DD 77 FC                          LD      (IX-04h),A
212E: DD 7E E0                          LD      A,(IX-20h)
2131: C6 0F                             ADD     A,0Fh
2133: DD 77 FD                          LD      (IX-03h),A
2136: DD 7E E1                          LD      A,(IX-1Fh)
2139: CE 00                             ADC     A,00h
213B: DD 77 FE                          LD      (IX-02h),A
213E: DD 6E FD                          LD      L,(IX-03h)
2141: DD 66 FE                          LD      H,(IX-02h)
2144: 36 FF                             LD      (HL),0FFh
2146: 23                                INC     HL
2147: 36 FF                             LD      (HL),0FFh
2149: 23                                INC     HL
214A: 36 FF                             LD      (HL),0FFh
214C: 23                                INC     HL
214D: 36 FF                             LD      (HL),0FFh
214F: DD 6E FB                          LD      L,(IX-05h)
2152: DD 66 FC                          LD      H,(IX-04h)
2155: 36 FF                             LD      (HL),0FFh
2157: 23                                INC     HL
2158: 36 FF                             LD      (HL),0FFh
215A: 23                                INC     HL
215B: 36 FF                             LD      (HL),0FFh
215D: 23                                INC     HL
215E: 36 FF                             LD      (HL),0FFh
2160: DD 7E E0                          LD      A,(IX-20h)
2163: C6 04                             ADD     A,04h
2165: 4F                                LD      C,A
2166: DD 7E E1                          LD      A,(IX-1Fh)
2169: CE 00                             ADC     A,00h
216B: 47                                LD      B,A
216C: 3E 80                             LD      A,80h
216E: 02                                LD      (BC),A
216F: DD 7E FF                          LD      A,(IX-01h)
2172: B7                                OR      A
2173: CA 66 22                          JP      Z,L2266
2176: DD 7E E6                          LD      A,(IX-1Ah)
2179: C6 30                             ADD     A,30h   ; '0'
217B: 5F                                LD      E,A
217C: DD 7E E7                          LD      A,(IX-19h)
217F: CE 00                             ADC     A,00h
2181: 57                                LD      D,A
2182: C5                                PUSH    BC
2183: D5                                PUSH    DE
2184: CD C3 22                          CALL    L22C3
2187: F1                                POP     AF
2188: C1                                POP     BC
2189: 7D                                LD      A,L
218A: 3D                                DEC     A
218B: B4                                OR      H
218C: C2 66 22                          JP      NZ,L2266
218F: DD 7E E2                          LD      A,(IX-1Eh)
2192: C6 01                             ADD     A,01h
2194: 5F                                LD      E,A
2195: DD 7E E3                          LD      A,(IX-1Dh)
2198: CE 00                             ADC     A,00h
219A: 57                                LD      D,A
219B: DD 7E E4                          LD      A,(IX-1Ch)
219E: CE 00                             ADC     A,00h
21A0: 6F                                LD      L,A
21A1: DD 7E E5                          LD      A,(IX-1Bh)
21A4: CE 00                             ADC     A,00h
21A6: 67                                LD      H,A
21A7: C5                                PUSH    BC
21A8: E5                                PUSH    HL
21A9: D5                                PUSH    DE
21AA: DD 6E E0                          LD      L,(IX-20h)
21AD: DD 66 E1                          LD      H,(IX-1Fh)
21B0: E5                                PUSH    HL
21B1: CD E2 22                          CALL    L22E2
21B4: F1                                POP     AF
21B5: F1                                POP     AF
21B6: F1                                POP     AF
21B7: 7D                                LD      A,L
21B8: C1                                POP     BC
21B9: B7                                OR      A
21BA: C2 66 22                          JP      NZ,L2266
21BD: AF                                XOR     A
21BE: 02                                LD      (BC),A
21BF: DD 7E E6                          LD      A,(IX-1Ah)
21C2: C6 FE                             ADD     A,0FEh
21C4: 4F                                LD      C,A
21C5: DD 7E E7                          LD      A,(IX-19h)
21C8: CE 01                             ADC     A,01h
21CA: 47                                LD      B,A
21CB: C5                                PUSH    BC
21CC: CD C3 22                          CALL    L22C3
21CF: F1                                POP     AF
21D0: 7D                                LD      A,L
21D1: D6 55                             SUB     55h     ; 'U'
21D3: C2 66 22                          JP      NZ,L2266
21D6: 7C                                LD      A,H
21D7: D6 AA                             SUB     0AAh
21D9: C2 66 22                          JP      NZ,L2266
21DC: DD 7E E0                          LD      A,(IX-20h)
21DF: C6 33                             ADD     A,33h   ; '3'
21E1: 4F                                LD      C,A
21E2: DD 7E E1                          LD      A,(IX-1Fh)
21E5: CE 00                             ADC     A,00h
21E7: 47                                LD      B,A
21E8: C5                                PUSH    BC
21E9: CD 7A 11                          CALL    L117A
21EC: F1                                POP     AF
21ED: 7D                                LD      A,L
21EE: D6 52                             SUB     52h     ; 'R'
21F0: 20 74                             JR      NZ,L2266
21F2: 7C                                LD      A,H
21F3: D6 52                             SUB     52h     ; 'R'
21F5: 20 6F                             JR      NZ,L2266
21F7: 7B                                LD      A,E
21F8: D6 61                             SUB     61h     ; 'a'
21FA: 20 6A                             JR      NZ,L2266
21FC: 7A                                LD      A,D
21FD: D6 41                             SUB     41h     ; 'A'
21FF: 20 65                             JR      NZ,L2266
2201: DD 7E E6                          LD      A,(IX-1Ah)
2204: C6 E4                             ADD     A,0E4h
2206: 4F                                LD      C,A
2207: DD 7E E7                          LD      A,(IX-19h)
220A: CE 01                             ADC     A,01h
220C: 47                                LD      B,A
220D: C5                                PUSH    BC
220E: CD 7A 11                          CALL    L117A
2211: F1                                POP     AF
2212: 7D                                LD      A,L
2213: D6 72                             SUB     72h     ; 'r'
2215: 20 4F                             JR      NZ,L2266
2217: 7C                                LD      A,H
2218: D6 72                             SUB     72h     ; 'r'
221A: 20 4A                             JR      NZ,L2266
221C: 7B                                LD      A,E
221D: D6 41                             SUB     41h     ; 'A'
221F: 20 45                             JR      NZ,L2266
2221: 7A                                LD      A,D
2222: D6 61                             SUB     61h     ; 'a'
2224: 20 40                             JR      NZ,L2266
2226: DD 7E E6                          LD      A,(IX-1Ah)
2229: C6 E8                             ADD     A,0E8h
222B: 4F                                LD      C,A
222C: DD 7E E7                          LD      A,(IX-19h)
222F: CE 01                             ADC     A,01h
2231: 47                                LD      B,A
2232: C5                                PUSH    BC
2233: CD 7A 11                          CALL    L117A
2236: F1                                POP     AF
2237: 4D                                LD      C,L
2238: 44                                LD      B,H
2239: DD 6E FD                          LD      L,(IX-03h)
223C: DD 66 FE                          LD      H,(IX-02h)
223F: 71                                LD      (HL),C
2240: 23                                INC     HL
2241: 70                                LD      (HL),B
2242: 23                                INC     HL
2243: 73                                LD      (HL),E
2244: 23                                INC     HL
2245: 72                                LD      (HL),D
2246: DD 7E E6                          LD      A,(IX-1Ah)
2249: C6 EC                             ADD     A,0ECh
224B: 4F                                LD      C,A
224C: DD 7E E7                          LD      A,(IX-19h)
224F: CE 01                             ADC     A,01h
2251: 47                                LD      B,A
2252: C5                                PUSH    BC
2253: CD 7A 11                          CALL    L117A
2256: F1                                POP     AF
2257: 4D                                LD      C,L
2258: 44                                LD      B,H
2259: DD 6E FB                          LD      L,(IX-05h)
225C: DD 66 FC                          LD      H,(IX-04h)
225F: 71                                LD      (HL),C
2260: 23                                INC     HL
2261: 70                                LD      (HL),B
2262: 23                                INC     HL
2263: 73                                LD      (HL),E
2264: 23                                INC     HL
2265: 72                                LD      (HL),D
2266: DD 7E F8                   L2266: LD      A,(IX-08h)
2269: DD 6E E0                          LD      L,(IX-20h)
226C: DD 66 E1                          LD      H,(IX-1Fh)
226F: 77                                LD      (HL),A
2270: DD 7E E0                          LD      A,(IX-20h)
2273: C6 05                             ADD     A,05h
2275: 4F                                LD      C,A
2276: DD 7E E1                          LD      A,(IX-1Fh)
2279: CE 00                             ADC     A,00h
227B: 47                                LD      B,A
227C: 2A 35 84                          LD      HL,(8435h)
227F: 23                                INC     HL
2280: 22 35 84                          LD      (8435h),HL
2283: FD 21 35 84                       LD      IY,8435h
2287: FD 7E 00                          LD      A,(IY+00h)
228A: 02                                LD      (BC),A
228B: 03                                INC     BC
228C: FD 7E 01                          LD      A,(IY+01h)
228F: 02                                LD      (BC),A
2290: DD 7E E0                          LD      A,(IX-20h)
2293: C6 13                             ADD     A,13h
2295: 4F                                LD      C,A
2296: DD 7E E1                          LD      A,(IX-1Fh)
2299: CE 00                             ADC     A,00h
229B: 47                                LD      B,A
229C: AF                                XOR     A
229D: 02                                LD      (BC),A
229E: 03                                INC     BC
229F: 02                                LD      (BC),A
22A0: 03                                INC     BC
22A1: 02                                LD      (BC),A
22A2: 03                                INC     BC
22A3: 02                                LD      (BC),A
22A4: 2E 00                             LD      L,00h
22A6: DD F9                      L22A6: LD      SP,IX
22A8: DD E1                             POP     IX
22AA: C9                                RET

                                        ; --- START PROC L22AB ---
22AB: D1                         L22AB: POP     DE
22AC: C1                                POP     BC
22AD: C5                                PUSH    BC
22AE: D5                                PUSH    DE
22AF: 21 06 00                          LD      HL,0006h
22B2: 39                                ADD     HL,SP
22B3: 5E                                LD      E,(HL)
22B4: 23                                INC     HL
22B5: 56                                LD      D,(HL)
22B6: 21 04 00                   L22B6: LD      HL,0004h
22B9: 39                                ADD     HL,SP
22BA: 7E                                LD      A,(HL)
22BB: 02                                LD      (BC),A
22BC: 03                                INC     BC
22BD: 1B                                DEC     DE
22BE: 7A                                LD      A,D
22BF: B3                                OR      E
22C0: 20 F4                             JR      NZ,L22B6
22C2: C9                                RET

                                        ; --- START PROC L22C3 ---
22C3: CD D2 13                   L22C3: CALL    L13D2
22C6: DD 6E 04                          LD      L,(IX+04h)
22C9: DD 66 05                          LD      H,(IX+05h)
22CC: 23                                INC     HL
22CD: 46                                LD      B,(HL)
22CE: 0E 00                             LD      C,00h
22D0: DD 6E 04                          LD      L,(IX+04h)
22D3: DD 66 05                          LD      H,(IX+05h)
22D6: 5E                                LD      E,(HL)
22D7: 16 00                             LD      D,00h
22D9: 79                                LD      A,C
22DA: B3                                OR      E
22DB: 6F                                LD      L,A
22DC: 78                                LD      A,B
22DD: B2                                OR      D
22DE: 67                                LD      H,A
22DF: DD E1                             POP     IX
22E1: C9                                RET

                                        ; --- START PROC L22E2 ---
22E2: CD D2 13                   L22E2: CALL    L13D2
22E5: F5                                PUSH    AF
22E6: F5                                PUSH    AF
22E7: F5                                PUSH    AF
22E8: 3B                                DEC     SP
22E9: AF                                XOR     A
22EA: DD 77 F9                          LD      (IX-07h),A
22ED: DD 4E 04                          LD      C,(IX+04h)
22F0: DD 46 05                          LD      B,(IX+05h)
22F3: 21 2F 00                          LD      HL,002Fh
22F6: 09                                ADD     HL,BC
22F7: DD 75 FA                          LD      (IX-06h),L
22FA: DD 74 FB                          LD      (IX-05h),H
22FD: C5                                PUSH    BC
22FE: DD 5E FA                          LD      E,(IX-06h)
2301: DD 56 FB                          LD      D,(IX-05h)
2304: 21 05 00                          LD      HL,0005h
2307: 39                                ADD     HL,SP
2308: EB                                EX      DE,HL
2309: 01 04 00                          LD      BC,0004h
230C: ED B0                             LDIR
230E: C1                                POP     BC
230F: DD 7E 06                          LD      A,(IX+06h)
2312: DD 96 FC                          SUB     (IX-04h)
2315: 20 18                             JR      NZ,L232F
2317: DD 7E 07                          LD      A,(IX+07h)
231A: DD 96 FD                          SUB     (IX-03h)
231D: 20 10                             JR      NZ,L232F
231F: DD 7E 08                          LD      A,(IX+08h)
2322: DD 96 FE                          SUB     (IX-02h)
2325: 20 08                             JR      NZ,L232F
2327: DD 7E 09                          LD      A,(IX+09h)
232A: DD 96 FF                          SUB     (IX-01h)
232D: 28 5E                             JR      Z,L238D
232F: C5                         L232F: PUSH    BC
2330: C5                                PUSH    BC
2331: CD 50 29                          CALL    L2950
2334: F1                                POP     AF
2335: 7D                                LD      A,L
2336: C1                                POP     BC
2337: DD 77 F9                          LD      (IX-07h),A
233A: B7                                OR      A
233B: 20 50                             JR      NZ,L238D
233D: 21 33 00                          LD      HL,0033h
2340: 09                                ADD     HL,BC
2341: EB                                EX      DE,HL
2342: 69                                LD      L,C
2343: 60                                LD      H,B
2344: 23                                INC     HL
2345: 46                                LD      B,(HL)
2346: 21 01 00                          LD      HL,0001h
2349: E5                                PUSH    HL
234A: DD 6E 08                          LD      L,(IX+08h)
234D: DD 66 09                          LD      H,(IX+09h)
2350: E5                                PUSH    HL
2351: DD 6E 06                          LD      L,(IX+06h)
2354: DD 66 07                          LD      H,(IX+07h)
2357: E5                                PUSH    HL
2358: D5                                PUSH    DE
2359: C5                                PUSH    BC
235A: 33                                INC     SP
235B: CD F3 02                          CALL    L02F3
235E: FD 21 09 00                       LD      IY,0009h
2362: FD 39                             ADD     IY,SP
2364: FD F9                             LD      SP,IY
2366: 7D                                LD      A,L
2367: B7                                OR      A
2368: 28 14                             JR      Z,L237E
236A: DD 36 06 FF                       LD      (IX+06h),0FFh
236E: DD 36 07 FF                       LD      (IX+07h),0FFh
2372: DD 36 08 FF                       LD      (IX+08h),0FFh
2376: DD 36 09 FF                       LD      (IX+09h),0FFh
237A: DD 36 F9 01                       LD      (IX-07h),01h
237E: DD 5E FA                   L237E: LD      E,(IX-06h)
2381: DD 56 FB                          LD      D,(IX-05h)
2384: 21 0D 00                          LD      HL,000Dh
2387: 39                                ADD     HL,SP
2388: 01 04 00                          LD      BC,0004h
238B: ED B0                             LDIR
238D: DD 6E F9                   L238D: LD      L,(IX-07h)
2390: DD F9                             LD      SP,IX
2392: DD E1                             POP     IX
2394: C9                                RET

                                        ; --- START PROC L2395 ---
2395: CD D2 13                   L2395: CALL    L13D2
2398: 21 EE FF                          LD      HL,0FFEEh
239B: 39                                ADD     HL,SP
239C: F9                                LD      SP,HL
239D: DD 7E 04                          LD      A,(IX+04h)
23A0: DD 77 EE                          LD      (IX-12h),A
23A3: DD 7E 05                          LD      A,(IX+05h)
23A6: DD 77 EF                          LD      (IX-11h),A
23A9: E1                                POP     HL
23AA: E5                                PUSH    HL
23AB: 4E                                LD      C,(HL)
23AC: 23                                INC     HL
23AD: 46                                LD      B,(HL)
23AE: DD 7E 06                          LD      A,(IX+06h)
23B1: D6 02                             SUB     02h
23B3: DD 7E 07                          LD      A,(IX+07h)
23B6: DE 00                             SBC     A,00h
23B8: DD 7E 08                          LD      A,(IX+08h)
23BB: DE 00                             SBC     A,00h
23BD: DD 7E 09                          LD      A,(IX+09h)
23C0: DE 00                             SBC     A,00h
23C2: 38 2D                             JR      C,L23F1
23C4: 21 17 00                          LD      HL,0017h
23C7: 09                                ADD     HL,BC
23C8: EB                                EX      DE,HL
23C9: D5                                PUSH    DE
23CA: C5                                PUSH    BC
23CB: 21 12 00                          LD      HL,0012h
23CE: 39                                ADD     HL,SP
23CF: EB                                EX      DE,HL
23D0: 01 04 00                          LD      BC,0004h
23D3: ED B0                             LDIR
23D5: C1                                POP     BC
23D6: D1                                POP     DE
23D7: DD 7E 06                          LD      A,(IX+06h)
23DA: DD 96 FC                          SUB     (IX-04h)
23DD: DD 7E 07                          LD      A,(IX+07h)
23E0: DD 9E FD                          SBC     A,(IX-03h)
23E3: DD 7E 08                          LD      A,(IX+08h)
23E6: DD 9E FE                          SBC     A,(IX-02h)
23E9: DD 7E 09                          LD      A,(IX+09h)
23EC: DD 9E FF                          SBC     A,(IX-01h)
23EF: 38 05                             JR      C,L23F6
23F1: 2E 02                      L23F1: LD      L,02h
23F3: C3 74 25                          JP      L2574

23F6: DD 7E 0D                   L23F6: LD      A,(IX+0Dh)
23F9: DD B6 0C                          OR      (IX+0Ch)
23FC: DD B6 0B                          OR      (IX+0Bh)
23FF: DD B6 0A                          OR      (IX+0Ah)
2402: 28 2B                             JR      Z,L242F
2404: C5                                PUSH    BC
2405: D5                                PUSH    DE
2406: 21 FF FF                          LD      HL,0FFFFh
2409: E5                                PUSH    HL
240A: 21 FF FF                          LD      HL,0FFFFh
240D: E5                                PUSH    HL
240E: DD 6E 0C                          LD      L,(IX+0Ch)
2411: DD 66 0D                          LD      H,(IX+0Dh)
2414: E5                                PUSH    HL
2415: DD 6E 0A                          LD      L,(IX+0Ah)
2418: DD 66 0B                          LD      H,(IX+0Bh)
241B: E5                                PUSH    HL
241C: C5                                PUSH    BC
241D: CD BC 25                          CALL    L25BC
2420: FD 21 0A 00                       LD      IY,000Ah
2424: FD 39                             ADD     IY,SP
2426: FD F9                             LD      SP,IY
2428: D1                                POP     DE
2429: C1                                POP     BC
242A: 7D                                LD      A,L
242B: B7                                OR      A
242C: C2 74 25                          JP      NZ,L2574
242F: DD 73 F0                   L242F: LD      (IX-10h),E
2432: DD 72 F1                          LD      (IX-0Fh),D
2435: C5                         L2435: PUSH    BC
2436: DD 6E 08                          LD      L,(IX+08h)
2439: DD 66 09                          LD      H,(IX+09h)
243C: E5                                PUSH    HL
243D: DD 6E 06                          LD      L,(IX+06h)
2440: DD 66 07                          LD      H,(IX+07h)
2443: E5                                PUSH    HL
2444: DD 6E EE                          LD      L,(IX-12h)
2447: DD 66 EF                          LD      H,(IX-11h)
244A: E5                                PUSH    HL
244B: CD 4B 14                          CALL    L144B
244E: F1                                POP     AF
244F: F1                                POP     AF
2450: F1                                POP     AF
2451: C1                                POP     BC
2452: DD 75 F2                          LD      (IX-0Eh),L
2455: DD 74 F3                          LD      (IX-0Dh),H
2458: DD 73 F4                          LD      (IX-0Ch),E
245B: DD 72 F5                          LD      (IX-0Bh),D
245E: 7A                                LD      A,D
245F: DD B6 F4                          OR      (IX-0Ch)
2462: DD B6 F3                          OR      (IX-0Dh)
2465: DD B6 F2                          OR      (IX-0Eh)
2468: CA 72 25                          JP      Z,L2572
246B: DD 7E F2                          LD      A,(IX-0Eh)
246E: 3D                                DEC     A
246F: DD B6 F3                          OR      (IX-0Dh)
2472: DD B6 F4                          OR      (IX-0Ch)
2475: DD B6 F5                          OR      (IX-0Bh)
2478: 20 05                             JR      NZ,L247F
247A: 2E 02                             LD      L,02h
247C: C3 74 25                          JP      L2574

247F: DD 7E F2                   L247F: LD      A,(IX-0Eh)
2482: DD A6 F3                          AND     (IX-0Dh)
2485: DD A6 F4                          AND     (IX-0Ch)
2488: DD A6 F5                          AND     (IX-0Bh)
248B: 3C                                INC     A
248C: 20 05                             JR      NZ,L2493
248E: 2E 01                             LD      L,01h
2490: C3 74 25                          JP      L2574

2493: C5                         L2493: PUSH    BC
2494: 21 00 00                          LD      HL,0000h
2497: E5                                PUSH    HL
2498: 21 00 00                          LD      HL,0000h
249B: E5                                PUSH    HL
249C: DD 6E 08                          LD      L,(IX+08h)
249F: DD 66 09                          LD      H,(IX+09h)
24A2: E5                                PUSH    HL
24A3: DD 6E 06                          LD      L,(IX+06h)
24A6: DD 66 07                          LD      H,(IX+07h)
24A9: E5                                PUSH    HL
24AA: C5                                PUSH    BC
24AB: CD BC 25                          CALL    L25BC
24AE: FD 21 0A 00                       LD      IY,000Ah
24B2: FD 39                             ADD     IY,SP
24B4: FD F9                             LD      SP,IY
24B6: C1                                POP     BC
24B7: 7D                                LD      A,L
24B8: B7                                OR      A
24B9: C2 74 25                          JP      NZ,L2574
24BC: 21 0F 00                          LD      HL,000Fh
24BF: 09                                ADD     HL,BC
24C0: DD 75 F6                          LD      (IX-0Ah),L
24C3: DD 74 F7                          LD      (IX-09h),H
24C6: C5                                PUSH    BC
24C7: DD 5E F6                          LD      E,(IX-0Ah)
24CA: DD 56 F7                          LD      D,(IX-09h)
24CD: 21 0C 00                          LD      HL,000Ch
24D0: 39                                ADD     HL,SP
24D1: EB                                EX      DE,HL
24D2: 01 04 00                          LD      BC,0004h
24D5: ED B0                             LDIR
24D7: C1                                POP     BC
24D8: DD 6E F0                          LD      L,(IX-10h)
24DB: DD 66 F1                          LD      H,(IX-0Fh)
24DE: 5E                                LD      E,(HL)
24DF: 23                                INC     HL
24E0: 56                                LD      D,(HL)
24E1: 23                                INC     HL
24E2: 23                                INC     HL
24E3: 7E                                LD      A,(HL)
24E4: 2B                                DEC     HL
24E5: 6E                                LD      L,(HL)
24E6: 67                                LD      H,A
24E7: 7B                                LD      A,E
24E8: C6 FE                             ADD     A,0FEh
24EA: 5F                                LD      E,A
24EB: 7A                                LD      A,D
24EC: CE FF                             ADC     A,0FFh
24EE: 57                                LD      D,A
24EF: 7D                                LD      A,L
24F0: CE FF                             ADC     A,0FFh
24F2: 6F                                LD      L,A
24F3: 7C                                LD      A,H
24F4: CE FF                             ADC     A,0FFh
24F6: 67                                LD      H,A
24F7: DD 7E F8                          LD      A,(IX-08h)
24FA: 93                                SUB     E
24FB: DD 7E F9                          LD      A,(IX-07h)
24FE: 9A                                SBC     A,D
24FF: DD 7E FA                          LD      A,(IX-06h)
2502: 9D                                SBC     A,L
2503: DD 7E FB                          LD      A,(IX-05h)
2506: 9C                                SBC     A,H
2507: 30 37                             JR      NC,L2540
2509: DD 7E F8                          LD      A,(IX-08h)
250C: C6 01                             ADD     A,01h
250E: DD 77 FC                          LD      (IX-04h),A
2511: DD 7E F9                          LD      A,(IX-07h)
2514: CE 00                             ADC     A,00h
2516: DD 77 FD                          LD      (IX-03h),A
2519: DD 7E FA                          LD      A,(IX-06h)
251C: CE 00                             ADC     A,00h
251E: DD 77 FE                          LD      (IX-02h),A
2521: DD 7E FB                          LD      A,(IX-05h)
2524: CE 00                             ADC     A,00h
2526: DD 77 FF                          LD      (IX-01h),A
2529: C5                                PUSH    BC
252A: DD 5E F6                          LD      E,(IX-0Ah)
252D: DD 56 F7                          LD      D,(IX-09h)
2530: 21 10 00                          LD      HL,0010h
2533: 39                                ADD     HL,SP
2534: 01 04 00                          LD      BC,0004h
2537: ED B0                             LDIR
2539: C1                                POP     BC
253A: 21 04 00                          LD      HL,0004h
253D: 09                                ADD     HL,BC
253E: CB C6                             SET     0,(HL)
2540: C5                         L2540: PUSH    BC
2541: 21 1A 00                          LD      HL,001Ah
2544: 39                                ADD     HL,SP
2545: EB                                EX      DE,HL
2546: 21 06 00                          LD      HL,0006h
2549: 39                                ADD     HL,SP
254A: 01 04 00                          LD      BC,0004h
254D: ED B0                             LDIR
254F: C1                                POP     BC
2550: DD 6E F0                          LD      L,(IX-10h)
2553: DD 66 F1                          LD      H,(IX-0Fh)
2556: 5E                                LD      E,(HL)
2557: 23                                INC     HL
2558: 56                                LD      D,(HL)
2559: 23                                INC     HL
255A: 23                                INC     HL
255B: 7E                                LD      A,(HL)
255C: 2B                                DEC     HL
255D: 6E                                LD      L,(HL)
255E: 67                                LD      H,A
255F: DD 7E F2                          LD      A,(IX-0Eh)
2562: 93                                SUB     E
2563: DD 7E F3                          LD      A,(IX-0Dh)
2566: 9A                                SBC     A,D
2567: DD 7E F4                          LD      A,(IX-0Ch)
256A: 9D                                SBC     A,L
256B: DD 7E F5                          LD      A,(IX-0Bh)
256E: 9C                                SBC     A,H
256F: DA 35 24                          JP      C,L2435
2572: 2E 00                      L2572: LD      L,00h
2574: DD F9                      L2574: LD      SP,IX
2576: DD E1                             POP     IX
2578: C9                                RET

                                        ; --- START PROC L2579 ---
2579: CD D2 13                   L2579: CALL    L13D2
257C: DD 5E 08                          LD      E,(IX+08h)
257F: DD 56 09                          LD      D,(IX+09h)
2582: DD 7E 06                          LD      A,(IX+06h)
2585: C6 1A                             ADD     A,1Ah
2587: 4F                                LD      C,A
2588: DD 7E 07                          LD      A,(IX+07h)
258B: CE 00                             ADC     A,00h
258D: 47                                LD      B,A
258E: D5                                PUSH    DE
258F: C5                                PUSH    BC
2590: CD FF 3B                          CALL    L3BFF
2593: F1                                POP     AF
2594: F1                                POP     AF
2595: DD 4E 04                          LD      C,(IX+04h)
2598: DD 46 05                          LD      B,(IX+05h)
259B: 0A                                LD      A,(BC)
259C: D6 03                             SUB     03h
259E: 20 19                             JR      NZ,L25B9
25A0: DD 5E 0A                          LD      E,(IX+0Ah)
25A3: DD 56 0B                          LD      D,(IX+0Bh)
25A6: DD 7E 06                          LD      A,(IX+06h)
25A9: C6 14                             ADD     A,14h
25AB: 4F                                LD      C,A
25AC: DD 7E 07                          LD      A,(IX+07h)
25AF: CE 00                             ADC     A,00h
25B1: 47                                LD      B,A
25B2: D5                                PUSH    DE
25B3: C5                                PUSH    BC
25B4: CD FF 3B                          CALL    L3BFF
25B7: F1                                POP     AF
25B8: F1                                POP     AF
25B9: DD E1                      L25B9: POP     IX
25BB: C9                                RET

                                        ; --- START PROC L25BC ---
25BC: CD D2 13                   L25BC: CALL    L13D2
25BF: 21 F0 FF                          LD      HL,0FFF0h
25C2: 39                                ADD     HL,SP
25C3: F9                                LD      SP,HL
25C4: DD 36 FB 02                       LD      (IX-05h),02h
25C8: DD 7E 06                          LD      A,(IX+06h)
25CB: D6 02                             SUB     02h
25CD: DD 7E 07                          LD      A,(IX+07h)
25D0: DE 00                             SBC     A,00h
25D2: DD 7E 08                          LD      A,(IX+08h)
25D5: DE 00                             SBC     A,00h
25D7: DD 7E 09                          LD      A,(IX+09h)
25DA: DE 00                             SBC     A,00h
25DC: DA 48 29                          JP      C,L2948
25DF: DD 7E 04                          LD      A,(IX+04h)
25E2: DD 77 F0                          LD      (IX-10h),A
25E5: DD 7E 05                          LD      A,(IX+05h)
25E8: DD 77 F1                          LD      (IX-0Fh),A
25EB: E1                                POP     HL
25EC: E5                                PUSH    HL
25ED: 11 17 00                          LD      DE,0017h
25F0: 19                                ADD     HL,DE
25F1: 4E                                LD      C,(HL)
25F2: 23                                INC     HL
25F3: 46                                LD      B,(HL)
25F4: 23                                INC     HL
25F5: 5E                                LD      E,(HL)
25F6: 23                                INC     HL
25F7: 56                                LD      D,(HL)
25F8: DD 7E 06                          LD      A,(IX+06h)
25FB: 91                                SUB     C
25FC: DD 7E 07                          LD      A,(IX+07h)
25FF: 98                                SBC     A,B
2600: DD 7E 08                          LD      A,(IX+08h)
2603: 9B                                SBC     A,E
2604: DD 7E 09                          LD      A,(IX+09h)
2607: 9A                                SBC     A,D
2608: D2 48 29                          JP      NC,L2948
260B: E1                                POP     HL
260C: E5                                PUSH    HL
260D: 5E                                LD      E,(HL)
260E: DD 7E F0                          LD      A,(IX-10h)
2611: C6 23                             ADD     A,23h   ; '#'
2613: DD 77 F2                          LD      (IX-0Eh),A
2616: DD 7E F1                          LD      A,(IX-0Fh)
2619: CE 00                             ADC     A,00h
261B: DD 77 F3                          LD      (IX-0Dh),A
261E: DD 7E F0                          LD      A,(IX-10h)
2621: C6 33                             ADD     A,33h   ; '3'
2623: DD 77 F4                          LD      (IX-0Ch),A
2626: DD 7E F1                          LD      A,(IX-0Fh)
2629: CE 00                             ADC     A,00h
262B: DD 77 F5                          LD      (IX-0Bh),A
262E: C1                                POP     BC
262F: C5                                PUSH    BC
2630: 03                                INC     BC
2631: 03                                INC     BC
2632: 03                                INC     BC
2633: 7B                                LD      A,E
2634: 3D                                DEC     A
2635: 28 0E                             JR      Z,L2645
2637: 7B                                LD      A,E
2638: FE 02                             CP      02h
263A: CA CE 27                          JP      Z,L27CE
263D: D6 03                             SUB     03h
263F: CA 58 28                          JP      Z,L2858
2642: C3 48 29                          JP      L2948

2645: DD 5E 06                   L2645: LD      E,(IX+06h)
2648: DD 56 07                          LD      D,(IX+07h)
264B: 6B                                LD      L,E
264C: 62                                LD      H,D
264D: CB 3C                             SRL     H
264F: CB 1D                             RR      L
2651: 19                                ADD     HL,DE
2652: DD 75 FE                          LD      (IX-02h),L
2655: DD 74 FF                          LD      (IX-01h),H
2658: C5                                PUSH    BC
2659: DD 5E F2                          LD      E,(IX-0Eh)
265C: DD 56 F3                          LD      D,(IX-0Dh)
265F: 21 0C 00                          LD      HL,000Ch
2662: 39                                ADD     HL,SP
2663: EB                                EX      DE,HL
2664: 01 04 00                          LD      BC,0004h
2667: ED B0                             LDIR
2669: C1                                POP     BC
266A: DD 7E FF                          LD      A,(IX-01h)
266D: CB 3F                             SRL     A
266F: 5F                                LD      E,A
2670: 16 00                             LD      D,00h
2672: 21 00 00                          LD      HL,0000h
2675: DD 7E FA                          LD      A,(IX-06h)
2678: 83                                ADD     A,E
2679: 5F                                LD      E,A
267A: DD 7E FB                          LD      A,(IX-05h)
267D: 8A                                ADC     A,D
267E: 57                                LD      D,A
267F: DD 7E FC                          LD      A,(IX-04h)
2682: 8D                                ADC     A,L
2683: 6F                                LD      L,A
2684: DD 7E FD                          LD      A,(IX-03h)
2687: 8C                                ADC     A,H
2688: 67                                LD      H,A
2689: C5                                PUSH    BC
268A: E5                                PUSH    HL
268B: D5                                PUSH    DE
268C: DD 6E F0                          LD      L,(IX-10h)
268F: DD 66 F1                          LD      H,(IX-0Fh)
2692: E5                                PUSH    HL
2693: CD E2 22                          CALL    L22E2
2696: F1                                POP     AF
2697: F1                                POP     AF
2698: F1                                POP     AF
2699: C1                                POP     BC
269A: DD 75 FB                          LD      (IX-05h),L
269D: 7D                                LD      A,L
269E: B7                                OR      A
269F: C2 48 29                          JP      NZ,L2948
26A2: DD 5E FE                          LD      E,(IX-02h)
26A5: DD 56 FF                          LD      D,(IX-01h)
26A8: DD 7E FE                          LD      A,(IX-02h)
26AB: C6 01                             ADD     A,01h
26AD: DD 77 F6                          LD      (IX-0Ah),A
26B0: DD 7E FF                          LD      A,(IX-01h)
26B3: CE 00                             ADC     A,00h
26B5: DD 77 F7                          LD      (IX-09h),A
26B8: 7A                                LD      A,D
26B9: E6 01                             AND     01h
26BB: 57                                LD      D,A
26BC: 7B                                LD      A,E
26BD: DD 86 F4                          ADD     A,(IX-0Ch)
26C0: DD 77 F8                          LD      (IX-08h),A
26C3: 7A                                LD      A,D
26C4: DD 8E F5                          ADC     A,(IX-0Bh)
26C7: DD 77 F9                          LD      (IX-07h),A
26CA: DD 7E F8                          LD      A,(IX-08h)
26CD: DD 77 FA                          LD      (IX-06h),A
26D0: DD 7E F9                          LD      A,(IX-07h)
26D3: DD 77 FB                          LD      (IX-05h),A
26D6: DD 7E 06                          LD      A,(IX+06h)
26D9: E6 01                             AND     01h
26DB: DD 77 FC                          LD      (IX-04h),A
26DE: DD 36 FD 00                       LD      (IX-03h),00h
26E2: DD 36 FE 00                       LD      (IX-02h),00h
26E6: DD 36 FF 00                       LD      (IX-01h),00h
26EA: DD 5E 0A                          LD      E,(IX+0Ah)
26ED: DD 7E FF                          LD      A,(IX-01h)
26F0: DD B6 FE                          OR      (IX-02h)
26F3: DD B6 FD                          OR      (IX-03h)
26F6: DD B6 FC                          OR      (IX-04h)
26F9: 28 1C                             JR      Z,L2717
26FB: DD 6E F8                          LD      L,(IX-08h)
26FE: DD 66 F9                          LD      H,(IX-07h)
2701: 7E                                LD      A,(HL)
2702: E6 0F                             AND     0Fh
2704: 6F                                LD      L,A
2705: 26 00                             LD      H,00h
2707: 7B                                LD      A,E
2708: 87                                ADD     A,A
2709: 87                                ADD     A,A
270A: 87                                ADD     A,A
270B: 87                                ADD     A,A
270C: 5F                                LD      E,A
270D: 17                                RLA
270E: 9F                                SBC     A,A
270F: 57                                LD      D,A
2710: 7D                                LD      A,L
2711: B3                                OR      E
2712: 5F                                LD      E,A
2713: 7C                                LD      A,H
2714: B2                                OR      D
2715: 18 01                             JR      L2718

2717: AF                         L2717: XOR     A
2718: DD 6E FA                   L2718: LD      L,(IX-06h)
271B: DD 66 FB                          LD      H,(IX-05h)
271E: 73                                LD      (HL),E
271F: 3E 01                             LD      A,01h
2721: 02                                LD      (BC),A
2722: C5                                PUSH    BC
2723: DD 5E F2                          LD      E,(IX-0Eh)
2726: DD 56 F3                          LD      D,(IX-0Dh)
2729: 21 0A 00                          LD      HL,000Ah
272C: 39                                ADD     HL,SP
272D: EB                                EX      DE,HL
272E: 01 04 00                          LD      BC,0004h
2731: ED B0                             LDIR
2733: C1                                POP     BC
2734: DD 7E F7                          LD      A,(IX-09h)
2737: CB 3F                             SRL     A
2739: 5F                                LD      E,A
273A: 16 00                             LD      D,00h
273C: 21 00 00                          LD      HL,0000h
273F: 7B                                LD      A,E
2740: DD 86 F8                          ADD     A,(IX-08h)
2743: 5F                                LD      E,A
2744: 7A                                LD      A,D
2745: DD 8E F9                          ADC     A,(IX-07h)
2748: 57                                LD      D,A
2749: 7D                                LD      A,L
274A: DD 8E FA                          ADC     A,(IX-06h)
274D: 6F                                LD      L,A
274E: 7C                                LD      A,H
274F: DD 8E FB                          ADC     A,(IX-05h)
2752: 67                                LD      H,A
2753: C5                                PUSH    BC
2754: E5                                PUSH    HL
2755: D5                                PUSH    DE
2756: DD 6E F0                          LD      L,(IX-10h)
2759: DD 66 F1                          LD      H,(IX-0Fh)
275C: E5                                PUSH    HL
275D: CD E2 22                          CALL    L22E2
2760: F1                                POP     AF
2761: F1                                POP     AF
2762: F1                                POP     AF
2763: C1                                POP     BC
2764: DD 75 FB                          LD      (IX-05h),L
2767: 7D                                LD      A,L
2768: B7                                OR      A
2769: C2 48 29                          JP      NZ,L2948
276C: DD 5E F6                          LD      E,(IX-0Ah)
276F: DD 7E F7                          LD      A,(IX-09h)
2772: E6 01                             AND     01h
2774: 57                                LD      D,A
2775: DD 6E F4                          LD      L,(IX-0Ch)
2778: DD 66 F5                          LD      H,(IX-0Bh)
277B: 19                                ADD     HL,DE
277C: EB                                EX      DE,HL
277D: DD 73 F7                          LD      (IX-09h),E
2780: DD 72 F8                          LD      (IX-08h),D
2783: DD 7E 0A                          LD      A,(IX+0Ah)
2786: DD 77 F9                          LD      (IX-07h),A
2789: DD 7E 0B                          LD      A,(IX+0Bh)
278C: DD 77 FA                          LD      (IX-06h),A
278F: DD 7E FF                          LD      A,(IX-01h)
2792: DD B6 FE                          OR      (IX-02h)
2795: DD B6 FD                          OR      (IX-03h)
2798: DD B6 FC                          OR      (IX-04h)
279B: 28 11                             JR      Z,L27AE
279D: DD 5E F9                          LD      E,(IX-07h)
27A0: DD 56 FA                          LD      D,(IX-06h)
27A3: 3E 04                             LD      A,04h
27A5: CB 3A                      L27A5: SRL     D
27A7: CB 1B                             RR      E
27A9: 3D                                DEC     A
27AA: 20 F9                             JR      NZ,L27A5
27AC: 18 13                             JR      L27C1

27AE: 1A                         L27AE: LD      A,(DE)
27AF: E6 F0                             AND     0F0h
27B1: 5F                                LD      E,A
27B2: 16 00                             LD      D,00h
27B4: DD 7E FA                          LD      A,(IX-06h)
27B7: E6 0F                             AND     0Fh
27B9: 6F                                LD      L,A
27BA: 26 00                             LD      H,00h
27BC: 7B                                LD      A,E
27BD: B5                                OR      L
27BE: 5F                                LD      E,A
27BF: 7A                                LD      A,D
27C0: B4                                OR      H
27C1: DD 6E F7                   L27C1: LD      L,(IX-09h)
27C4: DD 66 F8                          LD      H,(IX-08h)
27C7: 73                                LD      (HL),E
27C8: 3E 01                             LD      A,01h
27CA: 02                                LD      (BC),A
27CB: C3 48 29                          JP      L2948

27CE: C5                         L27CE: PUSH    BC
27CF: DD 5E F2                          LD      E,(IX-0Eh)
27D2: DD 56 F3                          LD      D,(IX-0Dh)
27D5: 21 0E 00                          LD      HL,000Eh
27D8: 39                                ADD     HL,SP
27D9: EB                                EX      DE,HL
27DA: 01 04 00                          LD      BC,0004h
27DD: ED B0                             LDIR
27DF: C1                                POP     BC
27E0: DD 5E 07                          LD      E,(IX+07h)
27E3: DD 56 08                          LD      D,(IX+08h)
27E6: DD 6E 09                          LD      L,(IX+09h)
27E9: 26 00                             LD      H,00h
27EB: 7B                                LD      A,E
27EC: DD 86 FC                          ADD     A,(IX-04h)
27EF: 5F                                LD      E,A
27F0: 7A                                LD      A,D
27F1: DD 8E FD                          ADC     A,(IX-03h)
27F4: 57                                LD      D,A
27F5: 7D                                LD      A,L
27F6: DD 8E FE                          ADC     A,(IX-02h)
27F9: 6F                                LD      L,A
27FA: 7C                                LD      A,H
27FB: DD 8E FF                          ADC     A,(IX-01h)
27FE: 67                                LD      H,A
27FF: C5                                PUSH    BC
2800: E5                                PUSH    HL
2801: D5                                PUSH    DE
2802: DD 6E F0                          LD      L,(IX-10h)
2805: DD 66 F1                          LD      H,(IX-0Fh)
2808: E5                                PUSH    HL
2809: CD E2 22                          CALL    L22E2
280C: F1                                POP     AF
280D: F1                                POP     AF
280E: F1                                POP     AF
280F: C1                                POP     BC
2810: DD 75 FB                          LD      (IX-05h),L
2813: 7D                                LD      A,L
2814: B7                                OR      A
2815: C2 48 29                          JP      NZ,L2948
2818: DD 7E 0A                          LD      A,(IX+0Ah)
281B: DD 77 FE                          LD      (IX-02h),A
281E: DD 7E 0B                          LD      A,(IX+0Bh)
2821: DD 77 FF                          LD      (IX-01h),A
2824: DD 6E 06                          LD      L,(IX+06h)
2827: DD 66 07                          LD      H,(IX+07h)
282A: DD 5E 08                          LD      E,(IX+08h)
282D: DD 56 09                          LD      D,(IX+09h)
2830: 29                                ADD     HL,HL
2831: CB 13                             RL      E
2833: CB 12                             RL      D
2835: 7C                                LD      A,H
2836: E6 01                             AND     01h
2838: 67                                LD      H,A
2839: 7D                                LD      A,L
283A: DD 86 F4                          ADD     A,(IX-0Ch)
283D: 6F                                LD      L,A
283E: 7C                                LD      A,H
283F: DD 8E F5                          ADC     A,(IX-0Bh)
2842: 67                                LD      H,A
2843: C5                                PUSH    BC
2844: DD 5E FE                          LD      E,(IX-02h)
2847: DD 56 FF                          LD      D,(IX-01h)
284A: D5                                PUSH    DE
284B: E5                                PUSH    HL
284C: CD FF 3B                          CALL    L3BFF
284F: F1                                POP     AF
2850: F1                                POP     AF
2851: C1                                POP     BC
2852: 3E 01                             LD      A,01h
2854: 02                                LD      (BC),A
2855: C3 48 29                          JP      L2948

2858: C5                         L2858: PUSH    BC
2859: DD 5E F2                          LD      E,(IX-0Eh)
285C: DD 56 F3                          LD      D,(IX-0Dh)
285F: 21 0E 00                          LD      HL,000Eh
2862: 39                                ADD     HL,SP
2863: EB                                EX      DE,HL
2864: 01 04 00                          LD      BC,0004h
2867: ED B0                             LDIR
2869: C1                                POP     BC
286A: DD 5E 06                          LD      E,(IX+06h)
286D: DD 56 07                          LD      D,(IX+07h)
2870: DD 6E 08                          LD      L,(IX+08h)
2873: DD 66 09                          LD      H,(IX+09h)
2876: 3E 07                             LD      A,07h
2878: CB 3C                      L2878: SRL     H
287A: CB 1D                             RR      L
287C: CB 1A                             RR      D
287E: CB 1B                             RR      E
2880: 3D                                DEC     A
2881: 20 F5                             JR      NZ,L2878
2883: 7B                                LD      A,E
2884: DD 86 FC                          ADD     A,(IX-04h)
2887: 5F                                LD      E,A
2888: 7A                                LD      A,D
2889: DD 8E FD                          ADC     A,(IX-03h)
288C: 57                                LD      D,A
288D: 7D                                LD      A,L
288E: DD 8E FE                          ADC     A,(IX-02h)
2891: 6F                                LD      L,A
2892: 7C                                LD      A,H
2893: DD 8E FF                          ADC     A,(IX-01h)
2896: 67                                LD      H,A
2897: C5                                PUSH    BC
2898: E5                                PUSH    HL
2899: D5                                PUSH    DE
289A: DD 6E F0                          LD      L,(IX-10h)
289D: DD 66 F1                          LD      H,(IX-0Fh)
28A0: E5                                PUSH    HL
28A1: CD E2 22                          CALL    L22E2
28A4: F1                                POP     AF
28A5: F1                                POP     AF
28A6: F1                                POP     AF
28A7: C1                                POP     BC
28A8: DD 75 FB                          LD      (IX-05h),L
28AB: 7D                                LD      A,L
28AC: B7                                OR      A
28AD: C2 48 29                          JP      NZ,L2948
28B0: DD 7E 0A                          LD      A,(IX+0Ah)
28B3: DD 77 F7                          LD      (IX-09h),A
28B6: DD 7E 0B                          LD      A,(IX+0Bh)
28B9: DD 77 F8                          LD      (IX-08h),A
28BC: DD 7E 0C                          LD      A,(IX+0Ch)
28BF: DD 77 F9                          LD      (IX-07h),A
28C2: DD 7E 0D                          LD      A,(IX+0Dh)
28C5: E6 0F                             AND     0Fh
28C7: DD 77 FA                          LD      (IX-06h),A
28CA: DD 6E 06                          LD      L,(IX+06h)
28CD: DD 66 07                          LD      H,(IX+07h)
28D0: DD 5E 08                          LD      E,(IX+08h)
28D3: DD 56 09                          LD      D,(IX+09h)
28D6: 3E 02                             LD      A,02h
28D8: 29                         L28D8: ADD     HL,HL
28D9: CB 13                             RL      E
28DB: CB 12                             RL      D
28DD: 3D                                DEC     A
28DE: 20 F8                             JR      NZ,L28D8
28E0: 7C                                LD      A,H
28E1: E6 01                             AND     01h
28E3: 67                                LD      H,A
28E4: 7D                                LD      A,L
28E5: DD 86 F4                          ADD     A,(IX-0Ch)
28E8: DD 77 FE                          LD      (IX-02h),A
28EB: 7C                                LD      A,H
28EC: DD 8E F5                          ADC     A,(IX-0Bh)
28EF: DD 77 FF                          LD      (IX-01h),A
28F2: C5                                PUSH    BC
28F3: DD 6E FE                          LD      L,(IX-02h)
28F6: DD 66 FF                          LD      H,(IX-01h)
28F9: E5                                PUSH    HL
28FA: CD 7A 11                          CALL    L117A
28FD: F1                                POP     AF
28FE: C1                                POP     BC
28FF: 21 00 00                          LD      HL,0000h
2902: 1E 00                             LD      E,00h
2904: 7A                                LD      A,D
2905: E6 F0                             AND     0F0h
2907: F5                                PUSH    AF
2908: DD 7E F7                          LD      A,(IX-09h)
290B: B5                                OR      L
290C: 6F                                LD      L,A
290D: DD 7E F8                          LD      A,(IX-08h)
2910: B4                                OR      H
2911: 67                                LD      H,A
2912: DD 7E F9                          LD      A,(IX-07h)
2915: B3                                OR      E
2916: 5F                                LD      E,A
2917: F1                                POP     AF
2918: DD B6 FA                          OR      (IX-06h)
291B: 57                                LD      D,A
291C: DD 75 0A                          LD      (IX+0Ah),L
291F: DD 74 0B                          LD      (IX+0Bh),H
2922: DD 73 0C                          LD      (IX+0Ch),E
2925: DD 72 0D                          LD      (IX+0Dh),D
2928: C5                                PUSH    BC
2929: DD 6E 0C                          LD      L,(IX+0Ch)
292C: DD 66 0D                          LD      H,(IX+0Dh)
292F: E5                                PUSH    HL
2930: DD 6E 0A                          LD      L,(IX+0Ah)
2933: DD 66 0B                          LD      H,(IX+0Bh)
2936: E5                                PUSH    HL
2937: DD 6E FE                          LD      L,(IX-02h)
293A: DD 66 FF                          LD      H,(IX-01h)
293D: E5                                PUSH    HL
293E: CD 56 19                          CALL    L1956
2941: F1                                POP     AF
2942: F1                                POP     AF
2943: F1                                POP     AF
2944: C1                                POP     BC
2945: 3E 01                             LD      A,01h
2947: 02                                LD      (BC),A
2948: DD 6E FB                   L2948: LD      L,(IX-05h)
294B: DD F9                             LD      SP,IX
294D: DD E1                             POP     IX
294F: C9                                RET

                                        ; --- START PROC L2950 ---
2950: CD D2 13                   L2950: CALL    L13D2
2953: 21 EF FF                          LD      HL,0FFEFh
2956: 39                                ADD     HL,SP
2957: F9                                LD      SP,HL
2958: AF                                XOR     A
2959: DD 77 EF                          LD      (IX-11h),A
295C: DD 4E 04                          LD      C,(IX+04h)
295F: DD 46 05                          LD      B,(IX+05h)
2962: 59                                LD      E,C
2963: 50                                LD      D,B
2964: 13                                INC     DE
2965: 13                                INC     DE
2966: 13                                INC     DE
2967: 1A                                LD      A,(DE)
2968: B7                                OR      A
2969: CA 95 2A                          JP      Z,L2A95
296C: 21 2F 00                          LD      HL,002Fh
296F: 09                                ADD     HL,BC
2970: DD 75 FE                          LD      (IX-02h),L
2973: DD 74 FF                          LD      (IX-01h),H
2976: D5                                PUSH    DE
2977: C5                                PUSH    BC
2978: DD 5E FE                          LD      E,(IX-02h)
297B: DD 56 FF                          LD      D,(IX-01h)
297E: 21 0E 00                          LD      HL,000Eh
2981: 39                                ADD     HL,SP
2982: EB                                EX      DE,HL
2983: 01 04 00                          LD      BC,0004h
2986: ED B0                             LDIR
2988: C1                                POP     BC
2989: D1                                POP     DE
298A: 21 33 00                          LD      HL,0033h
298D: 09                                ADD     HL,BC
298E: DD 75 F0                          LD      (IX-10h),L
2991: DD 74 F1                          LD      (IX-0Fh),H
2994: 21 01 00                          LD      HL,0001h
2997: 09                                ADD     HL,BC
2998: DD 75 F2                          LD      (IX-0Eh),L
299B: DD 74 F3                          LD      (IX-0Dh),H
299E: 7E                                LD      A,(HL)
299F: DD 77 FD                          LD      (IX-03h),A
29A2: C5                                PUSH    BC
29A3: D5                                PUSH    DE
29A4: 21 01 00                          LD      HL,0001h
29A7: E5                                PUSH    HL
29A8: DD 6E FB                          LD      L,(IX-05h)
29AB: DD 66 FC                          LD      H,(IX-04h)
29AE: E5                                PUSH    HL
29AF: DD 6E F9                          LD      L,(IX-07h)
29B2: DD 66 FA                          LD      H,(IX-06h)
29B5: E5                                PUSH    HL
29B6: DD 6E F0                          LD      L,(IX-10h)
29B9: DD 66 F1                          LD      H,(IX-0Fh)
29BC: E5                                PUSH    HL
29BD: DD 7E FD                          LD      A,(IX-03h)
29C0: F5                                PUSH    AF
29C1: 33                                INC     SP
29C2: CD 7D 03                          CALL    L037D
29C5: FD 21 09 00                       LD      IY,0009h
29C9: FD 39                             ADD     IY,SP
29CB: FD F9                             LD      SP,IY
29CD: 7D                                LD      A,L
29CE: D1                                POP     DE
29CF: C1                                POP     BC
29D0: B7                                OR      A
29D1: C2 91 2A                          JP      NZ,L2A91
29D4: AF                                XOR     A
29D5: 12                                LD      (DE),A
29D6: C5                                PUSH    BC
29D7: DD 5E FE                          LD      E,(IX-02h)
29DA: DD 56 FF                          LD      D,(IX-01h)
29DD: 21 07 00                          LD      HL,0007h
29E0: 39                                ADD     HL,SP
29E1: EB                                EX      DE,HL
29E2: 01 04 00                          LD      BC,0004h
29E5: ED B0                             LDIR
29E7: C1                                POP     BC
29E8: 69                                LD      L,C
29E9: 60                                LD      H,B
29EA: 11 23 00                          LD      DE,0023h
29ED: 19                                ADD     HL,DE
29EE: 5E                                LD      E,(HL)
29EF: 23                                INC     HL
29F0: 56                                LD      D,(HL)
29F1: 23                                INC     HL
29F2: 23                                INC     HL
29F3: 7E                                LD      A,(HL)
29F4: 2B                                DEC     HL
29F5: 6E                                LD      L,(HL)
29F6: 67                                LD      H,A
29F7: DD 7E F4                          LD      A,(IX-0Ch)
29FA: 93                                SUB     E
29FB: DD 77 F8                          LD      (IX-08h),A
29FE: DD 7E F5                          LD      A,(IX-0Bh)
2A01: 9A                                SBC     A,D
2A02: DD 77 F9                          LD      (IX-07h),A
2A05: DD 7E F6                          LD      A,(IX-0Ah)
2A08: 9D                                SBC     A,L
2A09: DD 77 FA                          LD      (IX-06h),A
2A0C: DD 7E F7                          LD      A,(IX-09h)
2A0F: 9C                                SBC     A,H
2A10: DD 77 FB                          LD      (IX-05h),A
2A13: 69                                LD      L,C
2A14: 60                                LD      H,B
2A15: 11 1B 00                          LD      DE,001Bh
2A18: 19                                ADD     HL,DE
2A19: 7E                                LD      A,(HL)
2A1A: DD 77 FC                          LD      (IX-04h),A
2A1D: 23                                INC     HL
2A1E: 7E                                LD      A,(HL)
2A1F: DD 77 FD                          LD      (IX-03h),A
2A22: 23                                INC     HL
2A23: 7E                                LD      A,(HL)
2A24: DD 77 FE                          LD      (IX-02h),A
2A27: 23                                INC     HL
2A28: 7E                                LD      A,(HL)
2A29: DD 77 FF                          LD      (IX-01h),A
2A2C: DD 7E F8                          LD      A,(IX-08h)
2A2F: DD 96 FC                          SUB     (IX-04h)
2A32: DD 7E F9                          LD      A,(IX-07h)
2A35: DD 9E FD                          SBC     A,(IX-03h)
2A38: DD 7E FA                          LD      A,(IX-06h)
2A3B: DD 9E FE                          SBC     A,(IX-02h)
2A3E: DD 7E FB                          LD      A,(IX-05h)
2A41: DD 9E FF                          SBC     A,(IX-01h)
2A44: 30 4F                             JR      NC,L2A95
2A46: 69                                LD      L,C
2A47: 60                                LD      H,B
2A48: 23                                INC     HL
2A49: 23                                INC     HL
2A4A: 7E                                LD      A,(HL)
2A4B: D6 02                             SUB     02h
2A4D: 20 46                             JR      NZ,L2A95
2A4F: DD 7E F4                          LD      A,(IX-0Ch)
2A52: DD 86 FC                          ADD     A,(IX-04h)
2A55: 4F                                LD      C,A
2A56: DD 7E F5                          LD      A,(IX-0Bh)
2A59: DD 8E FD                          ADC     A,(IX-03h)
2A5C: 47                                LD      B,A
2A5D: DD 7E F6                          LD      A,(IX-0Ah)
2A60: DD 8E FE                          ADC     A,(IX-02h)
2A63: 5F                                LD      E,A
2A64: DD 7E F7                          LD      A,(IX-09h)
2A67: DD 8E FF                          ADC     A,(IX-01h)
2A6A: 57                                LD      D,A
2A6B: DD 6E F2                          LD      L,(IX-0Eh)
2A6E: DD 66 F3                          LD      H,(IX-0Dh)
2A71: 7E                                LD      A,(HL)
2A72: DD 77 FF                          LD      (IX-01h),A
2A75: 21 01 00                          LD      HL,0001h
2A78: E5                                PUSH    HL
2A79: D5                                PUSH    DE
2A7A: C5                                PUSH    BC
2A7B: DD 6E F0                          LD      L,(IX-10h)
2A7E: DD 66 F1                          LD      H,(IX-0Fh)
2A81: E5                                PUSH    HL
2A82: DD 7E FF                          LD      A,(IX-01h)
2A85: F5                                PUSH    AF
2A86: 33                                INC     SP
2A87: CD 7D 03                          CALL    L037D
2A8A: 21 09 00                          LD      HL,0009h
2A8D: 39                                ADD     HL,SP
2A8E: F9                                LD      SP,HL
2A8F: 18 04                             JR      L2A95

2A91: DD 36 EF 01                L2A91: LD      (IX-11h),01h
2A95: DD 6E EF                   L2A95: LD      L,(IX-11h)
2A98: DD F9                             LD      SP,IX
2A9A: DD E1                             POP     IX
2A9C: C9                                RET

                                        ; --- START PROC L2A9D ---
2A9D: CD D2 13                   L2A9D: CALL    L13D2
2AA0: 21 F2 FF                          LD      HL,0FFF2h
2AA3: 39                                ADD     HL,SP
2AA4: F9                                LD      SP,HL
2AA5: DD 5E 06                          LD      E,(IX+06h)
2AA8: DD 56 07                          LD      D,(IX+07h)
2AAB: 1A                                LD      A,(DE)
2AAC: DD 77 F2                          LD      (IX-0Eh),A
2AAF: 13                                INC     DE
2AB0: 1A                                LD      A,(DE)
2AB1: DD 77 F3                          LD      (IX-0Dh),A
2AB4: 1B                                DEC     DE
2AB5: DD 4E 04                          LD      C,(IX+04h)
2AB8: DD 46 05                          LD      B,(IX+05h)
2ABB: 21 1C 00                          LD      HL,001Ch
2ABE: 09                                ADD     HL,BC
2ABF: DD 75 F4                          LD      (IX-0Ch),L
2AC2: DD 74 F5                          LD      (IX-0Bh),H
2AC5: 4D                                LD      C,L
2AC6: 44                                LD      B,H
2AC7: D5                                PUSH    DE
2AC8: 21 0B 00                          LD      HL,000Bh
2ACB: E5                                PUSH    HL
2ACC: 2E 20                             LD      L,20h   ; ' '
2ACE: E5                                PUSH    HL
2ACF: C5                                PUSH    BC
2AD0: CD AB 22                          CALL    L22AB
2AD3: F1                                POP     AF
2AD4: F1                                POP     AF
2AD5: F1                                POP     AF
2AD6: D1                                POP     DE
2AD7: AF                                XOR     A
2AD8: DD 77 F6                          LD      (IX-0Ah),A
2ADB: DD 77 F7                          LD      (IX-09h),A
2ADE: AF                                XOR     A
2ADF: DD 77 FE                          LD      (IX-02h),A
2AE2: DD 77 FF                          LD      (IX-01h),A
2AE5: DD 36 F8 08                       LD      (IX-08h),08h
2AE9: AF                                XOR     A
2AEA: DD 77 F9                          LD      (IX-07h),A
2AED: E1                                POP     HL
2AEE: E5                                PUSH    HL
2AEF: 6E                                LD      L,(HL)
2AF0: DD 7E F4                          LD      A,(IX-0Ch)
2AF3: C6 0B                             ADD     A,0Bh
2AF5: 4F                                LD      C,A
2AF6: DD 7E F5                          LD      A,(IX-0Bh)
2AF9: CE 00                             ADC     A,00h
2AFB: 47                                LD      B,A
2AFC: 7D                                LD      A,L
2AFD: D6 2E                             SUB     2Eh     ; '.'
2AFF: C2 AC 2B                          JP      NZ,L2BAC
2B02: AF                                XOR     A
2B03: DD 77 FC                          LD      (IX-04h),A
2B06: DD 77 FD                          LD      (IX-03h),A
2B09: AF                                XOR     A
2B0A: DD 77 FE                          LD      (IX-02h),A
2B0D: DD 77 FF                          LD      (IX-01h),A
2B10: DD 7E F2                   L2B10: LD      A,(IX-0Eh)
2B13: DD 86 FE                          ADD     A,(IX-02h)
2B16: 6F                                LD      L,A
2B17: DD 7E F3                          LD      A,(IX-0Dh)
2B1A: DD 8E FF                          ADC     A,(IX-01h)
2B1D: 67                                LD      H,A
2B1E: DD 34 FE                          INC     (IX-02h)
2B21: 20 03                             JR      NZ,L2B26
2B23: DD 34 FF                          INC     (IX-01h)
2B26: 7E                         L2B26: LD      A,(HL)
2B27: DD 77 FB                          LD      (IX-05h),A
2B2A: D6 2E                             SUB     2Eh     ; '.'
2B2C: 20 28                             JR      NZ,L2B56
2B2E: DD 7E FE                          LD      A,(IX-02h)
2B31: D6 03                             SUB     03h
2B33: DD 7E FF                          LD      A,(IX-01h)
2B36: DE 00                             SBC     A,00h
2B38: 30 1C                             JR      NC,L2B56
2B3A: DD 7E F4                          LD      A,(IX-0Ch)
2B3D: DD 86 FC                          ADD     A,(IX-04h)
2B40: 6F                                LD      L,A
2B41: DD 7E F5                          LD      A,(IX-0Bh)
2B44: DD 8E FD                          ADC     A,(IX-03h)
2B47: DD 34 FC                          INC     (IX-04h)
2B4A: 20 03                             JR      NZ,L2B4F
2B4C: DD 34 FD                          INC     (IX-03h)
2B4F: 67                         L2B4F: LD      H,A
2B50: DD 7E FB                          LD      A,(IX-05h)
2B53: 77                                LD      (HL),A
2B54: 18 BA                             JR      L2B10

2B56: DD 6E FE                   L2B56: LD      L,(IX-02h)
2B59: DD 66 FF                          LD      H,(IX-01h)
2B5C: 3E 20                             LD      A,20h   ; ' '
2B5E: DD 96 FB                          SUB     (IX-05h)
2B61: 3E 00                             LD      A,00h
2B63: 17                                RLA
2B64: DD 77 FF                          LD      (IX-01h),A
2B67: DD 7E FB                          LD      A,(IX-05h)
2B6A: D6 2F                             SUB     2Fh     ; '/'
2B6C: 28 12                             JR      Z,L2B80
2B6E: DD 7E FB                          LD      A,(IX-05h)
2B71: D6 5C                             SUB     5Ch     ; '\'
2B73: 28 0B                             JR      Z,L2B80
2B75: DD 7E FF                          LD      A,(IX-01h)
2B78: B7                                OR      A
2B79: 28 05                             JR      Z,L2B80
2B7B: 2E 06                             LD      L,06h
2B7D: C3 89 2D                          JP      L2D89

2B80: DD 7E F2                   L2B80: LD      A,(IX-0Eh)
2B83: 85                                ADD     A,L
2B84: DD 77 FD                          LD      (IX-03h),A
2B87: DD 7E F3                          LD      A,(IX-0Dh)
2B8A: 8C                                ADC     A,H
2B8B: DD 77 FE                          LD      (IX-02h),A
2B8E: DD 7E FD                          LD      A,(IX-03h)
2B91: 12                                LD      (DE),A
2B92: 13                                INC     DE
2B93: DD 7E FE                          LD      A,(IX-02h)
2B96: 12                                LD      (DE),A
2B97: DD CB FF 46                       BIT     0,(IX-01h)
2B9B: 20 05                             JR      NZ,L2BA2
2B9D: 11 24 00                          LD      DE,0024h
2BA0: 18 03                             JR      L2BA5

2BA2: 11 20 00                   L2BA2: LD      DE,0020h
2BA5: 7B                         L2BA5: LD      A,E
2BA6: 02                                LD      (BC),A
2BA7: 2E 00                             LD      L,00h
2BA9: C3 89 2D                          JP      L2D89

2BAC: DD 6E FE                   L2BAC: LD      L,(IX-02h)
2BAF: DD 66 FF                          LD      H,(IX-01h)
2BB2: DD 34 FE                          INC     (IX-02h)
2BB5: 20 03                             JR      NZ,L2BBA
2BB7: DD 34 FF                          INC     (IX-01h)
2BBA: DD 7E F2                   L2BBA: LD      A,(IX-0Eh)
2BBD: 85                                ADD     A,L
2BBE: 6F                                LD      L,A
2BBF: DD 7E F3                          LD      A,(IX-0Dh)
2BC2: 8C                                ADC     A,H
2BC3: 67                                LD      H,A
2BC4: 7E                                LD      A,(HL)
2BC5: DD 77 FA                          LD      (IX-06h),A
2BC8: 3E 20                             LD      A,20h   ; ' '
2BCA: DD 96 FA                          SUB     (IX-06h)
2BCD: 3E 00                             LD      A,00h
2BCF: 17                                RLA
2BD0: DD 77 FD                          LD      (IX-03h),A
2BD3: CB 47                             BIT     0,A
2BD5: CA 3F 2D                          JP      Z,L2D3F
2BD8: DD 7E FA                          LD      A,(IX-06h)
2BDB: D6 2F                             SUB     2Fh     ; '/'
2BDD: 28 07                             JR      Z,L2BE6
2BDF: DD 7E FA                          LD      A,(IX-06h)
2BE2: D6 5C                             SUB     5Ch     ; '\'
2BE4: 20 22                             JR      NZ,L2C08
2BE6: DD 7E F2                   L2BE6: LD      A,(IX-0Eh)
2BE9: DD 86 FE                          ADD     A,(IX-02h)
2BEC: 6F                                LD      L,A
2BED: DD 7E F3                          LD      A,(IX-0Dh)
2BF0: DD 8E FF                          ADC     A,(IX-01h)
2BF3: 67                                LD      H,A
2BF4: 7E                                LD      A,(HL)
2BF5: FE 2F                             CP      2Fh     ; '/'
2BF7: 28 05                             JR      Z,L2BFE
2BF9: D6 5C                             SUB     5Ch     ; '\'
2BFB: C2 3F 2D                          JP      NZ,L2D3F
2BFE: DD 34 FE                   L2BFE: INC     (IX-02h)
2C01: 20 E3                             JR      NZ,L2BE6
2C03: DD 34 FF                          INC     (IX-01h)
2C06: 18 DE                             JR      L2BE6

2C08: DD 7E FA                   L2C08: LD      A,(IX-06h)
2C0B: D6 2E                             SUB     2Eh     ; '.'
2C0D: 3E 01                             LD      A,01h
2C0F: 28 01                             JR      Z,L2C12
2C11: AF                                XOR     A
2C12: 6F                         L2C12: LD      L,A
2C13: B7                                OR      A
2C14: 20 0E                             JR      NZ,L2C24
2C16: DD 7E F6                          LD      A,(IX-0Ah)
2C19: DD 96 F8                          SUB     (IX-08h)
2C1C: DD 7E F7                          LD      A,(IX-09h)
2C1F: DD 9E F9                          SBC     A,(IX-07h)
2C22: 38 26                             JR      C,L2C4A
2C24: DD 7E F8                   L2C24: LD      A,(IX-08h)
2C27: D6 0B                             SUB     0Bh
2C29: DD B6 F9                          OR      (IX-07h)
2C2C: 28 04                             JR      Z,L2C32
2C2E: CB 45                             BIT     0,L
2C30: 20 05                             JR      NZ,L2C37
2C32: 2E 06                      L2C32: LD      L,06h
2C34: C3 89 2D                          JP      L2D89

2C37: DD 36 F6 08                L2C37: LD      (IX-0Ah),08h
2C3B: AF                                XOR     A
2C3C: DD 77 F7                          LD      (IX-09h),A
2C3F: DD 36 F8 0B                       LD      (IX-08h),0Bh
2C43: AF                                XOR     A
2C44: DD 77 F9                          LD      (IX-07h),A
2C47: C3 AC 2B                          JP      L2BAC

2C4A: C5                         L2C4A: PUSH    BC
2C4B: D5                                PUSH    DE
2C4C: DD 7E FA                          LD      A,(IX-06h)
2C4F: F5                                PUSH    AF
2C50: 33                                INC     SP
2C51: CD EF 45                          CALL    L45EF
2C54: 33                                INC     SP
2C55: D1                                POP     DE
2C56: C1                                POP     BC
2C57: DD 7E F6                          LD      A,(IX-0Ah)
2C5A: C6 01                             ADD     A,01h
2C5C: DD 77 FC                          LD      (IX-04h),A
2C5F: DD 7E F7                          LD      A,(IX-09h)
2C62: CE 00                             ADC     A,00h
2C64: DD 77 FD                          LD      (IX-03h),A
2C67: 7C                                LD      A,H
2C68: B5                                OR      L
2C69: CA EA 2C                          JP      Z,L2CEA
2C6C: DD 6E FE                          LD      L,(IX-02h)
2C6F: DD 66 FF                          LD      H,(IX-01h)
2C72: DD 34 FE                          INC     (IX-02h)
2C75: 20 03                             JR      NZ,L2C7A
2C77: DD 34 FF                          INC     (IX-01h)
2C7A: DD 7E F2                   L2C7A: LD      A,(IX-0Eh)
2C7D: 85                                ADD     A,L
2C7E: 6F                                LD      L,A
2C7F: DD 7E F3                          LD      A,(IX-0Dh)
2C82: 8C                                ADC     A,H
2C83: 67                                LD      H,A
2C84: 7E                                LD      A,(HL)
2C85: DD 77 FB                          LD      (IX-05h),A
2C88: C5                                PUSH    BC
2C89: D5                                PUSH    DE
2C8A: DD 7E FB                          LD      A,(IX-05h)
2C8D: F5                                PUSH    AF
2C8E: 33                                INC     SP
2C8F: CD B2 3D                          CALL    L3DB2
2C92: 33                                INC     SP
2C93: D1                                POP     DE
2C94: C1                                POP     BC
2C95: 7C                                LD      A,H
2C96: B5                                OR      L
2C97: 28 11                             JR      Z,L2CAA
2C99: DD 6E F8                          LD      L,(IX-08h)
2C9C: DD 66 F9                          LD      H,(IX-07h)
2C9F: 2B                                DEC     HL
2CA0: DD 7E F6                          LD      A,(IX-0Ah)
2CA3: 95                                SUB     L
2CA4: DD 7E F7                          LD      A,(IX-09h)
2CA7: 9C                                SBC     A,H
2CA8: 38 05                             JR      C,L2CAF
2CAA: 2E 06                      L2CAA: LD      L,06h
2CAC: C3 89 2D                          JP      L2D89

2CAF: DD 6E F6                   L2CAF: LD      L,(IX-0Ah)
2CB2: DD 66 F7                          LD      H,(IX-09h)
2CB5: DD 7E F4                          LD      A,(IX-0Ch)
2CB8: 85                                ADD     A,L
2CB9: 6F                                LD      L,A
2CBA: DD 7E F5                          LD      A,(IX-0Bh)
2CBD: 8C                                ADC     A,H
2CBE: 67                                LD      H,A
2CBF: DD 7E FA                          LD      A,(IX-06h)
2CC2: 77                                LD      (HL),A
2CC3: DD 6E FC                          LD      L,(IX-04h)
2CC6: DD 66 FD                          LD      H,(IX-03h)
2CC9: DD 7E FC                          LD      A,(IX-04h)
2CCC: C6 01                             ADD     A,01h
2CCE: DD 77 F6                          LD      (IX-0Ah),A
2CD1: DD 7E FD                          LD      A,(IX-03h)
2CD4: CE 00                             ADC     A,00h
2CD6: DD 77 F7                          LD      (IX-09h),A
2CD9: DD 7E F4                          LD      A,(IX-0Ch)
2CDC: 85                                ADD     A,L
2CDD: 6F                                LD      L,A
2CDE: DD 7E F5                          LD      A,(IX-0Bh)
2CE1: 8C                                ADC     A,H
2CE2: 67                                LD      H,A
2CE3: DD 7E FB                          LD      A,(IX-05h)
2CE6: 77                                LD      (HL),A
2CE7: C3 AC 2B                          JP      L2BAC

2CEA: DD 6E FA                   L2CEA: LD      L,(IX-06h)
2CED: 26 00                             LD      H,00h
2CEF: C5                                PUSH    BC
2CF0: D5                                PUSH    DE
2CF1: E5                                PUSH    HL
2CF2: 21 8E 2D                          LD      HL,2D8Eh
2CF5: E5                                PUSH    HL
2CF6: CD FD 3D                          CALL    L3DFD
2CF9: F1                                POP     AF
2CFA: F1                                POP     AF
2CFB: D1                                POP     DE
2CFC: C1                                POP     BC
2CFD: 7C                                LD      A,H
2CFE: B5                                OR      L
2CFF: 28 05                             JR      Z,L2D06
2D01: 2E 06                             LD      L,06h
2D03: C3 89 2D                          JP      L2D89

2D06: DD 7E FA                   L2D06: LD      A,(IX-06h)
2D09: D6 61                             SUB     61h     ; 'a'
2D0B: 38 0F                             JR      C,L2D1C
2D0D: 3E 7A                             LD      A,7Ah   ; 'z'
2D0F: DD 96 FA                          SUB     (IX-06h)
2D12: 38 08                             JR      C,L2D1C
2D14: DD 7E FA                          LD      A,(IX-06h)
2D17: C6 E0                             ADD     A,0E0h
2D19: DD 77 FA                          LD      (IX-06h),A
2D1C: DD 6E F6                   L2D1C: LD      L,(IX-0Ah)
2D1F: DD 66 F7                          LD      H,(IX-09h)
2D22: DD 7E FC                          LD      A,(IX-04h)
2D25: DD 77 F6                          LD      (IX-0Ah),A
2D28: DD 7E FD                          LD      A,(IX-03h)
2D2B: DD 77 F7                          LD      (IX-09h),A
2D2E: 7D                                LD      A,L
2D2F: DD 86 F4                          ADD     A,(IX-0Ch)
2D32: 6F                                LD      L,A
2D33: 7C                                LD      A,H
2D34: DD 8E F5                          ADC     A,(IX-0Bh)
2D37: 67                                LD      H,A
2D38: DD 7E FA                          LD      A,(IX-06h)
2D3B: 77                                LD      (HL),A
2D3C: C3 AC 2B                          JP      L2BAC

2D3F: DD 7E F2                   L2D3F: LD      A,(IX-0Eh)
2D42: DD 86 FE                          ADD     A,(IX-02h)
2D45: DD 77 FB                          LD      (IX-05h),A
2D48: DD 7E F3                          LD      A,(IX-0Dh)
2D4B: DD 8E FF                          ADC     A,(IX-01h)
2D4E: DD 77 FC                          LD      (IX-04h),A
2D51: DD 7E FB                          LD      A,(IX-05h)
2D54: 12                                LD      (DE),A
2D55: 13                                INC     DE
2D56: DD 7E FC                          LD      A,(IX-04h)
2D59: 12                                LD      (DE),A
2D5A: DD 7E F7                          LD      A,(IX-09h)
2D5D: DD B6 F6                          OR      (IX-0Ah)
2D60: 20 04                             JR      NZ,L2D66
2D62: 2E 06                             LD      L,06h
2D64: 18 23                             JR      L2D89

2D66: DD 6E F4                   L2D66: LD      L,(IX-0Ch)
2D69: DD 66 F5                          LD      H,(IX-0Bh)
2D6C: 7E                                LD      A,(HL)
2D6D: D6 E5                             SUB     0E5h
2D6F: 20 06                             JR      NZ,L2D77
2D71: D1                                POP     DE
2D72: E1                                POP     HL
2D73: E5                                PUSH    HL
2D74: D5                                PUSH    DE
2D75: 36 05                             LD      (HL),05h
2D77: DD CB FD 46                L2D77: BIT     0,(IX-03h)
2D7B: 20 05                             JR      NZ,L2D82
2D7D: 11 04 00                          LD      DE,0004h
2D80: 18 03                             JR      L2D85

2D82: 11 00 00                   L2D82: LD      DE,0000h
2D85: 7B                         L2D85: LD      A,E
2D86: 02                                LD      (BC),A
2D87: 2E 00                             LD      L,00h
2D89: DD F9                      L2D89: LD      SP,IX
2D8B: DD E1                             POP     IX
2D8D: C9                                RET

2D8E: 22                         L2D8E: DB      22h     ; '"'
2D8F: 2A 2B 2C 3A 3B 3C 3D 3E           DB      "*+,:;<=>?[]|"
2D97: 3F 5B 5D 7C
2D9B: 7F                                DB      7Fh
2D9C: 00                                DB      00h

                                        ; --- START PROC L2D9D ---
2D9D: FD 21 02 00                L2D9D: LD      IY,0002h
2DA1: FD 39                             ADD     IY,SP
2DA3: FD 7E 00                          LD      A,(IY+00h)
2DA6: C6 30                             ADD     A,30h   ; '0'
2DA8: 47                                LD      B,A
2DA9: 3E 39                             LD      A,39h   ; '9'
2DAB: 90                                SUB     B
2DAC: 30 10                             JR      NC,L2DBE
2DAE: 78                                LD      A,B
2DAF: C6 07                             ADD     A,07h
2DB1: 47                                LD      B,A
2DB2: FD 23                             INC     IY
2DB4: FD CB 00 46                       BIT     0,(IY+00h)
2DB8: 28 04                             JR      Z,L2DBE
2DBA: 78                                LD      A,B
2DBB: C6 20                             ADD     A,20h   ; ' '
2DBD: 47                                LD      B,A
2DBE: FD 21 06 00                L2DBE: LD      IY,0006h
2DC2: FD 39                             ADD     IY,SP
2DC4: FD 6E 00                          LD      L,(IY+00h)
2DC7: FD 66 01                          LD      H,(IY+01h)
2DCA: E5                                PUSH    HL
2DCB: C5                                PUSH    BC
2DCC: 33                                INC     SP
2DCD: FD 2B                             DEC     IY
2DCF: FD 2B                             DEC     IY
2DD1: FD 6E 00                          LD      L,(IY+00h)
2DD4: FD 66 01                          LD      H,(IY+01h)
2DD7: CD B1 3D                          CALL    L3DB1
2DDA: F1                                POP     AF
2DDB: 33                                INC     SP
2DDC: C9                                RET

                                        ; --- START PROC L2DDD ---
2DDD: DD E5                      L2DDD: PUSH    IX
2DDF: DD 21 00 00                       LD      IX,0000h
2DE3: DD 39                             ADD     IX,SP
2DE5: DD 46 04                          LD      B,(IX+04h)
2DE8: CB 38                             SRL     B
2DEA: CB 38                             SRL     B
2DEC: CB 38                             SRL     B
2DEE: CB 38                             SRL     B
2DF0: DD 6E 08                          LD      L,(IX+08h)
2DF3: DD 66 09                          LD      H,(IX+09h)
2DF6: E5                                PUSH    HL
2DF7: DD 6E 06                          LD      L,(IX+06h)
2DFA: DD 66 07                          LD      H,(IX+07h)
2DFD: E5                                PUSH    HL
2DFE: DD 7E 05                          LD      A,(IX+05h)
2E01: F5                                PUSH    AF
2E02: 33                                INC     SP
2E03: C5                                PUSH    BC
2E04: 33                                INC     SP
2E05: CD 9D 2D                          CALL    L2D9D
2E08: 21 06 00                          LD      HL,0006h
2E0B: 39                                ADD     HL,SP
2E0C: F9                                LD      SP,HL
2E0D: DD 7E 04                          LD      A,(IX+04h)
2E10: E6 0F                             AND     0Fh
2E12: 47                                LD      B,A
2E13: DD 6E 08                          LD      L,(IX+08h)
2E16: DD 66 09                          LD      H,(IX+09h)
2E19: E5                                PUSH    HL
2E1A: DD 6E 06                          LD      L,(IX+06h)
2E1D: DD 66 07                          LD      H,(IX+07h)
2E20: E5                                PUSH    HL
2E21: DD 7E 05                          LD      A,(IX+05h)
2E24: F5                                PUSH    AF
2E25: 33                                INC     SP
2E26: C5                                PUSH    BC
2E27: 33                                INC     SP
2E28: CD 9D 2D                          CALL    L2D9D
2E2B: 21 06 00                          LD      HL,0006h
2E2E: 39                                ADD     HL,SP
2E2F: F9                                LD      SP,HL
2E30: DD E1                             POP     IX
2E32: C9                                RET

                                        ; --- START PROC L2E33 ---
2E33: DD E5                      L2E33: PUSH    IX
2E35: DD 21 00 00                       LD      IX,0000h
2E39: DD 39                             ADD     IX,SP
2E3B: 21 F9 FF                          LD      HL,0FFF9h
2E3E: 39                                ADD     HL,SP
2E3F: F9                                LD      SP,HL
2E40: DD 5E 04                          LD      E,(IX+04h)
2E43: DD 56 05                          LD      D,(IX+05h)
2E46: D5                                PUSH    DE
2E47: 21 05 00                          LD      HL,0005h
2E4A: 39                                ADD     HL,SP
2E4B: EB                                EX      DE,HL
2E4C: 01 04 00                          LD      BC,0004h
2E4F: ED B0                             LDIR
2E51: D1                                POP     DE
2E52: 21 04 00                          LD      HL,0004h
2E55: 19                                ADD     HL,DE
2E56: 4D                                LD      C,L
2E57: 44                                LD      B,H
2E58: DD 36 FA 20                       LD      (IX-06h),20h    ; ' '
2E5C: 0A                         L2E5C: LD      A,(BC)
2E5D: 87                                ADD     A,A
2E5E: DD 77 F9                          LD      (IX-07h),A
2E61: DD 7E FF                          LD      A,(IX-01h)
2E64: CB 07                             RLC     A
2E66: E6 01                             AND     01h
2E68: DD 77 FB                          LD      (IX-05h),A
2E6B: DD 7E F9                          LD      A,(IX-07h)
2E6E: DD B6 FB                          OR      (IX-05h)
2E71: DD 77 FB                          LD      (IX-05h),A
2E74: 02                                LD      (BC),A
2E75: DD CB FC 26                       SLA     (IX-04h)
2E79: DD CB FD 16                       RL      (IX-03h)
2E7D: DD CB FE 16                       RL      (IX-02h)
2E81: DD CB FF 16                       RL      (IX-01h)
2E85: DD 7E FB                          LD      A,(IX-05h)
2E88: DD 96 06                          SUB     (IX+06h)
2E8B: 38 1F                             JR      C,L2EAC
2E8D: 0A                                LD      A,(BC)
2E8E: DD 96 06                          SUB     (IX+06h)
2E91: 02                                LD      (BC),A
2E92: DD 7E FC                          LD      A,(IX-04h)
2E95: F6 01                             OR      01h
2E97: DD 77 FC                          LD      (IX-04h),A
2E9A: DD 7E FD                          LD      A,(IX-03h)
2E9D: DD 77 FD                          LD      (IX-03h),A
2EA0: DD 7E FE                          LD      A,(IX-02h)
2EA3: DD 77 FE                          LD      (IX-02h),A
2EA6: DD 7E FF                          LD      A,(IX-01h)
2EA9: DD 77 FF                          LD      (IX-01h),A
2EAC: DD 35 FA                   L2EAC: DEC     (IX-06h)
2EAF: DD 7E FA                          LD      A,(IX-06h)
2EB2: B7                                OR      A
2EB3: 20 A7                             JR      NZ,L2E5C
2EB5: 21 03 00                          LD      HL,0003h
2EB8: 39                                ADD     HL,SP
2EB9: 01 04 00                          LD      BC,0004h
2EBC: ED B0                             LDIR
2EBE: DD F9                             LD      SP,IX
2EC0: DD E1                             POP     IX
2EC2: C9                                RET

                                        ; --- START PROC L2EC3 ---
2EC3: DD E5                      L2EC3: PUSH    IX
2EC5: DD 21 00 00                       LD      IX,0000h
2EC9: DD 39                             ADD     IX,SP
2ECB: 21 CD FF                          LD      HL,0FFCDh
2ECE: 39                                ADD     HL,SP
2ECF: F9                                LD      SP,HL
2ED0: AF                                XOR     A
2ED1: DD 77 FA                          LD      (IX-06h),A
2ED4: DD 77 FB                          LD      (IX-05h),A
2ED7: 21 08 00                          LD      HL,0008h
2EDA: 39                                ADD     HL,SP
2EDB: DD 75 E0                          LD      (IX-20h),L
2EDE: DD 74 E1                          LD      (IX-1Fh),H
2EE1: 21 12 00                          LD      HL,0012h
2EE4: 39                                ADD     HL,SP
2EE5: DD 75 E2                          LD      (IX-1Eh),L
2EE8: DD 74 E3                          LD      (IX-1Dh),H
2EEB: 21 08 00                          LD      HL,0008h
2EEE: 39                                ADD     HL,SP
2EEF: DD 75 E4                          LD      (IX-1Ch),L
2EF2: DD 74 E5                          LD      (IX-1Bh),H
2EF5: DD 7E E4                          LD      A,(IX-1Ch)
2EF8: C6 04                             ADD     A,04h
2EFA: DD 77 E6                          LD      (IX-1Ah),A
2EFD: DD 7E E5                          LD      A,(IX-1Bh)
2F00: CE 00                             ADC     A,00h
2F02: DD 77 E7                          LD      (IX-19h),A
2F05: DD 7E E6                          LD      A,(IX-1Ah)
2F08: DD 77 E8                          LD      (IX-18h),A
2F0B: DD 7E E7                          LD      A,(IX-19h)
2F0E: DD 77 E9                          LD      (IX-17h),A
2F11: DD 7E E6                          LD      A,(IX-1Ah)
2F14: DD 77 EA                          LD      (IX-16h),A
2F17: DD 7E E7                          LD      A,(IX-19h)
2F1A: DD 77 EB                          LD      (IX-15h),A
2F1D: DD 6E 08                   L2F1D: LD      L,(IX+08h)
2F20: DD 66 09                          LD      H,(IX+09h)
2F23: 5E                                LD      E,(HL)
2F24: 23                                INC     HL
2F25: DD 75 08                          LD      (IX+08h),L
2F28: DD 74 09                          LD      (IX+09h),H
2F2B: DD 73 FF                          LD      (IX-01h),E
2F2E: 7B                                LD      A,E
2F2F: B7                                OR      A
2F30: CA 1D 3A                          JP      Z,L3A1D
2F33: DD 7E FF                          LD      A,(IX-01h)
2F36: D6 25                             SUB     25h     ; '%'
2F38: C2 FA 39                          JP      NZ,L39FA
2F3B: AF                                XOR     A
2F3C: DD 77 EC                          LD      (IX-14h),A
2F3F: AF                                XOR     A
2F40: DD 77 ED                          LD      (IX-13h),A
2F43: AF                                XOR     A
2F44: DD 77 EE                          LD      (IX-12h),A
2F47: AF                                XOR     A
2F48: DD 77 EF                          LD      (IX-11h),A
2F4B: AF                                XOR     A
2F4C: DD 77 F0                          LD      (IX-10h),A
2F4F: AF                                XOR     A
2F50: DD 77 F1                          LD      (IX-0Fh),A
2F53: AF                                XOR     A
2F54: DD 77 F2                          LD      (IX-0Eh),A
2F57: AF                                XOR     A
2F58: DD 77 F3                          LD      (IX-0Dh),A
2F5B: AF                                XOR     A
2F5C: DD 77 F4                          LD      (IX-0Ch),A
2F5F: AF                                XOR     A
2F60: DD 77 FC                          LD      (IX-04h),A
2F63: DD 77 FD                          LD      (IX-03h),A
2F66: DD 36 F5 FF                       LD      (IX-0Bh),0FFh
2F6A: DD 36 F6 FF                       LD      (IX-0Ah),0FFh
2F6E: DD 7E 08                          LD      A,(IX+08h)
2F71: DD 77 F8                          LD      (IX-08h),A
2F74: DD 7E 09                          LD      A,(IX+09h)
2F77: DD 77 F9                          LD      (IX-07h),A
2F7A: DD 6E F8                   L2F7A: LD      L,(IX-08h)
2F7D: DD 66 F9                          LD      H,(IX-07h)
2F80: 7E                                LD      A,(HL)
2F81: DD 77 FF                          LD      (IX-01h),A
2F84: DD 34 F8                          INC     (IX-08h)
2F87: 20 03                             JR      NZ,L2F8C
2F89: DD 34 F9                          INC     (IX-07h)
2F8C: DD 7E F8                   L2F8C: LD      A,(IX-08h)
2F8F: DD 77 08                          LD      (IX+08h),A
2F92: DD 7E F9                          LD      A,(IX-07h)
2F95: DD 77 09                          LD      (IX+09h),A
2F98: DD 7E FF                          LD      A,(IX-01h)
2F9B: D6 25                             SUB     25h     ; '%'
2F9D: 20 23                             JR      NZ,L2FC2
2F9F: DD 6E 06                          LD      L,(IX+06h)
2FA2: DD 66 07                          LD      H,(IX+07h)
2FA5: E5                                PUSH    HL
2FA6: DD 7E FF                          LD      A,(IX-01h)
2FA9: F5                                PUSH    AF
2FAA: 33                                INC     SP
2FAB: DD 6E 04                          LD      L,(IX+04h)
2FAE: DD 66 05                          LD      H,(IX+05h)
2FB1: CD B1 3D                          CALL    L3DB1
2FB4: F1                                POP     AF
2FB5: 33                                INC     SP
2FB6: DD 34 FA                          INC     (IX-06h)
2FB9: C2 1D 2F                          JP      NZ,L2F1D
2FBC: DD 34 FB                          INC     (IX-05h)
2FBF: C3 1D 2F                          JP      L2F1D

2FC2: DD 7E FF                   L2FC2: LD      A,(IX-01h)
2FC5: D6 30                             SUB     30h     ; '0'
2FC7: 38 73                             JR      C,L303C
2FC9: 3E 39                             LD      A,39h   ; '9'
2FCB: DD 96 FF                          SUB     (IX-01h)
2FCE: 38 6C                             JR      C,L303C
2FD0: DD 7E F5                          LD      A,(IX-0Bh)
2FD3: DD A6 F6                          AND     (IX-0Ah)
2FD6: 3C                                INC     A
2FD7: 20 42                             JR      NZ,L301B
2FD9: DD 4E FC                          LD      C,(IX-04h)
2FDC: DD 46 FD                          LD      B,(IX-03h)
2FDF: 69                                LD      L,C
2FE0: 60                                LD      H,B
2FE1: 29                                ADD     HL,HL
2FE2: 29                                ADD     HL,HL
2FE3: 09                                ADD     HL,BC
2FE4: 29                                ADD     HL,HL
2FE5: DD 75 D3                          LD      (IX-2Dh),L
2FE8: DD 74 D4                          LD      (IX-2Ch),H
2FEB: DD 7E FF                          LD      A,(IX-01h)
2FEE: DD 77 FE                          LD      (IX-02h),A
2FF1: AF                                XOR     A
2FF2: DD 77 FF                          LD      (IX-01h),A
2FF5: DD 4E FE                          LD      C,(IX-02h)
2FF8: DD 46 FF                          LD      B,(IX-01h)
2FFB: DD 6E D3                          LD      L,(IX-2Dh)
2FFE: DD 66 D4                          LD      H,(IX-2Ch)
3001: 09                                ADD     HL,BC
3002: 7D                                LD      A,L
3003: C6 D0                             ADD     A,0D0h
3005: DD 77 FC                          LD      (IX-04h),A
3008: 7C                                LD      A,H
3009: CE FF                             ADC     A,0FFh
300B: DD 77 FD                          LD      (IX-03h),A
300E: DD B6 FC                          OR      (IX-04h)
3011: C2 7A 2F                          JP      NZ,L2F7A
3014: DD 36 ED 01                       LD      (IX-13h),01h
3018: C3 7A 2F                          JP      L2F7A

301B: DD 4E F5                   L301B: LD      C,(IX-0Bh)
301E: DD 46 F6                          LD      B,(IX-0Ah)
3021: 69                                LD      L,C
3022: 60                                LD      H,B
3023: 29                                ADD     HL,HL
3024: 29                                ADD     HL,HL
3025: 09                                ADD     HL,BC
3026: 29                                ADD     HL,HL
3027: DD 4E FF                          LD      C,(IX-01h)
302A: 06 00                             LD      B,00h
302C: 09                                ADD     HL,BC
302D: 7D                                LD      A,L
302E: C6 D0                             ADD     A,0D0h
3030: DD 77 F5                          LD      (IX-0Bh),A
3033: 7C                                LD      A,H
3034: CE FF                             ADC     A,0FFh
3036: DD 77 F6                          LD      (IX-0Ah),A
3039: C3 7A 2F                          JP      L2F7A

303C: DD 7E FF                   L303C: LD      A,(IX-01h)
303F: D6 2E                             SUB     2Eh     ; '.'
3041: 20 14                             JR      NZ,L3057
3043: DD 7E F5                          LD      A,(IX-0Bh)
3046: DD A6 F6                          AND     (IX-0Ah)
3049: 3C                                INC     A
304A: C2 7A 2F                          JP      NZ,L2F7A
304D: AF                                XOR     A
304E: DD 77 F5                          LD      (IX-0Bh),A
3051: DD 77 F6                          LD      (IX-0Ah),A
3054: C3 7A 2F                          JP      L2F7A

3057: DD 7E FF                   L3057: LD      A,(IX-01h)
305A: D6 61                             SUB     61h     ; 'a'
305C: 38 15                             JR      C,L3073
305E: 3E 7A                             LD      A,7Ah   ; 'z'
3060: DD 96 FF                          SUB     (IX-01h)
3063: 38 0E                             JR      C,L3073
3065: DD 7E FF                          LD      A,(IX-01h)
3068: E6 DF                             AND     0DFh
306A: DD 77 FF                          LD      (IX-01h),A
306D: DD 36 F7 01                       LD      (IX-09h),01h
3071: 18 04                             JR      L3077

3073: AF                         L3073: XOR     A
3074: DD 77 F7                          LD      (IX-09h),A
3077: DD 7E FF                   L3077: LD      A,(IX-01h)
307A: D6 20                             SUB     20h     ; ' '
307C: CA 16 31                          JP      Z,L3116
307F: DD 7E FF                          LD      A,(IX-01h)
3082: D6 2B                             SUB     2Bh     ; '+'
3084: CA 0F 31                          JP      Z,L310F
3087: DD 7E FF                          LD      A,(IX-01h)
308A: D6 2D                             SUB     2Dh     ; '-'
308C: 28 7A                             JR      Z,L3108
308E: DD 7E FF                          LD      A,(IX-01h)
3091: D6 42                             SUB     42h     ; 'B'
3093: CA 1D 31                          JP      Z,L311D
3096: DD 7E FF                          LD      A,(IX-01h)
3099: D6 43                             SUB     43h     ; 'C'
309B: CA 2B 31                          JP      Z,L312B
309E: DD 7E FF                          LD      A,(IX-01h)
30A1: D6 44                             SUB     44h     ; 'D'
30A3: CA 89 33                          JP      Z,L3389
30A6: DD 7E FF                          LD      A,(IX-01h)
30A9: D6 46                             SUB     46h     ; 'F'
30AB: CA A5 33                          JP      Z,L33A5
30AE: DD 7E FF                          LD      A,(IX-01h)
30B1: D6 48                             SUB     48h     ; 'H'
30B3: CA 7A 2F                          JP      Z,L2F7A
30B6: DD 7E FF                          LD      A,(IX-01h)
30B9: D6 49                             SUB     49h     ; 'I'
30BB: CA 89 33                          JP      Z,L3389
30BE: DD 7E FF                          LD      A,(IX-01h)
30C1: D6 4A                             SUB     4Ah     ; 'J'
30C3: CA 7A 2F                          JP      Z,L2F7A
30C6: DD 7E FF                          LD      A,(IX-01h)
30C9: D6 4C                             SUB     4Ch     ; 'L'
30CB: 28 57                             JR      Z,L3124
30CD: DD 7E FF                          LD      A,(IX-01h)
30D0: D6 4F                             SUB     4Fh     ; 'O'
30D2: CA 93 33                          JP      Z,L3393
30D5: DD 7E FF                          LD      A,(IX-01h)
30D8: D6 50                             SUB     50h     ; 'P'
30DA: CA E0 32                          JP      Z,L32E0
30DD: DD 7E FF                          LD      A,(IX-01h)
30E0: D6 53                             SUB     53h     ; 'S'
30E2: CA 73 31                          JP      Z,L3173
30E5: DD 7E FF                          LD      A,(IX-01h)
30E8: D6 54                             SUB     54h     ; 'T'
30EA: CA 7A 2F                          JP      Z,L2F7A
30ED: DD 7E FF                          LD      A,(IX-01h)
30F0: D6 55                             SUB     55h     ; 'U'
30F2: CA 99 33                          JP      Z,L3399
30F5: DD 7E FF                          LD      A,(IX-01h)
30F8: D6 58                             SUB     58h     ; 'X'
30FA: CA 9F 33                          JP      Z,L339F
30FD: DD 7E FF                          LD      A,(IX-01h)
3100: D6 5A                             SUB     5Ah     ; 'Z'
3102: CA 7A 2F                          JP      Z,L2F7A
3105: C3 AB 33                          JP      L33AB

3108: DD 36 EC 01                L3108: LD      (IX-14h),01h
310C: C3 7A 2F                          JP      L2F7A

310F: DD 36 EE 01                L310F: LD      (IX-12h),01h
3113: C3 7A 2F                          JP      L2F7A

3116: DD 36 EF 01                L3116: LD      (IX-11h),01h
311A: C3 7A 2F                          JP      L2F7A

311D: DD 36 F1 01                L311D: LD      (IX-0Fh),01h
3121: C3 7A 2F                          JP      L2F7A

3124: DD 36 F2 01                L3124: LD      (IX-0Eh),01h
3128: C3 7A 2F                          JP      L2F7A

312B: DD CB F1 46                L312B: BIT     0,(IX-0Fh)
312F: 28 11                             JR      Z,L3142
3131: DD 6E 0A                          LD      L,(IX+0Ah)
3134: DD 66 0B                          LD      H,(IX+0Bh)
3137: 23                                INC     HL
3138: DD 75 0A                          LD      (IX+0Ah),L
313B: DD 74 0B                          LD      (IX+0Bh),H
313E: 2B                                DEC     HL
313F: 46                                LD      B,(HL)
3140: 18 11                             JR      L3153

3142: DD 6E 0A                   L3142: LD      L,(IX+0Ah)
3145: DD 66 0B                          LD      H,(IX+0Bh)
3148: 23                                INC     HL
3149: 23                                INC     HL
314A: DD 75 0A                          LD      (IX+0Ah),L
314D: DD 74 0B                          LD      (IX+0Bh),H
3150: 2B                                DEC     HL
3151: 2B                                DEC     HL
3152: 46                                LD      B,(HL)
3153: DD 6E 06                   L3153: LD      L,(IX+06h)
3156: DD 66 07                          LD      H,(IX+07h)
3159: E5                                PUSH    HL
315A: C5                                PUSH    BC
315B: 33                                INC     SP
315C: DD 6E 04                          LD      L,(IX+04h)
315F: DD 66 05                          LD      H,(IX+05h)
3162: CD B1 3D                          CALL    L3DB1
3165: F1                                POP     AF
3166: 33                                INC     SP
3167: DD 34 FA                          INC     (IX-06h)
316A: C2 D8 33                          JP      NZ,L33D8
316D: DD 34 FB                          INC     (IX-05h)
3170: C3 D8 33                          JP      L33D8

3173: 21 08 00                   L3173: LD      HL,0008h
3176: 39                                ADD     HL,SP
3177: DD 75 F8                          LD      (IX-08h),L
317A: DD 74 F9                          LD      (IX-07h),H
317D: DD 6E 0A                          LD      L,(IX+0Ah)
3180: DD 66 0B                          LD      H,(IX+0Bh)
3183: 23                                INC     HL
3184: 23                                INC     HL
3185: DD 75 0A                          LD      (IX+0Ah),L
3188: DD 74 0B                          LD      (IX+0Bh),H
318B: 2B                                DEC     HL
318C: 2B                                DEC     HL
318D: 4E                                LD      C,(HL)
318E: 23                                INC     HL
318F: 46                                LD      B,(HL)
3190: DD 6E F8                          LD      L,(IX-08h)
3193: DD 66 F9                          LD      H,(IX-07h)
3196: 71                                LD      (HL),C
3197: 23                                INC     HL
3198: 70                                LD      (HL),B
3199: C5                                PUSH    BC
319A: CD C3 13                          CALL    L13C3
319D: F1                                POP     AF
319E: 4D                                LD      C,L
319F: 44                                LD      B,H
31A0: DD 7E F5                          LD      A,(IX-0Bh)
31A3: DD A6 F6                          AND     (IX-0Ah)
31A6: 3C                                INC     A
31A7: 20 06                             JR      NZ,L31AF
31A9: DD 71 F5                          LD      (IX-0Bh),C
31AC: DD 70 F6                          LD      (IX-0Ah),B
31AF: DD CB EC 46                L31AF: BIT     0,(IX-14h)
31B3: 20 67                             JR      NZ,L321C
31B5: 79                                LD      A,C
31B6: DD 96 FC                          SUB     (IX-04h)
31B9: 78                                LD      A,B
31BA: DD 9E FD                          SBC     A,(IX-03h)
31BD: 30 5D                             JR      NC,L321C
31BF: DD 7E FC                          LD      A,(IX-04h)
31C2: 91                                SUB     C
31C3: DD 77 FE                          LD      (IX-02h),A
31C6: DD 7E FD                          LD      A,(IX-03h)
31C9: 98                                SBC     A,B
31CA: DD 77 FF                          LD      (IX-01h),A
31CD: DD 5E FA                          LD      E,(IX-06h)
31D0: DD 56 FB                          LD      D,(IX-05h)
31D3: DD 6E FE                   L31D3: LD      L,(IX-02h)
31D6: DD 66 FF                          LD      H,(IX-01h)
31D9: DD 7E FE                          LD      A,(IX-02h)
31DC: C6 FF                             ADD     A,0FFh
31DE: DD 77 FE                          LD      (IX-02h),A
31E1: DD 7E FF                          LD      A,(IX-01h)
31E4: CE FF                             ADC     A,0FFh
31E6: DD 77 FF                          LD      (IX-01h),A
31E9: 7C                                LD      A,H
31EA: B5                                OR      L
31EB: 28 1D                             JR      Z,L320A
31ED: C5                                PUSH    BC
31EE: D5                                PUSH    DE
31EF: DD 6E 06                          LD      L,(IX+06h)
31F2: DD 66 07                          LD      H,(IX+07h)
31F5: E5                                PUSH    HL
31F6: 3E 20                             LD      A,20h   ; ' '
31F8: F5                                PUSH    AF
31F9: 33                                INC     SP
31FA: DD 6E 04                          LD      L,(IX+04h)
31FD: DD 66 05                          LD      H,(IX+05h)
3200: CD B1 3D                          CALL    L3DB1
3203: F1                                POP     AF
3204: 33                                INC     SP
3205: D1                                POP     DE
3206: C1                                POP     BC
3207: 13                                INC     DE
3208: 18 C9                             JR      L31D3

320A: DD 73 FA                   L320A: LD      (IX-06h),E
320D: DD 72 FB                          LD      (IX-05h),D
3210: DD 7E FE                          LD      A,(IX-02h)
3213: DD 77 FC                          LD      (IX-04h),A
3216: DD 7E FF                          LD      A,(IX-01h)
3219: DD 77 FD                          LD      (IX-03h),A
321C: DD 7E F5                   L321C: LD      A,(IX-0Bh)
321F: DD 77 FE                          LD      (IX-02h),A
3222: DD 7E F6                          LD      A,(IX-0Ah)
3225: DD 77 FF                          LD      (IX-01h),A
3228: DD 5E FA                          LD      E,(IX-06h)
322B: DD 56 FB                          LD      D,(IX-05h)
322E: DD 6E F8                   L322E: LD      L,(IX-08h)
3231: DD 66 F9                          LD      H,(IX-07h)
3234: 7E                                LD      A,(HL)
3235: 23                                INC     HL
3236: 66                                LD      H,(HL)
3237: 6F                                LD      L,A
3238: 7E                                LD      A,(HL)
3239: DD 77 FB                          LD      (IX-05h),A
323C: B7                                OR      A
323D: 28 5A                             JR      Z,L3299
323F: AF                                XOR     A
3240: DD BE FE                          CP      (IX-02h)
3243: DD 9E FF                          SBC     A,(IX-01h)
3246: E2 4B 32                          JP      PO,L324B
3249: EE 80                             XOR     80h
324B: F2 99 32                   L324B: JP      P,L3299
324E: DD 6E FE                          LD      L,(IX-02h)
3251: DD 66 FF                          LD      H,(IX-01h)
3254: 2B                                DEC     HL
3255: DD 75 FE                          LD      (IX-02h),L
3258: DD 74 FF                          LD      (IX-01h),H
325B: C5                                PUSH    BC
325C: D5                                PUSH    DE
325D: DD 6E 06                          LD      L,(IX+06h)
3260: DD 66 07                          LD      H,(IX+07h)
3263: E5                                PUSH    HL
3264: DD 7E FB                          LD      A,(IX-05h)
3267: F5                                PUSH    AF
3268: 33                                INC     SP
3269: DD 6E 04                          LD      L,(IX+04h)
326C: DD 66 05                          LD      H,(IX+05h)
326F: CD B1 3D                          CALL    L3DB1
3272: F1                                POP     AF
3273: 33                                INC     SP
3274: D1                                POP     DE
3275: C1                                POP     BC
3276: 13                                INC     DE
3277: DD 6E F8                          LD      L,(IX-08h)
327A: DD 66 F9                          LD      H,(IX-07h)
327D: 7E                                LD      A,(HL)
327E: 23                                INC     HL
327F: 66                                LD      H,(HL)
3280: 6F                                LD      L,A
3281: 23                                INC     HL
3282: DD 75 FA                          LD      (IX-06h),L
3285: DD 74 FB                          LD      (IX-05h),H
3288: DD 6E F8                          LD      L,(IX-08h)
328B: DD 66 F9                          LD      H,(IX-07h)
328E: DD 7E FA                          LD      A,(IX-06h)
3291: 77                                LD      (HL),A
3292: 23                                INC     HL
3293: DD 7E FB                          LD      A,(IX-05h)
3296: 77                                LD      (HL),A
3297: 18 95                             JR      L322E

3299: DD 73 FA                   L3299: LD      (IX-06h),E
329C: DD 72 FB                          LD      (IX-05h),D
329F: DD CB EC 46                       BIT     0,(IX-14h)
32A3: CA D8 33                          JP      Z,L33D8
32A6: 79                                LD      A,C
32A7: DD 96 FC                          SUB     (IX-04h)
32AA: 78                                LD      A,B
32AB: DD 9E FD                          SBC     A,(IX-03h)
32AE: D2 D8 33                          JP      NC,L33D8
32B1: DD 7E FC                          LD      A,(IX-04h)
32B4: 91                                SUB     C
32B5: 4F                                LD      C,A
32B6: DD 7E FD                          LD      A,(IX-03h)
32B9: 98                                SBC     A,B
32BA: 47                                LD      B,A
32BB: 69                         L32BB: LD      L,C
32BC: 60                                LD      H,B
32BD: 0B                                DEC     BC
32BE: 7C                                LD      A,H
32BF: B5                                OR      L
32C0: CA CC 33                          JP      Z,L33CC
32C3: C5                                PUSH    BC
32C4: D5                                PUSH    DE
32C5: DD 6E 06                          LD      L,(IX+06h)
32C8: DD 66 07                          LD      H,(IX+07h)
32CB: E5                                PUSH    HL
32CC: 3E 20                             LD      A,20h   ; ' '
32CE: F5                                PUSH    AF
32CF: 33                                INC     SP
32D0: DD 6E 04                          LD      L,(IX+04h)
32D3: DD 66 05                          LD      H,(IX+05h)
32D6: CD B1 3D                          CALL    L3DB1
32D9: F1                                POP     AF
32DA: 33                                INC     SP
32DB: D1                                POP     DE
32DC: C1                                POP     BC
32DD: 13                                INC     DE
32DE: 18 DB                             JR      L32BB

32E0: 21 08 00                   L32E0: LD      HL,0008h
32E3: 39                                ADD     HL,SP
32E4: EB                                EX      DE,HL
32E5: DD 6E 0A                          LD      L,(IX+0Ah)
32E8: DD 66 0B                          LD      H,(IX+0Bh)
32EB: 23                                INC     HL
32EC: 23                                INC     HL
32ED: DD 75 0A                          LD      (IX+0Ah),L
32F0: DD 74 0B                          LD      (IX+0Bh),H
32F3: 2B                                DEC     HL
32F4: 2B                                DEC     HL
32F5: 4E                                LD      C,(HL)
32F6: 23                                INC     HL
32F7: 46                                LD      B,(HL)
32F8: 79                                LD      A,C
32F9: 12                                LD      (DE),A
32FA: 13                                INC     DE
32FB: 78                                LD      A,B
32FC: 12                                LD      (DE),A
32FD: DD 6E 06                          LD      L,(IX+06h)
3300: DD 66 07                          LD      H,(IX+07h)
3303: E5                                PUSH    HL
3304: 3E 30                             LD      A,30h   ; '0'
3306: F5                                PUSH    AF
3307: 33                                INC     SP
3308: DD 6E 04                          LD      L,(IX+04h)
330B: DD 66 05                          LD      H,(IX+05h)
330E: CD B1 3D                          CALL    L3DB1
3311: F1                                POP     AF
3312: 33                                INC     SP
3313: DD 4E FA                          LD      C,(IX-06h)
3316: DD 46 FB                          LD      B,(IX-05h)
3319: 03                                INC     BC
331A: C5                                PUSH    BC
331B: DD 6E 06                          LD      L,(IX+06h)
331E: DD 66 07                          LD      H,(IX+07h)
3321: E5                                PUSH    HL
3322: 3E 78                             LD      A,78h   ; 'x'
3324: F5                                PUSH    AF
3325: 33                                INC     SP
3326: DD 6E 04                          LD      L,(IX+04h)
3329: DD 66 05                          LD      H,(IX+05h)
332C: CD B1 3D                          CALL    L3DB1
332F: F1                                POP     AF
3330: 33                                INC     SP
3331: C1                                POP     BC
3332: 03                                INC     BC
3333: 21 09 00                          LD      HL,0009h
3336: 39                                ADD     HL,SP
3337: 56                                LD      D,(HL)
3338: C5                                PUSH    BC
3339: DD 6E 06                          LD      L,(IX+06h)
333C: DD 66 07                          LD      H,(IX+07h)
333F: E5                                PUSH    HL
3340: DD 6E 04                          LD      L,(IX+04h)
3343: DD 66 05                          LD      H,(IX+05h)
3346: E5                                PUSH    HL
3347: DD 7E F7                          LD      A,(IX-09h)
334A: F5                                PUSH    AF
334B: 33                                INC     SP
334C: D5                                PUSH    DE
334D: 33                                INC     SP
334E: CD DD 2D                          CALL    L2DDD
3351: 21 06 00                          LD      HL,0006h
3354: 39                                ADD     HL,SP
3355: F9                                LD      SP,HL
3356: C1                                POP     BC
3357: 03                                INC     BC
3358: 03                                INC     BC
3359: DD 6E E0                          LD      L,(IX-20h)
335C: DD 66 E1                          LD      H,(IX-1Fh)
335F: 56                                LD      D,(HL)
3360: C5                                PUSH    BC
3361: DD 6E 06                          LD      L,(IX+06h)
3364: DD 66 07                          LD      H,(IX+07h)
3367: E5                                PUSH    HL
3368: DD 6E 04                          LD      L,(IX+04h)
336B: DD 66 05                          LD      H,(IX+05h)
336E: E5                                PUSH    HL
336F: DD 7E F7                          LD      A,(IX-09h)
3372: F5                                PUSH    AF
3373: 33                                INC     SP
3374: D5                                PUSH    DE
3375: 33                                INC     SP
3376: CD DD 2D                          CALL    L2DDD
3379: 21 06 00                          LD      HL,0006h
337C: 39                                ADD     HL,SP
337D: F9                                LD      SP,HL
337E: C1                                POP     BC
337F: 03                                INC     BC
3380: 03                                INC     BC
3381: DD 71 FA                          LD      (IX-06h),C
3384: DD 70 FB                          LD      (IX-05h),B
3387: 18 4F                             JR      L33D8

3389: DD 36 F0 01                L3389: LD      (IX-10h),01h
338D: DD 36 F4 0A                       LD      (IX-0Ch),0Ah
3391: 18 45                             JR      L33D8

3393: DD 36 F4 08                L3393: LD      (IX-0Ch),08h
3397: 18 3F                             JR      L33D8

3399: DD 36 F4 0A                L3399: LD      (IX-0Ch),0Ah
339D: 18 39                             JR      L33D8

339F: DD 36 F4 10                L339F: LD      (IX-0Ch),10h
33A3: 18 33                             JR      L33D8

33A5: DD 36 F3 01                L33A5: LD      (IX-0Dh),01h
33A9: 18 2D                             JR      L33D8

33AB: DD 6E 06                   L33AB: LD      L,(IX+06h)
33AE: DD 66 07                          LD      H,(IX+07h)
33B1: E5                                PUSH    HL
33B2: DD 7E FF                          LD      A,(IX-01h)
33B5: F5                                PUSH    AF
33B6: 33                                INC     SP
33B7: DD 6E 04                          LD      L,(IX+04h)
33BA: DD 66 05                          LD      H,(IX+05h)
33BD: CD B1 3D                          CALL    L3DB1
33C0: F1                                POP     AF
33C1: 33                                INC     SP
33C2: DD 34 FA                          INC     (IX-06h)
33C5: 20 11                             JR      NZ,L33D8
33C7: DD 34 FB                          INC     (IX-05h)
33CA: 18 0C                             JR      L33D8

33CC: DD 73 FA                   L33CC: LD      (IX-06h),E
33CF: DD 72 FB                          LD      (IX-05h),D
33D2: DD 71 FC                          LD      (IX-04h),C
33D5: DD 70 FD                          LD      (IX-03h),B
33D8: DD CB F3 46                L33D8: BIT     0,(IX-0Dh)
33DC: CA 94 34                          JP      Z,L3494
33DF: 21 08 00                          LD      HL,0008h
33E2: 39                                ADD     HL,SP
33E3: DD 75 F8                          LD      (IX-08h),L
33E6: DD 74 F9                          LD      (IX-07h),H
33E9: DD 7E 0A                          LD      A,(IX+0Ah)
33EC: C6 04                             ADD     A,04h
33EE: DD 77 FC                          LD      (IX-04h),A
33F1: DD 7E 0B                          LD      A,(IX+0Bh)
33F4: CE 00                             ADC     A,00h
33F6: DD 77 FD                          LD      (IX-03h),A
33F9: DD 7E FC                          LD      A,(IX-04h)
33FC: DD 77 0A                          LD      (IX+0Ah),A
33FF: DD 7E FD                          LD      A,(IX-03h)
3402: DD 77 0B                          LD      (IX+0Bh),A
3405: DD 7E FC                          LD      A,(IX-04h)
3408: C6 FC                             ADD     A,0FCh
340A: DD 77 FE                          LD      (IX-02h),A
340D: DD 7E FD                          LD      A,(IX-03h)
3410: CE FF                             ADC     A,0FFh
3412: DD 77 FF                          LD      (IX-01h),A
3415: DD 5E FE                          LD      E,(IX-02h)
3418: DD 56 FF                          LD      D,(IX-01h)
341B: 21 2F 00                          LD      HL,002Fh
341E: 39                                ADD     HL,SP
341F: EB                                EX      DE,HL
3420: 01 04 00                          LD      BC,0004h
3423: ED B0                             LDIR
3425: DD 5E F8                          LD      E,(IX-08h)
3428: DD 56 F9                          LD      D,(IX-07h)
342B: 21 2F 00                          LD      HL,002Fh
342E: 39                                ADD     HL,SP
342F: 01 04 00                          LD      BC,0004h
3432: ED B0                             LDIR
3434: 21 08 00                          LD      HL,0008h
3437: 39                                ADD     HL,SP
3438: DD 75 FC                          LD      (IX-04h),L
343B: DD 74 FD                          LD      (IX-03h),H
343E: 36 28                             LD      (HL),28h        ; '('
3440: 23                                INC     HL
3441: 36 3A                             LD      (HL),3Ah        ; ':'
3443: DD 7E FA                          LD      A,(IX-06h)
3446: DD 77 FE                          LD      (IX-02h),A
3449: DD 7E FB                          LD      A,(IX-05h)
344C: DD 77 FF                          LD      (IX-01h),A
344F: DD 6E FC                   L344F: LD      L,(IX-04h)
3452: DD 66 FD                          LD      H,(IX-03h)
3455: 4E                                LD      C,(HL)
3456: 23                                INC     HL
3457: 46                                LD      B,(HL)
3458: 59                                LD      E,C
3459: 50                                LD      D,B
345A: 13                                INC     DE
345B: DD 6E FC                          LD      L,(IX-04h)
345E: DD 66 FD                          LD      H,(IX-03h)
3461: 73                                LD      (HL),E
3462: 23                                INC     HL
3463: 72                                LD      (HL),D
3464: 0A                                LD      A,(BC)
3465: 47                                LD      B,A
3466: B7                                OR      A
3467: CA 1D 2F                          JP      Z,L2F1D
346A: DD 6E 06                          LD      L,(IX+06h)
346D: DD 66 07                          LD      H,(IX+07h)
3470: E5                                PUSH    HL
3471: C5                                PUSH    BC
3472: 33                                INC     SP
3473: DD 6E 04                          LD      L,(IX+04h)
3476: DD 66 05                          LD      H,(IX+05h)
3479: CD B1 3D                          CALL    L3DB1
347C: F1                                POP     AF
347D: 33                                INC     SP
347E: DD 34 FE                          INC     (IX-02h)
3481: 20 03                             JR      NZ,L3486
3483: DD 34 FF                          INC     (IX-01h)
3486: DD 7E FE                   L3486: LD      A,(IX-02h)
3489: DD 77 FA                          LD      (IX-06h),A
348C: DD 7E FF                          LD      A,(IX-01h)
348F: DD 77 FB                          LD      (IX-05h),A
3492: 18 BB                             JR      L344F

3494: DD 7E F4                   L3494: LD      A,(IX-0Ch)
3497: B7                                OR      A
3498: CA 1D 2F                          JP      Z,L2F1D
349B: DD 7E E2                          LD      A,(IX-1Eh)
349E: DD 77 F8                          LD      (IX-08h),A
34A1: DD 7E E3                          LD      A,(IX-1Dh)
34A4: DD 77 F9                          LD      (IX-07h),A
34A7: DD CB F1 46                       BIT     0,(IX-0Fh)
34AB: CA 36 35                          JP      Z,L3536
34AE: 21 08 00                          LD      HL,0008h
34B1: 39                                ADD     HL,SP
34B2: DD 75 FE                          LD      (IX-02h),L
34B5: DD 74 FF                          LD      (IX-01h),H
34B8: DD 7E 0A                          LD      A,(IX+0Ah)
34BB: C6 01                             ADD     A,01h
34BD: DD 77 F5                          LD      (IX-0Bh),A
34C0: DD 7E 0B                          LD      A,(IX+0Bh)
34C3: CE 00                             ADC     A,00h
34C5: DD 77 F6                          LD      (IX-0Ah),A
34C8: DD 7E F5                          LD      A,(IX-0Bh)
34CB: DD 77 0A                          LD      (IX+0Ah),A
34CE: DD 7E F6                          LD      A,(IX-0Ah)
34D1: DD 77 0B                          LD      (IX+0Bh),A
34D4: DD 6E F5                          LD      L,(IX-0Bh)
34D7: DD 66 F6                          LD      H,(IX-0Ah)
34DA: 2B                                DEC     HL
34DB: 7E                                LD      A,(HL)
34DC: DD 77 F6                          LD      (IX-0Ah),A
34DF: DD 77 D1                          LD      (IX-2Fh),A
34E2: AF                                XOR     A
34E3: DD 77 D2                          LD      (IX-2Eh),A
34E6: DD 77 D3                          LD      (IX-2Dh),A
34E9: DD 77 D4                          LD      (IX-2Ch),A
34EC: DD 5E FE                          LD      E,(IX-02h)
34EF: DD 56 FF                          LD      D,(IX-01h)
34F2: 21 04 00                          LD      HL,0004h
34F5: 39                                ADD     HL,SP
34F6: 01 04 00                          LD      BC,0004h
34F9: ED B0                             LDIR
34FB: DD CB F0 46                       BIT     0,(IX-10h)
34FF: C2 35 36                          JP      NZ,L3635
3502: DD 5E FE                          LD      E,(IX-02h)
3505: DD 56 FF                          LD      D,(IX-01h)
3508: 21 00 00                          LD      HL,0000h
350B: 39                                ADD     HL,SP
350C: EB                                EX      DE,HL
350D: 01 04 00                          LD      BC,0004h
3510: ED B0                             LDIR
3512: DD 7E CD                          LD      A,(IX-33h)
3515: DD 77 D1                          LD      (IX-2Fh),A
3518: DD 36 D2 00                       LD      (IX-2Eh),00h
351C: DD 36 D3 00                       LD      (IX-2Dh),00h
3520: DD 36 D4 00                       LD      (IX-2Ch),00h
3524: DD 5E FE                          LD      E,(IX-02h)
3527: DD 56 FF                          LD      D,(IX-01h)
352A: 21 04 00                          LD      HL,0004h
352D: 39                                ADD     HL,SP
352E: 01 04 00                          LD      BC,0004h
3531: ED B0                             LDIR
3533: C3 35 36                          JP      L3635

3536: DD CB F2 46                L3536: BIT     0,(IX-0Eh)
353A: 28 58                             JR      Z,L3594
353C: 21 08 00                          LD      HL,0008h
353F: 39                                ADD     HL,SP
3540: DD 75 F5                          LD      (IX-0Bh),L
3543: DD 74 F6                          LD      (IX-0Ah),H
3546: DD 7E 0A                          LD      A,(IX+0Ah)
3549: C6 04                             ADD     A,04h
354B: DD 77 F2                          LD      (IX-0Eh),A
354E: DD 7E 0B                          LD      A,(IX+0Bh)
3551: CE 00                             ADC     A,00h
3553: DD 77 F3                          LD      (IX-0Dh),A
3556: DD 7E F2                          LD      A,(IX-0Eh)
3559: DD 77 0A                          LD      (IX+0Ah),A
355C: DD 7E F3                          LD      A,(IX-0Dh)
355F: DD 77 0B                          LD      (IX+0Bh),A
3562: DD 7E F2                          LD      A,(IX-0Eh)
3565: C6 FC                             ADD     A,0FCh
3567: DD 77 FE                          LD      (IX-02h),A
356A: DD 7E F3                          LD      A,(IX-0Dh)
356D: CE FF                             ADC     A,0FFh
356F: DD 77 FF                          LD      (IX-01h),A
3572: DD 5E FE                          LD      E,(IX-02h)
3575: DD 56 FF                          LD      D,(IX-01h)
3578: 21 04 00                          LD      HL,0004h
357B: 39                                ADD     HL,SP
357C: EB                                EX      DE,HL
357D: 01 04 00                          LD      BC,0004h
3580: ED B0                             LDIR
3582: DD 5E F5                          LD      E,(IX-0Bh)
3585: DD 56 F6                          LD      D,(IX-0Ah)
3588: 21 04 00                          LD      HL,0004h
358B: 39                                ADD     HL,SP
358C: 01 04 00                          LD      BC,0004h
358F: ED B0                             LDIR
3591: C3 35 36                          JP      L3635

3594: 21 08 00                   L3594: LD      HL,0008h
3597: 39                                ADD     HL,SP
3598: DD 75 FE                          LD      (IX-02h),L
359B: DD 74 FF                          LD      (IX-01h),H
359E: DD 7E 0A                          LD      A,(IX+0Ah)
35A1: C6 02                             ADD     A,02h
35A3: DD 77 F2                          LD      (IX-0Eh),A
35A6: DD 7E 0B                          LD      A,(IX+0Bh)
35A9: CE 00                             ADC     A,00h
35AB: DD 77 F3                          LD      (IX-0Dh),A
35AE: DD 7E F2                          LD      A,(IX-0Eh)
35B1: DD 77 0A                          LD      (IX+0Ah),A
35B4: DD 7E F3                          LD      A,(IX-0Dh)
35B7: DD 77 0B                          LD      (IX+0Bh),A
35BA: DD 7E F2                          LD      A,(IX-0Eh)
35BD: C6 FE                             ADD     A,0FEh
35BF: DD 77 F5                          LD      (IX-0Bh),A
35C2: DD 7E F3                          LD      A,(IX-0Dh)
35C5: CE FF                             ADC     A,0FFh
35C7: DD 77 F6                          LD      (IX-0Ah),A
35CA: DD 6E F5                          LD      L,(IX-0Bh)
35CD: DD 66 F6                          LD      H,(IX-0Ah)
35D0: 7E                                LD      A,(HL)
35D1: DD 77 F5                          LD      (IX-0Bh),A
35D4: 23                                INC     HL
35D5: 7E                                LD      A,(HL)
35D6: DD 77 F6                          LD      (IX-0Ah),A
35D9: DD 7E F5                          LD      A,(IX-0Bh)
35DC: DD 77 D1                          LD      (IX-2Fh),A
35DF: DD 7E F6                          LD      A,(IX-0Ah)
35E2: DD 77 D2                          LD      (IX-2Eh),A
35E5: 17                                RLA
35E6: 9F                                SBC     A,A
35E7: DD 77 D3                          LD      (IX-2Dh),A
35EA: DD 77 D4                          LD      (IX-2Ch),A
35ED: DD 5E FE                          LD      E,(IX-02h)
35F0: DD 56 FF                          LD      D,(IX-01h)
35F3: 21 04 00                          LD      HL,0004h
35F6: 39                                ADD     HL,SP
35F7: 01 04 00                          LD      BC,0004h
35FA: ED B0                             LDIR
35FC: DD CB F0 46                       BIT     0,(IX-10h)
3600: 20 33                             JR      NZ,L3635
3602: DD 5E FE                          LD      E,(IX-02h)
3605: DD 56 FF                          LD      D,(IX-01h)
3608: 21 00 00                          LD      HL,0000h
360B: 39                                ADD     HL,SP
360C: EB                                EX      DE,HL
360D: 01 04 00                          LD      BC,0004h
3610: ED B0                             LDIR
3612: DD 7E CD                          LD      A,(IX-33h)
3615: DD 77 D1                          LD      (IX-2Fh),A
3618: DD 7E CE                          LD      A,(IX-32h)
361B: DD 77 D2                          LD      (IX-2Eh),A
361E: DD 36 D3 00                       LD      (IX-2Dh),00h
3622: DD 36 D4 00                       LD      (IX-2Ch),00h
3626: DD 5E FE                          LD      E,(IX-02h)
3629: DD 56 FF                          LD      D,(IX-01h)
362C: 21 04 00                          LD      HL,0004h
362F: 39                                ADD     HL,SP
3630: 01 04 00                          LD      BC,0004h
3633: ED B0                             LDIR
3635: DD CB F0 46                L3635: BIT     0,(IX-10h)
3639: 28 5F                             JR      Z,L369A
363B: 21 08 00                          LD      HL,0008h
363E: 39                                ADD     HL,SP
363F: DD 75 FE                          LD      (IX-02h),L
3642: DD 74 FF                          LD      (IX-01h),H
3645: EB                                EX      DE,HL
3646: 21 04 00                          LD      HL,0004h
3649: 39                                ADD     HL,SP
364A: EB                                EX      DE,HL
364B: 01 04 00                          LD      BC,0004h
364E: ED B0                             LDIR
3650: DD CB D4 7E                       BIT     7,(IX-2Ch)
3654: 28 40                             JR      Z,L3696
3656: DD 5E FE                          LD      E,(IX-02h)
3659: DD 56 FF                          LD      D,(IX-01h)
365C: 21 00 00                          LD      HL,0000h
365F: 39                                ADD     HL,SP
3660: EB                                EX      DE,HL
3661: 01 04 00                          LD      BC,0004h
3664: ED B0                             LDIR
3666: AF                                XOR     A
3667: DD 96 CD                          SUB     (IX-33h)
366A: DD 77 D1                          LD      (IX-2Fh),A
366D: 3E 00                             LD      A,00h
366F: DD 9E CE                          SBC     A,(IX-32h)
3672: DD 77 D2                          LD      (IX-2Eh),A
3675: 3E 00                             LD      A,00h
3677: DD 9E CF                          SBC     A,(IX-31h)
367A: DD 77 D3                          LD      (IX-2Dh),A
367D: 3E 00                             LD      A,00h
367F: DD 9E D0                          SBC     A,(IX-30h)
3682: DD 77 D4                          LD      (IX-2Ch),A
3685: DD 5E FE                          LD      E,(IX-02h)
3688: DD 56 FF                          LD      D,(IX-01h)
368B: 21 04 00                          LD      HL,0004h
368E: 39                                ADD     HL,SP
368F: 01 04 00                          LD      BC,0004h
3692: ED B0                             LDIR
3694: 18 04                             JR      L369A

3696: AF                         L3696: XOR     A
3697: DD 77 F0                          LD      (IX-10h),A
369A: DD 36 FF 01                L369A: LD      (IX-01h),01h
369E: DD 4E F8                          LD      C,(IX-08h)
36A1: DD 46 F9                          LD      B,(IX-07h)
36A4: AF                                XOR     A
36A5: DD 77 F8                          LD      (IX-08h),A
36A8: DD 77 F9                          LD      (IX-07h),A
36AB: 21 0C 00                   L36AB: LD      HL,000Ch
36AE: 39                                ADD     HL,SP
36AF: 36 00                             LD      (HL),00h
36B1: DD 5E E4                          LD      E,(IX-1Ch)
36B4: DD 56 E5                          LD      D,(IX-1Bh)
36B7: C5                                PUSH    BC
36B8: DD 7E F4                          LD      A,(IX-0Ch)
36BB: F5                                PUSH    AF
36BC: 33                                INC     SP
36BD: D5                                PUSH    DE
36BE: CD 33 2E                          CALL    L2E33
36C1: F1                                POP     AF
36C2: 33                                INC     SP
36C3: C1                                POP     BC
36C4: DD CB FF 46                       BIT     0,(IX-01h)
36C8: 20 21                             JR      NZ,L36EB
36CA: DD 6E E8                          LD      L,(IX-18h)
36CD: DD 66 E9                          LD      H,(IX-17h)
36D0: 7E                                LD      A,(HL)
36D1: 87                                ADD     A,A
36D2: 87                                ADD     A,A
36D3: 87                                ADD     A,A
36D4: 87                                ADD     A,A
36D5: 5F                                LD      E,A
36D6: DD 6E E8                          LD      L,(IX-18h)
36D9: DD 66 E9                          LD      H,(IX-17h)
36DC: 7E                                LD      A,(HL)
36DD: 07                                RLCA
36DE: 07                                RLCA
36DF: 07                                RLCA
36E0: 07                                RLCA
36E1: E6 0F                             AND     0Fh
36E3: B3                                OR      E
36E4: 5F                                LD      E,A
36E5: 0A                                LD      A,(BC)
36E6: B3                                OR      E
36E7: 02                                LD      (BC),A
36E8: 0B                                DEC     BC
36E9: 18 08                             JR      L36F3

36EB: DD 6E E6                   L36EB: LD      L,(IX-1Ah)
36EE: DD 66 E7                          LD      H,(IX-19h)
36F1: 7E                                LD      A,(HL)
36F2: 02                                LD      (BC),A
36F3: DD 34 F8                   L36F3: INC     (IX-08h)
36F6: 20 03                             JR      NZ,L36FB
36F8: DD 34 F9                          INC     (IX-07h)
36FB: DD 7E FF                   L36FB: LD      A,(IX-01h)
36FE: EE 01                             XOR     01h
3700: DD 77 FF                          LD      (IX-01h),A
3703: DD 6E E4                          LD      L,(IX-1Ch)
3706: DD 66 E5                          LD      H,(IX-1Bh)
3709: 5E                                LD      E,(HL)
370A: 23                                INC     HL
370B: 56                                LD      D,(HL)
370C: 23                                INC     HL
370D: 23                                INC     HL
370E: 7E                                LD      A,(HL)
370F: 2B                                DEC     HL
3710: 6E                                LD      L,(HL)
3711: B5                                OR      L
3712: B2                                OR      D
3713: B3                                OR      E
3714: 20 95                             JR      NZ,L36AB
3716: DD 71 F3                          LD      (IX-0Dh),C
3719: DD 70 F4                          LD      (IX-0Ch),B
371C: DD 7E F8                          LD      A,(IX-08h)
371F: DD 77 F5                          LD      (IX-0Bh),A
3722: DD 7E F9                          LD      A,(IX-07h)
3725: DD 77 F6                          LD      (IX-0Ah),A
3728: DD 7E FD                          LD      A,(IX-03h)
372B: DD B6 FC                          OR      (IX-04h)
372E: 20 08                             JR      NZ,L3738
3730: DD 36 FC 01                       LD      (IX-04h),01h
3734: AF                                XOR     A
3735: DD 77 FD                          LD      (IX-03h),A
3738: DD CB ED 46                L3738: BIT     0,(IX-13h)
373C: 20 6C                             JR      NZ,L37AA
373E: DD CB EC 46                       BIT     0,(IX-14h)
3742: 20 66                             JR      NZ,L37AA
3744: DD 7E FC                          LD      A,(IX-04h)
3747: DD 77 F8                          LD      (IX-08h),A
374A: DD 7E FD                          LD      A,(IX-03h)
374D: DD 77 F9                          LD      (IX-07h),A
3750: DD 7E F5                   L3750: LD      A,(IX-0Bh)
3753: DD 77 FE                          LD      (IX-02h),A
3756: DD 34 FE                          INC     (IX-02h)
3759: DD 7E FE                          LD      A,(IX-02h)
375C: DD 77 FD                          LD      (IX-03h),A
375F: AF                                XOR     A
3760: DD 77 FE                          LD      (IX-02h),A
3763: DD 7E FD                          LD      A,(IX-03h)
3766: DD 96 F8                          SUB     (IX-08h)
3769: DD 7E FE                          LD      A,(IX-02h)
376C: DD 9E F9                          SBC     A,(IX-07h)
376F: 30 2D                             JR      NC,L379E
3771: DD 6E 06                          LD      L,(IX+06h)
3774: DD 66 07                          LD      H,(IX+07h)
3777: E5                                PUSH    HL
3778: 3E 20                             LD      A,20h   ; ' '
377A: F5                                PUSH    AF
377B: 33                                INC     SP
377C: DD 6E 04                          LD      L,(IX+04h)
377F: DD 66 05                          LD      H,(IX+05h)
3782: CD B1 3D                          CALL    L3DB1
3785: F1                                POP     AF
3786: 33                                INC     SP
3787: DD 34 FA                          INC     (IX-06h)
378A: 20 03                             JR      NZ,L378F
378C: DD 34 FB                          INC     (IX-05h)
378F: DD 6E F8                   L378F: LD      L,(IX-08h)
3792: DD 66 F9                          LD      H,(IX-07h)
3795: 2B                                DEC     HL
3796: DD 75 F8                          LD      (IX-08h),L
3799: DD 74 F9                          LD      (IX-07h),H
379C: 18 B2                             JR      L3750

379E: DD 7E F8                   L379E: LD      A,(IX-08h)
37A1: DD 77 FC                          LD      (IX-04h),A
37A4: DD 7E F9                          LD      A,(IX-07h)
37A7: DD 77 FD                          LD      (IX-03h),A
37AA: DD CB F0 46                L37AA: BIT     0,(IX-10h)
37AE: 28 2D                             JR      Z,L37DD
37B0: DD 6E 06                          LD      L,(IX+06h)
37B3: DD 66 07                          LD      H,(IX+07h)
37B6: E5                                PUSH    HL
37B7: 3E 2D                             LD      A,2Dh   ; '-'
37B9: F5                                PUSH    AF
37BA: 33                                INC     SP
37BB: DD 6E 04                          LD      L,(IX+04h)
37BE: DD 66 05                          LD      H,(IX+05h)
37C1: CD B1 3D                          CALL    L3DB1
37C4: F1                                POP     AF
37C5: 33                                INC     SP
37C6: DD 34 FA                          INC     (IX-06h)
37C9: 20 03                             JR      NZ,L37CE
37CB: DD 34 FB                          INC     (IX-05h)
37CE: DD 6E FC                   L37CE: LD      L,(IX-04h)
37D1: DD 66 FD                          LD      H,(IX-03h)
37D4: 2B                                DEC     HL
37D5: DD 75 FC                          LD      (IX-04h),L
37D8: DD 74 FD                          LD      (IX-03h),H
37DB: 18 6C                             JR      L3849

37DD: DD 7E F6                   L37DD: LD      A,(IX-0Ah)
37E0: DD B6 F5                          OR      (IX-0Bh)
37E3: 28 64                             JR      Z,L3849
37E5: DD CB EE 46                       BIT     0,(IX-12h)
37E9: 28 2D                             JR      Z,L3818
37EB: DD 6E 06                          LD      L,(IX+06h)
37EE: DD 66 07                          LD      H,(IX+07h)
37F1: E5                                PUSH    HL
37F2: 3E 2B                             LD      A,2Bh   ; '+'
37F4: F5                                PUSH    AF
37F5: 33                                INC     SP
37F6: DD 6E 04                          LD      L,(IX+04h)
37F9: DD 66 05                          LD      H,(IX+05h)
37FC: CD B1 3D                          CALL    L3DB1
37FF: F1                                POP     AF
3800: 33                                INC     SP
3801: DD 34 FA                          INC     (IX-06h)
3804: 20 03                             JR      NZ,L3809
3806: DD 34 FB                          INC     (IX-05h)
3809: DD 6E FC                   L3809: LD      L,(IX-04h)
380C: DD 66 FD                          LD      H,(IX-03h)
380F: 2B                                DEC     HL
3810: DD 75 FC                          LD      (IX-04h),L
3813: DD 74 FD                          LD      (IX-03h),H
3816: 18 31                             JR      L3849

3818: DD CB EF 46                L3818: BIT     0,(IX-11h)
381C: 28 2B                             JR      Z,L3849
381E: DD 6E 06                          LD      L,(IX+06h)
3821: DD 66 07                          LD      H,(IX+07h)
3824: E5                                PUSH    HL
3825: 3E 20                             LD      A,20h   ; ' '
3827: F5                                PUSH    AF
3828: 33                                INC     SP
3829: DD 6E 04                          LD      L,(IX+04h)
382C: DD 66 05                          LD      H,(IX+05h)
382F: CD B1 3D                          CALL    L3DB1
3832: F1                                POP     AF
3833: 33                                INC     SP
3834: DD 34 FA                          INC     (IX-06h)
3837: 20 03                             JR      NZ,L383C
3839: DD 34 FB                          INC     (IX-05h)
383C: DD 6E FC                   L383C: LD      L,(IX-04h)
383F: DD 66 FD                          LD      H,(IX-03h)
3842: 2B                                DEC     HL
3843: DD 75 FC                          LD      (IX-04h),L
3846: DD 74 FD                          LD      (IX-03h),H
3849: DD CB EC 46                L3849: BIT     0,(IX-14h)
384D: 20 62                             JR      NZ,L38B1
384F: DD 7E FC                          LD      A,(IX-04h)
3852: DD 77 F8                          LD      (IX-08h),A
3855: DD 7E FD                          LD      A,(IX-03h)
3858: DD 77 F9                          LD      (IX-07h),A
385B: DD 4E F8                   L385B: LD      C,(IX-08h)
385E: DD 46 F9                          LD      B,(IX-07h)
3861: DD 6E F8                          LD      L,(IX-08h)
3864: DD 66 F9                          LD      H,(IX-07h)
3867: 2B                                DEC     HL
3868: DD 75 F8                          LD      (IX-08h),L
386B: DD 74 F9                          LD      (IX-07h),H
386E: DD 7E F5                          LD      A,(IX-0Bh)
3871: 91                                SUB     C
3872: DD 7E F6                          LD      A,(IX-0Ah)
3875: 98                                SBC     A,B
3876: 30 62                             JR      NC,L38DA
3878: DD CB ED 46                       BIT     0,(IX-13h)
387C: 28 0A                             JR      Z,L3888
387E: DD 36 FD 30                       LD      (IX-03h),30h    ; '0'
3882: AF                                XOR     A
3883: DD 77 FE                          LD      (IX-02h),A
3886: 18 08                             JR      L3890

3888: DD 36 FD 20                L3888: LD      (IX-03h),20h    ; ' '
388C: AF                                XOR     A
388D: DD 77 FE                          LD      (IX-02h),A
3890: DD 46 FD                   L3890: LD      B,(IX-03h)
3893: DD 6E 06                          LD      L,(IX+06h)
3896: DD 66 07                          LD      H,(IX+07h)
3899: E5                                PUSH    HL
389A: C5                                PUSH    BC
389B: 33                                INC     SP
389C: DD 6E 04                          LD      L,(IX+04h)
389F: DD 66 05                          LD      H,(IX+05h)
38A2: CD B1 3D                          CALL    L3DB1
38A5: F1                                POP     AF
38A6: 33                                INC     SP
38A7: DD 34 FA                          INC     (IX-06h)
38AA: 20 AF                             JR      NZ,L385B
38AC: DD 34 FB                          INC     (IX-05h)
38AF: 18 AA                             JR      L385B

38B1: DD 7E F5                   L38B1: LD      A,(IX-0Bh)
38B4: DD 96 FC                          SUB     (IX-04h)
38B7: DD 7E F6                          LD      A,(IX-0Ah)
38BA: DD 9E FD                          SBC     A,(IX-03h)
38BD: 30 14                             JR      NC,L38D3
38BF: DD 7E FC                          LD      A,(IX-04h)
38C2: DD 96 F5                          SUB     (IX-0Bh)
38C5: DD 77 F8                          LD      (IX-08h),A
38C8: DD 7E FD                          LD      A,(IX-03h)
38CB: DD 9E F6                          SBC     A,(IX-0Ah)
38CE: DD 77 F9                          LD      (IX-07h),A
38D1: 18 07                             JR      L38DA

38D3: AF                         L38D3: XOR     A
38D4: DD 77 F8                          LD      (IX-08h),A
38D7: DD 77 F9                          LD      (IX-07h),A
38DA: DD 7E F3                   L38DA: LD      A,(IX-0Dh)
38DD: DD 77 FD                          LD      (IX-03h),A
38E0: DD 7E F4                          LD      A,(IX-0Ch)
38E3: DD 77 FE                          LD      (IX-02h),A
38E6: DD 7E FA                          LD      A,(IX-06h)
38E9: DD 77 F3                          LD      (IX-0Dh),A
38EC: DD 7E FB                          LD      A,(IX-05h)
38EF: DD 77 F4                          LD      (IX-0Ch),A
38F2: DD 7E F5                          LD      A,(IX-0Bh)
38F5: DD 77 FB                          LD      (IX-05h),A
38F8: DD 7E F6                          LD      A,(IX-0Ah)
38FB: DD 77 FC                          LD      (IX-04h),A
38FE: DD 7E FB                   L38FE: LD      A,(IX-05h)
3901: DD 77 F5                          LD      (IX-0Bh),A
3904: DD 7E FC                          LD      A,(IX-04h)
3907: DD 77 F6                          LD      (IX-0Ah),A
390A: DD 6E FB                          LD      L,(IX-05h)
390D: DD 66 FC                          LD      H,(IX-04h)
3910: 2B                                DEC     HL
3911: DD 75 FB                          LD      (IX-05h),L
3914: DD 74 FC                          LD      (IX-04h),H
3917: DD 7E F6                          LD      A,(IX-0Ah)
391A: DD B6 F5                          OR      (IX-0Bh)
391D: 28 6C                             JR      Z,L398B
391F: DD 7E FF                          LD      A,(IX-01h)
3922: EE 01                             XOR     01h
3924: DD 77 FF                          LD      (IX-01h),A
3927: DD CB FF 46                       BIT     0,(IX-01h)
392B: 20 1E                             JR      NZ,L394B
392D: DD 34 FD                          INC     (IX-03h)
3930: 20 03                             JR      NZ,L3935
3932: DD 34 FE                          INC     (IX-02h)
3935: DD 6E FD                   L3935: LD      L,(IX-03h)
3938: DD 66 FE                          LD      H,(IX-02h)
393B: 7E                                LD      A,(HL)
393C: 07                                RLCA
393D: 07                                RLCA
393E: 07                                RLCA
393F: 07                                RLCA
3940: E6 0F                             AND     0Fh
3942: DD 6E E6                          LD      L,(IX-1Ah)
3945: DD 66 E7                          LD      H,(IX-19h)
3948: 77                                LD      (HL),A
3949: 18 10                             JR      L395B

394B: DD 6E FD                   L394B: LD      L,(IX-03h)
394E: DD 66 FE                          LD      H,(IX-02h)
3951: 7E                                LD      A,(HL)
3952: E6 0F                             AND     0Fh
3954: DD 6E E6                          LD      L,(IX-1Ah)
3957: DD 66 E7                          LD      H,(IX-19h)
395A: 77                                LD      (HL),A
395B: DD 6E EA                   L395B: LD      L,(IX-16h)
395E: DD 66 EB                          LD      H,(IX-15h)
3961: 46                                LD      B,(HL)
3962: DD 6E 06                          LD      L,(IX+06h)
3965: DD 66 07                          LD      H,(IX+07h)
3968: E5                                PUSH    HL
3969: DD 6E 04                          LD      L,(IX+04h)
396C: DD 66 05                          LD      H,(IX+05h)
396F: E5                                PUSH    HL
3970: DD 7E F7                          LD      A,(IX-09h)
3973: F5                                PUSH    AF
3974: 33                                INC     SP
3975: C5                                PUSH    BC
3976: 33                                INC     SP
3977: CD 9D 2D                          CALL    L2D9D
397A: 21 06 00                          LD      HL,0006h
397D: 39                                ADD     HL,SP
397E: F9                                LD      SP,HL
397F: DD 34 F3                          INC     (IX-0Dh)
3982: C2 FE 38                          JP      NZ,L38FE
3985: DD 34 F4                          INC     (IX-0Ch)
3988: C3 FE 38                          JP      L38FE

398B: DD 7E F3                   L398B: LD      A,(IX-0Dh)
398E: DD 77 FA                          LD      (IX-06h),A
3991: DD 7E F4                          LD      A,(IX-0Ch)
3994: DD 77 FB                          LD      (IX-05h),A
3997: DD CB EC 46                       BIT     0,(IX-14h)
399B: CA 1D 2F                          JP      Z,L2F1D
399E: DD 7E F3                          LD      A,(IX-0Dh)
39A1: DD 77 FE                          LD      (IX-02h),A
39A4: DD 7E F4                          LD      A,(IX-0Ch)
39A7: DD 77 FF                          LD      (IX-01h),A
39AA: DD 7E F8                          LD      A,(IX-08h)
39AD: DD 77 FC                          LD      (IX-04h),A
39B0: DD 7E F9                          LD      A,(IX-07h)
39B3: DD 77 FD                          LD      (IX-03h),A
39B6: DD 4E FC                   L39B6: LD      C,(IX-04h)
39B9: DD 46 FD                          LD      B,(IX-03h)
39BC: DD 6E FC                          LD      L,(IX-04h)
39BF: DD 66 FD                          LD      H,(IX-03h)
39C2: 2B                                DEC     HL
39C3: DD 75 FC                          LD      (IX-04h),L
39C6: DD 74 FD                          LD      (IX-03h),H
39C9: 78                                LD      A,B
39CA: B1                                OR      C
39CB: CA 1D 2F                          JP      Z,L2F1D
39CE: DD 6E 06                          LD      L,(IX+06h)
39D1: DD 66 07                          LD      H,(IX+07h)
39D4: E5                                PUSH    HL
39D5: 3E 20                             LD      A,20h   ; ' '
39D7: F5                                PUSH    AF
39D8: 33                                INC     SP
39D9: DD 6E 04                          LD      L,(IX+04h)
39DC: DD 66 05                          LD      H,(IX+05h)
39DF: CD B1 3D                          CALL    L3DB1
39E2: F1                                POP     AF
39E3: 33                                INC     SP
39E4: DD 34 FE                          INC     (IX-02h)
39E7: 20 03                             JR      NZ,L39EC
39E9: DD 34 FF                          INC     (IX-01h)
39EC: DD 7E FE                   L39EC: LD      A,(IX-02h)
39EF: DD 77 FA                          LD      (IX-06h),A
39F2: DD 7E FF                          LD      A,(IX-01h)
39F5: DD 77 FB                          LD      (IX-05h),A
39F8: 18 BC                             JR      L39B6

39FA: DD 6E 06                   L39FA: LD      L,(IX+06h)
39FD: DD 66 07                          LD      H,(IX+07h)
3A00: E5                                PUSH    HL
3A01: DD 7E FF                          LD      A,(IX-01h)
3A04: F5                                PUSH    AF
3A05: 33                                INC     SP
3A06: DD 6E 04                          LD      L,(IX+04h)
3A09: DD 66 05                          LD      H,(IX+05h)
3A0C: CD B1 3D                          CALL    L3DB1
3A0F: F1                                POP     AF
3A10: 33                                INC     SP
3A11: DD 34 FA                          INC     (IX-06h)
3A14: C2 1D 2F                          JP      NZ,L2F1D
3A17: DD 34 FB                          INC     (IX-05h)
3A1A: C3 1D 2F                          JP      L2F1D

3A1D: DD 6E FA                   L3A1D: LD      L,(IX-06h)
3A20: DD 66 FB                          LD      H,(IX-05h)
3A23: DD F9                             LD      SP,IX
3A25: DD E1                             POP     IX
3A27: C9                                RET

3A28: 3C 4E 4F 20 46 4C 4F 41    L3A28: DB      "<NO FLOAT>"
3A30: 54 3E
3A32: 00                                DB      00h

                                        ; --- START PROC L3A33 ---
3A33: F1                         L3A33: POP     AF
3A34: C1                                POP     BC
3A35: D1                                POP     DE
3A36: D5                                PUSH    DE
3A37: C5                                PUSH    BC
3A38: F5                                PUSH    AF
3A39: AF                                XOR     A
3A3A: 6F                                LD      L,A
3A3B: B0                                OR      B
3A3C: 06 10                             LD      B,10h
3A3E: 20 04                             JR      NZ,L3A44
3A40: 06 08                             LD      B,08h
3A42: 79                                LD      A,C
3A43: 29                         L3A43: ADD     HL,HL
3A44: CB 11                      L3A44: RL      C
3A46: 17                                RLA
3A47: 30 01                             JR      NC,L3A4A
3A49: 19                                ADD     HL,DE
3A4A: 10 F7                      L3A4A: DJNZ    L3A43
3A4C: C9                                RET

                                        ; --- START PROC L3A4D ---
3A4D: CD D2 13                   L3A4D: CALL    L13D2
3A50: 21 F6 FF                          LD      HL,0FFF6h
3A53: 39                                ADD     HL,SP
3A54: F9                                LD      SP,HL
3A55: 21 FF FF                          LD      HL,0FFFFh
3A58: E3                                EX      (SP),HL
3A59: DD 7E 04                          LD      A,(IX+04h)
3A5C: DD 77 F8                          LD      (IX-08h),A
3A5F: DD 7E 05                          LD      A,(IX+05h)
3A62: DD 77 F9                          LD      (IX-07h),A
3A65: DD 6E F8                          LD      L,(IX-08h)
3A68: DD 66 F9                          LD      H,(IX-07h)
3A6B: 7E                                LD      A,(HL)
3A6C: DD 77 FE                          LD      (IX-02h),A
3A6F: 23                                INC     HL
3A70: 7E                                LD      A,(HL)
3A71: DD 77 FF                          LD      (IX-01h),A
3A74: DD 5E FE                          LD      E,(IX-02h)
3A77: DD 56 FF                          LD      D,(IX-01h)
3A7A: 7A                                LD      A,D
3A7B: B3                                OR      E
3A7C: 20 06                             JR      NZ,L3A84
3A7E: 21 FF FF                          LD      HL,0FFFFh
3A81: C3 1D 3B                          JP      L3B1D

3A84: DD 6E FE                   L3A84: LD      L,(IX-02h)
3A87: DD 66 FF                          LD      H,(IX-01h)
3A8A: 7E                                LD      A,(HL)
3A8B: DD 34 FE                          INC     (IX-02h)
3A8E: 20 03                             JR      NZ,L3A93
3A90: DD 34 FF                          INC     (IX-01h)
3A93: 6F                         L3A93: LD      L,A
3A94: 06 00                             LD      B,00h
3A96: D6 3A                             SUB     3Ah     ; ':'
3A98: 3E 01                             LD      A,01h
3A9A: 28 01                             JR      Z,L3A9D
3A9C: AF                                XOR     A
3A9D: 4F                         L3A9D: LD      C,A
3A9E: 7D                                LD      A,L
3A9F: D6 21                             SUB     21h     ; '!'
3AA1: 78                                LD      A,B
3AA2: DE 00                             SBC     A,00h
3AA4: 38 04                             JR      C,L3AAA
3AA6: CB 41                             BIT     0,C
3AA8: 28 DA                             JR      Z,L3A84
3AAA: DD 7E FE                   L3AAA: LD      A,(IX-02h)
3AAD: DD 77 FA                          LD      (IX-06h),A
3AB0: DD 7E FF                          LD      A,(IX-01h)
3AB3: DD 77 FB                          LD      (IX-05h),A
3AB6: 79                                LD      A,C
3AB7: B7                                OR      A
3AB8: 28 5A                             JR      Z,L3B14
3ABA: DD 36 FC 01                       LD      (IX-04h),01h
3ABE: AF                                XOR     A
3ABF: DD 77 FD                          LD      (IX-03h),A
3AC2: 1A                                LD      A,(DE)
3AC3: 4F                                LD      C,A
3AC4: D6 30                             SUB     30h     ; '0'
3AC6: 38 20                             JR      C,L3AE8
3AC8: 3E 39                             LD      A,39h   ; '9'
3ACA: 91                                SUB     C
3ACB: 38 1B                             JR      C,L3AE8
3ACD: 13                                INC     DE
3ACE: 13                                INC     DE
3ACF: DD 6E FE                          LD      L,(IX-02h)
3AD2: DD 66 FF                          LD      H,(IX-01h)
3AD5: BF                                CP      A
3AD6: ED 52                             SBC     HL,DE
3AD8: 20 0E                             JR      NZ,L3AE8
3ADA: 06 00                             LD      B,00h
3ADC: 79                                LD      A,C
3ADD: C6 D0                             ADD     A,0D0h
3ADF: DD 77 FC                          LD      (IX-04h),A
3AE2: 78                                LD      A,B
3AE3: CE FF                             ADC     A,0FFh
3AE5: DD 77 FD                          LD      (IX-03h),A
3AE8: DD 7E FC                   L3AE8: LD      A,(IX-04h)
3AEB: D6 01                             SUB     01h
3AED: DD 7E FD                          LD      A,(IX-03h)
3AF0: 17                                RLA
3AF1: 3F                                CCF
3AF2: 1F                                RRA
3AF3: DE 80                             SBC     A,80h
3AF5: 30 19                             JR      NC,L3B10
3AF7: DD 7E FC                          LD      A,(IX-04h)
3AFA: DD 77 F6                          LD      (IX-0Ah),A
3AFD: DD 7E FD                          LD      A,(IX-03h)
3B00: DD 77 F7                          LD      (IX-09h),A
3B03: C1                                POP     BC
3B04: E1                                POP     HL
3B05: E5                                PUSH    HL
3B06: C5                                PUSH    BC
3B07: DD 7E FA                          LD      A,(IX-06h)
3B0A: 77                                LD      (HL),A
3B0B: 23                                INC     HL
3B0C: DD 7E FB                          LD      A,(IX-05h)
3B0F: 77                                LD      (HL),A
3B10: E1                         L3B10: POP     HL
3B11: E5                                PUSH    HL
3B12: 18 09                             JR      L3B1D

3B14: FD 21 37 84                L3B14: LD      IY,8437h
3B18: FD 6E 00                          LD      L,(IY+00h)
3B1B: 26 00                             LD      H,00h
3B1D: DD F9                      L3B1D: LD      SP,IX
3B1F: DD E1                             POP     IX
3B21: C9                                RET

                                        ; --- START PROC L3B22 ---
3B22: CD D2 13                   L3B22: CALL    L13D2
3B25: F5                                PUSH    AF
3B26: F5                                PUSH    AF
3B27: F5                                PUSH    AF
3B28: 3B                                DEC     SP
3B29: DD 4E 04                          LD      C,(IX+04h)
3B2C: DD 46 05                          LD      B,(IX+05h)
3B2F: 0A                                LD      A,(BC)
3B30: DD 77 F9                          LD      (IX-07h),A
3B33: 03                                INC     BC
3B34: 0A                                LD      A,(BC)
3B35: DD 77 FA                          LD      (IX-06h),A
3B38: 0B                                DEC     BC
3B39: C5                                PUSH    BC
3B3A: 21 00 00                          LD      HL,0000h
3B3D: E5                                PUSH    HL
3B3E: 21 00 00                          LD      HL,0000h
3B41: E5                                PUSH    HL
3B42: C5                                PUSH    BC
3B43: CD C7 42                          CALL    L42C7
3B46: F1                                POP     AF
3B47: F1                                POP     AF
3B48: F1                                POP     AF
3B49: C1                                POP     BC
3B4A: 7D                                LD      A,L
3B4B: B7                                OR      A
3B4C: C2 FA 3B                          JP      NZ,L3BFA
3B4F: DD 71 FB                          LD      (IX-05h),C
3B52: DD 70 FC                          LD      (IX-04h),B
3B55: DD 71 FD                          LD      (IX-03h),C
3B58: DD 70 FE                          LD      (IX-02h),B
3B5B: DD 6E FD                   L3B5B: LD      L,(IX-03h)
3B5E: DD 66 FE                          LD      H,(IX-02h)
3B61: 11 16 00                          LD      DE,0016h
3B64: 19                                ADD     HL,DE
3B65: 4E                                LD      C,(HL)
3B66: 23                                INC     HL
3B67: 46                                LD      B,(HL)
3B68: 23                                INC     HL
3B69: 5E                                LD      E,(HL)
3B6A: 23                                INC     HL
3B6B: 56                                LD      D,(HL)
3B6C: D5                                PUSH    DE
3B6D: C5                                PUSH    BC
3B6E: DD 6E F9                          LD      L,(IX-07h)
3B71: DD 66 FA                          LD      H,(IX-06h)
3B74: E5                                PUSH    HL
3B75: CD E2 22                          CALL    L22E2
3B78: F1                                POP     AF
3B79: F1                                POP     AF
3B7A: F1                                POP     AF
3B7B: DD 75 FF                          LD      (IX-01h),L
3B7E: 7D                                LD      A,L
3B7F: B7                                OR      A
3B80: 20 75                             JR      NZ,L3BF7
3B82: DD 7E FB                          LD      A,(IX-05h)
3B85: C6 1A                             ADD     A,1Ah
3B87: 4F                                LD      C,A
3B88: DD 7E FC                          LD      A,(IX-04h)
3B8B: CE 00                             ADC     A,00h
3B8D: 47                                LD      B,A
3B8E: 69                                LD      L,C
3B8F: 60                                LD      H,B
3B90: 7E                                LD      A,(HL)
3B91: 23                                INC     HL
3B92: 66                                LD      H,(HL)
3B93: 6F                                LD      L,A
3B94: 7E                                LD      A,(HL)
3B95: B7                                OR      A
3B96: 20 06                             JR      NZ,L3B9E
3B98: DD 36 FF 04                       LD      (IX-01h),04h
3B9C: 18 59                             JR      L3BF7

3B9E: DD 7E FB                   L3B9E: LD      A,(IX-05h)
3BA1: C6 04                             ADD     A,04h
3BA3: 5F                                LD      E,A
3BA4: DD 7E FC                          LD      A,(IX-04h)
3BA7: CE 00                             ADC     A,00h
3BA9: 57                                LD      D,A
3BAA: C5                                PUSH    BC
3BAB: 01 0B 00                          LD      BC,000Bh
3BAE: 09                                ADD     HL,BC
3BAF: C1                                POP     BC
3BB0: 7E                                LD      A,(HL)
3BB1: E6 3F                             AND     3Fh     ; '?'
3BB3: 12                                LD      (DE),A
3BB4: 69                                LD      L,C
3BB5: 60                                LD      H,B
3BB6: 4E                                LD      C,(HL)
3BB7: 23                                INC     HL
3BB8: 46                                LD      B,(HL)
3BB9: 69                                LD      L,C
3BBA: 60                                LD      H,B
3BBB: 11 0B 00                          LD      DE,000Bh
3BBE: 19                                ADD     HL,DE
3BBF: CB 5E                             BIT     3,(HL)
3BC1: 20 1C                             JR      NZ,L3BDF
3BC3: DD 7E FB                          LD      A,(IX-05h)
3BC6: C6 1C                             ADD     A,1Ch
3BC8: 5F                                LD      E,A
3BC9: DD 7E FC                          LD      A,(IX-04h)
3BCC: CE 00                             ADC     A,00h
3BCE: 57                                LD      D,A
3BCF: 21 0B 00                          LD      HL,000Bh
3BD2: E5                                PUSH    HL
3BD3: D5                                PUSH    DE
3BD4: C5                                PUSH    BC
3BD5: CD 78 42                          CALL    L4278
3BD8: F1                                POP     AF
3BD9: F1                                POP     AF
3BDA: F1                                POP     AF
3BDB: 7C                                LD      A,H
3BDC: B5                                OR      L
3BDD: 28 18                             JR      Z,L3BF7
3BDF: 21 00 00                   L3BDF: LD      HL,0000h
3BE2: E5                                PUSH    HL
3BE3: DD 6E FB                          LD      L,(IX-05h)
3BE6: DD 66 FC                          LD      H,(IX-04h)
3BE9: E5                                PUSH    HL
3BEA: CD 55 3F                          CALL    L3F55
3BED: F1                                POP     AF
3BEE: F1                                POP     AF
3BEF: DD 75 FF                          LD      (IX-01h),L
3BF2: 7D                                LD      A,L
3BF3: B7                                OR      A
3BF4: CA 5B 3B                          JP      Z,L3B5B
3BF7: DD 6E FF                   L3BF7: LD      L,(IX-01h)
3BFA: DD F9                      L3BFA: LD      SP,IX
3BFC: DD E1                             POP     IX
3BFE: C9                                RET

                                        ; --- START PROC L3BFF ---
3BFF: CD D2 13                   L3BFF: CALL    L13D2
3C02: DD 4E 04                          LD      C,(IX+04h)
3C05: DD 46 05                          LD      B,(IX+05h)
3C08: DD 7E 06                          LD      A,(IX+06h)
3C0B: 02                                LD      (BC),A
3C0C: 03                                INC     BC
3C0D: DD 71 04                          LD      (IX+04h),C
3C10: DD 70 05                          LD      (IX+05h),B
3C13: DD 7E 07                          LD      A,(IX+07h)
3C16: DD 77 06                          LD      (IX+06h),A
3C19: DD 36 07 00                       LD      (IX+07h),00h
3C1D: DD 4E 04                          LD      C,(IX+04h)
3C20: DD 46 05                          LD      B,(IX+05h)
3C23: DD 7E 06                          LD      A,(IX+06h)
3C26: 02                                LD      (BC),A
3C27: DD E1                             POP     IX
3C29: C9                                RET

                                        ; --- START PROC L3C2A ---
3C2A: CD D2 13                   L3C2A: CALL    L13D2
3C2D: 21 F6 FF                          LD      HL,0FFF6h
3C30: 39                                ADD     HL,SP
3C31: F9                                LD      SP,HL
3C32: 21 00 00                          LD      HL,0000h
3C35: 39                                ADD     HL,SP
3C36: DD 5E 04                          LD      E,(IX+04h)
3C39: DD 56 05                          LD      D,(IX+05h)
3C3C: D5                                PUSH    DE
3C3D: E5                                PUSH    HL
3C3E: D5                                PUSH    DE
3C3F: CD F2 10                          CALL    L10F2
3C42: F1                                POP     AF
3C43: F1                                POP     AF
3C44: 7D                                LD      A,L
3C45: D1                                POP     DE
3C46: 4F                                LD      C,A
3C47: B7                                OR      A
3C48: C2 AB 3D                          JP      NZ,L3DAB
3C4B: 21 0E 00                          LD      HL,000Eh
3C4E: 19                                ADD     HL,DE
3C4F: DD 75 F8                          LD      (IX-08h),L
3C52: DD 74 F9                          LD      (IX-07h),H
3C55: 7E                                LD      A,(HL)
3C56: CB 77                             BIT     6,A
3C58: CA AB 3D                          JP      Z,L3DAB
3C5B: 07                                RLCA
3C5C: 30 66                             JR      NC,L3CC4
3C5E: 6B                                LD      L,E
3C5F: 62                                LD      H,D
3C60: 01 18 00                          LD      BC,0018h
3C63: 09                                ADD     HL,BC
3C64: 7E                                LD      A,(HL)
3C65: DD 77 FA                          LD      (IX-06h),A
3C68: 23                                INC     HL
3C69: 7E                                LD      A,(HL)
3C6A: DD 77 FB                          LD      (IX-05h),A
3C6D: 23                                INC     HL
3C6E: 7E                                LD      A,(HL)
3C6F: DD 77 FC                          LD      (IX-04h),A
3C72: 23                                INC     HL
3C73: 7E                                LD      A,(HL)
3C74: DD 77 FD                          LD      (IX-03h),A
3C77: 21 22 00                          LD      HL,0022h
3C7A: 19                                ADD     HL,DE
3C7B: DD 75 FE                          LD      (IX-02h),L
3C7E: DD 74 FF                          LD      (IX-01h),H
3C81: E1                                POP     HL
3C82: E5                                PUSH    HL
3C83: 23                                INC     HL
3C84: 46                                LD      B,(HL)
3C85: D5                                PUSH    DE
3C86: 21 01 00                          LD      HL,0001h
3C89: E5                                PUSH    HL
3C8A: DD 6E FC                          LD      L,(IX-04h)
3C8D: DD 66 FD                          LD      H,(IX-03h)
3C90: E5                                PUSH    HL
3C91: DD 6E FA                          LD      L,(IX-06h)
3C94: DD 66 FB                          LD      H,(IX-05h)
3C97: E5                                PUSH    HL
3C98: DD 6E FE                          LD      L,(IX-02h)
3C9B: DD 66 FF                          LD      H,(IX-01h)
3C9E: E5                                PUSH    HL
3C9F: C5                                PUSH    BC
3CA0: 33                                INC     SP
3CA1: CD 7D 03                          CALL    L037D
3CA4: FD 21 09 00                       LD      IY,0009h
3CA8: FD 39                             ADD     IY,SP
3CAA: FD F9                             LD      SP,IY
3CAC: 7D                                LD      A,L
3CAD: D1                                POP     DE
3CAE: B7                                OR      A
3CAF: 28 05                             JR      Z,L3CB6
3CB1: 2E 01                             LD      L,01h
3CB3: C3 AC 3D                          JP      L3DAC

3CB6: DD 6E F8                   L3CB6: LD      L,(IX-08h)
3CB9: DD 66 F9                          LD      H,(IX-07h)
3CBC: 7E                                LD      A,(HL)
3CBD: CB BF                             RES     7,A
3CBF: C1                                POP     BC
3CC0: E1                                POP     HL
3CC1: E5                                PUSH    HL
3CC2: C5                                PUSH    BC
3CC3: 77                                LD      (HL),A
3CC4: 6B                         L3CC4: LD      L,E
3CC5: 62                                LD      H,D
3CC6: 01 1C 00                          LD      BC,001Ch
3CC9: 09                                ADD     HL,BC
3CCA: 4E                                LD      C,(HL)
3CCB: 23                                INC     HL
3CCC: 46                                LD      B,(HL)
3CCD: 23                                INC     HL
3CCE: 23                                INC     HL
3CCF: 7E                                LD      A,(HL)
3CD0: 2B                                DEC     HL
3CD1: 6E                                LD      L,(HL)
3CD2: 67                                LD      H,A
3CD3: D5                                PUSH    DE
3CD4: E5                                PUSH    HL
3CD5: C5                                PUSH    BC
3CD6: DD 6E F6                          LD      L,(IX-0Ah)
3CD9: DD 66 F7                          LD      H,(IX-09h)
3CDC: E5                                PUSH    HL
3CDD: CD E2 22                          CALL    L22E2
3CE0: F1                                POP     AF
3CE1: F1                                POP     AF
3CE2: F1                                POP     AF
3CE3: 7D                                LD      A,L
3CE4: D1                                POP     DE
3CE5: 4F                                LD      C,A
3CE6: B7                                OR      A
3CE7: C2 AB 3D                          JP      NZ,L3DAB
3CEA: 6B                                LD      L,E
3CEB: 62                                LD      H,D
3CEC: 01 20 00                          LD      BC,0020h
3CEF: 09                                ADD     HL,BC
3CF0: 4E                                LD      C,(HL)
3CF1: 23                                INC     HL
3CF2: 46                                LD      B,(HL)
3CF3: 21 0B 00                          LD      HL,000Bh
3CF6: 09                                ADD     HL,BC
3CF7: CB EE                             SET     5,(HL)
3CF9: 6B                                LD      L,E
3CFA: 62                                LD      H,D
3CFB: C5                                PUSH    BC
3CFC: 01 06 00                          LD      BC,0006h
3CFF: 09                                ADD     HL,BC
3D00: C1                                POP     BC
3D01: 7E                                LD      A,(HL)
3D02: DD 77 FA                          LD      (IX-06h),A
3D05: 23                                INC     HL
3D06: 7E                                LD      A,(HL)
3D07: DD 77 FB                          LD      (IX-05h),A
3D0A: 23                                INC     HL
3D0B: 7E                                LD      A,(HL)
3D0C: DD 77 FC                          LD      (IX-04h),A
3D0F: 23                                INC     HL
3D10: 7E                                LD      A,(HL)
3D11: DD 77 FD                          LD      (IX-03h),A
3D14: 1A                                LD      A,(DE)
3D15: DD 77 FE                          LD      (IX-02h),A
3D18: 13                                INC     DE
3D19: 1A                                LD      A,(DE)
3D1A: DD 77 FF                          LD      (IX-01h),A
3D1D: 1B                                DEC     DE
3D1E: C5                                PUSH    BC
3D1F: D5                                PUSH    DE
3D20: DD 6E FC                          LD      L,(IX-04h)
3D23: DD 66 FD                          LD      H,(IX-03h)
3D26: E5                                PUSH    HL
3D27: DD 6E FA                          LD      L,(IX-06h)
3D2A: DD 66 FB                          LD      H,(IX-05h)
3D2D: E5                                PUSH    HL
3D2E: C5                                PUSH    BC
3D2F: DD 6E FE                          LD      L,(IX-02h)
3D32: DD 66 FF                          LD      H,(IX-01h)
3D35: E5                                PUSH    HL
3D36: CD 79 25                          CALL    L2579
3D39: F1                                POP     AF
3D3A: F1                                POP     AF
3D3B: F1                                POP     AF
3D3C: F1                                POP     AF
3D3D: D1                                POP     DE
3D3E: C1                                POP     BC
3D3F: EB                                EX      DE,HL
3D40: 11 0A 00                          LD      DE,000Ah
3D43: 19                                ADD     HL,DE
3D44: 5E                                LD      E,(HL)
3D45: 23                                INC     HL
3D46: 56                                LD      D,(HL)
3D47: 23                                INC     HL
3D48: 23                                INC     HL
3D49: 7E                                LD      A,(HL)
3D4A: 2B                                DEC     HL
3D4B: 6E                                LD      L,(HL)
3D4C: 67                                LD      H,A
3D4D: 79                                LD      A,C
3D4E: C6 1C                             ADD     A,1Ch
3D50: DD 77 FE                          LD      (IX-02h),A
3D53: 78                                LD      A,B
3D54: CE 00                             ADC     A,00h
3D56: DD 77 FF                          LD      (IX-01h),A
3D59: C5                                PUSH    BC
3D5A: E5                                PUSH    HL
3D5B: D5                                PUSH    DE
3D5C: DD 6E FE                          LD      L,(IX-02h)
3D5F: DD 66 FF                          LD      H,(IX-01h)
3D62: E5                                PUSH    HL
3D63: CD 56 19                          CALL    L1956
3D66: F1                                POP     AF
3D67: F1                                POP     AF
3D68: F1                                POP     AF
3D69: C1                                POP     BC
3D6A: 21 16 00                          LD      HL,0016h
3D6D: 09                                ADD     HL,BC
3D6E: EB                                EX      DE,HL
3D6F: C5                                PUSH    BC
3D70: 21 21 50                          LD      HL,5021h
3D73: E5                                PUSH    HL
3D74: 21 00 00                          LD      HL,0000h
3D77: E5                                PUSH    HL
3D78: D5                                PUSH    DE
3D79: CD 56 19                          CALL    L1956
3D7C: F1                                POP     AF
3D7D: F1                                POP     AF
3D7E: F1                                POP     AF
3D7F: C1                                POP     BC
3D80: 21 12 00                          LD      HL,0012h
3D83: 09                                ADD     HL,BC
3D84: 01 00 00                          LD      BC,0000h
3D87: C5                                PUSH    BC
3D88: E5                                PUSH    HL
3D89: CD FF 3B                          CALL    L3BFF
3D8C: F1                                POP     AF
3D8D: F1                                POP     AF
3D8E: E1                                POP     HL
3D8F: E5                                PUSH    HL
3D90: 23                                INC     HL
3D91: 23                                INC     HL
3D92: 23                                INC     HL
3D93: 36 01                             LD      (HL),01h
3D95: E1                                POP     HL
3D96: E5                                PUSH    HL
3D97: E5                                PUSH    HL
3D98: CD 68 47                          CALL    L4768
3D9B: F1                                POP     AF
3D9C: 4D                                LD      C,L
3D9D: DD 6E F8                          LD      L,(IX-08h)
3DA0: DD 66 F9                          LD      H,(IX-07h)
3DA3: 7E                                LD      A,(HL)
3DA4: CB B7                             RES     6,A
3DA6: D1                                POP     DE
3DA7: E1                                POP     HL
3DA8: E5                                PUSH    HL
3DA9: D5                                PUSH    DE
3DAA: 77                                LD      (HL),A
3DAB: 69                         L3DAB: LD      L,C
3DAC: DD F9                      L3DAC: LD      SP,IX
3DAE: DD E1                             POP     IX
3DB0: C9                                RET

                                        ; --- START PROC L3DB1 ---
3DB1: E9                         L3DB1: JP      (HL)

                                        ; --- START PROC L3DB2 ---
3DB2: CD D2 13                   L3DB2: CALL    L13D2
3DB5: 21 04 13                          LD      HL,1304h
3DB8: DD 7E 04                          LD      A,(IX+04h)
3DBB: 96                                SUB     (HL)
3DBC: 38 39                             JR      C,L3DF7
3DBE: 3A 05 13                          LD      A,(L1305)
3DC1: DD 96 04                          SUB     (IX+04h)
3DC4: 38 05                             JR      C,L3DCB
3DC6: 21 01 00                          LD      HL,0001h
3DC9: 18 2F                             JR      L3DFA

3DCB: 21 06 13                   L3DCB: LD      HL,1306h
3DCE: DD 7E 04                          LD      A,(IX+04h)
3DD1: 96                                SUB     (HL)
3DD2: 38 0D                             JR      C,L3DE1
3DD4: 3A 07 13                          LD      A,(L1307)
3DD7: DD 96 04                          SUB     (IX+04h)
3DDA: 38 05                             JR      C,L3DE1
3DDC: 21 01 00                          LD      HL,0001h
3DDF: 18 19                             JR      L3DFA

3DE1: 21 08 13                   L3DE1: LD      HL,1308h
3DE4: DD 7E 04                          LD      A,(IX+04h)
3DE7: 96                                SUB     (HL)
3DE8: 38 0D                             JR      C,L3DF7
3DEA: 3A 09 13                          LD      A,(L1309)
3DED: DD 96 04                          SUB     (IX+04h)
3DF0: 38 05                             JR      C,L3DF7
3DF2: 21 01 00                          LD      HL,0001h
3DF5: 18 03                             JR      L3DFA

3DF7: 21 00 00                   L3DF7: LD      HL,0000h
3DFA: DD E1                      L3DFA: POP     IX
3DFC: C9                                RET

                                        ; --- START PROC L3DFD ---
3DFD: D1                         L3DFD: POP     DE
3DFE: C1                                POP     BC
3DFF: C5                                PUSH    BC
3E00: D5                                PUSH    DE
3E01: 0A                         L3E01: LD      A,(BC)
3E02: 5F                                LD      E,A
3E03: 16 00                             LD      D,00h
3E05: B7                                OR      A
3E06: 28 14                             JR      Z,L3E1C
3E08: FD 21 04 00                       LD      IY,0004h
3E0C: FD 39                             ADD     IY,SP
3E0E: FD 6E 00                          LD      L,(IY+00h)
3E11: FD 66 01                          LD      H,(IY+01h)
3E14: BF                                CP      A
3E15: ED 52                             SBC     HL,DE
3E17: 28 03                             JR      Z,L3E1C
3E19: 03                                INC     BC
3E1A: 18 E5                             JR      L3E01

3E1C: EB                         L3E1C: EX      DE,HL
3E1D: C9                                RET

                                        ; --- START PROC L3E1E ---
3E1E: CD D2 13                   L3E1E: CALL    L13D2
3E21: 21 E6 FF                          LD      HL,0FFE6h
3E24: 39                                ADD     HL,SP
3E25: F9                                LD      SP,HL
3E26: 21 00 00                          LD      HL,0000h
3E29: E5                                PUSH    HL
3E2A: 21 00 00                          LD      HL,0000h
3E2D: E5                                PUSH    HL
3E2E: DD 6E 04                          LD      L,(IX+04h)
3E31: DD 66 05                          LD      H,(IX+05h)
3E34: E5                                PUSH    HL
3E35: CD 3B 49                          CALL    L493B
3E38: F1                                POP     AF
3E39: F1                                POP     AF
3E3A: F1                                POP     AF
3E3B: 7D                                LD      A,L
3E3C: D6 02                             SUB     02h
3E3E: B4                                OR      H
3E3F: 28 12                             JR      Z,L3E53
3E41: 7D                                LD      A,L
3E42: D6 03                             SUB     03h
3E44: 7C                                LD      A,H
3E45: DE 00                             SBC     A,00h
3E47: D2 50 3F                          JP      NC,L3F50
3E4A: DD 7E 07                          LD      A,(IX+07h)
3E4D: DD B6 06                          OR      (IX+06h)
3E50: CA 50 3F                          JP      Z,L3F50
3E53: 21 00 00                   L3E53: LD      HL,0000h
3E56: 39                                ADD     HL,SP
3E57: 4D                                LD      C,L
3E58: 44                                LD      B,H
3E59: DD 7E 04                          LD      A,(IX+04h)
3E5C: DD 77 F6                          LD      (IX-0Ah),A
3E5F: DD 7E 05                          LD      A,(IX+05h)
3E62: DD 77 F7                          LD      (IX-09h),A
3E65: DD 7E F6                          LD      A,(IX-0Ah)
3E68: C6 33                             ADD     A,33h   ; '3'
3E6A: DD 77 F8                          LD      (IX-08h),A
3E6D: DD 7E F7                          LD      A,(IX-09h)
3E70: CE 00                             ADC     A,00h
3E72: DD 77 F9                          LD      (IX-07h),A
3E75: 11 00 00                          LD      DE,0000h
3E78: 6B                         L3E78: LD      L,E
3E79: 62                                LD      H,D
3E7A: 29                                ADD     HL,HL
3E7B: 29                                ADD     HL,HL
3E7C: 09                                ADD     HL,BC
3E7D: DD 75 FA                          LD      (IX-06h),L
3E80: DD 74 FB                          LD      (IX-05h),H
3E83: 6B                                LD      L,E
3E84: 62                                LD      H,D
3E85: 29                                ADD     HL,HL
3E86: 29                                ADD     HL,HL
3E87: 29                                ADD     HL,HL
3E88: 29                                ADD     HL,HL
3E89: D5                                PUSH    DE
3E8A: 11 C6 01                          LD      DE,01C6h
3E8D: 19                                ADD     HL,DE
3E8E: D1                                POP     DE
3E8F: 7D                                LD      A,L
3E90: DD 86 F8                          ADD     A,(IX-08h)
3E93: 6F                                LD      L,A
3E94: 7C                                LD      A,H
3E95: DD 8E F9                          ADC     A,(IX-07h)
3E98: 67                                LD      H,A
3E99: C5                                PUSH    BC
3E9A: D5                                PUSH    DE
3E9B: E5                                PUSH    HL
3E9C: CD 7A 11                          CALL    L117A
3E9F: F1                                POP     AF
3EA0: DD 75 FC                          LD      (IX-04h),L
3EA3: DD 74 FD                          LD      (IX-03h),H
3EA6: DD 73 FE                          LD      (IX-02h),E
3EA9: DD 72 FF                          LD      (IX-01h),D
3EAC: D1                                POP     DE
3EAD: C1                                POP     BC
3EAE: D5                                PUSH    DE
3EAF: C5                                PUSH    BC
3EB0: DD 5E FA                          LD      E,(IX-06h)
3EB3: DD 56 FB                          LD      D,(IX-05h)
3EB6: 21 1A 00                          LD      HL,001Ah
3EB9: 39                                ADD     HL,SP
3EBA: 01 04 00                          LD      BC,0004h
3EBD: ED B0                             LDIR
3EBF: C1                                POP     BC
3EC0: D1                                POP     DE
3EC1: 13                                INC     DE
3EC2: 7B                                LD      A,E
3EC3: D6 04                             SUB     04h
3EC5: 7A                                LD      A,D
3EC6: DE 00                             SBC     A,00h
3EC8: 38 AE                             JR      C,L3E78
3ECA: DD 7E 07                          LD      A,(IX+07h)
3ECD: DD B6 06                          OR      (IX+06h)
3ED0: 28 09                             JR      Z,L3EDB
3ED2: DD 5E 06                          LD      E,(IX+06h)
3ED5: DD 56 07                          LD      D,(IX+07h)
3ED8: 1B                                DEC     DE
3ED9: 18 03                             JR      L3EDE

3EDB: 11 00 00                   L3EDB: LD      DE,0000h
3EDE: DD 73 FE                   L3EDE: LD      (IX-02h),E
3EE1: DD 72 FF                          LD      (IX-01h),D
3EE4: DD 6E FE                   L3EE4: LD      L,(IX-02h)
3EE7: DD 66 FF                          LD      H,(IX-01h)
3EEA: 29                                ADD     HL,HL
3EEB: 29                                ADD     HL,HL
3EEC: 09                                ADD     HL,BC
3EED: EB                                EX      DE,HL
3EEE: C5                                PUSH    BC
3EEF: 21 16 00                          LD      HL,0016h
3EF2: 39                                ADD     HL,SP
3EF3: EB                                EX      DE,HL
3EF4: 01 04 00                          LD      BC,0004h
3EF7: ED B0                             LDIR
3EF9: C1                                POP     BC
3EFA: DD 7E FD                          LD      A,(IX-03h)
3EFD: DD B6 FC                          OR      (IX-04h)
3F00: DD B6 FB                          OR      (IX-05h)
3F03: DD B6 FA                          OR      (IX-06h)
3F06: 28 20                             JR      Z,L3F28
3F08: C5                                PUSH    BC
3F09: DD 6E FC                          LD      L,(IX-04h)
3F0C: DD 66 FD                          LD      H,(IX-03h)
3F0F: E5                                PUSH    HL
3F10: DD 6E FA                          LD      L,(IX-06h)
3F13: DD 66 FB                          LD      H,(IX-05h)
3F16: E5                                PUSH    HL
3F17: DD 6E F6                          LD      L,(IX-0Ah)
3F1A: DD 66 F7                          LD      H,(IX-09h)
3F1D: E5                                PUSH    HL
3F1E: CD 3B 49                          CALL    L493B
3F21: F1                                POP     AF
3F22: F1                                POP     AF
3F23: F1                                POP     AF
3F24: C1                                POP     BC
3F25: EB                                EX      DE,HL
3F26: 18 03                             JR      L3F2B

3F28: 11 03 00                   L3F28: LD      DE,0003h
3F2B: DD 7E 07                   L3F2B: LD      A,(IX+07h)
3F2E: DD B6 06                          OR      (IX+06h)
3F31: 20 1C                             JR      NZ,L3F4F
3F33: 7B                                LD      A,E
3F34: D6 02                             SUB     02h
3F36: 7A                                LD      A,D
3F37: DE 00                             SBC     A,00h
3F39: 38 14                             JR      C,L3F4F
3F3B: DD 34 FE                          INC     (IX-02h)
3F3E: 20 03                             JR      NZ,L3F43
3F40: DD 34 FF                          INC     (IX-01h)
3F43: DD 7E FE                   L3F43: LD      A,(IX-02h)
3F46: D6 04                             SUB     04h
3F48: DD 7E FF                          LD      A,(IX-01h)
3F4B: DE 00                             SBC     A,00h
3F4D: 38 95                             JR      C,L3EE4
3F4F: EB                         L3F4F: EX      DE,HL
3F50: DD F9                      L3F50: LD      SP,IX
3F52: DD E1                             POP     IX
3F54: C9                                RET

                                        ; --- START PROC L3F55 ---
3F55: CD D2 13                   L3F55: CALL    L13D2
3F58: 21 E6 FF                          LD      HL,0FFE6h
3F5B: 39                                ADD     HL,SP
3F5C: F9                                LD      SP,HL
3F5D: DD 7E 04                          LD      A,(IX+04h)
3F60: DD 77 E6                          LD      (IX-1Ah),A
3F63: DD 7E 05                          LD      A,(IX+05h)
3F66: DD 77 E7                          LD      (IX-19h),A
3F69: E1                                POP     HL
3F6A: E5                                PUSH    HL
3F6B: 7E                                LD      A,(HL)
3F6C: DD 77 E8                          LD      (IX-18h),A
3F6F: 23                                INC     HL
3F70: 7E                                LD      A,(HL)
3F71: DD 77 E9                          LD      (IX-17h),A
3F74: DD 7E E6                          LD      A,(IX-1Ah)
3F77: C6 0E                             ADD     A,0Eh
3F79: DD 77 EA                          LD      (IX-16h),A
3F7C: DD 7E E7                          LD      A,(IX-19h)
3F7F: CE 00                             ADC     A,00h
3F81: DD 77 EB                          LD      (IX-15h),A
3F84: DD 6E EA                          LD      L,(IX-16h)
3F87: DD 66 EB                          LD      H,(IX-15h)
3F8A: 5E                                LD      E,(HL)
3F8B: 23                                INC     HL
3F8C: 56                                LD      D,(HL)
3F8D: 23                                INC     HL
3F8E: 23                                INC     HL
3F8F: 7E                                LD      A,(HL)
3F90: 2B                                DEC     HL
3F91: 6E                                LD      L,(HL)
3F92: 67                                LD      H,A
3F93: 7B                                LD      A,E
3F94: C6 20                             ADD     A,20h   ; ' '
3F96: DD 77 EC                          LD      (IX-14h),A
3F99: 7A                                LD      A,D
3F9A: CE 00                             ADC     A,00h
3F9C: DD 77 ED                          LD      (IX-13h),A
3F9F: 7D                                LD      A,L
3FA0: CE 00                             ADC     A,00h
3FA2: DD 77 EE                          LD      (IX-12h),A
3FA5: 7C                                LD      A,H
3FA6: CE 00                             ADC     A,00h
3FA8: DD 77 EF                          LD      (IX-11h),A
3FAB: DD 7E E6                          LD      A,(IX-1Ah)
3FAE: C6 16                             ADD     A,16h
3FB0: DD 77 F0                          LD      (IX-10h),A
3FB3: DD 7E E7                          LD      A,(IX-19h)
3FB6: CE 00                             ADC     A,00h
3FB8: DD 77 F1                          LD      (IX-0Fh),A
3FBB: DD 7E EE                          LD      A,(IX-12h)
3FBE: D6 20                             SUB     20h     ; ' '
3FC0: DD 7E EF                          LD      A,(IX-11h)
3FC3: DE 00                             SBC     A,00h
3FC5: 38 0E                             JR      C,L3FD5
3FC7: DD 6E F0                          LD      L,(IX-10h)
3FCA: DD 66 F1                          LD      H,(IX-0Fh)
3FCD: AF                                XOR     A
3FCE: 77                                LD      (HL),A
3FCF: 23                                INC     HL
3FD0: 77                                LD      (HL),A
3FD1: 23                                INC     HL
3FD2: 77                                LD      (HL),A
3FD3: 23                                INC     HL
3FD4: 77                                LD      (HL),A
3FD5: DD 5E F0                   L3FD5: LD      E,(IX-10h)
3FD8: DD 56 F1                          LD      D,(IX-0Fh)
3FDB: 21 16 00                          LD      HL,0016h
3FDE: 39                                ADD     HL,SP
3FDF: EB                                EX      DE,HL
3FE0: 01 04 00                          LD      BC,0004h
3FE3: ED B0                             LDIR
3FE5: DD 7E FF                          LD      A,(IX-01h)
3FE8: DD B6 FE                          OR      (IX-02h)
3FEB: DD B6 FD                          OR      (IX-03h)
3FEE: DD B6 FC                          OR      (IX-04h)
3FF1: 20 05                             JR      NZ,L3FF8
3FF3: 2E 04                             LD      L,04h
3FF5: C3 73 42                          JP      L4273

3FF8: DD 7E EC                   L3FF8: LD      A,(IX-14h)
3FFB: DD 77 F2                          LD      (IX-0Eh),A
3FFE: DD 7E ED                          LD      A,(IX-13h)
4001: E6 01                             AND     01h
4003: DD 77 F3                          LD      (IX-0Dh),A
4006: DD 36 F4 00                       LD      (IX-0Ch),00h
400A: DD 36 F5 00                       LD      (IX-0Bh),00h
400E: 3E 00                             LD      A,00h
4010: DD B6 F4                          OR      (IX-0Ch)
4013: DD B6 F3                          OR      (IX-0Dh)
4016: DD B6 F2                          OR      (IX-0Eh)
4019: C2 21 42                          JP      NZ,L4221
401C: DD 7E FC                          LD      A,(IX-04h)
401F: C6 01                             ADD     A,01h
4021: 4F                                LD      C,A
4022: DD 7E FD                          LD      A,(IX-03h)
4025: CE 00                             ADC     A,00h
4027: 47                                LD      B,A
4028: DD 7E FE                          LD      A,(IX-02h)
402B: CE 00                             ADC     A,00h
402D: 5F                                LD      E,A
402E: DD 7E FF                          LD      A,(IX-01h)
4031: CE 00                             ADC     A,00h
4033: 57                                LD      D,A
4034: DD 6E F0                          LD      L,(IX-10h)
4037: DD 66 F1                          LD      H,(IX-0Fh)
403A: 71                                LD      (HL),C
403B: 23                                INC     HL
403C: 70                                LD      (HL),B
403D: 23                                INC     HL
403E: 73                                LD      (HL),E
403F: 23                                INC     HL
4040: 72                                LD      (HL),D
4041: DD 7E E6                          LD      A,(IX-1Ah)
4044: C6 12                             ADD     A,12h
4046: DD 77 F6                          LD      (IX-0Ah),A
4049: DD 7E E7                          LD      A,(IX-19h)
404C: CE 00                             ADC     A,00h
404E: DD 77 F7                          LD      (IX-09h),A
4051: DD 5E F6                          LD      E,(IX-0Ah)
4054: DD 56 F7                          LD      D,(IX-09h)
4057: 21 12 00                          LD      HL,0012h
405A: 39                                ADD     HL,SP
405B: EB                                EX      DE,HL
405C: 01 04 00                          LD      BC,0004h
405F: ED B0                             LDIR
4061: DD 7E FB                          LD      A,(IX-05h)
4064: DD B6 FA                          OR      (IX-06h)
4067: DD B6 F9                          OR      (IX-07h)
406A: DD B6 F8                          OR      (IX-08h)
406D: 20 5B                             JR      NZ,L40CA
406F: DD 4E EC                          LD      C,(IX-14h)
4072: DD 46 ED                          LD      B,(IX-13h)
4075: DD 5E EE                          LD      E,(IX-12h)
4078: DD 56 EF                          LD      D,(IX-11h)
407B: 3E 05                             LD      A,05h
407D: CB 3A                      L407D: SRL     D
407F: CB 1B                             RR      E
4081: CB 18                             RR      B
4083: CB 19                             RR      C
4085: 3D                                DEC     A
4086: 20 F5                             JR      NZ,L407D
4088: DD 6E E8                          LD      L,(IX-18h)
408B: DD 66 E9                          LD      H,(IX-17h)
408E: C5                                PUSH    BC
408F: 01 07 00                          LD      BC,0007h
4092: 09                                ADD     HL,BC
4093: C1                                POP     BC
4094: 7E                                LD      A,(HL)
4095: 23                                INC     HL
4096: 66                                LD      H,(HL)
4097: DD 77 FC                          LD      (IX-04h),A
409A: DD 74 FD                          LD      (IX-03h),H
409D: AF                                XOR     A
409E: DD 77 FE                          LD      (IX-02h),A
40A1: DD 77 FF                          LD      (IX-01h),A
40A4: 79                                LD      A,C
40A5: DD 96 FC                          SUB     (IX-04h)
40A8: 78                                LD      A,B
40A9: DD 9E FD                          SBC     A,(IX-03h)
40AC: 7B                                LD      A,E
40AD: DD 9E FE                          SBC     A,(IX-02h)
40B0: 7A                                LD      A,D
40B1: DD 9E FF                          SBC     A,(IX-01h)
40B4: DA 21 42                          JP      C,L4221
40B7: DD 6E F0                          LD      L,(IX-10h)
40BA: DD 66 F1                          LD      H,(IX-0Fh)
40BD: AF                                XOR     A
40BE: 77                                LD      (HL),A
40BF: 23                                INC     HL
40C0: 77                                LD      (HL),A
40C1: 23                                INC     HL
40C2: 77                                LD      (HL),A
40C3: 23                                INC     HL
40C4: 77                                LD      (HL),A
40C5: 2E 04                             LD      L,04h
40C7: C3 73 42                          JP      L4273

40CA: DD 4E ED                   L40CA: LD      C,(IX-13h)
40CD: DD 46 EE                          LD      B,(IX-12h)
40D0: DD 5E EF                          LD      E,(IX-11h)
40D3: 16 00                             LD      D,00h
40D5: CB 3B                             SRL     E
40D7: CB 18                             RR      B
40D9: CB 19                             RR      C
40DB: DD 6E E8                          LD      L,(IX-18h)
40DE: DD 66 E9                          LD      H,(IX-17h)
40E1: C5                                PUSH    BC
40E2: 01 0A 00                          LD      BC,000Ah
40E5: 09                                ADD     HL,BC
40E6: C1                                POP     BC
40E7: 7E                                LD      A,(HL)
40E8: 2B                                DEC     HL
40E9: 6E                                LD      L,(HL)
40EA: 67                                LD      H,A
40EB: 2B                                DEC     HL
40EC: DD 75 FC                          LD      (IX-04h),L
40EF: DD 74 FD                          LD      (IX-03h),H
40F2: AF                                XOR     A
40F3: DD 77 FE                          LD      (IX-02h),A
40F6: DD 77 FF                          LD      (IX-01h),A
40F9: 79                                LD      A,C
40FA: DD A6 FC                          AND     (IX-04h)
40FD: 4F                                LD      C,A
40FE: 78                                LD      A,B
40FF: DD A6 FD                          AND     (IX-03h)
4102: 47                                LD      B,A
4103: 7B                                LD      A,E
4104: DD A6 FE                          AND     (IX-02h)
4107: 5F                                LD      E,A
4108: 7A                                LD      A,D
4109: DD A6 FF                          AND     (IX-01h)
410C: B3                                OR      E
410D: B0                                OR      B
410E: B1                                OR      C
410F: C2 21 42                          JP      NZ,L4221
4112: DD 6E FA                          LD      L,(IX-06h)
4115: DD 66 FB                          LD      H,(IX-05h)
4118: E5                                PUSH    HL
4119: DD 6E F8                          LD      L,(IX-08h)
411C: DD 66 F9                          LD      H,(IX-07h)
411F: E5                                PUSH    HL
4120: DD 6E E6                          LD      L,(IX-1Ah)
4123: DD 66 E7                          LD      H,(IX-19h)
4126: E5                                PUSH    HL
4127: CD 4B 14                          CALL    L144B
412A: F1                                POP     AF
412B: F1                                POP     AF
412C: F1                                POP     AF
412D: 4D                                LD      C,L
412E: 44                                LD      B,H
412F: 3E 01                             LD      A,01h
4131: B9                                CP      C
4132: 3E 00                             LD      A,00h
4134: 98                                SBC     A,B
4135: 21 00 00                          LD      HL,0000h
4138: ED 52                             SBC     HL,DE
413A: 38 05                             JR      C,L4141
413C: 2E 02                             LD      L,02h
413E: C3 73 42                          JP      L4273

4141: 79                         L4141: LD      A,C
4142: A0                                AND     B
4143: A3                                AND     E
4144: A2                                AND     D
4145: 3C                                INC     A
4146: 20 05                             JR      NZ,L414D
4148: 2E 01                             LD      L,01h
414A: C3 73 42                          JP      L4273

414D: DD 6E E8                   L414D: LD      L,(IX-18h)
4150: DD 66 E9                          LD      H,(IX-17h)
4153: C5                                PUSH    BC
4154: 01 17 00                          LD      BC,0017h
4157: 09                                ADD     HL,BC
4158: C1                                POP     BC
4159: 7E                                LD      A,(HL)
415A: DD 77 FC                          LD      (IX-04h),A
415D: 23                                INC     HL
415E: 7E                                LD      A,(HL)
415F: DD 77 FD                          LD      (IX-03h),A
4162: 23                                INC     HL
4163: 7E                                LD      A,(HL)
4164: DD 77 FE                          LD      (IX-02h),A
4167: 23                                INC     HL
4168: 7E                                LD      A,(HL)
4169: DD 77 FF                          LD      (IX-01h),A
416C: 79                                LD      A,C
416D: DD 96 FC                          SUB     (IX-04h)
4170: 78                                LD      A,B
4171: DD 9E FD                          SBC     A,(IX-03h)
4174: 7B                                LD      A,E
4175: DD 9E FE                          SBC     A,(IX-02h)
4178: 7A                                LD      A,D
4179: DD 9E FF                          SBC     A,(IX-01h)
417C: 38 78                             JR      C,L41F6
417E: DD 7E 07                          LD      A,(IX+07h)
4181: DD B6 06                          OR      (IX+06h)
4184: 20 13                             JR      NZ,L4199
4186: DD 6E F0                          LD      L,(IX-10h)
4189: DD 66 F1                          LD      H,(IX-0Fh)
418C: AF                                XOR     A
418D: 77                                LD      (HL),A
418E: 23                                INC     HL
418F: 77                                LD      (HL),A
4190: 23                                INC     HL
4191: 77                                LD      (HL),A
4192: 23                                INC     HL
4193: 77                                LD      (HL),A
4194: 2E 04                             LD      L,04h
4196: C3 73 42                          JP      L4273

4199: DD 6E F6                   L4199: LD      L,(IX-0Ah)
419C: DD 66 F7                          LD      H,(IX-09h)
419F: 4E                                LD      C,(HL)
41A0: 23                                INC     HL
41A1: 46                                LD      B,(HL)
41A2: 23                                INC     HL
41A3: 5E                                LD      E,(HL)
41A4: 23                                INC     HL
41A5: 56                                LD      D,(HL)
41A6: D5                                PUSH    DE
41A7: C5                                PUSH    BC
41A8: DD 6E E6                          LD      L,(IX-1Ah)
41AB: DD 66 E7                          LD      H,(IX-19h)
41AE: E5                                PUSH    HL
41AF: CD 01 4A                          CALL    L4A01
41B2: F1                                POP     AF
41B3: F1                                POP     AF
41B4: F1                                POP     AF
41B5: 4D                                LD      C,L
41B6: 44                                LD      B,H
41B7: 7A                                LD      A,D
41B8: B3                                OR      E
41B9: B0                                OR      B
41BA: B1                                OR      C
41BB: 20 05                             JR      NZ,L41C2
41BD: 2E 07                             LD      L,07h
41BF: C3 73 42                          JP      L4273

41C2: 79                         L41C2: LD      A,C
41C3: 3D                                DEC     A
41C4: B0                                OR      B
41C5: B3                                OR      E
41C6: B2                                OR      D
41C7: 20 05                             JR      NZ,L41CE
41C9: 2E 02                             LD      L,02h
41CB: C3 73 42                          JP      L4273

41CE: 79                         L41CE: LD      A,C
41CF: A0                                AND     B
41D0: A3                                AND     E
41D1: A2                                AND     D
41D2: 3C                                INC     A
41D3: 20 05                             JR      NZ,L41DA
41D5: 2E 01                             LD      L,01h
41D7: C3 73 42                          JP      L4273

41DA: C5                         L41DA: PUSH    BC
41DB: D5                                PUSH    DE
41DC: D5                                PUSH    DE
41DD: C5                                PUSH    BC
41DE: DD 6E E8                          LD      L,(IX-18h)
41E1: DD 66 E9                          LD      H,(IX-17h)
41E4: E5                                PUSH    HL
41E5: CD 2B 46                          CALL    L462B
41E8: F1                                POP     AF
41E9: F1                                POP     AF
41EA: F1                                POP     AF
41EB: 7D                                LD      A,L
41EC: D1                                POP     DE
41ED: C1                                POP     BC
41EE: B7                                OR      A
41EF: 28 05                             JR      Z,L41F6
41F1: 2E 01                             LD      L,01h
41F3: C3 73 42                          JP      L4273

41F6: DD 6E F6                   L41F6: LD      L,(IX-0Ah)
41F9: DD 66 F7                          LD      H,(IX-09h)
41FC: 71                                LD      (HL),C
41FD: 23                                INC     HL
41FE: 70                                LD      (HL),B
41FF: 23                                INC     HL
4200: 73                                LD      (HL),E
4201: 23                                INC     HL
4202: 72                                LD      (HL),D
4203: D5                                PUSH    DE
4204: C5                                PUSH    BC
4205: DD 6E E8                          LD      L,(IX-18h)
4208: DD 66 E9                          LD      H,(IX-17h)
420B: E5                                PUSH    HL
420C: CD 0B 13                          CALL    L130B
420F: F1                                POP     AF
4210: F1                                POP     AF
4211: F1                                POP     AF
4212: 4D                                LD      C,L
4213: 44                                LD      B,H
4214: DD 6E F0                          LD      L,(IX-10h)
4217: DD 66 F1                          LD      H,(IX-0Fh)
421A: 71                                LD      (HL),C
421B: 23                                INC     HL
421C: 70                                LD      (HL),B
421D: 23                                INC     HL
421E: 73                                LD      (HL),E
421F: 23                                INC     HL
4220: 72                                LD      (HL),D
4221: DD 5E EA                   L4221: LD      E,(IX-16h)
4224: DD 56 EB                          LD      D,(IX-15h)
4227: 21 06 00                          LD      HL,0006h
422A: 39                                ADD     HL,SP
422B: 01 04 00                          LD      BC,0004h
422E: ED B0                             LDIR
4230: DD 7E E6                          LD      A,(IX-1Ah)
4233: C6 1A                             ADD     A,1Ah
4235: DD 77 FE                          LD      (IX-02h),A
4238: DD 7E E7                          LD      A,(IX-19h)
423B: CE 00                             ADC     A,00h
423D: DD 77 FF                          LD      (IX-01h),A
4240: DD 7E E8                          LD      A,(IX-18h)
4243: C6 33                             ADD     A,33h   ; '3'
4245: DD 77 FC                          LD      (IX-04h),A
4248: DD 7E E9                          LD      A,(IX-17h)
424B: CE 00                             ADC     A,00h
424D: DD 77 FD                          LD      (IX-03h),A
4250: DD 7E FC                          LD      A,(IX-04h)
4253: DD 86 F2                          ADD     A,(IX-0Eh)
4256: DD 77 FA                          LD      (IX-06h),A
4259: DD 7E FD                          LD      A,(IX-03h)
425C: DD 8E F3                          ADC     A,(IX-0Dh)
425F: DD 77 FB                          LD      (IX-05h),A
4262: DD 6E FE                          LD      L,(IX-02h)
4265: DD 66 FF                          LD      H,(IX-01h)
4268: DD 7E FA                          LD      A,(IX-06h)
426B: 77                                LD      (HL),A
426C: 23                                INC     HL
426D: DD 7E FB                          LD      A,(IX-05h)
4270: 77                                LD      (HL),A
4271: 2E 00                             LD      L,00h
4273: DD F9                      L4273: LD      SP,IX
4275: DD E1                             POP     IX
4277: C9                                RET

                                        ; --- START PROC L4278 ---
4278: CD D2 13                   L4278: CALL    L13D2
427B: F5                                PUSH    AF
427C: F5                                PUSH    AF
427D: DD 4E 04                          LD      C,(IX+04h)
4280: DD 46 05                          LD      B,(IX+05h)
4283: DD 7E 06                          LD      A,(IX+06h)
4286: DD 77 FE                          LD      (IX-02h),A
4289: DD 7E 07                          LD      A,(IX+07h)
428C: DD 77 FF                          LD      (IX-01h),A
428F: DD 5E 08                          LD      E,(IX+08h)
4292: DD 56 09                          LD      D,(IX+09h)
4295: 0A                         L4295: LD      A,(BC)
4296: 03                                INC     BC
4297: DD 77 FC                          LD      (IX-04h),A
429A: AF                                XOR     A
429B: DD 77 FD                          LD      (IX-03h),A
429E: DD 6E FE                          LD      L,(IX-02h)
42A1: DD 66 FF                          LD      H,(IX-01h)
42A4: 6E                                LD      L,(HL)
42A5: DD 34 FE                          INC     (IX-02h)
42A8: 20 03                             JR      NZ,L42AD
42AA: DD 34 FF                          INC     (IX-01h)
42AD: 26 00                      L42AD: LD      H,00h
42AF: DD 7E FC                          LD      A,(IX-04h)
42B2: 95                                SUB     L
42B3: 6F                                LD      L,A
42B4: DD 7E FD                          LD      A,(IX-03h)
42B7: 9C                                SBC     A,H
42B8: 67                                LD      H,A
42B9: 1B                                DEC     DE
42BA: 7A                                LD      A,D
42BB: B3                                OR      E
42BC: 28 04                             JR      Z,L42C2
42BE: 7C                                LD      A,H
42BF: B5                                OR      L
42C0: 28 D3                             JR      Z,L4295
42C2: DD F9                      L42C2: LD      SP,IX
42C4: DD E1                             POP     IX
42C6: C9                                RET

                                        ; --- START PROC L42C7 ---
42C7: CD D2 13                   L42C7: CALL    L13D2
42CA: 21 EE FF                          LD      HL,0FFEEh
42CD: 39                                ADD     HL,SP
42CE: F9                                LD      SP,HL
42CF: DD 7E 04                          LD      A,(IX+04h)
42D2: DD 77 EE                          LD      (IX-12h),A
42D5: DD 7E 05                          LD      A,(IX+05h)
42D8: DD 77 EF                          LD      (IX-11h),A
42DB: DD 7E EE                          LD      A,(IX-12h)
42DE: DD 77 F0                          LD      (IX-10h),A
42E1: DD 7E EF                          LD      A,(IX-11h)
42E4: DD 77 F1                          LD      (IX-0Fh),A
42E7: E1                                POP     HL
42E8: E5                                PUSH    HL
42E9: 7E                                LD      A,(HL)
42EA: DD 77 F2                          LD      (IX-0Eh),A
42ED: 23                                INC     HL
42EE: 7E                                LD      A,(HL)
42EF: DD 77 F3                          LD      (IX-0Dh),A
42F2: DD 7E 08                          LD      A,(IX+08h)
42F5: D6 20                             SUB     20h     ; ' '
42F7: DD 7E 09                          LD      A,(IX+09h)
42FA: DE 00                             SBC     A,00h
42FC: 30 07                             JR      NC,L4305
42FE: DD 7E 06                          LD      A,(IX+06h)
4301: E6 1F                             AND     1Fh
4303: 28 05                             JR      Z,L430A
4305: 2E 02                      L4305: LD      L,02h
4307: C3 EA 45                          JP      L45EA

430A: DD 7E EE                   L430A: LD      A,(IX-12h)
430D: C6 0E                             ADD     A,0Eh
430F: 5F                                LD      E,A
4310: DD 7E EF                          LD      A,(IX-11h)
4313: CE 00                             ADC     A,00h
4315: 57                                LD      D,A
4316: 21 18 00                          LD      HL,0018h
4319: 39                                ADD     HL,SP
431A: 01 04 00                          LD      BC,0004h
431D: ED B0                             LDIR
431F: DD 7E EE                          LD      A,(IX-12h)
4322: DD 77 FE                          LD      (IX-02h),A
4325: DD 7E EF                          LD      A,(IX-11h)
4328: DD 77 FF                          LD      (IX-01h),A
432B: DD 6E FE                          LD      L,(IX-02h)
432E: DD 66 FF                          LD      H,(IX-01h)
4331: 11 06 00                          LD      DE,0006h
4334: 19                                ADD     HL,DE
4335: 7E                                LD      A,(HL)
4336: DD 77 F4                          LD      (IX-0Ch),A
4339: 23                                INC     HL
433A: 7E                                LD      A,(HL)
433B: DD 77 F5                          LD      (IX-0Bh),A
433E: 23                                INC     HL
433F: 7E                                LD      A,(HL)
4340: DD 77 F6                          LD      (IX-0Ah),A
4343: 23                                INC     HL
4344: 7E                                LD      A,(HL)
4345: DD 77 F7                          LD      (IX-09h),A
4348: DD 7E F2                          LD      A,(IX-0Eh)
434B: C6 27                             ADD     A,27h   ; '''
434D: DD 77 FE                          LD      (IX-02h),A
4350: DD 7E F3                          LD      A,(IX-0Dh)
4353: CE 00                             ADC     A,00h
4355: DD 77 FF                          LD      (IX-01h),A
4358: DD 7E F7                          LD      A,(IX-09h)
435B: DD B6 F6                          OR      (IX-0Ah)
435E: DD B6 F5                          OR      (IX-0Bh)
4361: DD B6 F4                          OR      (IX-0Ch)
4364: 20 1B                             JR      NZ,L4381
4366: DD 6E F2                          LD      L,(IX-0Eh)
4369: DD 66 F3                          LD      H,(IX-0Dh)
436C: 7E                                LD      A,(HL)
436D: D6 03                             SUB     03h
436F: 38 10                             JR      C,L4381
4371: DD 5E FE                          LD      E,(IX-02h)
4374: DD 56 FF                          LD      D,(IX-01h)
4377: 21 06 00                          LD      HL,0006h
437A: 39                                ADD     HL,SP
437B: EB                                EX      DE,HL
437C: 01 04 00                          LD      BC,0004h
437F: ED B0                             LDIR
4381: DD 7E EE                   L4381: LD      A,(IX-12h)
4384: C6 16                             ADD     A,16h
4386: DD 77 F8                          LD      (IX-08h),A
4389: DD 7E EF                          LD      A,(IX-11h)
438C: CE 00                             ADC     A,00h
438E: DD 77 F9                          LD      (IX-07h),A
4391: DD 7E F7                          LD      A,(IX-09h)
4394: DD B6 F6                          OR      (IX-0Ah)
4397: DD B6 F5                          OR      (IX-0Bh)
439A: DD B6 F4                          OR      (IX-0Ch)
439D: 20 69                             JR      NZ,L4408
439F: DD 4E 06                          LD      C,(IX+06h)
43A2: DD 46 07                          LD      B,(IX+07h)
43A5: DD 5E 08                          LD      E,(IX+08h)
43A8: DD 56 09                          LD      D,(IX+09h)
43AB: 3E 05                             LD      A,05h
43AD: CB 3A                      L43AD: SRL     D
43AF: CB 1B                             RR      E
43B1: CB 18                             RR      B
43B3: CB 19                             RR      C
43B5: 3D                                DEC     A
43B6: 20 F5                             JR      NZ,L43AD
43B8: DD 6E F2                          LD      L,(IX-0Eh)
43BB: DD 66 F3                          LD      H,(IX-0Dh)
43BE: C5                                PUSH    BC
43BF: 01 07 00                          LD      BC,0007h
43C2: 09                                ADD     HL,BC
43C3: C1                                POP     BC
43C4: 7E                                LD      A,(HL)
43C5: 23                                INC     HL
43C6: 66                                LD      H,(HL)
43C7: DD 77 FA                          LD      (IX-06h),A
43CA: DD 74 FB                          LD      (IX-05h),H
43CD: AF                                XOR     A
43CE: DD 77 FC                          LD      (IX-04h),A
43D1: DD 77 FD                          LD      (IX-03h),A
43D4: 79                                LD      A,C
43D5: DD 96 FA                          SUB     (IX-06h)
43D8: 78                                LD      A,B
43D9: DD 9E FB                          SBC     A,(IX-05h)
43DC: 7B                                LD      A,E
43DD: DD 9E FC                          SBC     A,(IX-04h)
43E0: 7A                                LD      A,D
43E1: DD 9E FD                          SBC     A,(IX-03h)
43E4: 38 05                             JR      C,L43EB
43E6: 2E 02                             LD      L,02h
43E8: C3 EA 45                          JP      L45EA

43EB: DD 6E FE                   L43EB: LD      L,(IX-02h)
43EE: DD 66 FF                          LD      H,(IX-01h)
43F1: 4E                                LD      C,(HL)
43F2: 23                                INC     HL
43F3: 46                                LD      B,(HL)
43F4: 23                                INC     HL
43F5: 5E                                LD      E,(HL)
43F6: 23                                INC     HL
43F7: 56                                LD      D,(HL)
43F8: DD 6E F8                          LD      L,(IX-08h)
43FB: DD 66 F9                          LD      H,(IX-07h)
43FE: 71                                LD      (HL),C
43FF: 23                                INC     HL
4400: 70                                LD      (HL),B
4401: 23                                INC     HL
4402: 73                                LD      (HL),E
4403: 23                                INC     HL
4404: 72                                LD      (HL),D
4405: C3 21 45                          JP      L4521

4408: DD 6E F2                   L4408: LD      L,(IX-0Eh)
440B: DD 66 F3                          LD      H,(IX-0Dh)
440E: 11 09 00                          LD      DE,0009h
4411: 19                                ADD     HL,DE
4412: 4E                                LD      C,(HL)
4413: 23                                INC     HL
4414: 46                                LD      B,(HL)
4415: 1E 00                             LD      E,00h
4417: DD 71 FB                          LD      (IX-05h),C
441A: DD 70 FC                          LD      (IX-04h),B
441D: DD 73 FD                          LD      (IX-03h),E
4420: AF                                XOR     A
4421: DD 77 FA                          LD      (IX-06h),A
4424: DD CB FB 26                       SLA     (IX-05h)
4428: DD CB FC 16                       RL      (IX-04h)
442C: DD CB FD 16                       RL      (IX-03h)
4430: DD 7E F2                          LD      A,(IX-0Eh)
4433: DD 77 FE                          LD      (IX-02h),A
4436: DD 7E F3                          LD      A,(IX-0Dh)
4439: DD 77 FF                          LD      (IX-01h),A
443C: DD 7E 06                   L443C: LD      A,(IX+06h)
443F: DD 96 FA                          SUB     (IX-06h)
4442: DD 7E 07                          LD      A,(IX+07h)
4445: DD 9E FB                          SBC     A,(IX-05h)
4448: DD 7E 08                          LD      A,(IX+08h)
444B: DD 9E FC                          SBC     A,(IX-04h)
444E: DD 7E 09                          LD      A,(IX+09h)
4451: DD 9E FD                          SBC     A,(IX-03h)
4454: DA F7 44                          JP      C,L44F7
4457: DD 6E F6                          LD      L,(IX-0Ah)
445A: DD 66 F7                          LD      H,(IX-09h)
445D: E5                                PUSH    HL
445E: DD 6E F4                          LD      L,(IX-0Ch)
4461: DD 66 F5                          LD      H,(IX-0Bh)
4464: E5                                PUSH    HL
4465: DD 6E F0                          LD      L,(IX-10h)
4468: DD 66 F1                          LD      H,(IX-0Fh)
446B: E5                                PUSH    HL
446C: CD 4B 14                          CALL    L144B
446F: F1                                POP     AF
4470: F1                                POP     AF
4471: F1                                POP     AF
4472: DD 75 F4                          LD      (IX-0Ch),L
4475: DD 74 F5                          LD      (IX-0Bh),H
4478: DD 73 F6                          LD      (IX-0Ah),E
447B: DD 72 F7                          LD      (IX-09h),D
447E: DD 7E F4                          LD      A,(IX-0Ch)
4481: DD A6 F5                          AND     (IX-0Bh)
4484: DD A6 F6                          AND     (IX-0Ah)
4487: DD A6 F7                          AND     (IX-09h)
448A: 3C                                INC     A
448B: 20 05                             JR      NZ,L4492
448D: 2E 01                             LD      L,01h
448F: C3 EA 45                          JP      L45EA

4492: DD 7E F4                   L4492: LD      A,(IX-0Ch)
4495: D6 02                             SUB     02h
4497: DD 7E F5                          LD      A,(IX-0Bh)
449A: DE 00                             SBC     A,00h
449C: DD 7E F6                          LD      A,(IX-0Ah)
449F: DE 00                             SBC     A,00h
44A1: DD 7E F7                          LD      A,(IX-09h)
44A4: DE 00                             SBC     A,00h
44A6: 38 23                             JR      C,L44CB
44A8: DD 6E FE                          LD      L,(IX-02h)
44AB: DD 66 FF                          LD      H,(IX-01h)
44AE: 11 17 00                          LD      DE,0017h
44B1: 19                                ADD     HL,DE
44B2: 4E                                LD      C,(HL)
44B3: 23                                INC     HL
44B4: 46                                LD      B,(HL)
44B5: 23                                INC     HL
44B6: 5E                                LD      E,(HL)
44B7: 23                                INC     HL
44B8: 56                                LD      D,(HL)
44B9: DD 7E F4                          LD      A,(IX-0Ch)
44BC: 91                                SUB     C
44BD: DD 7E F5                          LD      A,(IX-0Bh)
44C0: 98                                SBC     A,B
44C1: DD 7E F6                          LD      A,(IX-0Ah)
44C4: 9B                                SBC     A,E
44C5: DD 7E F7                          LD      A,(IX-09h)
44C8: 9A                                SBC     A,D
44C9: 38 05                             JR      C,L44D0
44CB: 2E 02                      L44CB: LD      L,02h
44CD: C3 EA 45                          JP      L45EA

44D0: DD 7E 06                   L44D0: LD      A,(IX+06h)
44D3: DD 96 FA                          SUB     (IX-06h)
44D6: DD 77 06                          LD      (IX+06h),A
44D9: DD 7E 07                          LD      A,(IX+07h)
44DC: DD 9E FB                          SBC     A,(IX-05h)
44DF: DD 77 07                          LD      (IX+07h),A
44E2: DD 7E 08                          LD      A,(IX+08h)
44E5: DD 9E FC                          SBC     A,(IX-04h)
44E8: DD 77 08                          LD      (IX+08h),A
44EB: DD 7E 09                          LD      A,(IX+09h)
44EE: DD 9E FD                          SBC     A,(IX-03h)
44F1: DD 77 09                          LD      (IX+09h),A
44F4: C3 3C 44                          JP      L443C

44F7: DD 6E F6                   L44F7: LD      L,(IX-0Ah)
44FA: DD 66 F7                          LD      H,(IX-09h)
44FD: E5                                PUSH    HL
44FE: DD 6E F4                          LD      L,(IX-0Ch)
4501: DD 66 F5                          LD      H,(IX-0Bh)
4504: E5                                PUSH    HL
4505: DD 6E F2                          LD      L,(IX-0Eh)
4508: DD 66 F3                          LD      H,(IX-0Dh)
450B: E5                                PUSH    HL
450C: CD 0B 13                          CALL    L130B
450F: F1                                POP     AF
4510: F1                                POP     AF
4511: F1                                POP     AF
4512: 4D                                LD      C,L
4513: 44                                LD      B,H
4514: DD 6E F8                          LD      L,(IX-08h)
4517: DD 66 F9                          LD      H,(IX-07h)
451A: 71                                LD      (HL),C
451B: 23                                INC     HL
451C: 70                                LD      (HL),B
451D: 23                                INC     HL
451E: 73                                LD      (HL),E
451F: 23                                INC     HL
4520: 72                                LD      (HL),D
4521: DD 7E EE                   L4521: LD      A,(IX-12h)
4524: C6 12                             ADD     A,12h
4526: 5F                                LD      E,A
4527: DD 7E EF                          LD      A,(IX-11h)
452A: CE 00                             ADC     A,00h
452C: 57                                LD      D,A
452D: 21 06 00                          LD      HL,0006h
4530: 39                                ADD     HL,SP
4531: 01 04 00                          LD      BC,0004h
4534: ED B0                             LDIR
4536: DD 6E F8                          LD      L,(IX-08h)
4539: DD 66 F9                          LD      H,(IX-07h)
453C: 4E                                LD      C,(HL)
453D: 23                                INC     HL
453E: 46                                LD      B,(HL)
453F: 23                                INC     HL
4540: 5E                                LD      E,(HL)
4541: 23                                INC     HL
4542: 56                                LD      D,(HL)
4543: 7A                                LD      A,D
4544: B3                                OR      E
4545: B0                                OR      B
4546: B1                                OR      C
4547: 20 05                             JR      NZ,L454E
4549: 2E 02                             LD      L,02h
454B: C3 EA 45                          JP      L45EA

454E: DD 7E 07                   L454E: LD      A,(IX+07h)
4551: DD 77 FC                          LD      (IX-04h),A
4554: DD 7E 08                          LD      A,(IX+08h)
4557: DD 77 FD                          LD      (IX-03h),A
455A: DD 7E 09                          LD      A,(IX+09h)
455D: DD 77 FE                          LD      (IX-02h),A
4560: AF                                XOR     A
4561: DD 77 FF                          LD      (IX-01h),A
4564: DD CB FE 3E                       SRL     (IX-02h)
4568: DD CB FD 1E                       RR      (IX-03h)
456C: DD CB FC 1E                       RR      (IX-04h)
4570: 79                                LD      A,C
4571: DD 86 FC                          ADD     A,(IX-04h)
4574: 4F                                LD      C,A
4575: 78                                LD      A,B
4576: DD 8E FD                          ADC     A,(IX-03h)
4579: 47                                LD      B,A
457A: 7B                                LD      A,E
457B: DD 8E FE                          ADC     A,(IX-02h)
457E: 5F                                LD      E,A
457F: 7A                                LD      A,D
4580: DD 8E FF                          ADC     A,(IX-01h)
4583: 57                                LD      D,A
4584: DD 6E F8                          LD      L,(IX-08h)
4587: DD 66 F9                          LD      H,(IX-07h)
458A: 71                                LD      (HL),C
458B: 23                                INC     HL
458C: 70                                LD      (HL),B
458D: 23                                INC     HL
458E: 73                                LD      (HL),E
458F: 23                                INC     HL
4590: 72                                LD      (HL),D
4591: DD 7E EE                          LD      A,(IX-12h)
4594: C6 1A                             ADD     A,1Ah
4596: DD 77 FE                          LD      (IX-02h),A
4599: DD 7E EF                          LD      A,(IX-11h)
459C: CE 00                             ADC     A,00h
459E: DD 77 FF                          LD      (IX-01h),A
45A1: DD 7E F2                          LD      A,(IX-0Eh)
45A4: C6 33                             ADD     A,33h   ; '3'
45A6: DD 77 FC                          LD      (IX-04h),A
45A9: DD 7E F3                          LD      A,(IX-0Dh)
45AC: CE 00                             ADC     A,00h
45AE: DD 77 FD                          LD      (IX-03h),A
45B1: DD 7E 06                          LD      A,(IX+06h)
45B4: DD 77 F6                          LD      (IX-0Ah),A
45B7: DD 7E 07                          LD      A,(IX+07h)
45BA: E6 01                             AND     01h
45BC: DD 77 F7                          LD      (IX-09h),A
45BF: DD 36 F8 00                       LD      (IX-08h),00h
45C3: DD 36 F9 00                       LD      (IX-07h),00h
45C7: DD 7E FC                          LD      A,(IX-04h)
45CA: DD 86 F6                          ADD     A,(IX-0Ah)
45CD: DD 77 FA                          LD      (IX-06h),A
45D0: DD 7E FD                          LD      A,(IX-03h)
45D3: DD 8E F7                          ADC     A,(IX-09h)
45D6: DD 77 FB                          LD      (IX-05h),A
45D9: DD 6E FE                          LD      L,(IX-02h)
45DC: DD 66 FF                          LD      H,(IX-01h)
45DF: DD 7E FA                          LD      A,(IX-06h)
45E2: 77                                LD      (HL),A
45E3: 23                                INC     HL
45E4: DD 7E FB                          LD      A,(IX-05h)
45E7: 77                                LD      (HL),A
45E8: 2E 00                             LD      L,00h
45EA: DD F9                      L45EA: LD      SP,IX
45EC: DD E1                             POP     IX
45EE: C9                                RET

                                        ; --- START PROC L45EF ---
45EF: 21 00 13                   L45EF: LD      HL,1300h
45F2: 4E                                LD      C,(HL)
45F3: FD 21 02 00                       LD      IY,0002h
45F7: FD 39                             ADD     IY,SP
45F9: FD 7E 00                          LD      A,(IY+00h)
45FC: 91                                SUB     C
45FD: 38 28                             JR      C,L4627
45FF: 3A 01 13                          LD      A,(L1301)
4602: FD 96 00                          SUB     (IY+00h)
4605: 38 04                             JR      C,L460B
4607: 21 01 00                          LD      HL,0001h
460A: C9                                RET

460B: 21 02 13                   L460B: LD      HL,1302h
460E: 4E                                LD      C,(HL)
460F: FD 21 02 00                       LD      IY,0002h
4613: FD 39                             ADD     IY,SP
4615: FD 7E 00                          LD      A,(IY+00h)
4618: 91                                SUB     C
4619: 38 0C                             JR      C,L4627
461B: 3A 03 13                          LD      A,(L1303)
461E: FD 96 00                          SUB     (IY+00h)
4621: 38 04                             JR      C,L4627
4623: 21 01 00                          LD      HL,0001h
4626: C9                                RET

4627: 21 00 00                   L4627: LD      HL,0000h
462A: C9                                RET

                                        ; --- START PROC L462B ---
462B: CD D2 13                   L462B: CALL    L13D2
462E: 21 ED FF                          LD      HL,0FFEDh
4631: 39                                ADD     HL,SP
4632: F9                                LD      SP,HL
4633: DD 6E 04                          LD      L,(IX+04h)
4636: DD 66 05                          LD      H,(IX+05h)
4639: E5                                PUSH    HL
463A: CD 50 29                          CALL    L2950
463D: F1                                POP     AF
463E: 7D                                LD      A,L
463F: B7                                OR      A
4640: 28 05                             JR      Z,L4647
4642: 2E 01                             LD      L,01h
4644: C3 63 47                          JP      L4763

4647: DD 6E 08                   L4647: LD      L,(IX+08h)
464A: DD 66 09                          LD      H,(IX+09h)
464D: E5                                PUSH    HL
464E: DD 6E 06                          LD      L,(IX+06h)
4651: DD 66 07                          LD      H,(IX+07h)
4654: E5                                PUSH    HL
4655: DD 6E 04                          LD      L,(IX+04h)
4658: DD 66 05                          LD      H,(IX+05h)
465B: E5                                PUSH    HL
465C: CD 0B 13                          CALL    L130B
465F: F1                                POP     AF
4660: F1                                POP     AF
4661: F1                                POP     AF
4662: DD 75 F1                          LD      (IX-0Fh),L
4665: DD 74 F2                          LD      (IX-0Eh),H
4668: DD 73 F3                          LD      (IX-0Dh),E
466B: DD 72 F4                          LD      (IX-0Ch),D
466E: DD 4E 04                          LD      C,(IX+04h)
4671: DD 46 05                          LD      B,(IX+05h)
4674: 21 2F 00                          LD      HL,002Fh
4677: 09                                ADD     HL,BC
4678: EB                                EX      DE,HL
4679: C5                                PUSH    BC
467A: 21 06 00                          LD      HL,0006h
467D: 39                                ADD     HL,SP
467E: 01 04 00                          LD      BC,0004h
4681: ED B0                             LDIR
4683: C1                                POP     BC
4684: 21 33 00                          LD      HL,0033h
4687: 09                                ADD     HL,BC
4688: DD 75 FE                          LD      (IX-02h),L
468B: DD 74 FF                          LD      (IX-01h),H
468E: E5                                PUSH    HL
468F: C5                                PUSH    BC
4690: 11 00 02                          LD      DE,0200h
4693: D5                                PUSH    DE
4694: 11 00 00                          LD      DE,0000h
4697: D5                                PUSH    DE
4698: DD 5E FE                          LD      E,(IX-02h)
469B: DD 56 FF                          LD      D,(IX-01h)
469E: D5                                PUSH    DE
469F: CD AB 22                          CALL    L22AB
46A2: F1                                POP     AF
46A3: F1                                POP     AF
46A4: F1                                POP     AF
46A5: C1                                POP     BC
46A6: E1                                POP     HL
46A7: DD 75 F5                          LD      (IX-0Bh),L
46AA: DD 74 F6                          LD      (IX-0Ah),H
46AD: DD 71 F7                          LD      (IX-09h),C
46B0: DD 70 F8                          LD      (IX-08h),B
46B3: 21 09 00                          LD      HL,0009h
46B6: 09                                ADD     HL,BC
46B7: EB                                EX      DE,HL
46B8: AF                                XOR     A
46B9: DD 77 FE                          LD      (IX-02h),A
46BC: DD 77 FF                          LD      (IX-01h),A
46BF: 6B                         L46BF: LD      L,E
46C0: 62                                LD      H,D
46C1: 7E                                LD      A,(HL)
46C2: 23                                INC     HL
46C3: 66                                LD      H,(HL)
46C4: 6F                                LD      L,A
46C5: DD 4E FE                          LD      C,(IX-02h)
46C8: DD 46 FF                          LD      B,(IX-01h)
46CB: 79                                LD      A,C
46CC: 95                                SUB     L
46CD: 78                                LD      A,B
46CE: 9C                                SBC     A,H
46CF: D2 51 47                          JP      NC,L4751
46D2: DD 7E FE                          LD      A,(IX-02h)
46D5: DD 77 ED                          LD      (IX-13h),A
46D8: DD 7E FF                          LD      A,(IX-01h)
46DB: DD 77 EE                          LD      (IX-12h),A
46DE: AF                                XOR     A
46DF: DD 77 EF                          LD      (IX-11h),A
46E2: DD 77 F0                          LD      (IX-10h),A
46E5: DD 7E ED                          LD      A,(IX-13h)
46E8: DD 86 F1                          ADD     A,(IX-0Fh)
46EB: DD 77 F9                          LD      (IX-07h),A
46EE: DD 7E EE                          LD      A,(IX-12h)
46F1: DD 8E F2                          ADC     A,(IX-0Eh)
46F4: DD 77 FA                          LD      (IX-06h),A
46F7: DD 7E EF                          LD      A,(IX-11h)
46FA: DD 8E F3                          ADC     A,(IX-0Dh)
46FD: DD 77 FB                          LD      (IX-05h),A
4700: DD 7E F0                          LD      A,(IX-10h)
4703: DD 8E F4                          ADC     A,(IX-0Ch)
4706: DD 77 FC                          LD      (IX-04h),A
4709: DD 6E F7                          LD      L,(IX-09h)
470C: DD 66 F8                          LD      H,(IX-08h)
470F: 23                                INC     HL
4710: 7E                                LD      A,(HL)
4711: DD 77 FD                          LD      (IX-03h),A
4714: C5                                PUSH    BC
4715: D5                                PUSH    DE
4716: 21 01 00                          LD      HL,0001h
4719: E5                                PUSH    HL
471A: DD 6E FB                          LD      L,(IX-05h)
471D: DD 66 FC                          LD      H,(IX-04h)
4720: E5                                PUSH    HL
4721: DD 6E F9                          LD      L,(IX-07h)
4724: DD 66 FA                          LD      H,(IX-06h)
4727: E5                                PUSH    HL
4728: DD 6E F5                          LD      L,(IX-0Bh)
472B: DD 66 F6                          LD      H,(IX-0Ah)
472E: E5                                PUSH    HL
472F: DD 7E FD                          LD      A,(IX-03h)
4732: F5                                PUSH    AF
4733: 33                                INC     SP
4734: CD 7D 03                          CALL    L037D
4737: FD 21 09 00                       LD      IY,0009h
473B: FD 39                             ADD     IY,SP
473D: FD F9                             LD      SP,IY
473F: 7D                                LD      A,L
4740: D1                                POP     DE
4741: C1                                POP     BC
4742: B7                                OR      A
4743: 20 0C                             JR      NZ,L4751
4745: DD 34 FE                          INC     (IX-02h)
4748: C2 BF 46                          JP      NZ,L46BF
474B: DD 34 FF                          INC     (IX-01h)
474E: C3 BF 46                          JP      L46BF

4751: EB                         L4751: EX      DE,HL
4752: 5E                                LD      E,(HL)
4753: 23                                INC     HL
4754: 56                                LD      D,(HL)
4755: EB                                EX      DE,HL
4756: BF                                CP      A
4757: ED 42                             SBC     HL,BC
4759: 20 05                             JR      NZ,L4760
475B: 21 00 00                          LD      HL,0000h
475E: 18 03                             JR      L4763

4760: 21 01 00                   L4760: LD      HL,0001h
4763: DD F9                      L4763: LD      SP,IX
4765: DD E1                             POP     IX
4767: C9                                RET

                                        ; --- START PROC L4768 ---
4768: CD D2 13                   L4768: CALL    L13D2
476B: 21 F5 FF                          LD      HL,0FFF5h
476E: 39                                ADD     HL,SP
476F: F9                                LD      SP,HL
4770: DD 6E 04                          LD      L,(IX+04h)
4773: DD 66 05                          LD      H,(IX+05h)
4776: E5                                PUSH    HL
4777: CD 50 29                          CALL    L2950
477A: F1                                POP     AF
477B: 7D                                LD      A,L
477C: DD 77 F5                          LD      (IX-0Bh),A
477F: B7                                OR      A
4780: C2 33 49                          JP      NZ,L4933
4783: DD 4E 04                          LD      C,(IX+04h)
4786: DD 46 05                          LD      B,(IX+05h)
4789: 0A                                LD      A,(BC)
478A: 5F                                LD      E,A
478B: 21 01 00                          LD      HL,0001h
478E: 09                                ADD     HL,BC
478F: DD 75 F6                          LD      (IX-0Ah),L
4792: DD 74 F7                          LD      (IX-09h),H
4795: 7B                                LD      A,E
4796: D6 03                             SUB     03h
4798: C2 16 49                          JP      NZ,L4916
479B: 21 04 00                          LD      HL,0004h
479E: 09                                ADD     HL,BC
479F: DD 75 F8                          LD      (IX-08h),L
47A2: DD 74 F9                          LD      (IX-07h),H
47A5: 7E                                LD      A,(HL)
47A6: 3D                                DEC     A
47A7: C2 16 49                          JP      NZ,L4916
47AA: 21 33 00                          LD      HL,0033h
47AD: 09                                ADD     HL,BC
47AE: EB                                EX      DE,HL
47AF: DD 73 FE                          LD      (IX-02h),E
47B2: DD 72 FF                          LD      (IX-01h),D
47B5: C5                                PUSH    BC
47B6: D5                                PUSH    DE
47B7: 21 00 02                          LD      HL,0200h
47BA: E5                                PUSH    HL
47BB: 26 00                             LD      H,00h
47BD: E5                                PUSH    HL
47BE: DD 6E FE                          LD      L,(IX-02h)
47C1: DD 66 FF                          LD      H,(IX-01h)
47C4: E5                                PUSH    HL
47C5: CD AB 22                          CALL    L22AB
47C8: F1                                POP     AF
47C9: F1                                POP     AF
47CA: F1                                POP     AF
47CB: D1                                POP     DE
47CC: C1                                POP     BC
47CD: 21 31 02                          LD      HL,0231h
47D0: 09                                ADD     HL,BC
47D1: DD 75 FE                          LD      (IX-02h),L
47D4: DD 74 FF                          LD      (IX-01h),H
47D7: C5                                PUSH    BC
47D8: D5                                PUSH    DE
47D9: 21 55 AA                          LD      HL,0AA55h
47DC: E5                                PUSH    HL
47DD: DD 6E FE                          LD      L,(IX-02h)
47E0: DD 66 FF                          LD      H,(IX-01h)
47E3: E5                                PUSH    HL
47E4: CD FF 3B                          CALL    L3BFF
47E7: F1                                POP     AF
47E8: F1                                POP     AF
47E9: D1                                POP     DE
47EA: D5                                PUSH    DE
47EB: 21 61 41                          LD      HL,4161h
47EE: E5                                PUSH    HL
47EF: 21 52 52                          LD      HL,5252h
47F2: E5                                PUSH    HL
47F3: D5                                PUSH    DE
47F4: CD 56 19                          CALL    L1956
47F7: F1                                POP     AF
47F8: F1                                POP     AF
47F9: F1                                POP     AF
47FA: D1                                POP     DE
47FB: C1                                POP     BC
47FC: 21 17 02                          LD      HL,0217h
47FF: 09                                ADD     HL,BC
4800: DD 75 FE                          LD      (IX-02h),L
4803: DD 74 FF                          LD      (IX-01h),H
4806: C5                                PUSH    BC
4807: D5                                PUSH    DE
4808: 21 41 61                          LD      HL,6141h
480B: E5                                PUSH    HL
480C: 21 72 72                          LD      HL,7272h
480F: E5                                PUSH    HL
4810: DD 6E FE                          LD      L,(IX-02h)
4813: DD 66 FF                          LD      H,(IX-01h)
4816: E5                                PUSH    HL
4817: CD 56 19                          CALL    L1956
481A: F1                                POP     AF
481B: F1                                POP     AF
481C: F1                                POP     AF
481D: D1                                POP     DE
481E: C1                                POP     BC
481F: 69                                LD      L,C
4820: 60                                LD      H,B
4821: C5                                PUSH    BC
4822: 01 0F 00                          LD      BC,000Fh
4825: 09                                ADD     HL,BC
4826: C1                                POP     BC
4827: 7E                                LD      A,(HL)
4828: DD 77 FA                          LD      (IX-06h),A
482B: 23                                INC     HL
482C: 7E                                LD      A,(HL)
482D: DD 77 FB                          LD      (IX-05h),A
4830: 23                                INC     HL
4831: 7E                                LD      A,(HL)
4832: DD 77 FC                          LD      (IX-04h),A
4835: 23                                INC     HL
4836: 7E                                LD      A,(HL)
4837: DD 77 FD                          LD      (IX-03h),A
483A: 21 1B 02                          LD      HL,021Bh
483D: 09                                ADD     HL,BC
483E: DD 75 FE                          LD      (IX-02h),L
4841: DD 74 FF                          LD      (IX-01h),H
4844: C5                                PUSH    BC
4845: D5                                PUSH    DE
4846: DD 6E FC                          LD      L,(IX-04h)
4849: DD 66 FD                          LD      H,(IX-03h)
484C: E5                                PUSH    HL
484D: DD 6E FA                          LD      L,(IX-06h)
4850: DD 66 FB                          LD      H,(IX-05h)
4853: E5                                PUSH    HL
4854: DD 6E FE                          LD      L,(IX-02h)
4857: DD 66 FF                          LD      H,(IX-01h)
485A: E5                                PUSH    HL
485B: CD 56 19                          CALL    L1956
485E: F1                                POP     AF
485F: F1                                POP     AF
4860: F1                                POP     AF
4861: D1                                POP     DE
4862: C1                                POP     BC
4863: 69                                LD      L,C
4864: 60                                LD      H,B
4865: C5                                PUSH    BC
4866: 01 0B 00                          LD      BC,000Bh
4869: 09                                ADD     HL,BC
486A: C1                                POP     BC
486B: 7E                                LD      A,(HL)
486C: DD 77 FA                          LD      (IX-06h),A
486F: 23                                INC     HL
4870: 7E                                LD      A,(HL)
4871: DD 77 FB                          LD      (IX-05h),A
4874: 23                                INC     HL
4875: 7E                                LD      A,(HL)
4876: DD 77 FC                          LD      (IX-04h),A
4879: 23                                INC     HL
487A: 7E                                LD      A,(HL)
487B: DD 77 FD                          LD      (IX-03h),A
487E: 21 1F 02                          LD      HL,021Fh
4881: 09                                ADD     HL,BC
4882: DD 75 FE                          LD      (IX-02h),L
4885: DD 74 FF                          LD      (IX-01h),H
4888: C5                                PUSH    BC
4889: D5                                PUSH    DE
488A: DD 6E FC                          LD      L,(IX-04h)
488D: DD 66 FD                          LD      H,(IX-03h)
4890: E5                                PUSH    HL
4891: DD 6E FA                          LD      L,(IX-06h)
4894: DD 66 FB                          LD      H,(IX-05h)
4897: E5                                PUSH    HL
4898: DD 6E FE                          LD      L,(IX-02h)
489B: DD 66 FF                          LD      H,(IX-01h)
489E: E5                                PUSH    HL
489F: CD 56 19                          CALL    L1956
48A2: F1                                POP     AF
48A3: F1                                POP     AF
48A4: F1                                POP     AF
48A5: D1                                POP     DE
48A6: C1                                POP     BC
48A7: 21 2F 00                          LD      HL,002Fh
48AA: 09                                ADD     HL,BC
48AB: DD 75 FA                          LD      (IX-06h),L
48AE: DD 74 FB                          LD      (IX-05h),H
48B1: 69                                LD      L,C
48B2: 60                                LD      H,B
48B3: 01 1F 00                          LD      BC,001Fh
48B6: 09                                ADD     HL,BC
48B7: 4E                                LD      C,(HL)
48B8: 23                                INC     HL
48B9: 46                                LD      B,(HL)
48BA: 23                                INC     HL
48BB: 23                                INC     HL
48BC: 7E                                LD      A,(HL)
48BD: 2B                                DEC     HL
48BE: 6E                                LD      L,(HL)
48BF: 67                                LD      H,A
48C0: 79                                LD      A,C
48C1: C6 01                             ADD     A,01h
48C3: DD 77 FC                          LD      (IX-04h),A
48C6: 78                                LD      A,B
48C7: CE 00                             ADC     A,00h
48C9: DD 77 FD                          LD      (IX-03h),A
48CC: 7D                                LD      A,L
48CD: CE 00                             ADC     A,00h
48CF: DD 77 FE                          LD      (IX-02h),A
48D2: 7C                                LD      A,H
48D3: CE 00                             ADC     A,00h
48D5: DD 77 FF                          LD      (IX-01h),A
48D8: D5                                PUSH    DE
48D9: DD 5E FA                          LD      E,(IX-06h)
48DC: DD 56 FB                          LD      D,(IX-05h)
48DF: 21 09 00                          LD      HL,0009h
48E2: 39                                ADD     HL,SP
48E3: 01 04 00                          LD      BC,0004h
48E6: ED B0                             LDIR
48E8: D1                                POP     DE
48E9: DD 6E F6                          LD      L,(IX-0Ah)
48EC: DD 66 F7                          LD      H,(IX-09h)
48EF: 4E                                LD      C,(HL)
48F0: 21 01 00                          LD      HL,0001h
48F3: E5                                PUSH    HL
48F4: DD 6E FE                          LD      L,(IX-02h)
48F7: DD 66 FF                          LD      H,(IX-01h)
48FA: E5                                PUSH    HL
48FB: DD 6E FC                          LD      L,(IX-04h)
48FE: DD 66 FD                          LD      H,(IX-03h)
4901: E5                                PUSH    HL
4902: D5                                PUSH    DE
4903: 79                                LD      A,C
4904: F5                                PUSH    AF
4905: 33                                INC     SP
4906: CD 7D 03                          CALL    L037D
4909: 21 09 00                          LD      HL,0009h
490C: 39                                ADD     HL,SP
490D: F9                                LD      SP,HL
490E: DD 6E F8                          LD      L,(IX-08h)
4911: DD 66 F9                          LD      H,(IX-07h)
4914: 36 00                             LD      (HL),00h
4916: DD 6E F6                   L4916: LD      L,(IX-0Ah)
4919: DD 66 F7                          LD      H,(IX-09h)
491C: 46                                LD      B,(HL)
491D: 21 00 00                          LD      HL,0000h
4920: E5                                PUSH    HL
4921: AF                                XOR     A
4922: F5                                PUSH    AF
4923: 33                                INC     SP
4924: C5                                PUSH    BC
4925: 33                                INC     SP
4926: CD 80 03                          CALL    L0380
4929: F1                                POP     AF
492A: F1                                POP     AF
492B: 7D                                LD      A,L
492C: B7                                OR      A
492D: 28 04                             JR      Z,L4933
492F: DD 36 F5 01                       LD      (IX-0Bh),01h
4933: DD 6E F5                   L4933: LD      L,(IX-0Bh)
4936: DD F9                             LD      SP,IX
4938: DD E1                             POP     IX
493A: C9                                RET

                                        ; --- START PROC L493B ---
493B: CD D2 13                   L493B: CALL    L13D2
493E: DD 4E 04                          LD      C,(IX+04h)
4941: DD 46 05                          LD      B,(IX+05h)
4944: 59                                LD      E,C
4945: 50                                LD      D,B
4946: 13                                INC     DE
4947: 13                                INC     DE
4948: 13                                INC     DE
4949: AF                                XOR     A
494A: 12                                LD      (DE),A
494B: 21 2F 00                          LD      HL,002Fh
494E: 09                                ADD     HL,BC
494F: 36 FF                             LD      (HL),0FFh
4951: 23                                INC     HL
4952: 36 FF                             LD      (HL),0FFh
4954: 23                                INC     HL
4955: 36 FF                             LD      (HL),0FFh
4957: 23                                INC     HL
4958: 36 FF                             LD      (HL),0FFh
495A: C5                                PUSH    BC
495B: DD 6E 08                          LD      L,(IX+08h)
495E: DD 66 09                          LD      H,(IX+09h)
4961: E5                                PUSH    HL
4962: DD 6E 06                          LD      L,(IX+06h)
4965: DD 66 07                          LD      H,(IX+07h)
4968: E5                                PUSH    HL
4969: C5                                PUSH    BC
496A: CD E2 22                          CALL    L22E2
496D: F1                                POP     AF
496E: F1                                POP     AF
496F: F1                                POP     AF
4970: 5D                                LD      E,L
4971: C1                                POP     BC
4972: 7B                                LD      A,E
4973: B7                                OR      A
4974: 28 05                             JR      Z,L497B
4976: 21 04 00                          LD      HL,0004h
4979: 18 6D                             JR      L49E8

497B: 59                         L497B: LD      E,C
497C: 50                                LD      D,B
497D: 21 31 02                          LD      HL,0231h
4980: 09                                ADD     HL,BC
4981: C5                                PUSH    BC
4982: D5                                PUSH    DE
4983: E5                                PUSH    HL
4984: CD C3 22                          CALL    L22C3
4987: F1                                POP     AF
4988: D1                                POP     DE
4989: C1                                POP     BC
498A: 7D                                LD      A,L
498B: D6 55                             SUB     55h     ; 'U'
498D: 20 05                             JR      NZ,L4994
498F: 7C                                LD      A,H
4990: D6 AA                             SUB     0AAh
4992: 28 05                             JR      Z,L4999
4994: 21 03 00                   L4994: LD      HL,0003h
4997: 18 4F                             JR      L49E8

4999: EB                         L4999: EX      DE,HL
499A: 11 33 00                          LD      DE,0033h
499D: 19                                ADD     HL,DE
499E: 7E                                LD      A,(HL)
499F: FE E9                             CP      0E9h
49A1: 28 08                             JR      Z,L49AB
49A3: FE EB                             CP      0EBh
49A5: 28 04                             JR      Z,L49AB
49A7: D6 E8                             SUB     0E8h
49A9: 20 3A                             JR      NZ,L49E5
49AB: 21 69 00                   L49AB: LD      HL,0069h
49AE: 09                                ADD     HL,BC
49AF: C5                                PUSH    BC
49B0: 11 03 00                          LD      DE,0003h
49B3: D5                                PUSH    DE
49B4: 11 F7 49                          LD      DE,49F7h
49B7: D5                                PUSH    DE
49B8: E5                                PUSH    HL
49B9: CD 78 42                          CALL    L4278
49BC: F1                                POP     AF
49BD: F1                                POP     AF
49BE: F1                                POP     AF
49BF: C1                                POP     BC
49C0: 7C                                LD      A,H
49C1: B5                                OR      L
49C2: 20 05                             JR      NZ,L49C9
49C4: 21 00 00                          LD      HL,0000h
49C7: 18 1F                             JR      L49E8

49C9: 21 85 00                   L49C9: LD      HL,0085h
49CC: 09                                ADD     HL,BC
49CD: 01 05 00                          LD      BC,0005h
49D0: C5                                PUSH    BC
49D1: 01 FB 49                          LD      BC,49FBh
49D4: C5                                PUSH    BC
49D5: E5                                PUSH    HL
49D6: CD 78 42                          CALL    L4278
49D9: F1                                POP     AF
49DA: F1                                POP     AF
49DB: F1                                POP     AF
49DC: 7C                                LD      A,H
49DD: B5                                OR      L
49DE: 20 05                             JR      NZ,L49E5
49E0: 21 00 00                          LD      HL,0000h
49E3: 18 03                             JR      L49E8

49E5: 21 02 00                   L49E5: LD      HL,0002h
49E8: DD E1                      L49E8: POP     IX
49EA: C9                                RET

49EB: EB                         L49EB: DB      0EBh
49EC: 76                                DB      76h     ; 'v'
49ED: 90                                DB      90h
49EE: 45 58 46 41 54 20 20 20           DB      "EXFAT   "
49F6: 00                                DB      00h
49F7: 46                                DB      46h     ; 'F'
49F8: 41                                DB      41h     ; 'A'
49F9: 54                                DB      54h     ; 'T'
49FA: 00                                DB      00h
49FB: 46 41 54 33 32                    DB      "FAT32"
4A00: 00                                DB      00h

                                        ; --- START PROC L4A01 ---
4A01: CD D2 13                   L4A01: CALL    L13D2
4A04: 21 E9 FF                          LD      HL,0FFE9h
4A07: 39                                ADD     HL,SP
4A08: F9                                LD      SP,HL
4A09: DD 7E 04                          LD      A,(IX+04h)
4A0C: DD 77 FE                          LD      (IX-02h),A
4A0F: DD 7E 05                          LD      A,(IX+05h)
4A12: DD 77 FF                          LD      (IX-01h),A
4A15: DD 6E FE                          LD      L,(IX-02h)
4A18: DD 66 FF                          LD      H,(IX-01h)
4A1B: 7E                                LD      A,(HL)
4A1C: DD 77 ED                          LD      (IX-13h),A
4A1F: 23                                INC     HL
4A20: 7E                                LD      A,(HL)
4A21: DD 77 EE                          LD      (IX-12h),A
4A24: DD 7E ED                          LD      A,(IX-13h)
4A27: C6 0B                             ADD     A,0Bh
4A29: DD 77 EF                          LD      (IX-11h),A
4A2C: DD 7E EE                          LD      A,(IX-12h)
4A2F: CE 00                             ADC     A,00h
4A31: DD 77 F0                          LD      (IX-10h),A
4A34: DD 7E ED                          LD      A,(IX-13h)
4A37: C6 17                             ADD     A,17h
4A39: DD 77 F1                          LD      (IX-0Fh),A
4A3C: DD 7E EE                          LD      A,(IX-12h)
4A3F: CE 00                             ADC     A,00h
4A41: DD 77 F2                          LD      (IX-0Eh),A
4A44: DD 7E 09                          LD      A,(IX+09h)
4A47: DD B6 08                          OR      (IX+08h)
4A4A: DD B6 07                          OR      (IX+07h)
4A4D: DD B6 06                          OR      (IX+06h)
4A50: 20 5A                             JR      NZ,L4AAC
4A52: DD 5E EF                          LD      E,(IX-11h)
4A55: DD 56 F0                          LD      D,(IX-10h)
4A58: 21 0A 00                          LD      HL,000Ah
4A5B: 39                                ADD     HL,SP
4A5C: EB                                EX      DE,HL
4A5D: 01 04 00                          LD      BC,0004h
4A60: ED B0                             LDIR
4A62: DD 7E F6                          LD      A,(IX-0Ah)
4A65: DD B6 F5                          OR      (IX-0Bh)
4A68: DD B6 F4                          OR      (IX-0Ch)
4A6B: DD B6 F3                          OR      (IX-0Dh)
4A6E: 28 2B                             JR      Z,L4A9B
4A70: DD 5E F1                          LD      E,(IX-0Fh)
4A73: DD 56 F2                          LD      D,(IX-0Eh)
4A76: 21 13 00                          LD      HL,0013h
4A79: 39                                ADD     HL,SP
4A7A: EB                                EX      DE,HL
4A7B: 01 04 00                          LD      BC,0004h
4A7E: ED B0                             LDIR
4A80: DD 7E F3                          LD      A,(IX-0Dh)
4A83: DD 96 FC                          SUB     (IX-04h)
4A86: DD 7E F4                          LD      A,(IX-0Ch)
4A89: DD 9E FD                          SBC     A,(IX-03h)
4A8C: DD 7E F5                          LD      A,(IX-0Bh)
4A8F: DD 9E FE                          SBC     A,(IX-02h)
4A92: DD 7E F6                          LD      A,(IX-0Ah)
4A95: DD 9E FF                          SBC     A,(IX-01h)
4A98: DA 65 4B                          JP      C,L4B65
4A9B: DD 36 F3 01                L4A9B: LD      (IX-0Dh),01h
4A9F: AF                                XOR     A
4AA0: DD 77 F4                          LD      (IX-0Ch),A
4AA3: DD 77 F5                          LD      (IX-0Bh),A
4AA6: DD 77 F6                          LD      (IX-0Ah),A
4AA9: C3 65 4B                          JP      L4B65

4AAC: DD 6E 08                   L4AAC: LD      L,(IX+08h)
4AAF: DD 66 09                          LD      H,(IX+09h)
4AB2: E5                                PUSH    HL
4AB3: DD 6E 06                          LD      L,(IX+06h)
4AB6: DD 66 07                          LD      H,(IX+07h)
4AB9: E5                                PUSH    HL
4ABA: DD 6E FE                          LD      L,(IX-02h)
4ABD: DD 66 FF                          LD      H,(IX-01h)
4AC0: E5                                PUSH    HL
4AC1: CD 4B 14                          CALL    L144B
4AC4: F1                                POP     AF
4AC5: F1                                POP     AF
4AC6: F1                                POP     AF
4AC7: DD 75 FC                          LD      (IX-04h),L
4ACA: DD 74 FD                          LD      (IX-03h),H
4ACD: DD 73 FE                          LD      (IX-02h),E
4AD0: DD 72 FF                          LD      (IX-01h),D
4AD3: 21 0F 00                          LD      HL,000Fh
4AD6: 39                                ADD     HL,SP
4AD7: EB                                EX      DE,HL
4AD8: 21 13 00                          LD      HL,0013h
4ADB: 39                                ADD     HL,SP
4ADC: 01 04 00                          LD      BC,0004h
4ADF: ED B0                             LDIR
4AE1: DD 7E F8                          LD      A,(IX-08h)
4AE4: D6 02                             SUB     02h
4AE6: DD 7E F9                          LD      A,(IX-07h)
4AE9: DE 00                             SBC     A,00h
4AEB: DD 7E FA                          LD      A,(IX-06h)
4AEE: DE 00                             SBC     A,00h
4AF0: DD 7E FB                          LD      A,(IX-05h)
4AF3: DE 00                             SBC     A,00h
4AF5: 30 09                             JR      NC,L4B00
4AF7: 21 01 00                          LD      HL,0001h
4AFA: 11 00 00                          LD      DE,0000h
4AFD: C3 E2 4E                          JP      L4EE2

4B00: DD 7E F8                   L4B00: LD      A,(IX-08h)
4B03: DD A6 F9                          AND     (IX-07h)
4B06: DD A6 FA                          AND     (IX-06h)
4B09: DD A6 FB                          AND     (IX-05h)
4B0C: 3C                                INC     A
4B0D: 20 0F                             JR      NZ,L4B1E
4B0F: DD 6E F8                          LD      L,(IX-08h)
4B12: DD 66 F9                          LD      H,(IX-07h)
4B15: DD 5E FA                          LD      E,(IX-06h)
4B18: DD 56 FB                          LD      D,(IX-05h)
4B1B: C3 E2 4E                          JP      L4EE2

4B1E: DD 5E F1                   L4B1E: LD      E,(IX-0Fh)
4B21: DD 56 F2                          LD      D,(IX-0Eh)
4B24: 21 13 00                          LD      HL,0013h
4B27: 39                                ADD     HL,SP
4B28: EB                                EX      DE,HL
4B29: 01 04 00                          LD      BC,0004h
4B2C: ED B0                             LDIR
4B2E: DD 7E F8                          LD      A,(IX-08h)
4B31: DD 96 FC                          SUB     (IX-04h)
4B34: DD 7E F9                          LD      A,(IX-07h)
4B37: DD 9E FD                          SBC     A,(IX-03h)
4B3A: DD 7E FA                          LD      A,(IX-06h)
4B3D: DD 9E FE                          SBC     A,(IX-02h)
4B40: DD 7E FB                          LD      A,(IX-05h)
4B43: DD 9E FF                          SBC     A,(IX-01h)
4B46: 30 0F                             JR      NC,L4B57
4B48: DD 6E F8                          LD      L,(IX-08h)
4B4B: DD 66 F9                          LD      H,(IX-07h)
4B4E: DD 5E FA                          LD      E,(IX-06h)
4B51: DD 56 FB                          LD      D,(IX-05h)
4B54: C3 E2 4E                          JP      L4EE2

4B57: 21 0A 00                   L4B57: LD      HL,000Ah
4B5A: 39                                ADD     HL,SP
4B5B: EB                                EX      DE,HL
4B5C: 21 1D 00                          LD      HL,001Dh
4B5F: 39                                ADD     HL,SP
4B60: 01 04 00                          LD      BC,0004h
4B63: ED B0                             LDIR
4B65: DD 7E ED                   L4B65: LD      A,(IX-13h)
4B68: C6 0F                             ADD     A,0Fh
4B6A: DD 77 F7                          LD      (IX-09h),A
4B6D: DD 7E EE                          LD      A,(IX-12h)
4B70: CE 00                             ADC     A,00h
4B72: DD 77 F8                          LD      (IX-08h),A
4B75: DD 6E F7                          LD      L,(IX-09h)
4B78: DD 66 F8                          LD      H,(IX-08h)
4B7B: 4E                                LD      C,(HL)
4B7C: 23                                INC     HL
4B7D: 46                                LD      B,(HL)
4B7E: 23                                INC     HL
4B7F: 5E                                LD      E,(HL)
4B80: 23                                INC     HL
4B81: 56                                LD      D,(HL)
4B82: 7A                                LD      A,D
4B83: B3                                OR      E
4B84: B0                                OR      B
4B85: B1                                OR      C
4B86: 20 08                             JR      NZ,L4B90
4B88: 21 00 00                          LD      HL,0000h
4B8B: 5D                                LD      E,L
4B8C: 54                                LD      D,H
4B8D: C3 E2 4E                          JP      L4EE2

4B90: AF                         L4B90: XOR     A
4B91: DD 77 FC                          LD      (IX-04h),A
4B94: DD 77 FD                          LD      (IX-03h),A
4B97: DD 77 FE                          LD      (IX-02h),A
4B9A: DD 77 FF                          LD      (IX-01h),A
4B9D: DD 7E 06                          LD      A,(IX+06h)
4BA0: DD 96 F3                          SUB     (IX-0Dh)
4BA3: C2 A4 4C                          JP      NZ,L4CA4
4BA6: DD 7E 07                          LD      A,(IX+07h)
4BA9: DD 96 F4                          SUB     (IX-0Ch)
4BAC: C2 A4 4C                          JP      NZ,L4CA4
4BAF: DD 7E 08                          LD      A,(IX+08h)
4BB2: DD 96 F5                          SUB     (IX-0Bh)
4BB5: C2 A4 4C                          JP      NZ,L4CA4
4BB8: DD 7E 09                          LD      A,(IX+09h)
4BBB: DD 96 F6                          SUB     (IX-0Ah)
4BBE: C2 A4 4C                          JP      NZ,L4CA4
4BC1: DD 7E F3                          LD      A,(IX-0Dh)
4BC4: C6 01                             ADD     A,01h
4BC6: DD 77 FC                          LD      (IX-04h),A
4BC9: DD 7E F4                          LD      A,(IX-0Ch)
4BCC: CE 00                             ADC     A,00h
4BCE: DD 77 FD                          LD      (IX-03h),A
4BD1: DD 7E F5                          LD      A,(IX-0Bh)
4BD4: CE 00                             ADC     A,00h
4BD6: DD 77 FE                          LD      (IX-02h),A
4BD9: DD 7E F6                          LD      A,(IX-0Ah)
4BDC: CE 00                             ADC     A,00h
4BDE: DD 77 FF                          LD      (IX-01h),A
4BE1: DD 6E F1                          LD      L,(IX-0Fh)
4BE4: DD 66 F2                          LD      H,(IX-0Eh)
4BE7: 4E                                LD      C,(HL)
4BE8: 23                                INC     HL
4BE9: 46                                LD      B,(HL)
4BEA: 23                                INC     HL
4BEB: 5E                                LD      E,(HL)
4BEC: 23                                INC     HL
4BED: 56                                LD      D,(HL)
4BEE: DD 7E FC                          LD      A,(IX-04h)
4BF1: 91                                SUB     C
4BF2: DD 7E FD                          LD      A,(IX-03h)
4BF5: 98                                SBC     A,B
4BF6: DD 7E FE                          LD      A,(IX-02h)
4BF9: 9B                                SBC     A,E
4BFA: DD 7E FF                          LD      A,(IX-01h)
4BFD: 9A                                SBC     A,D
4BFE: 38 0E                             JR      C,L4C0E
4C00: DD 36 FC 02                       LD      (IX-04h),02h
4C04: AF                                XOR     A
4C05: DD 77 FD                          LD      (IX-03h),A
4C08: DD 77 FE                          LD      (IX-02h),A
4C0B: DD 77 FF                          LD      (IX-01h),A
4C0E: DD 6E FE                   L4C0E: LD      L,(IX-02h)
4C11: DD 66 FF                          LD      H,(IX-01h)
4C14: E5                                PUSH    HL
4C15: DD 6E FC                          LD      L,(IX-04h)
4C18: DD 66 FD                          LD      H,(IX-03h)
4C1B: E5                                PUSH    HL
4C1C: DD 6E 04                          LD      L,(IX+04h)
4C1F: DD 66 05                          LD      H,(IX+05h)
4C22: E5                                PUSH    HL
4C23: CD 4B 14                          CALL    L144B
4C26: F1                                POP     AF
4C27: F1                                POP     AF
4C28: F1                                POP     AF
4C29: 4D                                LD      C,L
4C2A: 44                                LD      B,H
4C2B: 79                                LD      A,C
4C2C: 3D                                DEC     A
4C2D: B0                                OR      B
4C2E: B3                                OR      E
4C2F: B2                                OR      D
4C30: 28 07                             JR      Z,L4C39
4C32: 79                                LD      A,C
4C33: A0                                AND     B
4C34: A3                                AND     E
4C35: A2                                AND     D
4C36: 3C                                INC     A
4C37: 20 05                             JR      NZ,L4C3E
4C39: 69                         L4C39: LD      L,C
4C3A: 60                                LD      H,B
4C3B: C3 E2 4E                          JP      L4EE2

4C3E: 7A                         L4C3E: LD      A,D
4C3F: B3                                OR      E
4C40: B0                                OR      B
4C41: B1                                OR      C
4C42: 28 60                             JR      Z,L4CA4
4C44: DD 5E EF                          LD      E,(IX-11h)
4C47: DD 56 F0                          LD      D,(IX-10h)
4C4A: 21 13 00                          LD      HL,0013h
4C4D: 39                                ADD     HL,SP
4C4E: EB                                EX      DE,HL
4C4F: 01 04 00                          LD      BC,0004h
4C52: ED B0                             LDIR
4C54: DD 7E FC                          LD      A,(IX-04h)
4C57: D6 02                             SUB     02h
4C59: DD 7E FD                          LD      A,(IX-03h)
4C5C: DE 00                             SBC     A,00h
4C5E: DD 7E FE                          LD      A,(IX-02h)
4C61: DE 00                             SBC     A,00h
4C63: DD 7E FF                          LD      A,(IX-01h)
4C66: DE 00                             SBC     A,00h
4C68: 38 2D                             JR      C,L4C97
4C6A: DD 6E F1                          LD      L,(IX-0Fh)
4C6D: DD 66 F2                          LD      H,(IX-0Eh)
4C70: 4E                                LD      C,(HL)
4C71: 23                                INC     HL
4C72: 46                                LD      B,(HL)
4C73: 23                                INC     HL
4C74: 5E                                LD      E,(HL)
4C75: 23                                INC     HL
4C76: 56                                LD      D,(HL)
4C77: DD 7E FC                          LD      A,(IX-04h)
4C7A: 91                                SUB     C
4C7B: DD 7E FD                          LD      A,(IX-03h)
4C7E: 98                                SBC     A,B
4C7F: DD 7E FE                          LD      A,(IX-02h)
4C82: 9B                                SBC     A,E
4C83: DD 7E FF                          LD      A,(IX-01h)
4C86: 9A                                SBC     A,D
4C87: 30 0E                             JR      NC,L4C97
4C89: 21 0A 00                          LD      HL,000Ah
4C8C: 39                                ADD     HL,SP
4C8D: EB                                EX      DE,HL
4C8E: 21 13 00                          LD      HL,0013h
4C91: 39                                ADD     HL,SP
4C92: 01 04 00                          LD      BC,0004h
4C95: ED B0                             LDIR
4C97: AF                         L4C97: XOR     A
4C98: DD 77 FC                          LD      (IX-04h),A
4C9B: DD 77 FD                          LD      (IX-03h),A
4C9E: DD 77 FE                          LD      (IX-02h),A
4CA1: DD 77 FF                          LD      (IX-01h),A
4CA4: DD 7E FF                   L4CA4: LD      A,(IX-01h)
4CA7: DD B6 FE                          OR      (IX-02h)
4CAA: DD B6 FD                          OR      (IX-03h)
4CAD: DD B6 FC                          OR      (IX-04h)
4CB0: C2 91 4D                          JP      NZ,L4D91
4CB3: 21 13 00                          LD      HL,0013h
4CB6: 39                                ADD     HL,SP
4CB7: EB                                EX      DE,HL
4CB8: 21 0A 00                          LD      HL,000Ah
4CBB: 39                                ADD     HL,SP
4CBC: 01 04 00                          LD      BC,0004h
4CBF: ED B0                             LDIR
4CC1: DD 7E F3                          LD      A,(IX-0Dh)
4CC4: D6 02                             SUB     02h
4CC6: DD 7E F4                          LD      A,(IX-0Ch)
4CC9: DE 00                             SBC     A,00h
4CCB: DD 7E F5                          LD      A,(IX-0Bh)
4CCE: DE 00                             SBC     A,00h
4CD0: DD 7E F6                          LD      A,(IX-0Ah)
4CD3: DE 00                             SBC     A,00h
4CD5: 3E 00                             LD      A,00h
4CD7: 17                                RLA
4CD8: DD 77 F9                          LD      (IX-07h),A
4CDB: DD 7E F1                          LD      A,(IX-0Fh)
4CDE: DD 77 FA                          LD      (IX-06h),A
4CE1: DD 7E F2                          LD      A,(IX-0Eh)
4CE4: DD 77 FB                          LD      (IX-05h),A
4CE7: DD 34 FC                   L4CE7: INC     (IX-04h)
4CEA: 20 0D                             JR      NZ,L4CF9
4CEC: DD 34 FD                          INC     (IX-03h)
4CEF: 20 08                             JR      NZ,L4CF9
4CF1: DD 34 FE                          INC     (IX-02h)
4CF4: 20 03                             JR      NZ,L4CF9
4CF6: DD 34 FF                          INC     (IX-01h)
4CF9: DD 6E FA                   L4CF9: LD      L,(IX-06h)
4CFC: DD 66 FB                          LD      H,(IX-05h)
4CFF: 4E                                LD      C,(HL)
4D00: 23                                INC     HL
4D01: 46                                LD      B,(HL)
4D02: 23                                INC     HL
4D03: 5E                                LD      E,(HL)
4D04: 23                                INC     HL
4D05: 56                                LD      D,(HL)
4D06: DD 7E FC                          LD      A,(IX-04h)
4D09: 91                                SUB     C
4D0A: DD 7E FD                          LD      A,(IX-03h)
4D0D: 98                                SBC     A,B
4D0E: DD 7E FE                          LD      A,(IX-02h)
4D11: 9B                                SBC     A,E
4D12: DD 7E FF                          LD      A,(IX-01h)
4D15: 9A                                SBC     A,D
4D16: 38 1C                             JR      C,L4D34
4D18: DD 36 FC 02                       LD      (IX-04h),02h
4D1C: AF                                XOR     A
4D1D: DD 77 FD                          LD      (IX-03h),A
4D20: DD 77 FE                          LD      (IX-02h),A
4D23: DD 77 FF                          LD      (IX-01h),A
4D26: DD 7E F9                          LD      A,(IX-07h)
4D29: B7                                OR      A
4D2A: 28 08                             JR      Z,L4D34
4D2C: 21 00 00                          LD      HL,0000h
4D2F: 5D                                LD      E,L
4D30: 54                                LD      D,H
4D31: C3 E2 4E                          JP      L4EE2

4D34: DD 6E FE                   L4D34: LD      L,(IX-02h)
4D37: DD 66 FF                          LD      H,(IX-01h)
4D3A: E5                                PUSH    HL
4D3B: DD 6E FC                          LD      L,(IX-04h)
4D3E: DD 66 FD                          LD      H,(IX-03h)
4D41: E5                                PUSH    HL
4D42: DD 6E 04                          LD      L,(IX+04h)
4D45: DD 66 05                          LD      H,(IX+05h)
4D48: E5                                PUSH    HL
4D49: CD 4B 14                          CALL    L144B
4D4C: F1                                POP     AF
4D4D: F1                                POP     AF
4D4E: F1                                POP     AF
4D4F: 7A                                LD      A,D
4D50: B3                                OR      E
4D51: B4                                OR      H
4D52: B5                                OR      L
4D53: 28 3C                             JR      Z,L4D91
4D55: 7D                                LD      A,L
4D56: 3D                                DEC     A
4D57: B4                                OR      H
4D58: B3                                OR      E
4D59: B2                                OR      D
4D5A: CA E2 4E                          JP      Z,L4EE2
4D5D: 7D                                LD      A,L
4D5E: A4                                AND     H
4D5F: A3                                AND     E
4D60: A2                                AND     D
4D61: 3C                                INC     A
4D62: CA E2 4E                          JP      Z,L4EE2
4D65: DD 7E FC                          LD      A,(IX-04h)
4D68: DD 96 F3                          SUB     (IX-0Dh)
4D6B: C2 E7 4C                          JP      NZ,L4CE7
4D6E: DD 7E FD                          LD      A,(IX-03h)
4D71: DD 96 F4                          SUB     (IX-0Ch)
4D74: C2 E7 4C                          JP      NZ,L4CE7
4D77: DD 7E FE                          LD      A,(IX-02h)
4D7A: DD 96 F5                          SUB     (IX-0Bh)
4D7D: C2 E7 4C                          JP      NZ,L4CE7
4D80: DD 7E FF                          LD      A,(IX-01h)
4D83: DD 96 F6                          SUB     (IX-0Ah)
4D86: C2 E7 4C                          JP      NZ,L4CE7
4D89: 21 00 00                          LD      HL,0000h
4D8C: 5D                                LD      E,L
4D8D: 54                                LD      D,H
4D8E: C3 E2 4E                          JP      L4EE2

4D91: 21 FF FF                   L4D91: LD      HL,0FFFFh
4D94: E5                                PUSH    HL
4D95: 21 FF FF                          LD      HL,0FFFFh
4D98: E5                                PUSH    HL
4D99: DD 6E FE                          LD      L,(IX-02h)
4D9C: DD 66 FF                          LD      H,(IX-01h)
4D9F: E5                                PUSH    HL
4DA0: DD 6E FC                          LD      L,(IX-04h)
4DA3: DD 66 FD                          LD      H,(IX-03h)
4DA6: E5                                PUSH    HL
4DA7: DD 6E ED                          LD      L,(IX-13h)
4DAA: DD 66 EE                          LD      H,(IX-12h)
4DAD: E5                                PUSH    HL
4DAE: CD BC 25                          CALL    L25BC
4DB1: FD 21 0A 00                       LD      IY,000Ah
4DB5: FD 39                             ADD     IY,SP
4DB7: FD F9                             LD      SP,IY
4DB9: DD 75 FB                          LD      (IX-05h),L
4DBC: 7D                                LD      A,L
4DBD: B7                                OR      A
4DBE: 20 3F                             JR      NZ,L4DFF
4DC0: DD 7E 09                          LD      A,(IX+09h)
4DC3: DD B6 08                          OR      (IX+08h)
4DC6: DD B6 07                          OR      (IX+07h)
4DC9: DD B6 06                          OR      (IX+06h)
4DCC: 28 31                             JR      Z,L4DFF
4DCE: DD 6E FE                          LD      L,(IX-02h)
4DD1: DD 66 FF                          LD      H,(IX-01h)
4DD4: E5                                PUSH    HL
4DD5: DD 6E FC                          LD      L,(IX-04h)
4DD8: DD 66 FD                          LD      H,(IX-03h)
4DDB: E5                                PUSH    HL
4DDC: DD 6E 08                          LD      L,(IX+08h)
4DDF: DD 66 09                          LD      H,(IX+09h)
4DE2: E5                                PUSH    HL
4DE3: DD 6E 06                          LD      L,(IX+06h)
4DE6: DD 66 07                          LD      H,(IX+07h)
4DE9: E5                                PUSH    HL
4DEA: DD 6E ED                          LD      L,(IX-13h)
4DED: DD 66 EE                          LD      H,(IX-12h)
4DF0: E5                                PUSH    HL
4DF1: CD BC 25                          CALL    L25BC
4DF4: FD 21 0A 00                       LD      IY,000Ah
4DF8: FD 39                             ADD     IY,SP
4DFA: FD F9                             LD      SP,IY
4DFC: DD 75 FB                          LD      (IX-05h),L
4DFF: DD 7E FB                   L4DFF: LD      A,(IX-05h)
4E02: B7                                OR      A
4E03: C2 B0 4E                          JP      NZ,L4EB0
4E06: DD 5E EF                          LD      E,(IX-11h)
4E09: DD 56 F0                          LD      D,(IX-10h)
4E0C: 21 13 00                          LD      HL,0013h
4E0F: 39                                ADD     HL,SP
4E10: 01 04 00                          LD      BC,0004h
4E13: ED B0                             LDIR
4E15: DD 5E F7                          LD      E,(IX-09h)
4E18: DD 56 F8                          LD      D,(IX-08h)
4E1B: 21 00 00                          LD      HL,0000h
4E1E: 39                                ADD     HL,SP
4E1F: EB                                EX      DE,HL
4E20: 01 04 00                          LD      BC,0004h
4E23: ED B0                             LDIR
4E25: DD 5E F1                          LD      E,(IX-0Fh)
4E28: DD 56 F2                          LD      D,(IX-0Eh)
4E2B: 21 0A 00                          LD      HL,000Ah
4E2E: 39                                ADD     HL,SP
4E2F: EB                                EX      DE,HL
4E30: 01 04 00                          LD      BC,0004h
4E33: ED B0                             LDIR
4E35: DD 7E F3                          LD      A,(IX-0Dh)
4E38: C6 FE                             ADD     A,0FEh
4E3A: DD 77 EF                          LD      (IX-11h),A
4E3D: DD 7E F4                          LD      A,(IX-0Ch)
4E40: CE FF                             ADC     A,0FFh
4E42: DD 77 F0                          LD      (IX-10h),A
4E45: DD 7E F5                          LD      A,(IX-0Bh)
4E48: CE FF                             ADC     A,0FFh
4E4A: DD 77 F1                          LD      (IX-0Fh),A
4E4D: DD 7E F6                          LD      A,(IX-0Ah)
4E50: CE FF                             ADC     A,0FFh
4E52: DD 77 F2                          LD      (IX-0Eh),A
4E55: DD 7E EF                          LD      A,(IX-11h)
4E58: DD 96 E9                          SUB     (IX-17h)
4E5B: DD 7E F0                          LD      A,(IX-10h)
4E5E: DD 9E EA                          SBC     A,(IX-16h)
4E61: DD 7E F1                          LD      A,(IX-0Fh)
4E64: DD 9E EB                          SBC     A,(IX-15h)
4E67: DD 7E F2                          LD      A,(IX-0Eh)
4E6A: DD 9E EC                          SBC     A,(IX-14h)
4E6D: 38 2F                             JR      C,L4E9E
4E6F: DD 7E E9                          LD      A,(IX-17h)
4E72: C6 FF                             ADD     A,0FFh
4E74: DD 77 F3                          LD      (IX-0Dh),A
4E77: DD 7E EA                          LD      A,(IX-16h)
4E7A: CE FF                             ADC     A,0FFh
4E7C: DD 77 F4                          LD      (IX-0Ch),A
4E7F: DD 7E EB                          LD      A,(IX-15h)
4E82: CE FF                             ADC     A,0FFh
4E84: DD 77 F5                          LD      (IX-0Bh),A
4E87: DD 7E EC                          LD      A,(IX-14h)
4E8A: CE FF                             ADC     A,0FFh
4E8C: DD 77 F6                          LD      (IX-0Ah),A
4E8F: DD 5E F7                          LD      E,(IX-09h)
4E92: DD 56 F8                          LD      D,(IX-08h)
4E95: 21 0A 00                          LD      HL,000Ah
4E98: 39                                ADD     HL,SP
4E99: 01 04 00                          LD      BC,0004h
4E9C: ED B0                             LDIR
4E9E: DD 7E ED                   L4E9E: LD      A,(IX-13h)
4EA1: C6 04                             ADD     A,04h
4EA3: 4F                                LD      C,A
4EA4: DD 7E EE                          LD      A,(IX-12h)
4EA7: CE 00                             ADC     A,00h
4EA9: 47                                LD      B,A
4EAA: 0A                                LD      A,(BC)
4EAB: CB C7                             SET     0,A
4EAD: 02                                LD      (BC),A
4EAE: 18 26                             JR      L4ED6

4EB0: DD 7E FB                   L4EB0: LD      A,(IX-05h)
4EB3: 3D                                DEC     A
4EB4: 20 12                             JR      NZ,L4EC8
4EB6: DD 36 FC FF                       LD      (IX-04h),0FFh
4EBA: DD 36 FD FF                       LD      (IX-03h),0FFh
4EBE: DD 36 FE FF                       LD      (IX-02h),0FFh
4EC2: DD 36 FF FF                       LD      (IX-01h),0FFh
4EC6: 18 0E                             JR      L4ED6

4EC8: DD 36 FC 01                L4EC8: LD      (IX-04h),01h
4ECC: AF                                XOR     A
4ECD: DD 77 FD                          LD      (IX-03h),A
4ED0: DD 77 FE                          LD      (IX-02h),A
4ED3: DD 77 FF                          LD      (IX-01h),A
4ED6: DD 6E FC                   L4ED6: LD      L,(IX-04h)
4ED9: DD 66 FD                          LD      H,(IX-03h)
4EDC: DD 5E FE                          LD      E,(IX-02h)
4EDF: DD 56 FF                          LD      D,(IX-01h)
4EE2: DD F9                      L4EE2: LD      SP,IX
4EE4: DD E1                             POP     IX
4EE6: C9                                RET

                                        ; --- START PROC L4EE7 ---
4EE7: DD E5                      L4EE7: PUSH    IX
4EE9: DD 21 00 00                       LD      IX,0000h
4EED: DD 39                             ADD     IX,SP
4EEF: 21 F8 FF                          LD      HL,0FFF8h
4EF2: 39                                ADD     HL,SP
4EF3: F9                                LD      SP,HL
4EF4: 21 0C 00                          LD      HL,000Ch
4EF7: 39                                ADD     HL,SP
4EF8: EB                                EX      DE,HL
4EF9: 4B                                LD      C,E
4EFA: 42                                LD      B,D
4EFB: 03                                INC     BC
4EFC: 03                                INC     BC
4EFD: DD 71 FE                          LD      (IX-02h),C
4F00: DD 70 FF                          LD      (IX-01h),B
4F03: 6B                                LD      L,E
4F04: 62                                LD      H,D
4F05: 23                                INC     HL
4F06: 23                                INC     HL
4F07: 4E                                LD      C,(HL)
4F08: 23                                INC     HL
4F09: 46                                LD      B,(HL)
4F0A: 21 10 00                          LD      HL,0010h
4F0D: 39                                ADD     HL,SP
4F0E: E3                                EX      (SP),HL
4F0F: E1                                POP     HL
4F10: E5                                PUSH    HL
4F11: 7E                                LD      A,(HL)
4F12: 23                                INC     HL
4F13: 66                                LD      H,(HL)
4F14: 6F                                LD      L,A
4F15: D5                                PUSH    DE
4F16: E5                                PUSH    HL
4F17: C5                                PUSH    BC
4F18: CD 33 3A                          CALL    L3A33
4F1B: F1                                POP     AF
4F1C: F1                                POP     AF
4F1D: 4D                                LD      C,L
4F1E: 44                                LD      B,H
4F1F: D1                                POP     DE
4F20: DD 6E FE                          LD      L,(IX-02h)
4F23: DD 66 FF                          LD      H,(IX-01h)
4F26: 71                                LD      (HL),C
4F27: 23                                INC     HL
4F28: 70                                LD      (HL),B
4F29: 4B                                LD      C,E
4F2A: 42                                LD      B,D
4F2B: 03                                INC     BC
4F2C: 03                                INC     BC
4F2D: DD 71 FC                          LD      (IX-04h),C
4F30: DD 70 FD                          LD      (IX-03h),B
4F33: 6B                                LD      L,E
4F34: 62                                LD      H,D
4F35: 23                                INC     HL
4F36: 23                                INC     HL
4F37: 7E                                LD      A,(HL)
4F38: DD 77 FE                          LD      (IX-02h),A
4F3B: 23                                INC     HL
4F3C: 7E                                LD      A,(HL)
4F3D: DD 77 FF                          LD      (IX-01h),A
4F40: E1                                POP     HL
4F41: E5                                PUSH    HL
4F42: 23                                INC     HL
4F43: 23                                INC     HL
4F44: 4E                                LD      C,(HL)
4F45: 23                                INC     HL
4F46: 46                                LD      B,(HL)
4F47: 6B                                LD      L,E
4F48: 62                                LD      H,D
4F49: 7E                                LD      A,(HL)
4F4A: 23                                INC     HL
4F4B: 66                                LD      H,(HL)
4F4C: 6F                                LD      L,A
4F4D: D5                                PUSH    DE
4F4E: E5                                PUSH    HL
4F4F: C5                                PUSH    BC
4F50: CD 33 3A                          CALL    L3A33
4F53: F1                                POP     AF
4F54: F1                                POP     AF
4F55: D1                                POP     DE
4F56: DD 7E FE                          LD      A,(IX-02h)
4F59: 85                                ADD     A,L
4F5A: 4F                                LD      C,A
4F5B: DD 7E FF                          LD      A,(IX-01h)
4F5E: 8C                                ADC     A,H
4F5F: 47                                LD      B,A
4F60: DD 6E FC                          LD      L,(IX-04h)
4F63: DD 66 FD                          LD      H,(IX-03h)
4F66: 71                                LD      (HL),C
4F67: 23                                INC     HL
4F68: 70                                LD      (HL),B
4F69: 4B                                LD      C,E
4F6A: 42                                LD      B,D
4F6B: 03                                INC     BC
4F6C: 03                                INC     BC
4F6D: DD 71 FD                          LD      (IX-03h),C
4F70: DD 70 FE                          LD      (IX-02h),B
4F73: 6B                                LD      L,E
4F74: 62                                LD      H,D
4F75: 23                                INC     HL
4F76: 23                                INC     HL
4F77: 4E                                LD      C,(HL)
4F78: 23                                INC     HL
4F79: 46                                LD      B,(HL)
4F7A: 6B                                LD      L,E
4F7B: 62                                LD      H,D
4F7C: 23                                INC     HL
4F7D: 7E                                LD      A,(HL)
4F7E: DD 77 FF                          LD      (IX-01h),A
4F81: E1                                POP     HL
4F82: E5                                PUSH    HL
4F83: 23                                INC     HL
4F84: 66                                LD      H,(HL)
4F85: D5                                PUSH    DE
4F86: C5                                PUSH    BC
4F87: DD 5E FF                          LD      E,(IX-01h)
4F8A: 2E 00                             LD      L,00h
4F8C: 55                                LD      D,L
4F8D: 06 08                             LD      B,08h
4F8F: 29                         L4F8F: ADD     HL,HL
4F90: 30 01                             JR      NC,L4F93
4F92: 19                                ADD     HL,DE
4F93: 10 FA                      L4F93: DJNZ    L4F8F
4F95: C1                                POP     BC
4F96: D1                                POP     DE
4F97: 09                                ADD     HL,BC
4F98: 4D                                LD      C,L
4F99: 44                                LD      B,H
4F9A: DD 6E FD                          LD      L,(IX-03h)
4F9D: DD 66 FE                          LD      H,(IX-02h)
4FA0: 71                                LD      (HL),C
4FA1: 23                                INC     HL
4FA2: 70                                LD      (HL),B
4FA3: E1                                POP     HL
4FA4: E5                                PUSH    HL
4FA5: 4E                                LD      C,(HL)
4FA6: 6B                                LD      L,E
4FA7: 62                                LD      H,D
4FA8: 23                                INC     HL
4FA9: 66                                LD      H,(HL)
4FAA: D5                                PUSH    DE
4FAB: 59                                LD      E,C
4FAC: 2E 00                             LD      L,00h
4FAE: 55                                LD      D,L
4FAF: 06 08                             LD      B,08h
4FB1: 29                         L4FB1: ADD     HL,HL
4FB2: 30 01                             JR      NC,L4FB5
4FB4: 19                                ADD     HL,DE
4FB5: 10 FA                      L4FB5: DJNZ    L4FB1
4FB7: D1                                POP     DE
4FB8: DD 75 FA                          LD      (IX-06h),L
4FBB: DD 74 FB                          LD      (IX-05h),H
4FBE: C1                                POP     BC
4FBF: C5                                PUSH    BC
4FC0: 03                                INC     BC
4FC1: DD 71 FE                          LD      (IX-02h),C
4FC4: DD 70 FF                          LD      (IX-01h),B
4FC7: 6B                                LD      L,E
4FC8: 62                                LD      H,D
4FC9: 4E                                LD      C,(HL)
4FCA: E1                                POP     HL
4FCB: E5                                PUSH    HL
4FCC: 23                                INC     HL
4FCD: 66                                LD      H,(HL)
4FCE: D5                                PUSH    DE
4FCF: 59                                LD      E,C
4FD0: 2E 00                             LD      L,00h
4FD2: 55                                LD      D,L
4FD3: 06 08                             LD      B,08h
4FD5: 29                         L4FD5: ADD     HL,HL
4FD6: 30 01                             JR      NC,L4FD9
4FD8: 19                                ADD     HL,DE
4FD9: 10 FA                      L4FD9: DJNZ    L4FD5
4FDB: D1                                POP     DE
4FDC: 4D                                LD      C,L
4FDD: 44                                LD      B,H
4FDE: DD 6E FE                          LD      L,(IX-02h)
4FE1: DD 66 FF                          LD      H,(IX-01h)
4FE4: 71                                LD      (HL),C
4FE5: 23                                INC     HL
4FE6: 70                                LD      (HL),B
4FE7: C1                                POP     BC
4FE8: C5                                PUSH    BC
4FE9: 03                                INC     BC
4FEA: 03                                INC     BC
4FEB: 03                                INC     BC
4FEC: DD 71 FC                          LD      (IX-04h),C
4FEF: DD 70 FD                          LD      (IX-03h),B
4FF2: C1                                POP     BC
4FF3: C5                                PUSH    BC
4FF4: 03                                INC     BC
4FF5: DD 71 FE                          LD      (IX-02h),C
4FF8: DD 70 FF                          LD      (IX-01h),B
4FFB: E1                                POP     HL
4FFC: E5                                PUSH    HL
4FFD: 23                                INC     HL
4FFE: 4E                                LD      C,(HL)
4FFF: 23                                INC     HL
5000: 46                                LD      B,(HL)
5001: 79                                LD      A,C
5002: DD 86 FA                          ADD     A,(IX-06h)
5005: 4F                                LD      C,A
5006: 78                                LD      A,B
5007: DD 8E FB                          ADC     A,(IX-05h)
500A: 47                                LD      B,A
500B: DD 6E FE                          LD      L,(IX-02h)
500E: DD 66 FF                          LD      H,(IX-01h)
5011: 71                                LD      (HL),C
5012: 23                                INC     HL
5013: 70                                LD      (HL),B
5014: 79                                LD      A,C
5015: DD 96 FA                          SUB     (IX-06h)
5018: 78                                LD      A,B
5019: DD 9E FB                          SBC     A,(IX-05h)
501C: 3E 00                             LD      A,00h
501E: 17                                RLA
501F: DD 6E FC                          LD      L,(IX-04h)
5022: DD 66 FD                          LD      H,(IX-03h)
5025: 77                                LD      (HL),A
5026: 4B                                LD      C,E
5027: 42                                LD      B,D
5028: 1A                                LD      A,(DE)
5029: 5F                                LD      E,A
502A: E1                                POP     HL
502B: E5                                PUSH    HL
502C: 66                                LD      H,(HL)
502D: C5                                PUSH    BC
502E: 2E 00                             LD      L,00h
5030: 55                                LD      D,L
5031: 06 08                             LD      B,08h
5033: 29                         L5033: ADD     HL,HL
5034: 30 01                             JR      NC,L5037
5036: 19                                ADD     HL,DE
5037: 10 FA                      L5037: DJNZ    L5033
5039: C1                                POP     BC
503A: EB                                EX      DE,HL
503B: 7B                                LD      A,E
503C: 02                                LD      (BC),A
503D: 03                                INC     BC
503E: 7A                                LD      A,D
503F: 02                                LD      (BC),A
5040: C1                                POP     BC
5041: C5                                PUSH    BC
5042: AF                                XOR     A
5043: 02                                LD      (BC),A
5044: DD 7E 04                          LD      A,(IX+04h)
5047: DD 86 08                          ADD     A,(IX+08h)
504A: 6F                                LD      L,A
504B: DD 7E 05                          LD      A,(IX+05h)
504E: DD 8E 09                          ADC     A,(IX+09h)
5051: 67                                LD      H,A
5052: DD 7E 06                          LD      A,(IX+06h)
5055: DD 8E 0A                          ADC     A,(IX+0Ah)
5058: 5F                                LD      E,A
5059: DD 7E 07                          LD      A,(IX+07h)
505C: DD 8E 0B                          ADC     A,(IX+0Bh)
505F: 57                                LD      D,A
5060: DD F9                             LD      SP,IX
5062: DD E1                             POP     IX
5064: C9                                RET

                                        ; --- START PROC L5065 ---
5065: DD E5                      L5065: PUSH    IX
5067: DD 21 00 00                       LD      IX,0000h
506B: DD 39                             ADD     IX,SP
506D: 3B                                DEC     SP
506E: 01 00 00                          LD      BC,0000h
5071: 11 00 00                          LD      DE,0000h
5074: DD 36 FF 20                       LD      (IX-01h),20h    ; ' '
5078: DD 7E 07                   L5078: LD      A,(IX+07h)
507B: CB 07                             RLC     A
507D: E6 01                             AND     01h
507F: 6F                                LD      L,A
5080: DD CB 04 26                       SLA     (IX+04h)
5084: DD CB 05 16                       RL      (IX+05h)
5088: DD CB 06 16                       RL      (IX+06h)
508C: DD CB 07 16                       RL      (IX+07h)
5090: CB 21                             SLA     C
5092: CB 10                             RL      B
5094: CB 13                             RL      E
5096: CB 12                             RL      D
5098: CB 45                             BIT     0,L
509A: 28 02                             JR      Z,L509E
509C: CB C1                             SET     0,C
509E: 79                         L509E: LD      A,C
509F: DD 96 08                          SUB     (IX+08h)
50A2: 78                                LD      A,B
50A3: DD 9E 09                          SBC     A,(IX+09h)
50A6: 7B                                LD      A,E
50A7: DD 9E 0A                          SBC     A,(IX+0Ah)
50AA: 7A                                LD      A,D
50AB: DD 9E 0B                          SBC     A,(IX+0Bh)
50AE: 38 2E                             JR      C,L50DE
50B0: 79                                LD      A,C
50B1: DD 96 08                          SUB     (IX+08h)
50B4: 4F                                LD      C,A
50B5: 78                                LD      A,B
50B6: DD 9E 09                          SBC     A,(IX+09h)
50B9: 47                                LD      B,A
50BA: 7B                                LD      A,E
50BB: DD 9E 0A                          SBC     A,(IX+0Ah)
50BE: 5F                                LD      E,A
50BF: 7A                                LD      A,D
50C0: DD 9E 0B                          SBC     A,(IX+0Bh)
50C3: 57                                LD      D,A
50C4: DD 7E 04                          LD      A,(IX+04h)
50C7: F6 01                             OR      01h
50C9: DD 77 04                          LD      (IX+04h),A
50CC: DD 7E 05                          LD      A,(IX+05h)
50CF: DD 77 05                          LD      (IX+05h),A
50D2: DD 7E 06                          LD      A,(IX+06h)
50D5: DD 77 06                          LD      (IX+06h),A
50D8: DD 7E 07                          LD      A,(IX+07h)
50DB: DD 77 07                          LD      (IX+07h),A
50DE: DD 35 FF                   L50DE: DEC     (IX-01h)
50E1: DD 7E FF                          LD      A,(IX-01h)
50E4: B7                                OR      A
50E5: 20 91                             JR      NZ,L5078
50E7: DD 6E 04                          LD      L,(IX+04h)
50EA: DD 66 05                          LD      H,(IX+05h)
50ED: DD 5E 06                          LD      E,(IX+06h)
50F0: DD 56 07                          LD      D,(IX+07h)
50F3: 33                                INC     SP
50F4: DD E1                             POP     IX
50F6: C9                                RET

50F7: 0A                         L50F7: DB      0Ah
50F8: 13                                DB      13h

                                        ; --- START PROC L50F9 ---
50F9: 01 02 00                   L50F9: LD      BC,0002h
50FC: 78                                LD      A,B
50FD: B1                                OR      C
50FE: 28 08                             JR      Z,L5108
5100: 11 38 84                          LD      DE,8438h
5103: 21 F7 50                          LD      HL,50F7h
5106: ED B0                             LDIR
                                        ; --- START PROC L5108 ---
5108: C9                         L5108: RET


references to external address 8435h:
        227C LD HL,(8435h)
        2280 LD (8435h),HL
        2283 LD IY,8435h

references to external address 8438h:
        123B LD HL,(8438h)
        12B6 LD HL,(8438h)
        5100 LD DE,8438h

possible references to internal address 0000:
        0112 LD IX,0000h
        015B LD HL,0000h
        01AF LD BC,0000h
        02DD LD HL,0000h
        02EB LD HL,0000h
        02F5 LD IX,0000h
        08E6 LD HL,0000h
        099A LD HL,0000h
        09A7 LD HL,0000h
        0A9B LD HL,0000h
        0ABE LD HL,0000h
        0AC2 LD HL,0000h
        0AE3 LD HL,0000h
        0AE7 LD HL,0000h
        0B2B LD HL,0000h
        0B2F LD HL,0000h
        0F23 LD HL,0000h
        10C0 LD IX,0000h
        116A LD BC,0000h
        11A5 LD DE,0000h
        11D2 LD DE,0000h
        11FE LD DE,0000h
        1279 LD IY,0000h
        128F LD IX,0000h
        1367 LD HL,0000h
        1390 LD DE,0000h
        13D5 LD IX,0000h
        141B LD BC,0000h
        1512 LD HL,0000h
        1583 LD DE,0000h
        176A LD HL,0000h
        1834 LD HL,0000h
        1838 LD HL,0000h
        19F8 LD HL,0000h
        19FC LD HL,0000h
        1B7C LD HL,0000h
        1C03 LD DE,0000h
        1D2C LD DE,0000h
        1E35 LD DE,0000h
        1E7E LD HL,0000h
        1E93 LD HL,0000h
        208B LD HL,0000h
        2494 LD HL,0000h
        2498 LD HL,0000h
        2672 LD HL,0000h
        273C LD HL,0000h
        28FF LD HL,0000h
        2D82 LD DE,0000h
        2DDF LD IX,0000h
        2E35 LD IX,0000h
        2EC5 LD IX,0000h
        3508 LD HL,0000h
        3608 LD HL,0000h
        365C LD HL,0000h
        3B3A LD HL,0000h
        3B3E LD HL,0000h
        3BDF LD HL,0000h
        3C32 LD HL,0000h
        3D74 LD HL,0000h
        3D84 LD BC,0000h
        3DF7 LD HL,0000h
        3E26 LD HL,0000h
        3E2A LD HL,0000h
        3E53 LD HL,0000h
        3E75 LD DE,0000h
        3EDB LD DE,0000h
        4135 LD HL,0000h
        4627 LD HL,0000h
        4694 LD DE,0000h
        475B LD HL,0000h
        491D LD HL,0000h
        49C4 LD HL,0000h
        49E0 LD HL,0000h
        4AFA LD DE,0000h
        4B88 LD HL,0000h
        4D2C LD HL,0000h
        4D89 LD HL,0000h
        4E1B LD HL,0000h
        4EE9 LD IX,0000h
        5067 LD IX,0000h
        506E LD BC,0000h
        5071 LD DE,0000h

possible references to internal address 0001:
        067B LD HL,0001h
        07BB LD HL,0001h
        0801 LD HL,0001h
        0ED4 LD HL,0001h
        0FD7 LD HL,0001h
        1A87 LD HL,0001h
        2346 LD HL,0001h
        2994 LD HL,0001h
        29A4 LD HL,0001h
        2A75 LD HL,0001h
        3C86 LD HL,0001h
        3DC6 LD HL,0001h
        3DDC LD HL,0001h
        3DF2 LD HL,0001h
        4607 LD HL,0001h
        4623 LD HL,0001h
        4716 LD HL,0001h
        4760 LD HL,0001h
        478B LD HL,0001h
        48F0 LD HL,0001h
        4AF7 LD HL,0001h

possible references to internal address 0002:
        02E1 LD HL,0002h
        02EF LD HL,0002h
        121A LD IY,0002h
        1243 LD HL,0002h
        1253 LD IY,0002h
        12F6 LD HL,0002h
        2D9D LD IY,0002h
        45F3 LD IY,0002h
        460F LD IY,0002h
        49E5 LD HL,0002h
        50F9 LD BC,0002h

possible references to internal address 0003:
        208F LD HL,0003h
        2EB5 LD HL,0003h
        3F28 LD DE,0003h
        4994 LD HL,0003h
        49B0 LD DE,0003h

possible references to internal address 0004:
        0309 LD BC,0004h
        03AD LD HL,0004h
        044E LD BC,0004h
        04E8 LD BC,0004h
        05E2 LD BC,0004h
        070A LD BC,0004h
        0842 LD BC,0004h
        0852 LD BC,0004h
        08DF LD BC,0004h
        0909 LD BC,0004h
        0D93 LD BC,0004h
        0DA3 LD BC,0004h
        0E54 LD BC,0004h
        10CB LD HL,0004h
        1506 LD BC,0004h
        1576 LD BC,0004h
        164A LD BC,0004h
        16BF LD BC,0004h
        175A LD HL,0004h
        176F LD HL,0004h
        17F0 LD BC,0004h
        1944 LD BC,0004h
        1DF2 LD BC,0004h
        1EE7 LD BC,0004h
        1F23 LD BC,0004h
        1F5E LD BC,0004h
        1FD6 LD BC,0004h
        2048 LD BC,0004h
        2058 LD BC,0004h
        20E1 LD BC,0004h
        22B6 LD HL,0004h
        2309 LD BC,0004h
        2388 LD BC,0004h
        23D0 LD BC,0004h
        24D2 LD BC,0004h
        2534 LD BC,0004h
        253A LD HL,0004h
        254A LD BC,0004h
        2664 LD BC,0004h
        272E LD BC,0004h
        27DA LD BC,0004h
        2864 LD BC,0004h
        2983 LD BC,0004h
        29E2 LD BC,0004h
        2D7D LD DE,0004h
        2E4C LD BC,0004h
        2E52 LD HL,0004h
        2EB9 LD BC,0004h
        3420 LD BC,0004h
        342F LD BC,0004h
        34F2 LD HL,0004h
        34F6 LD BC,0004h
        350D LD BC,0004h
        352A LD HL,0004h
        352E LD BC,0004h
        3578 LD HL,0004h
        357D LD BC,0004h
        3588 LD HL,0004h
        358C LD BC,0004h
        35F3 LD HL,0004h
        35F7 LD BC,0004h
        360D LD BC,0004h
        362C LD HL,0004h
        3630 LD BC,0004h
        3646 LD HL,0004h
        364B LD BC,0004h
        3661 LD BC,0004h
        368B LD HL,0004h
        368F LD BC,0004h
        3E08 LD IY,0004h
        3EBA LD BC,0004h
        3EF4 LD BC,0004h
        3FE0 LD BC,0004h
        405C LD BC,0004h
        422B LD BC,0004h
        431A LD BC,0004h
        437C LD BC,0004h
        4531 LD BC,0004h
        467E LD BC,0004h
        479B LD HL,0004h
        48E3 LD BC,0004h
        4976 LD HL,0004h
        4A5D LD BC,0004h
        4A7B LD BC,0004h
        4ADC LD BC,0004h
        4B29 LD BC,0004h
        4B60 LD BC,0004h
        4C4F LD BC,0004h
        4C92 LD BC,0004h
        4CBC LD BC,0004h
        4E10 LD BC,0004h
        4E20 LD BC,0004h
        4E30 LD BC,0004h
        4E99 LD BC,0004h

possible references to internal address 0005:
        0CAE LD DE,0005h
        2304 LD HL,0005h
        2E47 LD HL,0005h
        49CD LD BC,0005h

possible references to internal address 0006:
        01A1 LD HL,0006h
        0206 LD HL,0006h
        0236 LD HL,0006h
        0300 LD HL,0006h
        0368 LD HL,0006h
        0542 LD DE,0006h
        126C LD HL,0006h
        1811 LD HL,0006h
        1EE3 LD HL,0006h
        22AF LD HL,0006h
        2546 LD HL,0006h
        2DBE LD IY,0006h
        2E08 LD HL,0006h
        2E2B LD HL,0006h
        3351 LD HL,0006h
        3379 LD HL,0006h
        397A LD HL,0006h
        3CFC LD BC,0006h
        4227 LD HL,0006h
        4331 LD DE,0006h
        4377 LD HL,0006h
        452D LD HL,0006h
        467A LD HL,0006h

possible references to internal address 0007:
        29DD LD HL,0007h
        408F LD BC,0007h
        43BF LD BC,0007h

possible references to internal address 0008:
        10C6 LD HL,0008h
        2ED7 LD HL,0008h
        2EEB LD HL,0008h
        3173 LD HL,0008h
        32E0 LD HL,0008h
        33DF LD HL,0008h
        3434 LD HL,0008h
        34AE LD HL,0008h
        353C LD HL,0008h
        3594 LD HL,0008h
        363B LD HL,0008h

possible references to internal address 0009:
        0699 LD DE,0009h
        06D9 LD IY,0009h
        07D0 LD IY,0009h
        081F LD IY,0009h
        0D66 LD DE,0009h
        0EE9 LD IY,0009h
        1389 LD DE,0009h
        235E LD IY,0009h
        29C5 LD IY,0009h
        2A8A LD HL,0009h
        3333 LD HL,0009h
        3CA4 LD IY,0009h
        440E LD DE,0009h
        46B3 LD HL,0009h
        4737 LD IY,0009h
        48DF LD HL,0009h
        4909 LD HL,0009h

possible references to internal address 000A:
        0426 LD DE,000Ah
        0511 LD BC,000Ah
        0B4B LD IY,000Ah
        0F81 LD HL,000Ah
        2420 LD IY,000Ah
        24AE LD IY,000Ah
        2729 LD HL,000Ah
        3D40 LD DE,000Ah
        40E2 LD BC,000Ah
        4A58 LD HL,000Ah
        4B57 LD HL,000Ah
        4C89 LD HL,000Ah
        4CB8 LD HL,000Ah
        4DB1 LD IY,000Ah
        4DF4 LD IY,000Ah
        4E2B LD HL,000Ah
        4E95 LD HL,000Ah

possible references to internal address 000B:
        0AAF LD HL,000Bh
        0B74 LD HL,000Bh
        104C LD HL,000Bh
        2AC8 LD HL,000Bh
        3BAB LD BC,000Bh
        3BBB LD DE,000Bh
        3BCF LD HL,000Bh
        3CF3 LD HL,000Bh
        4866 LD BC,000Bh

possible references to internal address 000C:
        0F97 LD HL,000Ch
        1501 LD HL,000Ch
        1571 LD HL,000Ch
        1645 LD HL,000Ch
        16BA LD HL,000Ch
        24CD LD HL,000Ch
        265F LD HL,000Ch
        36AB LD HL,000Ch
        4EF4 LD HL,000Ch

possible references to internal address 000D:
        1CB6 LD DE,000Dh
        2384 LD HL,000Dh

possible references to internal address 000E:
        018D LD BC,000Eh
        0A92 LD HL,000Eh
        17EC LD HL,000Eh
        18DF LD BC,000Eh
        1940 LD HL,000Eh
        27D5 LD HL,000Eh
        285F LD HL,000Eh
        297E LD HL,000Eh
        3C4B LD HL,000Eh

possible references to internal address 000F:
        24BC LD HL,000Fh
        4822 LD BC,000Fh
        4AD3 LD HL,000Fh

possible references to internal address 0010:
        1C53 LD BC,0010h
        2530 LD HL,0010h
        4F0A LD HL,0010h

possible references to internal address 0011:
        0305 LD HL,0011h

possible references to internal address 0012:
        23CB LD HL,0012h
        2EE1 LD HL,0012h
        3D80 LD HL,0012h
        4057 LD HL,0012h

possible references to internal address 0013:
        17CC LD BC,0013h
        4A76 LD HL,0013h
        4AD8 LD HL,0013h
        4B24 LD HL,0013h
        4C4A LD HL,0013h
        4C8E LD HL,0013h
        4CB3 LD HL,0013h
        4E0C LD HL,0013h

possible references to internal address 0014:
        056D LD DE,0014h
        05ED LD DE,0014h
        1849 LD HL,0014h

possible references to internal address 0016:
        0FEA LD DE,0016h
        1A2E LD DE,0016h
        3B61 LD DE,0016h
        3D6A LD HL,0016h
        3EEF LD HL,0016h
        3FDB LD HL,0016h

possible references to internal address 0017:
        1338 LD DE,0017h
        147A LD DE,0017h
        23C4 LD HL,0017h
        25ED LD DE,0017h
        4154 LD BC,0017h
        44AE LD DE,0017h

possible references to internal address 0018:
        1FD2 LD HL,0018h
        2044 LD HL,0018h
        2053 LD HL,0018h
        3C60 LD BC,0018h
        4316 LD HL,0018h

possible references to internal address 001A:
        100D LD HL,001Ah
        1A55 LD DE,001Ah
        2541 LD HL,001Ah
        3EB6 LD HL,001Ah

possible references to internal address 001B:
        2A15 LD DE,001Bh

possible references to internal address 001C:
        0ADE LD HL,001Ch
        0C79 LD HL,001Ch
        1038 LD HL,001Ch
        1DE9 LD HL,001Ch
        2ABB LD HL,001Ch
        3CC6 LD BC,001Ch

possible references to internal address 001D:
        4B5C LD HL,001Dh

possible references to internal address 001E:
        083E LD HL,001Eh

possible references to internal address 001F:
        20DC LD HL,001Fh
        48B3 LD BC,001Fh

possible references to internal address 0020:
        1022 LD HL,0020h
        2BA2 LD DE,0020h
        3CEC LD BC,0020h

possible references to internal address 0022:
        1F1F LD HL,0022h
        1F5A LD HL,0022h
        3C77 LD HL,0022h

possible references to internal address 0023:
        29EA LD DE,0023h

possible references to internal address 0024:
        1DEE LD HL,0024h
        2B9D LD DE,0024h

possible references to internal address 0026:
        04E3 LD HL,0026h
        05DE LD HL,0026h
        084D LD HL,0026h
        08DA LD HL,0026h
        0905 LD HL,0026h

possible references to internal address 0027:
        09CD LD DE,0027h
        182E LD HL,0027h
        186C LD HL,0027h

possible references to internal address 0028:
        0705 LD HL,0028h

possible references to internal address 002A:
        0449 LD HL,002Ah
        096C LD HL,002Ah

possible references to internal address 002B:
        1370 LD DE,002Bh

possible references to internal address 002F:
        0B12 LD DE,002Fh
        0BE6 LD DE,002Fh
        1BAA LD DE,002Fh
        22F3 LD HL,002Fh
        296C LD HL,002Fh
        341B LD HL,002Fh
        342B LD HL,002Fh
        4674 LD HL,002Fh
        48A7 LD HL,002Fh
        494B LD HL,002Fh

possible references to internal address 0033:
        233D LD HL,0033h
        298A LD HL,0033h
        4684 LD HL,0033h
        47AA LD HL,0033h
        499A LD DE,0033h

possible references to internal address 0039:
        0D8E LD HL,0039h
        0E50 LD HL,0039h

possible references to internal address 003D:
        0D9E LD HL,003Dh

possible references to internal address 0047:
        0971 LD HL,0047h

possible references to internal address 0069:
        49AB LD HL,0069h

possible references to internal address 0085:
        49C9 LD HL,0085h

possible references to internal address 0092:
        124B LD BC,0092h

possible references to internal address 01C6:
        3E8A LD DE,01C6h

possible references to internal address 0200:
        01DE LD HL,0200h
        0767 LD DE,0200h
        0D2A LD HL,0200h
        4690 LD DE,0200h
        47B7 LD HL,0200h

possible references to internal address 0217:
        47FC LD HL,0217h

possible references to internal address 021B:
        483A LD HL,021Bh

possible references to internal address 021F:
        487E LD HL,021Fh

possible references to internal address 0222:
        01BF LD HL,0222h

possible references to internal address 0231:
        47CD LD HL,0231h
        497D LD HL,0231h

possible references to internal address 0248:
        012F LD HL,0248h

possible references to internal address 024A:
        011D LD HL,024Ah

possible references to internal address 0262:
        0124 LD HL,0262h

possible references to internal address 0276:
        0141 LD HL,0276h
        0176 LD HL,0276h

possible references to internal address 027F:
        014C LD HL,027Fh
        0182 LD HL,027Fh

possible references to internal address 0284:
        0153 LD HL,0284h

possible references to internal address 029A:
        0166 LD HL,029Ah

possible references to internal address 02A8:
        0196 LD HL,02A8h

possible references to internal address 02B2:
        01FB LD HL,02B2h

possible references to internal address 02C3:
        022B LD HL,02C3h

possible references to internal address 0490:
        12FA LD BC,0490h

possible references to internal address 0FFF:
        1E69 LD HL,0FFFh

possible references to internal address 106C:
        10D8 LD HL,106Ch

possible references to internal address 1300:
        45EF LD HL,1300h

possible references to internal address 1302:
        460B LD HL,1302h

possible references to internal address 1304:
        3DB5 LD HL,1304h

possible references to internal address 1306:
        3DCB LD HL,1306h

possible references to internal address 1308:
        3DE1 LD HL,1308h

possible references to internal address 2D8E:
        2CF2 LD HL,2D8Eh

possible references to internal address 4161:
        47EB LD HL,4161h

possible references to internal address 49F7:
        49B4 LD DE,49F7h

possible references to internal address 49FB:
        49D1 LD BC,49FBh

possible references to internal address 5021:
        0A97 LD HL,5021h
        3D70 LD HL,5021h

possible references to internal address 50F7:
        5103 LD HL,50F7h

possible references to external address 5252h:
        47EF LD HL,5252h

possible references to external address 6141h:
        4808 LD HL,6141h

possible references to external address 7272h:
        480C LD HL,7272h

possible references to external address 8000h:
        019A LD HL,8000h
        01A6 LD HL,8000h
        01E2 LD HL,8000h
        01FF LD HL,8000h
        020B LD HL,8000h
        022F LD HL,8000h
        023B LD HL,8000h

possible references to external address 8200h:
        0133 LD HL,8200h

possible references to external address 8433h:
        0F3D LD BC,8433h
        1AEB LD BC,8433h

possible references to external address 8435h:
        2283 LD IY,8435h
        ----------
        227C LD HL,(8435h)
        2280 LD (8435h),HL

possible references to external address 8437h:
        3B14 LD IY,8437h

possible references to external address 8438h:
        5100 LD DE,8438h
        ----------
        123B LD HL,(8438h)
        12B6 LD HL,(8438h)

possible references to external address 0AA55h:
        47D9 LD HL,0AA55h

possible references to external address 0F000h:
        0104 LD SP,0F000h

possible references to external address 0FDD6h:
        0118 LD HL,0FDD6h

possible references to external address 0FFBFh:
        0952 LD HL,0FFBFh

possible references to external address 0FFCDh:
        2ECB LD HL,0FFCDh

possible references to external address 0FFD4h:
        0386 LD HL,0FFD4h

possible references to external address 0FFDCh:
        1AB4 LD HL,0FFDCh

possible references to external address 0FFE6h:
        3E21 LD HL,0FFE6h
        3F58 LD HL,0FFE6h

possible references to external address 0FFE9h:
        4A04 LD HL,0FFE9h

possible references to external address 0FFEDh:
        462E LD HL,0FFEDh

possible references to external address 0FFEEh:
        2398 LD HL,0FFEEh
        42CA LD HL,0FFEEh

possible references to external address 0FFEFh:
        2953 LD HL,0FFEFh

possible references to external address 0FFF0h:
        144E LD HL,0FFF0h
        25BF LD HL,0FFF0h

possible references to external address 0FFF2h:
        178E LD HL,0FFF2h
        2AA0 LD HL,0FFF2h

possible references to external address 0FFF5h:
        476B LD HL,0FFF5h

possible references to external address 0FFF6h:
        02FB LD HL,0FFF6h
        3A50 LD HL,0FFF6h
        3C2D LD HL,0FFF6h

possible references to external address 0FFF7h:
        19D8 LD HL,0FFF7h

possible references to external address 0FFF8h:
        4EEF LD HL,0FFF8h

possible references to external address 0FFF9h:
        2E3B LD HL,0FFF9h

possible references to external address 0FFFFh:
        13CC LD HL,0FFFFh
        2406 LD HL,0FFFFh
        240A LD HL,0FFFFh
        3A55 LD HL,0FFFFh
        3A7E LD HL,0FFFFh
        4D91 LD HL,0FFFFh
        4D95 LD HL,0FFFFh

references to port 80h
        12A1 IN A,(80h)

references to port 91h
        02D2 IN A,(91h)
        02D7 IN A,(91h)
        02E5 IN A,(91h)
        1237 IN A,(91h)
        1235 OUT (91h),A

Procedures (65):
  Proc  Length  References Dependants
  L0000  010F            0          2
  L0110  0138            1          6
  L02D2  0013            2          0
  L02E5  000E            2          0
  L02F3  008A            4          1
  L037D  0003            6          0
  L0380  0003            1          0
  L0383  0595            1          7
  L0918  0037            3          1
  L094F  05C2            1         14
  L0F11  00AF            1          3
  L0FC0  00AC            1          5
  L10BE  0034            3          1
  L10F2  0088            3          2
  L117A  00A0           11          1
  L121A  0029            1          2
  L1243  0010            1          0
  L1253  0026            1          2
  L1279  0014            1          0
  L128D  0052            1          2
  L12DF  0017           10          2
  L12F6  000A            1          0
  L130B  00B8            5          2
  L13C3  000F            2          0
  L13D2  000A           34          0
  L13DC  006F            3          2
  L144B  030E            8          4
  L1759  0032            1          2
  L178B  01CB            1          5
  L1956  007F            9          1
  L19D5  00DC            1          4
  L1AB1  07FA            2         10
  L22AB  0018            5          0
  L22C3  001F           12          1
  L22E2  00B3           15          3
  L2395  01E4            1          3
  L2579  0043            2          2
  L25BC  0394            4          5
  L2950  014D            3          2
  L2A9D  02F1            1          5
  L2D9D  0040            3          1
  L2DDD  0056            2          1
  L2E33  0090            1          0
  L2EC3  0B65            1          5
  L3A33  001A            2          0
  L3A4D  00D5            2          1
  L3B22  00DD            1          5
  L3BFF  002B            5          1
  L3C2A  0187            1          8
  L3DB1  0001           19          0
  L3DB2  004B            1          1
  L3DFD  0021            1          0
  L3E1E  0137            1          3
  L3F55  0323            2          5
  L4278  004F            3          1
  L42C7  0328            3          3
  L45EF  003C            1          0
  L462B  013D            1          5
  L4768  01D3            1          7
  L493B  00B0            2          4
  L4A01  04E6            1          3
  L4EE7  017E            3          1
  L5065  0092            1          0
  L50F9  0010            1          1
  L5108  0001            1          0

Call Graph:
L0000 - Entry Point
  L50F9
    L5108
  L0110
    L12DF
      L13C3
      L128D
        L3DB1
        L1279
    L0F11
      L13D2
      L3A4D
        L13D2
      L1AB1
        L13D2
        L3A4D
          L13D2
        L02E5
        L02D2
        L3E1E
          L13D2
          L493B
            L13D2
            L22E2
              L13D2
              L2950
                L13D2
                L037D
              L02F3
                L1253
                  L121A
                    L12F6
                    L3DB1
                  L1243
            L22C3
              L13D2
            L4278
              L13D2
          L117A
            L13D2
        L22C3
          L13D2
        L117A
          L13D2
        L4EE7
          L3A33
        L5065
        L22E2
          L13D2
          L2950
            L13D2
            L037D
          L02F3
            L1253
              L121A
                L12F6
                L3DB1
              L1243
    L094F
      L13D2
      L1AB1
        L13D2
        L3A4D
          L13D2
        L02E5
        L02D2
        L3E1E
          L13D2
          L493B
            L13D2
            L22E2
              L13D2
              L2950
                L13D2
                L037D
              L02F3
                L1253
                  L121A
                    L12F6
                    L3DB1
                  L1243
            L22C3
              L13D2
            L4278
              L13D2
          L117A
            L13D2
        L22C3
          L13D2
        L117A
          L13D2
        L4EE7
          L3A33
        L5065
        L22E2
          L13D2
          L2950
            L13D2
            L037D
          L02F3
            L1253
              L121A
                L12F6
                L3DB1
              L1243
      L178B
        L13D2
        L42C7
          L13D2
          L144B
            L13D2
            L22E2
              L13D2
              L2950
                L13D2
                L037D
              L02F3
                L1253
                  L121A
                    L12F6
                    L3DB1
                  L1243
            L22C3
              L13D2
            L117A
              L13D2
          L130B
            L13D2
            L4EE7
              L3A33
        L2A9D
          L13D2
          L22AB
          L45EF
          L3DB2
            L13D2
          L3DFD
        L3B22
          L13D2
          L42C7
            L13D2
            L144B
              L13D2
              L22E2
                L13D2
                L2950
                  L13D2
                  L037D
                L02F3
                  L1253
                    L121A
                      L12F6
                      L3DB1
                    L1243
              L22C3
                L13D2
              L117A
                L13D2
            L130B
              L13D2
              L4EE7
                L3A33
          L22E2
            L13D2
            L2950
              L13D2
              L037D
            L02F3
              L1253
                L121A
                  L12F6
                  L3DB1
                L1243
          L4278
            L13D2
          L3F55
            L13D2
            L144B
              L13D2
              L22E2
                L13D2
                L2950
                  L13D2
                  L037D
                L02F3
                  L1253
                    L121A
                      L12F6
                      L3DB1
                    L1243
              L22C3
                L13D2
              L117A
                L13D2
            L4A01
              L13D2
              L144B
                L13D2
                L22E2
                  L13D2
                  L2950
                    L13D2
                    L037D
                  L02F3
                    L1253
                      L121A
                        L12F6
                        L3DB1
                      L1243
                L22C3
                  L13D2
                L117A
                  L13D2
              L25BC
                L13D2
                L22E2
                  L13D2
                  L2950
                    L13D2
                    L037D
                  L02F3
                    L1253
                      L121A
                        L12F6
                        L3DB1
                      L1243
                L3BFF
                  L13D2
                L117A
                  L13D2
                L1956
                  L13D2
            L462B
              L13D2
              L2950
                L13D2
                L037D
              L130B
                L13D2
                L4EE7
                  L3A33
              L22AB
              L037D
            L130B
              L13D2
              L4EE7
                L3A33
        L13DC
          L13D2
          L22C3
            L13D2
      L0FC0
        L13D2
        L19D5
          L13D2
          L42C7
            L13D2
            L144B
              L13D2
              L22E2
                L13D2
                L2950
                  L13D2
                  L037D
                L02F3
                  L1253
                    L121A
                      L12F6
                      L3DB1
                    L1243
              L22C3
                L13D2
              L117A
                L13D2
            L130B
              L13D2
              L4EE7
                L3A33
          L22E2
            L13D2
            L2950
              L13D2
              L037D
            L02F3
              L1253
                L121A
                  L12F6
                  L3DB1
                L1243
          L3F55
            L13D2
            L144B
              L13D2
              L22E2
                L13D2
                L2950
                  L13D2
                  L037D
                L02F3
                  L1253
                    L121A
                      L12F6
                      L3DB1
                    L1243
              L22C3
                L13D2
              L117A
                L13D2
            L4A01
              L13D2
              L144B
                L13D2
                L22E2
                  L13D2
                  L2950
                    L13D2
                    L037D
                  L02F3
                    L1253
                      L121A
                        L12F6
                        L3DB1
                      L1243
                L22C3
                  L13D2
                L117A
                  L13D2
              L25BC
                L13D2
                L22E2
                  L13D2
                  L2950
                    L13D2
                    L037D
                  L02F3
                    L1253
                      L121A
                        L12F6
                        L3DB1
                      L1243
                L3BFF
                  L13D2
                L117A
                  L13D2
                L1956
                  L13D2
            L462B
              L13D2
              L2950
                L13D2
                L037D
              L130B
                L13D2
                L4EE7
                  L3A33
              L22AB
              L037D
            L130B
              L13D2
              L4EE7
                L3A33
        L22E2
          L13D2
          L2950
            L13D2
            L037D
          L02F3
            L1253
              L121A
                L12F6
                L3DB1
              L1243
        L22AB
        L0918
          L13D2
      L13DC
        L13D2
        L22C3
          L13D2
      L1956
        L13D2
      L2579
        L13D2
        L3BFF
          L13D2
      L2395
        L13D2
        L25BC
          L13D2
          L22E2
            L13D2
            L2950
              L13D2
              L037D
            L02F3
              L1253
                L121A
                  L12F6
                  L3DB1
                L1243
          L3BFF
            L13D2
          L117A
            L13D2
          L1956
            L13D2
        L144B
          L13D2
          L22E2
            L13D2
            L2950
              L13D2
              L037D
            L02F3
              L1253
                L121A
                  L12F6
                  L3DB1
                L1243
          L22C3
            L13D2
          L117A
            L13D2
      L22E2
        L13D2
        L2950
          L13D2
          L037D
        L02F3
          L1253
            L121A
              L12F6
              L3DB1
            L1243
      L117A
        L13D2
      L22AB
      L144B
        L13D2
        L22E2
          L13D2
          L2950
            L13D2
            L037D
          L02F3
            L1253
              L121A
                L12F6
                L3DB1
              L1243
        L22C3
          L13D2
        L117A
          L13D2
      L130B
        L13D2
        L4EE7
          L3A33
      L02F3
        L1253
          L121A
            L12F6
            L3DB1
          L1243
    L10BE
      L2EC3
        L3DB1
        L13C3
        L2DDD
          L2D9D
            L3DB1
        L2E33
        L2D9D
          L3DB1
    L0383
      L13D2
      L10F2
        L13D2
        L02E5
      L144B
        L13D2
        L22E2
          L13D2
          L2950
            L13D2
            L037D
          L02F3
            L1253
              L121A
                L12F6
                L3DB1
              L1243
        L22C3
          L13D2
        L117A
          L13D2
      L130B
        L13D2
        L4EE7
          L3A33
      L02F3
        L1253
          L121A
            L12F6
            L3DB1
          L1243
      L0918
        L13D2
      L037D
    L1759
      L3C2A
        L13D2
        L10F2
          L13D2
          L02E5
        L037D
        L22E2
          L13D2
          L2950
            L13D2
            L037D
          L02F3
            L1253
              L121A
                L12F6
                L3DB1
              L1243
        L2579
          L13D2
          L3BFF
            L13D2
        L1956
          L13D2
        L3BFF
          L13D2
        L4768
          L13D2
          L2950
            L13D2
            L037D
          L22AB
          L3BFF
            L13D2
          L1956
            L13D2
          L037D
          L0380
      L10F2
        L13D2
        L02E5
