                                        ; Entry Point
                                        ; --- START PROC L0000 ---
0000: C3 00 01                   L0000: JP      L0100

0003: FF                         L0003: DB      0FFh
0004: FF                                DB      0FFh
0005: FF                                DB      0FFh
0006: FF                                DB      0FFh
0007: FF                                DB      0FFh
0008: ED                                DB      0EDh
0009: 4D                                DB      4Dh     ; 'M'
000A: FF                                DB      0FFh
000B: FF                                DB      0FFh
000C: FF                                DB      0FFh
000D: FF                                DB      0FFh
000E: FF                                DB      0FFh
000F: FF                                DB      0FFh
0010: ED                                DB      0EDh
0011: 4D                                DB      4Dh     ; 'M'
0012: FF                                DB      0FFh
0013: FF                                DB      0FFh
0014: FF                                DB      0FFh
0015: FF                                DB      0FFh
0016: FF                                DB      0FFh
0017: FF                                DB      0FFh
0018: ED                                DB      0EDh
0019: 4D                                DB      4Dh     ; 'M'
001A: FF                                DB      0FFh
001B: FF                                DB      0FFh
001C: FF                                DB      0FFh
001D: FF                                DB      0FFh
001E: FF                                DB      0FFh
001F: FF                                DB      0FFh
0020: ED                                DB      0EDh
0021: 4D                                DB      4Dh     ; 'M'
0022: FF                                DB      0FFh
0023: FF                                DB      0FFh
0024: FF                                DB      0FFh
0025: FF                                DB      0FFh
0026: FF                                DB      0FFh
0027: FF                                DB      0FFh
0028: ED                                DB      0EDh
0029: 4D                                DB      4Dh     ; 'M'
002A: FF                                DB      0FFh
002B: FF                                DB      0FFh
002C: FF                                DB      0FFh
002D: FF                                DB      0FFh
002E: FF                                DB      0FFh
002F: FF                                DB      0FFh
0030: ED                                DB      0EDh
0031: 4D                                DB      4Dh     ; 'M'
0032: FF                                DB      0FFh
0033: FF                                DB      0FFh
0034: FF                                DB      0FFh
0035: FF                                DB      0FFh
0036: FF                                DB      0FFh
0037: FF                                DB      0FFh
0038: ED                                DB      0EDh
0039: 4D                                DB      4Dh     ; 'M'
003A: FF                                DB      0FFh
003B: FF                                DB      0FFh
003C: FF                                DB      0FFh
003D: FF                                DB      0FFh
003E: FF                                DB      0FFh
003F: FF                                DB      0FFh
0040: FF                                DB      0FFh
0041: FF                                DB      0FFh
0042: FF                                DB      0FFh
0043: FF                                DB      0FFh
0044: FF                                DB      0FFh
0045: FF                                DB      0FFh
0046: FF                                DB      0FFh
0047: FF                                DB      0FFh
0048: FF                                DB      0FFh
0049: FF                                DB      0FFh
004A: FF                                DB      0FFh
004B: FF                                DB      0FFh
004C: FF                                DB      0FFh
004D: FF                                DB      0FFh
004E: FF                                DB      0FFh
004F: FF                                DB      0FFh
0050: FF                                DB      0FFh
0051: FF                                DB      0FFh
0052: FF                                DB      0FFh
0053: FF                                DB      0FFh
0054: FF                                DB      0FFh
0055: FF                                DB      0FFh
0056: FF                                DB      0FFh
0057: FF                                DB      0FFh
0058: FF                                DB      0FFh
0059: FF                                DB      0FFh
005A: FF                                DB      0FFh
005B: FF                                DB      0FFh
005C: FF                                DB      0FFh
005D: FF                                DB      0FFh
005E: FF                                DB      0FFh
005F: FF                                DB      0FFh
0060: FF                                DB      0FFh
0061: FF                                DB      0FFh
0062: FF                                DB      0FFh
0063: FF                                DB      0FFh
0064: FF                                DB      0FFh
0065: FF                                DB      0FFh
0066: C3                                DB      0C3h
0067: 10                                DB      10h
0068: 01                                DB      01h
0069: FF                                DB      0FFh
006A: FF                                DB      0FFh
006B: FF                                DB      0FFh
006C: FF                                DB      0FFh
006D: FF                                DB      0FFh
006E: FF                                DB      0FFh
006F: FF                                DB      0FFh
0070: FF                                DB      0FFh
0071: FF                                DB      0FFh
0072: FF                                DB      0FFh
0073: FF                                DB      0FFh
0074: FF                                DB      0FFh
0075: FF                                DB      0FFh
0076: FF                                DB      0FFh
0077: FF                                DB      0FFh
0078: FF                                DB      0FFh
0079: FF                                DB      0FFh
007A: FF                                DB      0FFh
007B: FF                                DB      0FFh
007C: FF                                DB      0FFh
007D: FF                                DB      0FFh
007E: FF                                DB      0FFh
007F: FF                                DB      0FFh
0080: FF                                DB      0FFh
0081: FF                                DB      0FFh
0082: FF                                DB      0FFh
0083: FF                                DB      0FFh
0084: FF                                DB      0FFh
0085: FF                                DB      0FFh
0086: FF                                DB      0FFh
0087: FF                                DB      0FFh
0088: FF                                DB      0FFh
0089: FF                                DB      0FFh
008A: FF                                DB      0FFh
008B: FF                                DB      0FFh
008C: FF                                DB      0FFh
008D: FF                                DB      0FFh
008E: FF                                DB      0FFh
008F: FF                                DB      0FFh
0090: FF                                DB      0FFh
0091: FF                                DB      0FFh
0092: FF                                DB      0FFh
0093: FF                                DB      0FFh
0094: FF                                DB      0FFh
0095: FF                                DB      0FFh
0096: FF                                DB      0FFh
0097: FF                                DB      0FFh
0098: FF                                DB      0FFh
0099: FF                                DB      0FFh
009A: FF                                DB      0FFh
009B: FF                                DB      0FFh
009C: FF                                DB      0FFh
009D: FF                                DB      0FFh
009E: FF                                DB      0FFh
009F: FF                                DB      0FFh
00A0: FF                                DB      0FFh
00A1: FF                                DB      0FFh
00A2: FF                                DB      0FFh
00A3: FF                                DB      0FFh
00A4: FF                                DB      0FFh
00A5: FF                                DB      0FFh
00A6: FF                                DB      0FFh
00A7: FF                                DB      0FFh
00A8: FF                                DB      0FFh
00A9: FF                                DB      0FFh
00AA: FF                                DB      0FFh
00AB: FF                                DB      0FFh
00AC: FF                                DB      0FFh
00AD: FF                                DB      0FFh
00AE: FF                                DB      0FFh
00AF: FF                                DB      0FFh
00B0: FF                                DB      0FFh
00B1: FF                                DB      0FFh
00B2: FF                                DB      0FFh
00B3: FF                                DB      0FFh
00B4: FF                                DB      0FFh
00B5: FF                                DB      0FFh
00B6: FF                                DB      0FFh
00B7: FF                                DB      0FFh
00B8: FF                                DB      0FFh
00B9: FF                                DB      0FFh
00BA: FF                                DB      0FFh
00BB: FF                                DB      0FFh
00BC: FF                                DB      0FFh
00BD: FF                                DB      0FFh
00BE: FF                                DB      0FFh
00BF: FF                                DB      0FFh
00C0: FF                                DB      0FFh
00C1: FF                                DB      0FFh
00C2: FF                                DB      0FFh
00C3: FF                                DB      0FFh
00C4: FF                                DB      0FFh
00C5: FF                                DB      0FFh
00C6: FF                                DB      0FFh
00C7: FF                                DB      0FFh
00C8: FF                                DB      0FFh
00C9: FF                                DB      0FFh
00CA: FF                                DB      0FFh
00CB: FF                                DB      0FFh
00CC: FF                                DB      0FFh
00CD: FF                                DB      0FFh
00CE: FF                                DB      0FFh
00CF: FF                                DB      0FFh
00D0: FF                                DB      0FFh
00D1: FF                                DB      0FFh
00D2: FF                                DB      0FFh
00D3: FF                                DB      0FFh
00D4: FF                                DB      0FFh
00D5: FF                                DB      0FFh
00D6: FF                                DB      0FFh
00D7: FF                                DB      0FFh
00D8: FF                                DB      0FFh
00D9: FF                                DB      0FFh
00DA: FF                                DB      0FFh
00DB: FF                                DB      0FFh
00DC: FF                                DB      0FFh
00DD: FF                                DB      0FFh
00DE: FF                                DB      0FFh
00DF: FF                                DB      0FFh
00E0: FF                                DB      0FFh
00E1: FF                                DB      0FFh
00E2: FF                                DB      0FFh
00E3: FF                                DB      0FFh
00E4: FF                                DB      0FFh
00E5: FF                                DB      0FFh
00E6: FF                                DB      0FFh
00E7: FF                                DB      0FFh
00E8: FF                                DB      0FFh
00E9: FF                                DB      0FFh
00EA: FF                                DB      0FFh
00EB: FF                                DB      0FFh
00EC: FF                                DB      0FFh
00ED: FF                                DB      0FFh
00EE: FF                                DB      0FFh
00EF: FF                                DB      0FFh
00F0: FF                                DB      0FFh
00F1: FF                                DB      0FFh
00F2: FF                                DB      0FFh
00F3: FF                                DB      0FFh
00F4: FF                                DB      0FFh
00F5: FF                                DB      0FFh
00F6: FF                                DB      0FFh
00F7: FF                                DB      0FFh
00F8: FF                                DB      0FFh
00F9: FF                                DB      0FFh
00FA: FF                                DB      0FFh
00FB: FF                                DB      0FFh
00FC: FF                                DB      0FFh
00FD: FF                                DB      0FFh
00FE: FF                                DB      0FFh
00FF: FF                                DB      0FFh

0100: 06 40                      L0100: LD      B,40h   ; '@'
0102: 10 FE                      L0102: DJNZ    L0102
0104: 31 00 80                          LD      SP,8000h
0107: CD F4 50                          CALL    L50F4
010A: CD 12 01                          CALL    L0112
010D: 18 FE                      L010D: JR      L010D

010F: FF                         L010F: DB      0FFh
0110: ED                                DB      0EDh
0111: 45                                DB      45h     ; 'E'

                                        ; --- START PROC L0112 ---
0112: DD E5                      L0112: PUSH    IX
0114: DD 21 00 00                       LD      IX,0000h
0118: DD 39                             ADD     IX,SP
011A: 21 DA FD                          LD      HL,0FDDAh
011D: 39                                ADD     HL,SP
011E: F9                                LD      SP,HL
011F: 21 2C 02                          LD      HL,022Ch
0122: E5                                PUSH    HL
0123: CD DA 12                          CALL    L12DA
0126: 21 45 02                          LD      HL,0245h
0129: E3                                EX      (SP),HL
012A: CD DA 12                          CALL    L12DA
012D: 26 01                             LD      H,01h
012F: E3                                EX      (SP),HL
0130: 33                                INC     SP
0131: 21 2A 02                          LD      HL,022Ah
0134: E5                                PUSH    HL
0135: 21 80 F0                          LD      HL,0F080h
0138: E5                                PUSH    HL
0139: CD 0C 0F                          CALL    L0F0C
013C: F1                                POP     AF
013D: F1                                POP     AF
013E: 33                                INC     SP
013F: 4D                                LD      C,L
0140: 79                                LD      A,C
0141: B7                                OR      A
0142: 28 1E                             JR      Z,L0162
0144: 06 00                             LD      B,00h
0146: C5                                PUSH    BC
0147: 21 59 02                          LD      HL,0259h
014A: E5                                PUSH    HL
014B: 21 00 F0                          LD      HL,0F000h
014E: E5                                PUSH    HL
014F: CD B9 10                          CALL    L10B9
0152: 21 06 00                          LD      HL,0006h
0155: 39                                ADD     HL,SP
0156: F9                                LD      SP,HL
0157: 21 00 F0                          LD      HL,0F000h
015A: E5                                PUSH    HL
015B: CD DA 12                          CALL    L12DA
015E: F1                                POP     AF
015F: C3 25 02                          JP      L0225

0162: 21 67 02                   L0162: LD      HL,0267h
0165: E5                                PUSH    HL
0166: CD DA 12                          CALL    L12DA
0169: 21 6C 02                          LD      HL,026Ch
016C: E3                                EX      (SP),HL
016D: CD DA 12                          CALL    L12DA
0170: F1                                POP     AF
0171: 21 00 00                          LD      HL,0000h
0174: 39                                ADD     HL,SP
0175: DD 75 FE                          LD      (IX-02h),L
0178: DD 74 FF                          LD      (IX-01h),H
017B: 4D                                LD      C,L
017C: 44                                LD      B,H
017D: 3E 01                             LD      A,01h
017F: F5                                PUSH    AF
0180: 33                                INC     SP
0181: 21 84 02                          LD      HL,0284h
0184: E5                                PUSH    HL
0185: C5                                PUSH    BC
0186: CD 4A 09                          CALL    L094A
0189: F1                                POP     AF
018A: F1                                POP     AF
018B: 33                                INC     SP
018C: 7D                                LD      A,L
018D: B7                                OR      A
018E: 28 1E                             JR      Z,L01AE
0190: 4F                                LD      C,A
0191: 06 00                             LD      B,00h
0193: C5                                PUSH    BC
0194: 21 59 02                          LD      HL,0259h
0197: E5                                PUSH    HL
0198: 21 00 F0                          LD      HL,0F000h
019B: E5                                PUSH    HL
019C: CD B9 10                          CALL    L10B9
019F: 21 06 00                          LD      HL,0006h
01A2: 39                                ADD     HL,SP
01A3: F9                                LD      SP,HL
01A4: 21 00 F0                          LD      HL,0F000h
01A7: E5                                PUSH    HL
01A8: CD DA 12                          CALL    L12DA
01AB: F1                                POP     AF
01AC: 18 77                             JR      L0225

01AE: 21 67 02                   L01AE: LD      HL,0267h
01B1: E5                                PUSH    HL
01B2: CD DA 12                          CALL    L12DA
01B5: F1                                POP     AF
01B6: 3E 00                             LD      A,00h
01B8: D3 A1                             OUT     (0A1h),A
01BA: AF                                XOR     A
01BB: DD 77 FC                          LD      (IX-04h),A
01BE: DD 77 FD                          LD      (IX-03h),A
01C1: 21 22 02                          LD      HL,0222h
01C4: 39                                ADD     HL,SP
01C5: EB                                EX      DE,HL
01C6: DD 6E FE                          LD      L,(IX-02h)
01C9: DD 66 FF                          LD      H,(IX-01h)
01CC: 01 0A 00                          LD      BC,000Ah
01CF: 09                                ADD     HL,BC
01D0: 4E                                LD      C,(HL)
01D1: 23                                INC     HL
01D2: 46                                LD      B,(HL)
01D3: DD 6E FE                          LD      L,(IX-02h)
01D6: DD 66 FF                          LD      H,(IX-01h)
01D9: D5                                PUSH    DE
01DA: C5                                PUSH    BC
01DB: 01 00 80                          LD      BC,8000h
01DE: C5                                PUSH    BC
01DF: E5                                PUSH    HL
01E0: CD 7E 03                          CALL    L037E
01E3: 21 08 00                          LD      HL,0008h
01E6: 39                                ADD     HL,SP
01E7: F9                                LD      SP,HL
01E8: DD 4E FE                          LD      C,(IX-02h)
01EB: DD 46 FF                          LD      B,(IX-01h)
01EE: C5                                PUSH    BC
01EF: CD 54 17                          CALL    L1754
01F2: F1                                POP     AF
01F3: 3E 03                             LD      A,03h
01F5: D3 A1                             OUT     (0A1h),A
01F7: DD 4E FC                          LD      C,(IX-04h)
01FA: DD 46 FD                          LD      B,(IX-03h)
01FD: C5                                PUSH    BC
01FE: 21 94 02                          LD      HL,0294h
0201: E5                                PUSH    HL
0202: 21 00 F0                          LD      HL,0F000h
0205: E5                                PUSH    HL
0206: CD B9 10                          CALL    L10B9
0209: 21 06 00                          LD      HL,0006h
020C: 39                                ADD     HL,SP
020D: F9                                LD      SP,HL
020E: 21 00 F0                          LD      HL,0F000h
0211: E5                                PUSH    HL
0212: CD DA 12                          CALL    L12DA
0215: 21 B4 02                          LD      HL,02B4h
0218: E3                                EX      (SP),HL
0219: CD DA 12                          CALL    L12DA
021C: F1                                POP     AF
021D: 3E 01                             LD      A,01h
021F: D3 1C                             OUT     (1Ch),A
0221: 21 00 00                          LD      HL,0000h
0224: E9                                JP      (HL)

0225: DD F9                      L0225: LD      SP,IX
0227: DD E1                             POP     IX
0229: C9                                RET

022A: 30                         L022A: DB      30h     ; '0'
022B: 00                                DB      00h
022C: 2E 2E 2E 6C 61 6E 64 65           DB      "...landed in big80.sys!"
0234: 64 20 69 6E 20 62 69 67
023C: 38 30 2E 73 79 73 21
0243: 0A                                DB      0Ah
0244: 00                                DB      00h
0245: 4D 6F 75 6E 74 69 6E 67           DB      "Mounting SD card..."
024D: 20 53 44 20 63 61 72 64
0255: 2E 2E 2E
0258: 00                                DB      00h
0259: 20 46 41 49 4C 45 44 20           DB      " FAILED (%i)"
0261: 28 25 69 29
0265: 0A                                DB      0Ah
0266: 00                                DB      00h
0267: 20                                DB      20h     ; ' '
0268: 4F                                DB      4Fh     ; 'O'
0269: 4B                                DB      4Bh     ; 'K'
026A: 0A                                DB      0Ah
026B: 00                                DB      00h
026C: 4F 70 65 6E 69 6E 67 20           DB      "Opening level2-a.rom..."
0274: 6C 65 76 65 6C 32 2D 61
027C: 2E 72 6F 6D 2E 2E 2E
0283: 00                                DB      00h
0284: 30 3A 2F 6C 65 76 65 6C           DB      "0:/level2-a.sys"
028C: 32 2D 61 2E 73 79 73
0293: 00                                DB      00h
0294: 62 69 67 2D 38 30 2E 73           DB      "big-80.sys loaded (%lu bytes)."
029C: 79 73 20 6C 6F 61 64 65
02A4: 64 20 28 25 6C 75 20 62
02AC: 79 74 65 73 29 2E
02B2: 0A                                DB      0Ah
02B3: 00                                DB      00h
02B4: 4A 75 6D 70 69 6E 67 20           DB      "Jumping to TRS-80 ROM..."
02BC: 74 6F 20 54 52 53 2D 38
02C4: 30 20 52 4F 4D 2E 2E 2E
02CC: 00                                DB      00h

                                        ; --- START PROC L02CD ---
02CD: DB 91                      L02CD: IN      A,(91h)
02CF: 0F                                RRCA
02D0: 38 FB                             JR      C,L02CD
02D2: DB 91                             IN      A,(91h)
02D4: CB 77                             BIT     6,A
02D6: 28 04                             JR      Z,L02DC
02D8: 21 00 00                          LD      HL,0000h
02DB: C9                                RET

02DC: 21 02 00                   L02DC: LD      HL,0002h
02DF: C9                                RET

                                        ; --- START PROC L02E0 ---
02E0: DB 91                      L02E0: IN      A,(91h)
02E2: CB 77                             BIT     6,A
02E4: 28 04                             JR      Z,L02EA
02E6: 21 00 00                          LD      HL,0000h
02E9: C9                                RET

02EA: 21 02 00                   L02EA: LD      HL,0002h
02ED: C9                                RET

                                        ; --- START PROC L02EE ---
02EE: DD E5                      L02EE: PUSH    IX
02F0: DD 21 00 00                       LD      IX,0000h
02F4: DD 39                             ADD     IX,SP
02F6: 21 F6 FF                          LD      HL,0FFF6h
02F9: 39                                ADD     HL,SP
02FA: F9                                LD      SP,HL
02FB: 21 06 00                          LD      HL,0006h
02FE: 39                                ADD     HL,SP
02FF: EB                                EX      DE,HL
0300: 21 11 00                          LD      HL,0011h
0303: 39                                ADD     HL,SP
0304: 01 04 00                          LD      BC,0004h
0307: ED B0                             LDIR
0309: DD 46 05                          LD      B,(IX+05h)
030C: DD 4E 06                          LD      C,(IX+06h)
030F: DD 5E 0B                          LD      E,(IX+0Bh)
0312: DD 56 0C                          LD      D,(IX+0Ch)
0315: 7A                         L0315: LD      A,D
0316: B3                                OR      E
0317: 28 58                             JR      Z,L0371
0319: DD 70 F6                          LD      (IX-0Ah),B
031C: DD 71 F7                          LD      (IX-09h),C
031F: DD 7E FC                          LD      A,(IX-04h)
0322: DD 77 F8                          LD      (IX-08h),A
0325: DD 7E FD                          LD      A,(IX-03h)
0328: DD 77 F9                          LD      (IX-07h),A
032B: DD 7E FE                          LD      A,(IX-02h)
032E: DD 77 FA                          LD      (IX-06h),A
0331: DD 7E FF                          LD      A,(IX-01h)
0334: DD 77 FB                          LD      (IX-05h),A
0337: DD 34 FC                          INC     (IX-04h)
033A: 20 0D                             JR      NZ,L0349
033C: DD 34 FD                          INC     (IX-03h)
033F: 20 08                             JR      NZ,L0349
0341: DD 34 FE                          INC     (IX-02h)
0344: 20 03                             JR      NZ,L0349
0346: DD 34 FF                          INC     (IX-01h)
0349: C5                         L0349: PUSH    BC
034A: D5                                PUSH    DE
034B: DD 6E F6                          LD      L,(IX-0Ah)
034E: DD 66 F7                          LD      H,(IX-09h)
0351: E5                                PUSH    HL
0352: DD 6E FA                          LD      L,(IX-06h)
0355: DD 66 FB                          LD      H,(IX-05h)
0358: E5                                PUSH    HL
0359: DD 6E F8                          LD      L,(IX-08h)
035C: DD 66 F9                          LD      H,(IX-07h)
035F: E5                                PUSH    HL
0360: CD 4E 12                          CALL    L124E
0363: 21 06 00                          LD      HL,0006h
0366: 39                                ADD     HL,SP
0367: F9                                LD      SP,HL
0368: D1                                POP     DE
0369: C1                                POP     BC
036A: 79                                LD      A,C
036B: C6 02                             ADD     A,02h
036D: 4F                                LD      C,A
036E: 1B                                DEC     DE
036F: 18 A4                             JR      L0315

0371: 2E 00                      L0371: LD      L,00h
0373: DD F9                             LD      SP,IX
0375: DD E1                             POP     IX
0377: C9                                RET

                                        ; --- START PROC L0378 ---
0378: 2E 04                      L0378: LD      L,04h
037A: C9                                RET

                                        ; --- START PROC L037B ---
037B: 2E 04                      L037B: LD      L,04h
037D: C9                                RET

                                        ; --- START PROC L037E ---
037E: CD CD 13                   L037E: CALL    L13CD
0381: 21 D4 FF                          LD      HL,0FFD4h
0384: 39                                ADD     HL,SP
0385: F9                                LD      SP,HL
0386: DD 7E 06                          LD      A,(IX+06h)
0389: DD 77 FE                          LD      (IX-02h),A
038C: DD 7E 07                          LD      A,(IX+07h)
038F: DD 77 FF                          LD      (IX-01h),A
0392: DD 7E 0A                          LD      A,(IX+0Ah)
0395: DD 77 DA                          LD      (IX-26h),A
0398: DD 7E 0B                          LD      A,(IX+0Bh)
039B: DD 77 DB                          LD      (IX-25h),A
039E: DD 6E DA                          LD      L,(IX-26h)
03A1: DD 66 DB                          LD      H,(IX-25h)
03A4: AF                                XOR     A
03A5: 77                                LD      (HL),A
03A6: 23                                INC     HL
03A7: 77                                LD      (HL),A
03A8: 21 04 00                          LD      HL,0004h
03AB: 39                                ADD     HL,SP
03AC: DD 7E 04                          LD      A,(IX+04h)
03AF: DD 77 DC                          LD      (IX-24h),A
03B2: DD 7E 05                          LD      A,(IX+05h)
03B5: DD 77 DD                          LD      (IX-23h),A
03B8: E5                                PUSH    HL
03B9: DD 6E DC                          LD      L,(IX-24h)
03BC: DD 66 DD                          LD      H,(IX-23h)
03BF: E5                                PUSH    HL
03C0: CD ED 10                          CALL    L10ED
03C3: F1                                POP     AF
03C4: F1                                POP     AF
03C5: 4D                                LD      C,L
03C6: DD 71 FD                          LD      (IX-03h),C
03C9: 79                                LD      A,C
03CA: B7                                OR      A
03CB: 20 1D                             JR      NZ,L03EA
03CD: DD 7E DC                          LD      A,(IX-24h)
03D0: C6 0F                             ADD     A,0Fh
03D2: DD 77 DE                          LD      (IX-22h),A
03D5: DD 7E DD                          LD      A,(IX-23h)
03D8: CE 00                             ADC     A,00h
03DA: DD 77 DF                          LD      (IX-21h),A
03DD: DD 6E DE                          LD      L,(IX-22h)
03E0: DD 66 DF                          LD      H,(IX-21h)
03E3: 7E                                LD      A,(HL)
03E4: DD 77 FD                          LD      (IX-03h),A
03E7: B7                                OR      A
03E8: 28 06                             JR      Z,L03F0
03EA: DD 6E FD                   L03EA: LD      L,(IX-03h)
03ED: C3 0E 09                          JP      L090E

03F0: DD 7E DC                   L03F0: LD      A,(IX-24h)
03F3: DD 77 E0                          LD      (IX-20h),A
03F6: DD 7E DD                          LD      A,(IX-23h)
03F9: DD 77 E1                          LD      (IX-1Fh),A
03FC: DD 7E DC                          LD      A,(IX-24h)
03FF: C6 0E                             ADD     A,0Eh
0401: DD 77 E2                          LD      (IX-1Eh),A
0404: DD 7E DD                          LD      A,(IX-23h)
0407: CE 00                             ADC     A,00h
0409: DD 77 E3                          LD      (IX-1Dh),A
040C: DD 6E E2                          LD      L,(IX-1Eh)
040F: DD 66 E3                          LD      H,(IX-1Dh)
0412: 7E                                LD      A,(HL)
0413: 0F                                RRCA
0414: 38 05                             JR      C,L041B
0416: 2E 07                             LD      L,07h
0418: C3 0E 09                          JP      L090E

041B: DD 6E DC                   L041B: LD      L,(IX-24h)
041E: DD 66 DD                          LD      H,(IX-23h)
0421: 11 0A 00                          LD      DE,000Ah
0424: 19                                ADD     HL,DE
0425: 4E                                LD      C,(HL)
0426: 23                                INC     HL
0427: 46                                LD      B,(HL)
0428: 23                                INC     HL
0429: 5E                                LD      E,(HL)
042A: 23                                INC     HL
042B: 56                                LD      D,(HL)
042C: DD 7E DC                          LD      A,(IX-24h)
042F: C6 10                             ADD     A,10h
0431: DD 77 E4                          LD      (IX-1Ch),A
0434: DD 7E DD                          LD      A,(IX-23h)
0437: CE 00                             ADC     A,00h
0439: DD 77 E5                          LD      (IX-1Bh),A
043C: D5                                PUSH    DE
043D: C5                                PUSH    BC
043E: DD 5E E4                          LD      E,(IX-1Ch)
0441: DD 56 E5                          LD      D,(IX-1Bh)
0444: 21 2A 00                          LD      HL,002Ah
0447: 39                                ADD     HL,SP
0448: EB                                EX      DE,HL
0449: 01 04 00                          LD      BC,0004h
044C: ED B0                             LDIR
044E: C1                                POP     BC
044F: D1                                POP     DE
0450: 79                                LD      A,C
0451: DD 96 FA                          SUB     (IX-06h)
0454: 4F                                LD      C,A
0455: 78                                LD      A,B
0456: DD 9E FB                          SBC     A,(IX-05h)
0459: 47                                LD      B,A
045A: 7B                                LD      A,E
045B: DD 9E FC                          SBC     A,(IX-04h)
045E: 5F                                LD      E,A
045F: 7A                                LD      A,D
0460: DD 9E FD                          SBC     A,(IX-03h)
0463: 57                                LD      D,A
0464: DD 7E 08                          LD      A,(IX+08h)
0467: DD 77 FA                          LD      (IX-06h),A
046A: DD 7E 09                          LD      A,(IX+09h)
046D: DD 77 FB                          LD      (IX-05h),A
0470: AF                                XOR     A
0471: DD 77 FC                          LD      (IX-04h),A
0474: DD 77 FD                          LD      (IX-03h),A
0477: 79                                LD      A,C
0478: DD 96 FA                          SUB     (IX-06h)
047B: 78                                LD      A,B
047C: DD 9E FB                          SBC     A,(IX-05h)
047F: 7B                                LD      A,E
0480: DD 9E FC                          SBC     A,(IX-04h)
0483: 7A                                LD      A,D
0484: DD 9E FD                          SBC     A,(IX-03h)
0487: 30 06                             JR      NC,L048F
0489: DD 71 08                          LD      (IX+08h),C
048C: DD 70 09                          LD      (IX+09h),B
048F: DD 7E DC                   L048F: LD      A,(IX-24h)
0492: DD 77 E6                          LD      (IX-1Ah),A
0495: DD 7E DD                          LD      A,(IX-23h)
0498: DD 77 E7                          LD      (IX-19h),A
049B: DD 7E DC                          LD      A,(IX-24h)
049E: DD 77 E8                          LD      (IX-18h),A
04A1: DD 7E DD                          LD      A,(IX-23h)
04A4: DD 77 E9                          LD      (IX-17h),A
04A7: DD 7E E4                          LD      A,(IX-1Ch)
04AA: DD 77 EA                          LD      (IX-16h),A
04AD: DD 7E E5                          LD      A,(IX-1Bh)
04B0: DD 77 EB                          LD      (IX-15h),A
04B3: DD 7E DC                          LD      A,(IX-24h)
04B6: C6 22                             ADD     A,22h   ; '"'
04B8: DD 77 EC                          LD      (IX-14h),A
04BB: DD 7E DD                          LD      A,(IX-23h)
04BE: CE 00                             ADC     A,00h
04C0: DD 77 ED                          LD      (IX-13h),A
04C3: DD 7E DC                          LD      A,(IX-24h)
04C6: DD 77 EE                          LD      (IX-12h),A
04C9: DD 7E DD                          LD      A,(IX-23h)
04CC: DD 77 EF                          LD      (IX-11h),A
04CF: DD 7E 09                   L04CF: LD      A,(IX+09h)
04D2: DD B6 08                          OR      (IX+08h)
04D5: CA 0C 09                          JP      Z,L090C
04D8: DD 5E E4                          LD      E,(IX-1Ch)
04DB: DD 56 E5                          LD      D,(IX-1Bh)
04DE: 21 26 00                          LD      HL,0026h
04E1: 39                                ADD     HL,SP
04E2: EB                                EX      DE,HL
04E3: 01 04 00                          LD      BC,0004h
04E6: ED B0                             LDIR
04E8: DD 7E FA                          LD      A,(IX-06h)
04EB: B7                                OR      A
04EC: C2 42 08                          JP      NZ,L0842
04EF: DD CB FB 46                       BIT     0,(IX-05h)
04F3: C2 42 08                          JP      NZ,L0842
04F6: DD 4E FB                          LD      C,(IX-05h)
04F9: DD 46 FC                          LD      B,(IX-04h)
04FC: DD 5E FD                          LD      E,(IX-03h)
04FF: CB 3B                             SRL     E
0501: CB 18                             RR      B
0503: CB 19                             RR      C
0505: DD 6E D8                          LD      L,(IX-28h)
0508: DD 66 D9                          LD      H,(IX-27h)
050B: C5                                PUSH    BC
050C: 01 0A 00                          LD      BC,000Ah
050F: 09                                ADD     HL,BC
0510: C1                                POP     BC
0511: 7E                                LD      A,(HL)
0512: 2B                                DEC     HL
0513: 6E                                LD      L,(HL)
0514: 67                                LD      H,A
0515: 2B                                DEC     HL
0516: 7D                                LD      A,L
0517: A1                                AND     C
0518: 4F                                LD      C,A
0519: 7C                                LD      A,H
051A: A0                                AND     B
051B: 47                                LD      B,A
051C: DD 71 F0                          LD      (IX-10h),C
051F: DD 70 F1                          LD      (IX-0Fh),B
0522: 78                                LD      A,B
0523: DD B6 F0                          OR      (IX-10h)
0526: C2 E2 05                          JP      NZ,L05E2
0529: DD 7E FD                          LD      A,(IX-03h)
052C: DD B6 FC                          OR      (IX-04h)
052F: DD B6 FB                          OR      (IX-05h)
0532: DD B6 FA                          OR      (IX-06h)
0535: 20 1F                             JR      NZ,L0556
0537: DD 6E E6                          LD      L,(IX-1Ah)
053A: DD 66 E7                          LD      H,(IX-19h)
053D: 11 06 00                          LD      DE,0006h
0540: 19                                ADD     HL,DE
0541: 7E                                LD      A,(HL)
0542: DD 77 FA                          LD      (IX-06h),A
0545: 23                                INC     HL
0546: 7E                                LD      A,(HL)
0547: DD 77 FB                          LD      (IX-05h),A
054A: 23                                INC     HL
054B: 7E                                LD      A,(HL)
054C: DD 77 FC                          LD      (IX-04h),A
054F: 23                                INC     HL
0550: 7E                                LD      A,(HL)
0551: DD 77 FD                          LD      (IX-03h),A
0554: 18 38                             JR      L058E

0556: DD 7E E0                   L0556: LD      A,(IX-20h)
0559: DD 77 FC                          LD      (IX-04h),A
055C: DD 7E E1                          LD      A,(IX-1Fh)
055F: DD 77 FD                          LD      (IX-03h),A
0562: DD 6E FC                          LD      L,(IX-04h)
0565: DD 66 FD                          LD      H,(IX-03h)
0568: 11 14 00                          LD      DE,0014h
056B: 19                                ADD     HL,DE
056C: 4E                                LD      C,(HL)
056D: 23                                INC     HL
056E: 46                                LD      B,(HL)
056F: 23                                INC     HL
0570: 5E                                LD      E,(HL)
0571: 23                                INC     HL
0572: 56                                LD      D,(HL)
0573: D5                                PUSH    DE
0574: C5                                PUSH    BC
0575: DD 6E E0                          LD      L,(IX-20h)
0578: DD 66 E1                          LD      H,(IX-1Fh)
057B: E5                                PUSH    HL
057C: CD 46 14                          CALL    L1446
057F: F1                                POP     AF
0580: F1                                POP     AF
0581: F1                                POP     AF
0582: DD 75 FA                          LD      (IX-06h),L
0585: DD 74 FB                          LD      (IX-05h),H
0588: DD 73 FC                          LD      (IX-04h),E
058B: DD 72 FD                          LD      (IX-03h),D
058E: DD 7E FA                   L058E: LD      A,(IX-06h)
0591: D6 02                             SUB     02h
0593: DD 7E FB                          LD      A,(IX-05h)
0596: DE 00                             SBC     A,00h
0598: DD 7E FC                          LD      A,(IX-04h)
059B: DE 00                             SBC     A,00h
059D: DD 7E FD                          LD      A,(IX-03h)
05A0: DE 00                             SBC     A,00h
05A2: 30 0D                             JR      NC,L05B1
05A4: DD 6E DE                          LD      L,(IX-22h)
05A7: DD 66 DF                          LD      H,(IX-21h)
05AA: 36 02                             LD      (HL),02h
05AC: 2E 02                             LD      L,02h
05AE: C3 0E 09                          JP      L090E

05B1: DD 7E FA                   L05B1: LD      A,(IX-06h)
05B4: DD A6 FB                          AND     (IX-05h)
05B7: DD A6 FC                          AND     (IX-04h)
05BA: DD A6 FD                          AND     (IX-03h)
05BD: 3C                                INC     A
05BE: 20 0D                             JR      NZ,L05CD
05C0: DD 6E DE                          LD      L,(IX-22h)
05C3: DD 66 DF                          LD      H,(IX-21h)
05C6: 36 01                             LD      (HL),01h
05C8: 2E 01                             LD      L,01h
05CA: C3 0E 09                          JP      L090E

05CD: DD 7E E8                   L05CD: LD      A,(IX-18h)
05D0: C6 14                             ADD     A,14h
05D2: 5F                                LD      E,A
05D3: DD 7E E9                          LD      A,(IX-17h)
05D6: CE 00                             ADC     A,00h
05D8: 57                                LD      D,A
05D9: 21 26 00                          LD      HL,0026h
05DC: 39                                ADD     HL,SP
05DD: 01 04 00                          LD      BC,0004h
05E0: ED B0                             LDIR
05E2: DD 6E DC                   L05E2: LD      L,(IX-24h)
05E5: DD 66 DD                          LD      H,(IX-23h)
05E8: 11 14 00                          LD      DE,0014h
05EB: 19                                ADD     HL,DE
05EC: 4E                                LD      C,(HL)
05ED: 23                                INC     HL
05EE: 46                                LD      B,(HL)
05EF: 23                                INC     HL
05F0: 5E                                LD      E,(HL)
05F1: 23                                INC     HL
05F2: 56                                LD      D,(HL)
05F3: D5                                PUSH    DE
05F4: C5                                PUSH    BC
05F5: DD 6E D8                          LD      L,(IX-28h)
05F8: DD 66 D9                          LD      H,(IX-27h)
05FB: E5                                PUSH    HL
05FC: CD 06 13                          CALL    L1306
05FF: F1                                POP     AF
0600: F1                                POP     AF
0601: F1                                POP     AF
0602: 7A                                LD      A,D
0603: B3                                OR      E
0604: B4                                OR      H
0605: B5                                OR      L
0606: 20 0D                             JR      NZ,L0615
0608: DD 6E DE                          LD      L,(IX-22h)
060B: DD 66 DF                          LD      H,(IX-21h)
060E: 36 02                             LD      (HL),02h
0610: 2E 02                             LD      L,02h
0612: C3 0E 09                          JP      L090E

0615: DD 7E F0                   L0615: LD      A,(IX-10h)
0618: DD 77 FA                          LD      (IX-06h),A
061B: DD 7E F1                          LD      A,(IX-0Fh)
061E: DD 77 FB                          LD      (IX-05h),A
0621: AF                                XOR     A
0622: DD 77 FC                          LD      (IX-04h),A
0625: DD 77 FD                          LD      (IX-03h),A
0628: 7D                                LD      A,L
0629: DD 86 FA                          ADD     A,(IX-06h)
062C: 4F                                LD      C,A
062D: 7C                                LD      A,H
062E: DD 8E FB                          ADC     A,(IX-05h)
0631: 47                                LD      B,A
0632: 7B                                LD      A,E
0633: DD 8E FC                          ADC     A,(IX-04h)
0636: 5F                                LD      E,A
0637: 7A                                LD      A,D
0638: DD 8E FD                          ADC     A,(IX-03h)
063B: 57                                LD      D,A
063C: DD 71 F2                          LD      (IX-0Eh),C
063F: DD 70 F3                          LD      (IX-0Dh),B
0642: DD 73 F4                          LD      (IX-0Ch),E
0645: DD 72 F5                          LD      (IX-0Bh),D
0648: DD 7E 09                          LD      A,(IX+09h)
064B: CB 3F                             SRL     A
064D: 4F                                LD      C,A
064E: 06 00                             LD      B,00h
0650: DD 5E D8                          LD      E,(IX-28h)
0653: DD 56 D9                          LD      D,(IX-27h)
0656: DD 7E DC                          LD      A,(IX-24h)
0659: C6 18                             ADD     A,18h
065B: DD 77 F6                          LD      (IX-0Ah),A
065E: DD 7E DD                          LD      A,(IX-23h)
0661: CE 00                             ADC     A,00h
0663: DD 77 F7                          LD      (IX-09h),A
0666: DD 7E DC                          LD      A,(IX-24h)
0669: C6 22                             ADD     A,22h   ; '"'
066B: DD 77 F8                          LD      (IX-08h),A
066E: DD 7E DD                          LD      A,(IX-23h)
0671: CE 00                             ADC     A,00h
0673: DD 77 F9                          LD      (IX-07h),A
0676: 21 01 00                          LD      HL,0001h
0679: 19                                ADD     HL,DE
067A: DD 75 FA                          LD      (IX-06h),L
067D: DD 74 FB                          LD      (IX-05h),H
0680: 78                                LD      A,B
0681: B1                                OR      C
0682: CA 7D 07                          JP      Z,L077D
0685: DD 7E F0                          LD      A,(IX-10h)
0688: 81                                ADD     A,C
0689: DD 77 FC                          LD      (IX-04h),A
068C: DD 7E F1                          LD      A,(IX-0Fh)
068F: 88                                ADC     A,B
0690: DD 77 FD                          LD      (IX-03h),A
0693: EB                                EX      DE,HL
0694: 11 09 00                          LD      DE,0009h
0697: 19                                ADD     HL,DE
0698: 5E                                LD      E,(HL)
0699: 23                                INC     HL
069A: 56                                LD      D,(HL)
069B: DD 6E FC                          LD      L,(IX-04h)
069E: DD 66 FD                          LD      H,(IX-03h)
06A1: 7B                                LD      A,E
06A2: 95                                SUB     L
06A3: 7A                                LD      A,D
06A4: 9C                                SBC     A,H
06A5: 30 0A                             JR      NC,L06B1
06A7: 7B                                LD      A,E
06A8: DD 96 F0                          SUB     (IX-10h)
06AB: 4F                                LD      C,A
06AC: 7A                                LD      A,D
06AD: DD 9E F1                          SBC     A,(IX-0Fh)
06B0: 47                                LD      B,A
06B1: DD 6E FA                   L06B1: LD      L,(IX-06h)
06B4: DD 66 FB                          LD      H,(IX-05h)
06B7: 56                                LD      D,(HL)
06B8: C5                                PUSH    BC
06B9: C5                                PUSH    BC
06BA: DD 6E F4                          LD      L,(IX-0Ch)
06BD: DD 66 F5                          LD      H,(IX-0Bh)
06C0: E5                                PUSH    HL
06C1: DD 6E F2                          LD      L,(IX-0Eh)
06C4: DD 66 F3                          LD      H,(IX-0Dh)
06C7: E5                                PUSH    HL
06C8: DD 6E FE                          LD      L,(IX-02h)
06CB: DD 66 FF                          LD      H,(IX-01h)
06CE: E5                                PUSH    HL
06CF: D5                                PUSH    DE
06D0: 33                                INC     SP
06D1: CD EE 02                          CALL    L02EE
06D4: FD 21 09 00                       LD      IY,0009h
06D8: FD 39                             ADD     IY,SP
06DA: FD F9                             LD      SP,IY
06DC: 7D                                LD      A,L
06DD: C1                                POP     BC
06DE: B7                                OR      A
06DF: 28 0D                             JR      Z,L06EE
06E1: DD 6E DE                          LD      L,(IX-22h)
06E4: DD 66 DF                          LD      H,(IX-21h)
06E7: 36 01                             LD      (HL),01h
06E9: 2E 01                             LD      L,01h
06EB: C3 0E 09                          JP      L090E

06EE: DD 6E E2                   L06EE: LD      L,(IX-1Eh)
06F1: DD 66 E3                          LD      H,(IX-1Dh)
06F4: 7E                                LD      A,(HL)
06F5: 07                                RLCA
06F6: D2 75 07                          JP      NC,L0775
06F9: C5                                PUSH    BC
06FA: DD 5E F6                          LD      E,(IX-0Ah)
06FD: DD 56 F7                          LD      D,(IX-09h)
0700: 21 28 00                          LD      HL,0028h
0703: 39                                ADD     HL,SP
0704: EB                                EX      DE,HL
0705: 01 04 00                          LD      BC,0004h
0708: ED B0                             LDIR
070A: C1                                POP     BC
070B: DD 7E FA                          LD      A,(IX-06h)
070E: DD 96 F2                          SUB     (IX-0Eh)
0711: 5F                                LD      E,A
0712: DD 7E FB                          LD      A,(IX-05h)
0715: DD 9E F3                          SBC     A,(IX-0Dh)
0718: 57                                LD      D,A
0719: DD 7E FC                          LD      A,(IX-04h)
071C: DD 9E F4                          SBC     A,(IX-0Ch)
071F: 6F                                LD      L,A
0720: DD 7E FD                          LD      A,(IX-03h)
0723: DD 9E F5                          SBC     A,(IX-0Bh)
0726: 67                                LD      H,A
0727: DD 71 D4                          LD      (IX-2Ch),C
072A: DD 70 D5                          LD      (IX-2Bh),B
072D: AF                                XOR     A
072E: DD 77 D6                          LD      (IX-2Ah),A
0731: DD 77 D7                          LD      (IX-29h),A
0734: 7B                                LD      A,E
0735: DD 96 D4                          SUB     (IX-2Ch)
0738: 7A                                LD      A,D
0739: DD 9E D5                          SBC     A,(IX-2Bh)
073C: 7D                                LD      A,L
073D: DD 9E D6                          SBC     A,(IX-2Ah)
0740: 7C                                LD      A,H
0741: DD 9E D7                          SBC     A,(IX-29h)
0744: 30 2F                             JR      NC,L0775
0746: DD 6E FA                          LD      L,(IX-06h)
0749: DD 66 FB                          LD      H,(IX-05h)
074C: DD 5E F2                          LD      E,(IX-0Eh)
074F: DD 56 F3                          LD      D,(IX-0Dh)
0752: BF                                CP      A
0753: ED 52                             SBC     HL,DE
0755: 7D                                LD      A,L
0756: 87                                ADD     A,A
0757: 57                                LD      D,A
0758: 1E 00                             LD      E,00h
075A: DD 6E FE                          LD      L,(IX-02h)
075D: DD 66 FF                          LD      H,(IX-01h)
0760: 19                                ADD     HL,DE
0761: C5                                PUSH    BC
0762: 11 00 02                          LD      DE,0200h
0765: D5                                PUSH    DE
0766: DD 5E F8                          LD      E,(IX-08h)
0769: DD 56 F9                          LD      D,(IX-07h)
076C: D5                                PUSH    DE
076D: E5                                PUSH    HL
076E: CD 13 09                          CALL    L0913
0771: F1                                POP     AF
0772: F1                                POP     AF
0773: F1                                POP     AF
0774: C1                                POP     BC
0775: 79                         L0775: LD      A,C
0776: 87                                ADD     A,A
0777: 47                                LD      B,A
0778: 0E 00                             LD      C,00h
077A: C3 96 08                          JP      L0896

077D: DD 6E F6                   L077D: LD      L,(IX-0Ah)
0780: DD 66 F7                          LD      H,(IX-09h)
0783: 4E                                LD      C,(HL)
0784: 23                                INC     HL
0785: 46                                LD      B,(HL)
0786: 23                                INC     HL
0787: 5E                                LD      E,(HL)
0788: 23                                INC     HL
0789: 56                                LD      D,(HL)
078A: DD 7E F2                          LD      A,(IX-0Eh)
078D: 91                                SUB     C
078E: 20 12                             JR      NZ,L07A2
0790: DD 7E F3                          LD      A,(IX-0Dh)
0793: 90                                SUB     B
0794: 20 0C                             JR      NZ,L07A2
0796: DD 6E F4                          LD      L,(IX-0Ch)
0799: DD 66 F5                          LD      H,(IX-0Bh)
079C: BF                                CP      A
079D: ED 52                             SBC     HL,DE
079F: CA 33 08                          JP      Z,L0833
07A2: DD 6E E2                   L07A2: LD      L,(IX-1Eh)
07A5: DD 66 E3                          LD      H,(IX-1Dh)
07A8: 7E                                LD      A,(HL)
07A9: 07                                RLCA
07AA: 30 48                             JR      NC,L07F4
07AC: DD 6E FA                          LD      L,(IX-06h)
07AF: DD 66 FB                          LD      H,(IX-05h)
07B2: 7E                                LD      A,(HL)
07B3: DD 77 FD                          LD      (IX-03h),A
07B6: 21 01 00                          LD      HL,0001h
07B9: E5                                PUSH    HL
07BA: D5                                PUSH    DE
07BB: C5                                PUSH    BC
07BC: DD 6E F8                          LD      L,(IX-08h)
07BF: DD 66 F9                          LD      H,(IX-07h)
07C2: E5                                PUSH    HL
07C3: DD 7E FD                          LD      A,(IX-03h)
07C6: F5                                PUSH    AF
07C7: 33                                INC     SP
07C8: CD 78 03                          CALL    L0378
07CB: FD 21 09 00                       LD      IY,0009h
07CF: FD 39                             ADD     IY,SP
07D1: FD F9                             LD      SP,IY
07D3: 7D                                LD      A,L
07D4: B7                                OR      A
07D5: 28 0D                             JR      Z,L07E4
07D7: DD 6E DE                          LD      L,(IX-22h)
07DA: DD 66 DF                          LD      H,(IX-21h)
07DD: 36 01                             LD      (HL),01h
07DF: 2E 01                             LD      L,01h
07E1: C3 0E 09                          JP      L090E

07E4: DD 6E E2                   L07E4: LD      L,(IX-1Eh)
07E7: DD 66 E3                          LD      H,(IX-1Dh)
07EA: 7E                                LD      A,(HL)
07EB: CB BF                             RES     7,A
07ED: DD 6E E2                          LD      L,(IX-1Eh)
07F0: DD 66 E3                          LD      H,(IX-1Dh)
07F3: 77                                LD      (HL),A
07F4: DD 6E D8                   L07F4: LD      L,(IX-28h)
07F7: DD 66 D9                          LD      H,(IX-27h)
07FA: 23                                INC     HL
07FB: 46                                LD      B,(HL)
07FC: 21 01 00                          LD      HL,0001h
07FF: E5                                PUSH    HL
0800: DD 6E F4                          LD      L,(IX-0Ch)
0803: DD 66 F5                          LD      H,(IX-0Bh)
0806: E5                                PUSH    HL
0807: DD 6E F2                          LD      L,(IX-0Eh)
080A: DD 66 F3                          LD      H,(IX-0Dh)
080D: E5                                PUSH    HL
080E: DD 6E F8                          LD      L,(IX-08h)
0811: DD 66 F9                          LD      H,(IX-07h)
0814: E5                                PUSH    HL
0815: C5                                PUSH    BC
0816: 33                                INC     SP
0817: CD EE 02                          CALL    L02EE
081A: FD 21 09 00                       LD      IY,0009h
081E: FD 39                             ADD     IY,SP
0820: FD F9                             LD      SP,IY
0822: 7D                                LD      A,L
0823: B7                                OR      A
0824: 28 0D                             JR      Z,L0833
0826: DD 6E DE                          LD      L,(IX-22h)
0829: DD 66 DF                          LD      H,(IX-21h)
082C: 36 01                             LD      (HL),01h
082E: 2E 01                             LD      L,01h
0830: C3 0E 09                          JP      L090E

0833: DD 5E F6                   L0833: LD      E,(IX-0Ah)
0836: DD 56 F7                          LD      D,(IX-09h)
0839: 21 1E 00                          LD      HL,001Eh
083C: 39                                ADD     HL,SP
083D: 01 04 00                          LD      BC,0004h
0840: ED B0                             LDIR
0842: DD 5E EA                   L0842: LD      E,(IX-16h)
0845: DD 56 EB                          LD      D,(IX-15h)
0848: 21 26 00                          LD      HL,0026h
084B: 39                                ADD     HL,SP
084C: EB                                EX      DE,HL
084D: 01 04 00                          LD      BC,0004h
0850: ED B0                             LDIR
0852: DD 4E FA                          LD      C,(IX-06h)
0855: DD 7E FB                          LD      A,(IX-05h)
0858: E6 01                             AND     01h
085A: 47                                LD      B,A
085B: AF                                XOR     A
085C: 91                                SUB     C
085D: 4F                                LD      C,A
085E: 3E 02                             LD      A,02h
0860: 98                                SBC     A,B
0861: 47                                LD      B,A
0862: DD 7E 08                          LD      A,(IX+08h)
0865: 91                                SUB     C
0866: DD 7E 09                          LD      A,(IX+09h)
0869: 98                                SBC     A,B
086A: 30 06                             JR      NC,L0872
086C: DD 4E 08                          LD      C,(IX+08h)
086F: DD 46 09                          LD      B,(IX+09h)
0872: DD 5E FA                   L0872: LD      E,(IX-06h)
0875: DD 7E FB                          LD      A,(IX-05h)
0878: E6 01                             AND     01h
087A: 57                                LD      D,A
087B: 7B                                LD      A,E
087C: DD 86 EC                          ADD     A,(IX-14h)
087F: 5F                                LD      E,A
0880: 7A                                LD      A,D
0881: DD 8E ED                          ADC     A,(IX-13h)
0884: 57                                LD      D,A
0885: DD 6E FE                          LD      L,(IX-02h)
0888: DD 66 FF                          LD      H,(IX-01h)
088B: C5                                PUSH    BC
088C: C5                                PUSH    BC
088D: D5                                PUSH    DE
088E: E5                                PUSH    HL
088F: CD 13 09                          CALL    L0913
0892: F1                                POP     AF
0893: F1                                POP     AF
0894: F1                                POP     AF
0895: C1                                POP     BC
0896: DD 7E 08                   L0896: LD      A,(IX+08h)
0899: 91                                SUB     C
089A: DD 77 08                          LD      (IX+08h),A
089D: DD 7E 09                          LD      A,(IX+09h)
08A0: 98                                SBC     A,B
08A1: DD 77 09                          LD      (IX+09h),A
08A4: DD 6E DA                          LD      L,(IX-26h)
08A7: DD 66 DB                          LD      H,(IX-25h)
08AA: 7E                                LD      A,(HL)
08AB: 23                                INC     HL
08AC: 66                                LD      H,(HL)
08AD: 6F                                LD      L,A
08AE: 09                                ADD     HL,BC
08AF: EB                                EX      DE,HL
08B0: DD 6E DA                          LD      L,(IX-26h)
08B3: DD 66 DB                          LD      H,(IX-25h)
08B6: 73                                LD      (HL),E
08B7: 23                                INC     HL
08B8: 72                                LD      (HL),D
08B9: DD 7E FE                          LD      A,(IX-02h)
08BC: 81                                ADD     A,C
08BD: DD 77 FE                          LD      (IX-02h),A
08C0: DD 7E FF                          LD      A,(IX-01h)
08C3: 88                                ADC     A,B
08C4: DD 77 FF                          LD      (IX-01h),A
08C7: DD 7E EE                          LD      A,(IX-12h)
08CA: C6 10                             ADD     A,10h
08CC: 5F                                LD      E,A
08CD: DD 7E EF                          LD      A,(IX-11h)
08D0: CE 00                             ADC     A,00h
08D2: 57                                LD      D,A
08D3: D5                                PUSH    DE
08D4: C5                                PUSH    BC
08D5: 21 26 00                          LD      HL,0026h
08D8: 39                                ADD     HL,SP
08D9: EB                                EX      DE,HL
08DA: 01 04 00                          LD      BC,0004h
08DD: ED B0                             LDIR
08DF: C1                                POP     BC
08E0: D1                                POP     DE
08E1: 21 00 00                          LD      HL,0000h
08E4: 79                                LD      A,C
08E5: DD 86 F6                          ADD     A,(IX-0Ah)
08E8: DD 77 FA                          LD      (IX-06h),A
08EB: 78                                LD      A,B
08EC: DD 8E F7                          ADC     A,(IX-09h)
08EF: DD 77 FB                          LD      (IX-05h),A
08F2: 7D                                LD      A,L
08F3: DD 8E F8                          ADC     A,(IX-08h)
08F6: DD 77 FC                          LD      (IX-04h),A
08F9: 7C                                LD      A,H
08FA: DD 8E F9                          ADC     A,(IX-07h)
08FD: DD 77 FD                          LD      (IX-03h),A
0900: 21 26 00                          LD      HL,0026h
0903: 39                                ADD     HL,SP
0904: 01 04 00                          LD      BC,0004h
0907: ED B0                             LDIR
0909: C3 CF 04                          JP      L04CF

090C: 2E 00                      L090C: LD      L,00h
090E: DD F9                      L090E: LD      SP,IX
0910: DD E1                             POP     IX
0912: C9                                RET

                                        ; --- START PROC L0913 ---
0913: CD CD 13                   L0913: CALL    L13CD
0916: F5                                PUSH    AF
0917: DD 4E 04                          LD      C,(IX+04h)
091A: DD 46 05                          LD      B,(IX+05h)
091D: DD 5E 06                          LD      E,(IX+06h)
0920: DD 56 07                          LD      D,(IX+07h)
0923: DD 7E 09                          LD      A,(IX+09h)
0926: DD B6 08                          OR      (IX+08h)
0929: 28 1B                             JR      Z,L0946
092B: 33                                INC     SP
092C: 33                                INC     SP
092D: C5                                PUSH    BC
092E: DD 4E 08                          LD      C,(IX+08h)
0931: DD 46 09                          LD      B,(IX+09h)
0934: 1A                         L0934: LD      A,(DE)
0935: 13                                INC     DE
0936: E1                                POP     HL
0937: E5                                PUSH    HL
0938: 77                                LD      (HL),A
0939: DD 34 FE                          INC     (IX-02h)
093C: 20 03                             JR      NZ,L0941
093E: DD 34 FF                          INC     (IX-01h)
0941: 0B                         L0941: DEC     BC
0942: 78                                LD      A,B
0943: B1                                OR      C
0944: 20 EE                             JR      NZ,L0934
0946: F1                         L0946: POP     AF
0947: DD E1                             POP     IX
0949: C9                                RET

                                        ; --- START PROC L094A ---
094A: CD CD 13                   L094A: CALL    L13CD
094D: 21 BF FF                          LD      HL,0FFBFh
0950: 39                                ADD     HL,SP
0951: F9                                LD      SP,HL
0952: DD 7E 05                          LD      A,(IX+05h)
0955: DD B6 04                          OR      (IX+04h)
0958: 20 05                             JR      NZ,L095F
095A: 2E 09                             LD      L,09h
095C: C3 07 0F                          JP      L0F07

095F: DD 7E 08                   L095F: LD      A,(IX+08h)
0962: E6 3F                             AND     3Fh     ; '?'
0964: DD 77 08                          LD      (IX+08h),A
0967: 21 2A 00                          LD      HL,002Ah
096A: 39                                ADD     HL,SP
096B: EB                                EX      DE,HL
096C: 21 47 00                          LD      HL,0047h
096F: 39                                ADD     HL,SP
0970: 4D                                LD      C,L
0971: 44                                LD      B,H
0972: DD 7E 08                          LD      A,(IX+08h)
0975: F5                                PUSH    AF
0976: 33                                INC     SP
0977: D5                                PUSH    DE
0978: C5                                PUSH    BC
0979: CD AC 1A                          CALL    L1AAC
097C: F1                                POP     AF
097D: F1                                POP     AF
097E: 33                                INC     SP
097F: DD 75 EB                          LD      (IX-15h),L
0982: DD 7E 04                          LD      A,(IX+04h)
0985: DD 77 EC                          LD      (IX-14h),A
0988: DD 7E 05                          LD      A,(IX+05h)
098B: DD 77 ED                          LD      (IX-13h),A
098E: DD 7E EB                          LD      A,(IX-15h)
0991: B7                                OR      A
0992: C2 F4 0E                          JP      NZ,L0EF4
0995: 21 00 00                          LD      HL,0000h
0998: 39                                ADD     HL,SP
0999: DD 7E E9                          LD      A,(IX-17h)
099C: 77                                LD      (HL),A
099D: 23                                INC     HL
099E: DD 7E EA                          LD      A,(IX-16h)
09A1: 77                                LD      (HL),A
09A2: 21 00 00                          LD      HL,0000h
09A5: 39                                ADD     HL,SP
09A6: DD 75 F7                          LD      (IX-09h),L
09A9: DD 74 F8                          LD      (IX-08h),H
09AC: 4D                                LD      C,L
09AD: 44                                LD      B,H
09AE: DD 6E 06                          LD      L,(IX+06h)
09B1: DD 66 07                          LD      H,(IX+07h)
09B4: E5                                PUSH    HL
09B5: C5                                PUSH    BC
09B6: CD 86 17                          CALL    L1786
09B9: F1                                POP     AF
09BA: F1                                POP     AF
09BB: DD 75 EB                          LD      (IX-15h),L
09BE: 7D                                LD      A,L
09BF: B7                                OR      A
09C0: 20 12                             JR      NZ,L09D4
09C2: DD 6E F7                          LD      L,(IX-09h)
09C5: DD 66 F8                          LD      H,(IX-08h)
09C8: 11 27 00                          LD      DE,0027h
09CB: 19                                ADD     HL,DE
09CC: 7E                                LD      A,(HL)
09CD: 07                                RLCA
09CE: 30 04                             JR      NC,L09D4
09D0: DD 36 EB 06                       LD      (IX-15h),06h
09D4: DD 7E 08                   L09D4: LD      A,(IX+08h)
09D7: DD 77 F9                          LD      (IX-07h),A
09DA: DD 7E F7                          LD      A,(IX-09h)
09DD: C6 04                             ADD     A,04h
09DF: DD 77 FE                          LD      (IX-02h),A
09E2: DD 7E F8                          LD      A,(IX-08h)
09E5: CE 00                             ADC     A,00h
09E7: DD 77 FF                          LD      (IX-01h),A
09EA: DD 7E F7                          LD      A,(IX-09h)
09ED: C6 1A                             ADD     A,1Ah
09EF: DD 77 FA                          LD      (IX-06h),A
09F2: DD 7E F8                          LD      A,(IX-08h)
09F5: CE 00                             ADC     A,00h
09F7: DD 77 FB                          LD      (IX-05h),A
09FA: DD 7E 08                          LD      A,(IX+08h)
09FD: E6 1C                             AND     1Ch
09FF: CA 93 0B                          JP      Z,L0B93
0A02: DD 7E EB                          LD      A,(IX-15h)
0A05: B7                                OR      A
0A06: 28 2B                             JR      Z,L0A33
0A08: DD 7E EB                          LD      A,(IX-15h)
0A0B: D6 04                             SUB     04h
0A0D: 20 1A                             JR      NZ,L0A29
0A0F: DD 7E F7                          LD      A,(IX-09h)
0A12: DD 77 FE                          LD      (IX-02h),A
0A15: DD 7E F8                          LD      A,(IX-08h)
0A18: DD 77 FF                          LD      (IX-01h),A
0A1B: DD 6E FE                          LD      L,(IX-02h)
0A1E: DD 66 FF                          LD      H,(IX-01h)
0A21: E5                                PUSH    HL
0A22: CD BB 0F                          CALL    L0FBB
0A25: F1                                POP     AF
0A26: DD 75 EB                          LD      (IX-15h),L
0A29: DD 7E F9                   L0A29: LD      A,(IX-07h)
0A2C: F6 08                             OR      08h
0A2E: DD 77 08                          LD      (IX+08h),A
0A31: 18 1B                             JR      L0A4E

0A33: DD 6E FE                   L0A33: LD      L,(IX-02h)
0A36: DD 66 FF                          LD      H,(IX-01h)
0A39: 7E                                LD      A,(HL)
0A3A: E6 11                             AND     11h
0A3C: 28 06                             JR      Z,L0A44
0A3E: DD 36 EB 07                       LD      (IX-15h),07h
0A42: 18 0A                             JR      L0A4E

0A44: DD CB F9 56                L0A44: BIT     2,(IX-07h)
0A48: 28 04                             JR      Z,L0A4E
0A4A: DD 36 EB 08                       LD      (IX-15h),08h
0A4E: DD 7E 08                   L0A4E: LD      A,(IX+08h)
0A51: DD 77 F9                          LD      (IX-07h),A
0A54: DD 7E EB                          LD      A,(IX-15h)
0A57: B7                                OR      A
0A58: C2 B7 0B                          JP      NZ,L0BB7
0A5B: DD CB F9 5E                       BIT     3,(IX-07h)
0A5F: CA B7 0B                          JP      Z,L0BB7
0A62: DD 6E FA                          LD      L,(IX-06h)
0A65: DD 66 FB                          LD      H,(IX-05h)
0A68: 4E                                LD      C,(HL)
0A69: 23                                INC     HL
0A6A: 46                                LD      B,(HL)
0A6B: C5                                PUSH    BC
0A6C: DD 6E E9                          LD      L,(IX-17h)
0A6F: DD 66 EA                          LD      H,(IX-16h)
0A72: E5                                PUSH    HL
0A73: CD D7 13                          CALL    L13D7
0A76: F1                                POP     AF
0A77: F1                                POP     AF
0A78: DD 75 FC                          LD      (IX-04h),L
0A7B: DD 74 FD                          LD      (IX-03h),H
0A7E: DD 73 FE                          LD      (IX-02h),E
0A81: DD 72 FF                          LD      (IX-01h),D
0A84: DD 6E FA                          LD      L,(IX-06h)
0A87: DD 66 FB                          LD      H,(IX-05h)
0A8A: 4E                                LD      C,(HL)
0A8B: 23                                INC     HL
0A8C: 46                                LD      B,(HL)
0A8D: 21 0E 00                          LD      HL,000Eh
0A90: 09                                ADD     HL,BC
0A91: EB                                EX      DE,HL
0A92: 21 21 50                          LD      HL,5021h
0A95: E5                                PUSH    HL
0A96: 21 00 00                          LD      HL,0000h
0A99: E5                                PUSH    HL
0A9A: D5                                PUSH    DE
0A9B: CD 51 19                          CALL    L1951
0A9E: F1                                POP     AF
0A9F: F1                                POP     AF
0AA0: F1                                POP     AF
0AA1: DD 6E FA                          LD      L,(IX-06h)
0AA4: DD 66 FB                          LD      H,(IX-05h)
0AA7: 4E                                LD      C,(HL)
0AA8: 23                                INC     HL
0AA9: 46                                LD      B,(HL)
0AAA: 21 0B 00                          LD      HL,000Bh
0AAD: 09                                ADD     HL,BC
0AAE: 36 20                             LD      (HL),20h        ; ' '
0AB0: DD 6E FA                          LD      L,(IX-06h)
0AB3: DD 66 FB                          LD      H,(IX-05h)
0AB6: 4E                                LD      C,(HL)
0AB7: 23                                INC     HL
0AB8: 46                                LD      B,(HL)
0AB9: 21 00 00                          LD      HL,0000h
0ABC: E5                                PUSH    HL
0ABD: 21 00 00                          LD      HL,0000h
0AC0: E5                                PUSH    HL
0AC1: C5                                PUSH    BC
0AC2: DD 6E E9                          LD      L,(IX-17h)
0AC5: DD 66 EA                          LD      H,(IX-16h)
0AC8: E5                                PUSH    HL
0AC9: CD 74 25                          CALL    L2574
0ACC: F1                                POP     AF
0ACD: F1                                POP     AF
0ACE: F1                                POP     AF
0ACF: F1                                POP     AF
0AD0: DD 6E FA                          LD      L,(IX-06h)
0AD3: DD 66 FB                          LD      H,(IX-05h)
0AD6: 4E                                LD      C,(HL)
0AD7: 23                                INC     HL
0AD8: 46                                LD      B,(HL)
0AD9: 21 1C 00                          LD      HL,001Ch
0ADC: 09                                ADD     HL,BC
0ADD: EB                                EX      DE,HL
0ADE: 21 00 00                          LD      HL,0000h
0AE1: E5                                PUSH    HL
0AE2: 21 00 00                          LD      HL,0000h
0AE5: E5                                PUSH    HL
0AE6: D5                                PUSH    DE
0AE7: CD 51 19                          CALL    L1951
0AEA: F1                                POP     AF
0AEB: F1                                POP     AF
0AEC: F1                                POP     AF
0AED: DD 6E E9                          LD      L,(IX-17h)
0AF0: DD 66 EA                          LD      H,(IX-16h)
0AF3: 23                                INC     HL
0AF4: 23                                INC     HL
0AF5: 23                                INC     HL
0AF6: 36 01                             LD      (HL),01h
0AF8: DD 7E FF                          LD      A,(IX-01h)
0AFB: DD B6 FE                          OR      (IX-02h)
0AFE: DD B6 FD                          OR      (IX-03h)
0B01: DD B6 FC                          OR      (IX-04h)
0B04: CA B7 0B                          JP      Z,L0BB7
0B07: DD 6E E9                          LD      L,(IX-17h)
0B0A: DD 66 EA                          LD      H,(IX-16h)
0B0D: 11 2F 00                          LD      DE,002Fh
0B10: 19                                ADD     HL,DE
0B11: 4E                                LD      C,(HL)
0B12: 23                                INC     HL
0B13: 46                                LD      B,(HL)
0B14: 23                                INC     HL
0B15: 5E                                LD      E,(HL)
0B16: 23                                INC     HL
0B17: 56                                LD      D,(HL)
0B18: DD 6E F7                          LD      L,(IX-09h)
0B1B: DD 66 F8                          LD      H,(IX-08h)
0B1E: DD 75 F7                          LD      (IX-09h),L
0B21: DD 74 F8                          LD      (IX-08h),H
0B24: C5                                PUSH    BC
0B25: D5                                PUSH    DE
0B26: 21 00 00                          LD      HL,0000h
0B29: E5                                PUSH    HL
0B2A: 21 00 00                          LD      HL,0000h
0B2D: E5                                PUSH    HL
0B2E: DD 6E FE                          LD      L,(IX-02h)
0B31: DD 66 FF                          LD      H,(IX-01h)
0B34: E5                                PUSH    HL
0B35: DD 6E FC                          LD      L,(IX-04h)
0B38: DD 66 FD                          LD      H,(IX-03h)
0B3B: E5                                PUSH    HL
0B3C: DD 6E F7                          LD      L,(IX-09h)
0B3F: DD 66 F8                          LD      H,(IX-08h)
0B42: E5                                PUSH    HL
0B43: CD 90 23                          CALL    L2390
0B46: FD 21 0A 00                       LD      IY,000Ah
0B4A: FD 39                             ADD     IY,SP
0B4C: FD F9                             LD      SP,IY
0B4E: D1                                POP     DE
0B4F: C1                                POP     BC
0B50: DD 75 EB                          LD      (IX-15h),L
0B53: 7D                                LD      A,L
0B54: B7                                OR      A
0B55: 20 60                             JR      NZ,L0BB7
0B57: D5                                PUSH    DE
0B58: C5                                PUSH    BC
0B59: DD 6E E9                          LD      L,(IX-17h)
0B5C: DD 66 EA                          LD      H,(IX-16h)
0B5F: E5                                PUSH    HL
0B60: CD DD 22                          CALL    L22DD
0B63: F1                                POP     AF
0B64: F1                                POP     AF
0B65: F1                                POP     AF
0B66: DD 75 EB                          LD      (IX-15h),L
0B69: DD 4E E9                          LD      C,(IX-17h)
0B6C: DD 46 EA                          LD      B,(IX-16h)
0B6F: 21 0B 00                          LD      HL,000Bh
0B72: 09                                ADD     HL,BC
0B73: DD 7E FC                          LD      A,(IX-04h)
0B76: C6 FF                             ADD     A,0FFh
0B78: 4F                                LD      C,A
0B79: DD 7E FD                          LD      A,(IX-03h)
0B7C: CE FF                             ADC     A,0FFh
0B7E: 47                                LD      B,A
0B7F: DD 7E FE                          LD      A,(IX-02h)
0B82: CE FF                             ADC     A,0FFh
0B84: 5F                                LD      E,A
0B85: DD 7E FF                          LD      A,(IX-01h)
0B88: CE FF                             ADC     A,0FFh
0B8A: 71                                LD      (HL),C
0B8B: 23                                INC     HL
0B8C: 70                                LD      (HL),B
0B8D: 23                                INC     HL
0B8E: 73                                LD      (HL),E
0B8F: 23                                INC     HL
0B90: 77                                LD      (HL),A
0B91: 18 24                             JR      L0BB7

0B93: DD 7E EB                   L0B93: LD      A,(IX-15h)
0B96: B7                                OR      A
0B97: 20 1E                             JR      NZ,L0BB7
0B99: DD 6E FE                          LD      L,(IX-02h)
0B9C: DD 66 FF                          LD      H,(IX-01h)
0B9F: 7E                                LD      A,(HL)
0BA0: CB 67                             BIT     4,A
0BA2: 28 06                             JR      Z,L0BAA
0BA4: DD 36 EB 04                       LD      (IX-15h),04h
0BA8: 18 0D                             JR      L0BB7

0BAA: DD CB F9 4E                L0BAA: BIT     1,(IX-07h)
0BAE: 28 07                             JR      Z,L0BB7
0BB0: 0F                                RRCA
0BB1: 30 04                             JR      NC,L0BB7
0BB3: DD 36 EB 07                       LD      (IX-15h),07h
0BB7: DD 7E EB                   L0BB7: LD      A,(IX-15h)
0BBA: B7                                OR      A
0BBB: 20 56                             JR      NZ,L0C13
0BBD: DD CB F9 5E                       BIT     3,(IX-07h)
0BC1: 28 08                             JR      Z,L0BCB
0BC3: DD 7E F9                          LD      A,(IX-07h)
0BC6: F6 40                             OR      40h     ; '@'
0BC8: DD 77 08                          LD      (IX+08h),A
0BCB: DD 7E EC                   L0BCB: LD      A,(IX-14h)
0BCE: C6 1C                             ADD     A,1Ch
0BD0: DD 77 FE                          LD      (IX-02h),A
0BD3: DD 7E ED                          LD      A,(IX-13h)
0BD6: CE 00                             ADC     A,00h
0BD8: DD 77 FF                          LD      (IX-01h),A
0BDB: DD 6E E9                          LD      L,(IX-17h)
0BDE: DD 66 EA                          LD      H,(IX-16h)
0BE1: 11 2F 00                          LD      DE,002Fh
0BE4: 19                                ADD     HL,DE
0BE5: 4E                                LD      C,(HL)
0BE6: 23                                INC     HL
0BE7: 46                                LD      B,(HL)
0BE8: 23                                INC     HL
0BE9: 5E                                LD      E,(HL)
0BEA: 23                                INC     HL
0BEB: 56                                LD      D,(HL)
0BEC: DD 6E FE                          LD      L,(IX-02h)
0BEF: DD 66 FF                          LD      H,(IX-01h)
0BF2: 71                                LD      (HL),C
0BF3: 23                                INC     HL
0BF4: 70                                LD      (HL),B
0BF5: 23                                INC     HL
0BF6: 73                                LD      (HL),E
0BF7: 23                                INC     HL
0BF8: 72                                LD      (HL),D
0BF9: DD 7E EC                          LD      A,(IX-14h)
0BFC: C6 20                             ADD     A,20h   ; ' '
0BFE: 4F                                LD      C,A
0BFF: DD 7E ED                          LD      A,(IX-13h)
0C02: CE 00                             ADC     A,00h
0C04: 47                                LD      B,A
0C05: DD 6E FA                          LD      L,(IX-06h)
0C08: DD 66 FB                          LD      H,(IX-05h)
0C0B: 5E                                LD      E,(HL)
0C0C: 23                                INC     HL
0C0D: 56                                LD      D,(HL)
0C0E: 7B                                LD      A,E
0C0F: 02                                LD      (BC),A
0C10: 03                                INC     BC
0C11: 7A                                LD      A,D
0C12: 02                                LD      (BC),A
0C13: DD 7E EB                   L0C13: LD      A,(IX-15h)
0C16: B7                                OR      A
0C17: C2 F4 0E                          JP      NZ,L0EF4
0C1A: DD 7E EC                          LD      A,(IX-14h)
0C1D: DD 77 EE                          LD      (IX-12h),A
0C20: DD 7E ED                          LD      A,(IX-13h)
0C23: DD 77 EF                          LD      (IX-11h),A
0C26: DD 7E EC                          LD      A,(IX-14h)
0C29: C6 06                             ADD     A,06h
0C2B: DD 77 FC                          LD      (IX-04h),A
0C2E: DD 7E ED                          LD      A,(IX-13h)
0C31: CE 00                             ADC     A,00h
0C33: DD 77 FD                          LD      (IX-03h),A
0C36: DD 6E FA                          LD      L,(IX-06h)
0C39: DD 66 FB                          LD      H,(IX-05h)
0C3C: 4E                                LD      C,(HL)
0C3D: 23                                INC     HL
0C3E: 46                                LD      B,(HL)
0C3F: C5                                PUSH    BC
0C40: DD 6E E9                          LD      L,(IX-17h)
0C43: DD 66 EA                          LD      H,(IX-16h)
0C46: E5                                PUSH    HL
0C47: CD D7 13                          CALL    L13D7
0C4A: F1                                POP     AF
0C4B: F1                                POP     AF
0C4C: 4D                                LD      C,L
0C4D: 44                                LD      B,H
0C4E: DD 6E FC                          LD      L,(IX-04h)
0C51: DD 66 FD                          LD      H,(IX-03h)
0C54: 71                                LD      (HL),C
0C55: 23                                INC     HL
0C56: 70                                LD      (HL),B
0C57: 23                                INC     HL
0C58: 73                                LD      (HL),E
0C59: 23                                INC     HL
0C5A: 72                                LD      (HL),D
0C5B: DD 7E EC                          LD      A,(IX-14h)
0C5E: C6 0A                             ADD     A,0Ah
0C60: DD 77 FE                          LD      (IX-02h),A
0C63: DD 7E ED                          LD      A,(IX-13h)
0C66: CE 00                             ADC     A,00h
0C68: DD 77 FF                          LD      (IX-01h),A
0C6B: DD 6E FA                          LD      L,(IX-06h)
0C6E: DD 66 FB                          LD      H,(IX-05h)
0C71: 4E                                LD      C,(HL)
0C72: 23                                INC     HL
0C73: 46                                LD      B,(HL)
0C74: 21 1C 00                          LD      HL,001Ch
0C77: 09                                ADD     HL,BC
0C78: E5                                PUSH    HL
0C79: CD 75 11                          CALL    L1175
0C7C: F1                                POP     AF
0C7D: 4D                                LD      C,L
0C7E: 44                                LD      B,H
0C7F: DD 6E FE                          LD      L,(IX-02h)
0C82: DD 66 FF                          LD      H,(IX-01h)
0C85: 71                                LD      (HL),C
0C86: 23                                INC     HL
0C87: 70                                LD      (HL),B
0C88: 23                                INC     HL
0C89: 73                                LD      (HL),E
0C8A: 23                                INC     HL
0C8B: 72                                LD      (HL),D
0C8C: DD 6E EC                          LD      L,(IX-14h)
0C8F: DD 66 ED                          LD      H,(IX-13h)
0C92: DD 7E E9                          LD      A,(IX-17h)
0C95: 77                                LD      (HL),A
0C96: 23                                INC     HL
0C97: DD 7E EA                          LD      A,(IX-16h)
0C9A: 77                                LD      (HL),A
0C9B: DD 4E EC                          LD      C,(IX-14h)
0C9E: DD 46 ED                          LD      B,(IX-13h)
0CA1: 03                                INC     BC
0CA2: 03                                INC     BC
0CA3: DD 6E E9                          LD      L,(IX-17h)
0CA6: DD 66 EA                          LD      H,(IX-16h)
0CA9: 11 05 00                          LD      DE,0005h
0CAC: 19                                ADD     HL,DE
0CAD: 5E                                LD      E,(HL)
0CAE: 23                                INC     HL
0CAF: 56                                LD      D,(HL)
0CB0: 7B                                LD      A,E
0CB1: 02                                LD      (BC),A
0CB2: 03                                INC     BC
0CB3: 7A                                LD      A,D
0CB4: 02                                LD      (BC),A
0CB5: DD 7E EC                          LD      A,(IX-14h)
0CB8: C6 0E                             ADD     A,0Eh
0CBA: 4F                                LD      C,A
0CBB: DD 7E ED                          LD      A,(IX-13h)
0CBE: CE 00                             ADC     A,00h
0CC0: 47                                LD      B,A
0CC1: DD 7E 08                          LD      A,(IX+08h)
0CC4: 02                                LD      (BC),A
0CC5: DD 7E EC                          LD      A,(IX-14h)
0CC8: C6 0F                             ADD     A,0Fh
0CCA: 4F                                LD      C,A
0CCB: DD 7E ED                          LD      A,(IX-13h)
0CCE: CE 00                             ADC     A,00h
0CD0: 47                                LD      B,A
0CD1: AF                                XOR     A
0CD2: 02                                LD      (BC),A
0CD3: DD 7E EC                          LD      A,(IX-14h)
0CD6: C6 18                             ADD     A,18h
0CD8: DD 77 F0                          LD      (IX-10h),A
0CDB: DD 7E ED                          LD      A,(IX-13h)
0CDE: CE 00                             ADC     A,00h
0CE0: DD 77 F1                          LD      (IX-0Fh),A
0CE3: DD 6E F0                          LD      L,(IX-10h)
0CE6: DD 66 F1                          LD      H,(IX-0Fh)
0CE9: AF                                XOR     A
0CEA: 77                                LD      (HL),A
0CEB: 23                                INC     HL
0CEC: 77                                LD      (HL),A
0CED: 23                                INC     HL
0CEE: 77                                LD      (HL),A
0CEF: 23                                INC     HL
0CF0: 77                                LD      (HL),A
0CF1: DD 7E EC                          LD      A,(IX-14h)
0CF4: C6 10                             ADD     A,10h
0CF6: DD 77 FA                          LD      (IX-06h),A
0CF9: DD 7E ED                          LD      A,(IX-13h)
0CFC: CE 00                             ADC     A,00h
0CFE: DD 77 FB                          LD      (IX-05h),A
0D01: DD 6E FA                          LD      L,(IX-06h)
0D04: DD 66 FB                          LD      H,(IX-05h)
0D07: AF                                XOR     A
0D08: 77                                LD      (HL),A
0D09: 23                                INC     HL
0D0A: 77                                LD      (HL),A
0D0B: 23                                INC     HL
0D0C: 77                                LD      (HL),A
0D0D: 23                                INC     HL
0D0E: 77                                LD      (HL),A
0D0F: DD 7E EC                          LD      A,(IX-14h)
0D12: C6 22                             ADD     A,22h   ; '"'
0D14: DD 77 F2                          LD      (IX-0Eh),A
0D17: DD 7E ED                          LD      A,(IX-13h)
0D1A: CE 00                             ADC     A,00h
0D1C: DD 77 F3                          LD      (IX-0Dh),A
0D1F: DD 4E F2                          LD      C,(IX-0Eh)
0D22: DD 46 F3                          LD      B,(IX-0Dh)
0D25: 21 00 02                          LD      HL,0200h
0D28: E5                                PUSH    HL
0D29: 26 00                             LD      H,00h
0D2B: E5                                PUSH    HL
0D2C: C5                                PUSH    BC
0D2D: CD A6 22                          CALL    L22A6
0D30: F1                                POP     AF
0D31: F1                                POP     AF
0D32: F1                                POP     AF
0D33: DD CB 08 6E                       BIT     5,(IX+08h)
0D37: CA F4 0E                          JP      Z,L0EF4
0D3A: DD 6E FE                          LD      L,(IX-02h)
0D3D: DD 66 FF                          LD      H,(IX-01h)
0D40: 4E                                LD      C,(HL)
0D41: 23                                INC     HL
0D42: 46                                LD      B,(HL)
0D43: 23                                INC     HL
0D44: 5E                                LD      E,(HL)
0D45: 23                                INC     HL
0D46: 56                                LD      D,(HL)
0D47: 7A                                LD      A,D
0D48: B3                                OR      E
0D49: B0                                OR      B
0D4A: B1                                OR      C
0D4B: CA F4 0E                          JP      Z,L0EF4
0D4E: DD 6E FA                          LD      L,(IX-06h)
0D51: DD 66 FB                          LD      H,(IX-05h)
0D54: 71                                LD      (HL),C
0D55: 23                                INC     HL
0D56: 70                                LD      (HL),B
0D57: 23                                INC     HL
0D58: 73                                LD      (HL),E
0D59: 23                                INC     HL
0D5A: 72                                LD      (HL),D
0D5B: DD 6E E9                          LD      L,(IX-17h)
0D5E: DD 66 EA                          LD      H,(IX-16h)
0D61: 11 09 00                          LD      DE,0009h
0D64: 19                                ADD     HL,DE
0D65: 4E                                LD      C,(HL)
0D66: 23                                INC     HL
0D67: 46                                LD      B,(HL)
0D68: 1E 00                             LD      E,00h
0D6A: DD 71 F5                          LD      (IX-0Bh),C
0D6D: DD 70 F6                          LD      (IX-0Ah),B
0D70: DD 73 F7                          LD      (IX-09h),E
0D73: AF                                XOR     A
0D74: DD 77 F4                          LD      (IX-0Ch),A
0D77: DD CB F5 26                       SLA     (IX-0Bh)
0D7B: DD CB F6 16                       RL      (IX-0Ah)
0D7F: DD CB F7 16                       RL      (IX-09h)
0D83: DD 5E FC                          LD      E,(IX-04h)
0D86: DD 56 FD                          LD      D,(IX-03h)
0D89: 21 39 00                          LD      HL,0039h
0D8C: 39                                ADD     HL,SP
0D8D: EB                                EX      DE,HL
0D8E: 01 04 00                          LD      BC,0004h
0D91: ED B0                             LDIR
0D93: DD 5E FE                          LD      E,(IX-02h)
0D96: DD 56 FF                          LD      D,(IX-01h)
0D99: 21 3D 00                          LD      HL,003Dh
0D9C: 39                                ADD     HL,SP
0D9D: EB                                EX      DE,HL
0D9E: 01 04 00                          LD      BC,0004h
0DA1: ED B0                             LDIR
0DA3: DD 7E EB                   L0DA3: LD      A,(IX-15h)
0DA6: B7                                OR      A
0DA7: C2 3F 0E                          JP      NZ,L0E3F
0DAA: DD 7E F4                          LD      A,(IX-0Ch)
0DAD: DD 96 FC                          SUB     (IX-04h)
0DB0: DD 7E F5                          LD      A,(IX-0Bh)
0DB3: DD 9E FD                          SBC     A,(IX-03h)
0DB6: DD 7E F6                          LD      A,(IX-0Ah)
0DB9: DD 9E FE                          SBC     A,(IX-02h)
0DBC: DD 7E F7                          LD      A,(IX-09h)
0DBF: DD 9E FF                          SBC     A,(IX-01h)
0DC2: 30 7B                             JR      NC,L0E3F
0DC4: DD 6E FA                          LD      L,(IX-06h)
0DC7: DD 66 FB                          LD      H,(IX-05h)
0DCA: E5                                PUSH    HL
0DCB: DD 6E F8                          LD      L,(IX-08h)
0DCE: DD 66 F9                          LD      H,(IX-07h)
0DD1: E5                                PUSH    HL
0DD2: DD 6E EE                          LD      L,(IX-12h)
0DD5: DD 66 EF                          LD      H,(IX-11h)
0DD8: E5                                PUSH    HL
0DD9: CD 46 14                          CALL    L1446
0DDC: F1                                POP     AF
0DDD: F1                                POP     AF
0DDE: F1                                POP     AF
0DDF: DD 75 F8                          LD      (IX-08h),L
0DE2: DD 74 F9                          LD      (IX-07h),H
0DE5: DD 73 FA                          LD      (IX-06h),E
0DE8: DD 72 FB                          LD      (IX-05h),D
0DEB: 3E 01                             LD      A,01h
0DED: DD BE F8                          CP      (IX-08h)
0DF0: 3E 00                             LD      A,00h
0DF2: DD 9E F9                          SBC     A,(IX-07h)
0DF5: 3E 00                             LD      A,00h
0DF7: DD 9E FA                          SBC     A,(IX-06h)
0DFA: 3E 00                             LD      A,00h
0DFC: DD 9E FB                          SBC     A,(IX-05h)
0DFF: 38 04                             JR      C,L0E05
0E01: DD 36 EB 02                       LD      (IX-15h),02h
0E05: DD 7E F8                   L0E05: LD      A,(IX-08h)
0E08: DD A6 F9                          AND     (IX-07h)
0E0B: DD A6 FA                          AND     (IX-06h)
0E0E: DD A6 FB                          AND     (IX-05h)
0E11: 3C                                INC     A
0E12: 20 04                             JR      NZ,L0E18
0E14: DD 36 EB 01                       LD      (IX-15h),01h
0E18: DD 7E FC                   L0E18: LD      A,(IX-04h)
0E1B: DD 96 F4                          SUB     (IX-0Ch)
0E1E: DD 77 FC                          LD      (IX-04h),A
0E21: DD 7E FD                          LD      A,(IX-03h)
0E24: DD 9E F5                          SBC     A,(IX-0Bh)
0E27: DD 77 FD                          LD      (IX-03h),A
0E2A: DD 7E FE                          LD      A,(IX-02h)
0E2D: DD 9E F6                          SBC     A,(IX-0Ah)
0E30: DD 77 FE                          LD      (IX-02h),A
0E33: DD 7E FF                          LD      A,(IX-01h)
0E36: DD 9E F7                          SBC     A,(IX-09h)
0E39: DD 77 FF                          LD      (IX-01h),A
0E3C: C3 A3 0D                          JP      L0DA3

0E3F: DD 7E EC                   L0E3F: LD      A,(IX-14h)
0E42: C6 14                             ADD     A,14h
0E44: 5F                                LD      E,A
0E45: DD 7E ED                          LD      A,(IX-13h)
0E48: CE 00                             ADC     A,00h
0E4A: 57                                LD      D,A
0E4B: 21 39 00                          LD      HL,0039h
0E4E: 39                                ADD     HL,SP
0E4F: 01 04 00                          LD      BC,0004h
0E52: ED B0                             LDIR
0E54: DD 7E EB                          LD      A,(IX-15h)
0E57: B7                                OR      A
0E58: C2 F4 0E                          JP      NZ,L0EF4
0E5B: DD 7E FC                          LD      A,(IX-04h)
0E5E: B7                                OR      A
0E5F: 20 07                             JR      NZ,L0E68
0E61: DD CB FD 46                       BIT     0,(IX-03h)
0E65: CA F4 0E                          JP      Z,L0EF4
0E68: DD 6E FA                   L0E68: LD      L,(IX-06h)
0E6B: DD 66 FB                          LD      H,(IX-05h)
0E6E: E5                                PUSH    HL
0E6F: DD 6E F8                          LD      L,(IX-08h)
0E72: DD 66 F9                          LD      H,(IX-07h)
0E75: E5                                PUSH    HL
0E76: DD 6E E9                          LD      L,(IX-17h)
0E79: DD 66 EA                          LD      H,(IX-16h)
0E7C: E5                                PUSH    HL
0E7D: CD 06 13                          CALL    L1306
0E80: F1                                POP     AF
0E81: F1                                POP     AF
0E82: F1                                POP     AF
0E83: 7A                                LD      A,D
0E84: B3                                OR      E
0E85: B4                                OR      H
0E86: B5                                OR      L
0E87: 20 06                             JR      NZ,L0E8F
0E89: DD 36 EB 02                       LD      (IX-15h),02h
0E8D: 18 65                             JR      L0EF4

0E8F: 06 09                      L0E8F: LD      B,09h
0E91: DD CB FF 3E                L0E91: SRL     (IX-01h)
0E95: DD CB FE 1E                       RR      (IX-02h)
0E99: DD CB FD 1E                       RR      (IX-03h)
0E9D: DD CB FC 1E                       RR      (IX-04h)
0EA1: 10 EE                             DJNZ    L0E91
0EA3: 7D                                LD      A,L
0EA4: DD 86 FC                          ADD     A,(IX-04h)
0EA7: 4F                                LD      C,A
0EA8: 7C                                LD      A,H
0EA9: DD 8E FD                          ADC     A,(IX-03h)
0EAC: 47                                LD      B,A
0EAD: 7B                                LD      A,E
0EAE: DD 8E FE                          ADC     A,(IX-02h)
0EB1: 5F                                LD      E,A
0EB2: 7A                                LD      A,D
0EB3: DD 8E FF                          ADC     A,(IX-01h)
0EB6: 57                                LD      D,A
0EB7: DD 6E F0                          LD      L,(IX-10h)
0EBA: DD 66 F1                          LD      H,(IX-0Fh)
0EBD: 71                                LD      (HL),C
0EBE: 23                                INC     HL
0EBF: 70                                LD      (HL),B
0EC0: 23                                INC     HL
0EC1: 73                                LD      (HL),E
0EC2: 23                                INC     HL
0EC3: 72                                LD      (HL),D
0EC4: DD 6E E9                          LD      L,(IX-17h)
0EC7: DD 66 EA                          LD      H,(IX-16h)
0ECA: 23                                INC     HL
0ECB: 7E                                LD      A,(HL)
0ECC: DD 77 FF                          LD      (IX-01h),A
0ECF: 21 01 00                          LD      HL,0001h
0ED2: E5                                PUSH    HL
0ED3: D5                                PUSH    DE
0ED4: C5                                PUSH    BC
0ED5: DD 6E F2                          LD      L,(IX-0Eh)
0ED8: DD 66 F3                          LD      H,(IX-0Dh)
0EDB: E5                                PUSH    HL
0EDC: DD 7E FF                          LD      A,(IX-01h)
0EDF: F5                                PUSH    AF
0EE0: 33                                INC     SP
0EE1: CD EE 02                          CALL    L02EE
0EE4: FD 21 09 00                       LD      IY,0009h
0EE8: FD 39                             ADD     IY,SP
0EEA: FD F9                             LD      SP,IY
0EEC: 7D                                LD      A,L
0EED: B7                                OR      A
0EEE: 28 04                             JR      Z,L0EF4
0EF0: DD 36 EB 01                       LD      (IX-15h),01h
0EF4: DD 7E EB                   L0EF4: LD      A,(IX-15h)
0EF7: B7                                OR      A
0EF8: 28 0A                             JR      Z,L0F04
0EFA: DD 6E EC                          LD      L,(IX-14h)
0EFD: DD 66 ED                          LD      H,(IX-13h)
0F00: AF                                XOR     A
0F01: 77                                LD      (HL),A
0F02: 23                                INC     HL
0F03: 77                                LD      (HL),A
0F04: DD 6E EB                   L0F04: LD      L,(IX-15h)
0F07: DD F9                      L0F07: LD      SP,IX
0F09: DD E1                             POP     IX
0F0B: C9                                RET

                                        ; --- START PROC L0F0C ---
0F0C: CD CD 13                   L0F0C: CALL    L13CD
0F0F: F5                                PUSH    AF
0F10: F5                                PUSH    AF
0F11: F5                                PUSH    AF
0F12: DD 7E 06                          LD      A,(IX+06h)
0F15: DD 77 FA                          LD      (IX-06h),A
0F18: DD 7E 07                          LD      A,(IX+07h)
0F1B: DD 77 FB                          LD      (IX-05h),A
0F1E: 21 00 00                          LD      HL,0000h
0F21: 39                                ADD     HL,SP
0F22: E5                                PUSH    HL
0F23: CD 48 3A                          CALL    L3A48
0F26: F1                                POP     AF
0F27: DD 75 FE                          LD      (IX-02h),L
0F2A: DD 74 FF                          LD      (IX-01h),H
0F2D: DD CB FF 7E                       BIT     7,(IX-01h)
0F31: 28 05                             JR      Z,L0F38
0F33: 2E 0B                             LD      L,0Bh
0F35: C3 B6 0F                          JP      L0FB6

0F38: 01 B3 F2                   L0F38: LD      BC,0F2B3h
0F3B: DD 6E FE                          LD      L,(IX-02h)
0F3E: DD 66 FF                          LD      H,(IX-01h)
0F41: 29                                ADD     HL,HL
0F42: 09                                ADD     HL,BC
0F43: DD 75 FE                          LD      (IX-02h),L
0F46: DD 74 FF                          LD      (IX-01h),H
0F49: 4E                                LD      C,(HL)
0F4A: 23                                INC     HL
0F4B: 46                                LD      B,(HL)
0F4C: 59                                LD      E,C
0F4D: 78                                LD      A,B
0F4E: 57                                LD      D,A
0F4F: B1                                OR      C
0F50: 28 02                             JR      Z,L0F54
0F52: AF                                XOR     A
0F53: 12                                LD      (DE),A
0F54: DD 7E 05                   L0F54: LD      A,(IX+05h)
0F57: DD B6 04                          OR      (IX+04h)
0F5A: 28 08                             JR      Z,L0F64
0F5C: DD 4E 04                          LD      C,(IX+04h)
0F5F: DD 46 05                          LD      B,(IX+05h)
0F62: AF                                XOR     A
0F63: 02                                LD      (BC),A
0F64: DD 6E FE                   L0F64: LD      L,(IX-02h)
0F67: DD 66 FF                          LD      H,(IX-01h)
0F6A: DD 7E 04                          LD      A,(IX+04h)
0F6D: 77                                LD      (HL),A
0F6E: 23                                INC     HL
0F6F: DD 7E 05                          LD      A,(IX+05h)
0F72: 77                                LD      (HL),A
0F73: DD 7E 08                          LD      A,(IX+08h)
0F76: B7                                OR      A
0F77: 20 03                             JR      NZ,L0F7C
0F79: 6F                                LD      L,A
0F7A: 18 3A                             JR      L0FB6

0F7C: 21 0A 00                   L0F7C: LD      HL,000Ah
0F7F: 39                                ADD     HL,SP
0F80: DD 75 FE                          LD      (IX-02h),L
0F83: DD 74 FF                          LD      (IX-01h),H
0F86: DD 7E FE                          LD      A,(IX-02h)
0F89: DD 77 FC                          LD      (IX-04h),A
0F8C: DD 7E FF                          LD      A,(IX-01h)
0F8F: DD 77 FD                          LD      (IX-03h),A
0F92: 21 0C 00                          LD      HL,000Ch
0F95: 39                                ADD     HL,SP
0F96: DD 75 FE                          LD      (IX-02h),L
0F99: DD 74 FF                          LD      (IX-01h),H
0F9C: AF                                XOR     A
0F9D: F5                                PUSH    AF
0F9E: 33                                INC     SP
0F9F: DD 6E FC                          LD      L,(IX-04h)
0FA2: DD 66 FD                          LD      H,(IX-03h)
0FA5: E5                                PUSH    HL
0FA6: DD 6E FE                          LD      L,(IX-02h)
0FA9: DD 66 FF                          LD      H,(IX-01h)
0FAC: E5                                PUSH    HL
0FAD: CD AC 1A                          CALL    L1AAC
0FB0: F1                                POP     AF
0FB1: F1                                POP     AF
0FB2: 33                                INC     SP
0FB3: DD 75 FF                          LD      (IX-01h),L
0FB6: DD F9                      L0FB6: LD      SP,IX
0FB8: DD E1                             POP     IX
0FBA: C9                                RET

                                        ; --- START PROC L0FBB ---
0FBB: CD CD 13                   L0FBB: CALL    L13CD
0FBE: F5                                PUSH    AF
0FBF: F5                                PUSH    AF
0FC0: F5                                PUSH    AF
0FC1: DD 4E 04                          LD      C,(IX+04h)
0FC4: DD 46 05                          LD      B,(IX+05h)
0FC7: 0A                                LD      A,(BC)
0FC8: DD 77 FA                          LD      (IX-06h),A
0FCB: 03                                INC     BC
0FCC: 0A                                LD      A,(BC)
0FCD: DD 77 FB                          LD      (IX-05h),A
0FD0: 0B                                DEC     BC
0FD1: C5                                PUSH    BC
0FD2: 21 01 00                          LD      HL,0001h
0FD5: E5                                PUSH    HL
0FD6: C5                                PUSH    BC
0FD7: CD D0 19                          CALL    L19D0
0FDA: F1                                POP     AF
0FDB: F1                                POP     AF
0FDC: 7D                                LD      A,L
0FDD: C1                                POP     BC
0FDE: 5F                                LD      E,A
0FDF: B7                                OR      A
0FE0: C2 61 10                          JP      NZ,L1061
0FE3: 69                                LD      L,C
0FE4: 60                                LD      H,B
0FE5: 11 16 00                          LD      DE,0016h
0FE8: 19                                ADD     HL,DE
0FE9: 5E                                LD      E,(HL)
0FEA: 23                                INC     HL
0FEB: 56                                LD      D,(HL)
0FEC: 23                                INC     HL
0FED: 23                                INC     HL
0FEE: 7E                                LD      A,(HL)
0FEF: 2B                                DEC     HL
0FF0: 6E                                LD      L,(HL)
0FF1: 67                                LD      H,A
0FF2: C5                                PUSH    BC
0FF3: E5                                PUSH    HL
0FF4: D5                                PUSH    DE
0FF5: DD 6E FA                          LD      L,(IX-06h)
0FF8: DD 66 FB                          LD      H,(IX-05h)
0FFB: E5                                PUSH    HL
0FFC: CD DD 22                          CALL    L22DD
0FFF: F1                                POP     AF
1000: F1                                POP     AF
1001: F1                                POP     AF
1002: 7D                                LD      A,L
1003: C1                                POP     BC
1004: 5F                                LD      E,A
1005: B7                                OR      A
1006: 20 59                             JR      NZ,L1061
1008: 21 1A 00                          LD      HL,001Ah
100B: 09                                ADD     HL,BC
100C: DD 75 FC                          LD      (IX-04h),L
100F: DD 74 FD                          LD      (IX-03h),H
1012: 56                                LD      D,(HL)
1013: 23                                INC     HL
1014: 6E                                LD      L,(HL)
1015: DD 72 FE                          LD      (IX-02h),D
1018: DD 75 FF                          LD      (IX-01h),L
101B: C5                                PUSH    BC
101C: D5                                PUSH    DE
101D: 21 20 00                          LD      HL,0020h
1020: E5                                PUSH    HL
1021: 2E 00                             LD      L,00h
1023: E5                                PUSH    HL
1024: DD 6E FE                          LD      L,(IX-02h)
1027: DD 66 FF                          LD      H,(IX-01h)
102A: E5                                PUSH    HL
102B: CD A6 22                          CALL    L22A6
102E: F1                                POP     AF
102F: F1                                POP     AF
1030: F1                                POP     AF
1031: D1                                POP     DE
1032: C1                                POP     BC
1033: 21 1C 00                          LD      HL,001Ch
1036: 09                                ADD     HL,BC
1037: DD 75 FE                          LD      (IX-02h),L
103A: DD 74 FF                          LD      (IX-01h),H
103D: DD 6E FC                          LD      L,(IX-04h)
1040: DD 66 FD                          LD      H,(IX-03h)
1043: 4E                                LD      C,(HL)
1044: 23                                INC     HL
1045: 46                                LD      B,(HL)
1046: D5                                PUSH    DE
1047: 21 0B 00                          LD      HL,000Bh
104A: E5                                PUSH    HL
104B: DD 6E FE                          LD      L,(IX-02h)
104E: DD 66 FF                          LD      H,(IX-01h)
1051: E5                                PUSH    HL
1052: C5                                PUSH    BC
1053: CD 13 09                          CALL    L0913
1056: F1                                POP     AF
1057: F1                                POP     AF
1058: F1                                POP     AF
1059: D1                                POP     DE
105A: E1                                POP     HL
105B: E5                                PUSH    HL
105C: 23                                INC     HL
105D: 23                                INC     HL
105E: 23                                INC     HL
105F: 36 01                             LD      (HL),01h
1061: 6B                         L1061: LD      L,E
1062: DD F9                             LD      SP,IX
1064: DD E1                             POP     IX
1066: C9                                RET

1067: DD                         L1067: DB      0DDh
1068: E5                                DB      0E5h
1069: DD                                DB      0DDh
106A: 21                                DB      21h     ; '!'
106B: 00                                DB      00h
106C: 00                                DB      00h
106D: DD                                DB      0DDh
106E: 39                                DB      39h     ; '9'
106F: DD                                DB      0DDh
1070: 6E                                DB      6Eh     ; 'n'
1071: 05                                DB      05h
1072: DD                                DB      0DDh
1073: 66                                DB      66h     ; 'f'
1074: 06                                DB      06h
1075: 4E 23 46 2B 59 50                 DB      "N#F+YP"
107B: 13                                DB      13h
107C: 73                                DB      73h     ; 's'
107D: 23                                DB      23h     ; '#'
107E: 72                                DB      72h     ; 'r'
107F: DD                                DB      0DDh
1080: 7E                                DB      7Eh     ; '~'
1081: 04                                DB      04h
1082: 02                                DB      02h
1083: DD                                DB      0DDh
1084: E1                                DB      0E1h
1085: C9                                DB      0C9h
1086: 21                                DB      21h     ; '!'
1087: 02                                DB      02h
1088: 00                                DB      00h
1089: 39                                DB      39h     ; '9'
108A: FD                                DB      0FDh
108B: 21                                DB      21h     ; '!'
108C: 06                                DB      06h
108D: 00                                DB      00h
108E: FD                                DB      0FDh
108F: 39                                DB      39h     ; '9'
1090: FD                                DB      0FDh
1091: 4E                                DB      4Eh     ; 'N'
1092: 00                                DB      00h
1093: FD                                DB      0FDh
1094: 46                                DB      46h     ; 'F'
1095: 01                                DB      01h
1096: C5                                DB      0C5h
1097: FD                                DB      0FDh
1098: 2B                                DB      2Bh     ; '+'
1099: FD                                DB      0FDh
109A: 2B                                DB      2Bh     ; '+'
109B: FD                                DB      0FDh
109C: 4E                                DB      4Eh     ; 'N'
109D: 00                                DB      00h
109E: FD                                DB      0FDh
109F: 46                                DB      46h     ; 'F'
10A0: 01                                DB      01h
10A1: C5                                DB      0C5h
10A2: E5                                DB      0E5h
10A3: 21                                DB      21h     ; '!'
10A4: 67                                DB      67h     ; 'g'
10A5: 10                                DB      10h
10A6: E5                                DB      0E5h
10A7: CD                                DB      0CDh
10A8: BE                                DB      0BEh
10A9: 2E                                DB      2Eh     ; '.'
10AA: F1                                DB      0F1h
10AB: F1                                DB      0F1h
10AC: F1                                DB      0F1h
10AD: F1                                DB      0F1h
10AE: 4D                                DB      4Dh     ; 'M'
10AF: 44                                DB      44h     ; 'D'
10B0: D1                                DB      0D1h
10B1: E1                                DB      0E1h
10B2: E5                                DB      0E5h
10B3: D5                                DB      0D5h
10B4: 36                                DB      36h     ; '6'
10B5: 00                                DB      00h
10B6: 69                                DB      69h     ; 'i'
10B7: 60                                DB      60h     ; '`'
10B8: C9                                DB      0C9h

                                        ; --- START PROC L10B9 ---
10B9: DD E5                      L10B9: PUSH    IX
10BB: DD 21 00 00                       LD      IX,0000h
10BF: DD 39                             ADD     IX,SP
10C1: 21 08 00                          LD      HL,0008h
10C4: 39                                ADD     HL,SP
10C5: EB                                EX      DE,HL
10C6: 21 04 00                          LD      HL,0004h
10C9: 39                                ADD     HL,SP
10CA: D5                                PUSH    DE
10CB: DD 4E 06                          LD      C,(IX+06h)
10CE: DD 46 07                          LD      B,(IX+07h)
10D1: C5                                PUSH    BC
10D2: E5                                PUSH    HL
10D3: 21 67 10                          LD      HL,1067h
10D6: E5                                PUSH    HL
10D7: CD BE 2E                          CALL    L2EBE
10DA: F1                                POP     AF
10DB: F1                                POP     AF
10DC: F1                                POP     AF
10DD: F1                                POP     AF
10DE: 4D                                LD      C,L
10DF: 44                                LD      B,H
10E0: DD 5E 04                          LD      E,(IX+04h)
10E3: DD 56 05                          LD      D,(IX+05h)
10E6: AF                                XOR     A
10E7: 12                                LD      (DE),A
10E8: 69                                LD      L,C
10E9: 60                                LD      H,B
10EA: DD E1                             POP     IX
10EC: C9                                RET

                                        ; --- START PROC L10ED ---
10ED: CD CD 13                   L10ED: CALL    L13CD
10F0: F5                                PUSH    AF
10F1: F5                                PUSH    AF
10F2: 3B                                DEC     SP
10F3: DD 36 FB 09                       LD      (IX-05h),09h
10F7: DD 4E 04                          LD      C,(IX+04h)
10FA: DD 46 05                          LD      B,(IX+05h)
10FD: DD 7E 05                          LD      A,(IX+05h)
1100: DD B6 04                          OR      (IX+04h)
1103: 28 4D                             JR      Z,L1152
1105: 69                                LD      L,C
1106: 60                                LD      H,B
1107: 5E                                LD      E,(HL)
1108: 23                                INC     HL
1109: 56                                LD      D,(HL)
110A: 7A                                LD      A,D
110B: B3                                OR      E
110C: 28 44                             JR      Z,L1152
110E: 1A                                LD      A,(DE)
110F: B7                                OR      A
1110: 28 40                             JR      Z,L1152
1112: 69                                LD      L,C
1113: 60                                LD      H,B
1114: 23                                INC     HL
1115: 23                                INC     HL
1116: 7E                                LD      A,(HL)
1117: DD 77 FC                          LD      (IX-04h),A
111A: 23                                INC     HL
111B: 7E                                LD      A,(HL)
111C: DD 77 FD                          LD      (IX-03h),A
111F: 6B                                LD      L,E
1120: 62                                LD      H,D
1121: 23                                INC     HL
1122: 23                                INC     HL
1123: 23                                INC     HL
1124: 23                                INC     HL
1125: 23                                INC     HL
1126: 7E                                LD      A,(HL)
1127: DD 77 FE                          LD      (IX-02h),A
112A: 23                                INC     HL
112B: 7E                                LD      A,(HL)
112C: DD 77 FF                          LD      (IX-01h),A
112F: DD 7E FC                          LD      A,(IX-04h)
1132: DD 96 FE                          SUB     (IX-02h)
1135: 20 1B                             JR      NZ,L1152
1137: DD 7E FD                          LD      A,(IX-03h)
113A: DD 96 FF                          SUB     (IX-01h)
113D: 20 13                             JR      NZ,L1152
113F: EB                                EX      DE,HL
1140: 23                                INC     HL
1141: 7E                                LD      A,(HL)
1142: C5                                PUSH    BC
1143: F5                                PUSH    AF
1144: 33                                INC     SP
1145: CD E0 02                          CALL    L02E0
1148: 33                                INC     SP
1149: 7D                                LD      A,L
114A: C1                                POP     BC
114B: 0F                                RRCA
114C: 38 04                             JR      C,L1152
114E: AF                                XOR     A
114F: DD 77 FB                          LD      (IX-05h),A
1152: DD 5E 06                   L1152: LD      E,(IX+06h)
1155: DD 56 07                          LD      D,(IX+07h)
1158: DD 7E FB                          LD      A,(IX-05h)
115B: B7                                OR      A
115C: 20 07                             JR      NZ,L1165
115E: 69                                LD      L,C
115F: 60                                LD      H,B
1160: 4E                                LD      C,(HL)
1161: 23                                INC     HL
1162: 46                                LD      B,(HL)
1163: 18 03                             JR      L1168

1165: 01 00 00                   L1165: LD      BC,0000h
1168: 79                         L1168: LD      A,C
1169: 12                                LD      (DE),A
116A: 13                                INC     DE
116B: 78                                LD      A,B
116C: 12                                LD      (DE),A
116D: DD 6E FB                          LD      L,(IX-05h)
1170: DD F9                             LD      SP,IX
1172: DD E1                             POP     IX
1174: C9                                RET

                                        ; --- START PROC L1175 ---
1175: CD CD 13                   L1175: CALL    L13CD
1178: F5                                PUSH    AF
1179: F5                                PUSH    AF
117A: DD 6E 04                          LD      L,(IX+04h)
117D: DD 66 05                          LD      H,(IX+05h)
1180: 23                                INC     HL
1181: 23                                INC     HL
1182: 23                                INC     HL
1183: 4E                                LD      C,(HL)
1184: 06 00                             LD      B,00h
1186: 1E 00                             LD      E,00h
1188: DD 71 FD                          LD      (IX-03h),C
118B: DD 70 FE                          LD      (IX-02h),B
118E: DD 73 FF                          LD      (IX-01h),E
1191: AF                                XOR     A
1192: DD 77 FC                          LD      (IX-04h),A
1195: DD 6E 04                          LD      L,(IX+04h)
1198: DD 66 05                          LD      H,(IX+05h)
119B: 23                                INC     HL
119C: 23                                INC     HL
119D: 4E                                LD      C,(HL)
119E: 06 00                             LD      B,00h
11A0: 11 00 00                          LD      DE,0000h
11A3: 79                                LD      A,C
11A4: DD B6 FC                          OR      (IX-04h)
11A7: 4F                                LD      C,A
11A8: 78                                LD      A,B
11A9: DD B6 FD                          OR      (IX-03h)
11AC: 47                                LD      B,A
11AD: 7B                                LD      A,E
11AE: DD B6 FE                          OR      (IX-02h)
11B1: 5F                                LD      E,A
11B2: 7A                                LD      A,D
11B3: DD B6 FF                          OR      (IX-01h)
11B6: DD 71 FD                          LD      (IX-03h),C
11B9: DD 70 FE                          LD      (IX-02h),B
11BC: DD 73 FF                          LD      (IX-01h),E
11BF: AF                                XOR     A
11C0: DD 77 FC                          LD      (IX-04h),A
11C3: DD 6E 04                          LD      L,(IX+04h)
11C6: DD 66 05                          LD      H,(IX+05h)
11C9: 23                                INC     HL
11CA: 4E                                LD      C,(HL)
11CB: 06 00                             LD      B,00h
11CD: 11 00 00                          LD      DE,0000h
11D0: 79                                LD      A,C
11D1: DD B6 FC                          OR      (IX-04h)
11D4: 4F                                LD      C,A
11D5: 78                                LD      A,B
11D6: DD B6 FD                          OR      (IX-03h)
11D9: 47                                LD      B,A
11DA: 7B                                LD      A,E
11DB: DD B6 FE                          OR      (IX-02h)
11DE: 5F                                LD      E,A
11DF: 7A                                LD      A,D
11E0: DD B6 FF                          OR      (IX-01h)
11E3: DD 71 FD                          LD      (IX-03h),C
11E6: DD 70 FE                          LD      (IX-02h),B
11E9: DD 73 FF                          LD      (IX-01h),E
11EC: AF                                XOR     A
11ED: DD 77 FC                          LD      (IX-04h),A
11F0: DD 6E 04                          LD      L,(IX+04h)
11F3: DD 66 05                          LD      H,(IX+05h)
11F6: 4E                                LD      C,(HL)
11F7: 06 00                             LD      B,00h
11F9: 11 00 00                          LD      DE,0000h
11FC: DD 7E FC                          LD      A,(IX-04h)
11FF: B1                                OR      C
1200: 6F                                LD      L,A
1201: DD 7E FD                          LD      A,(IX-03h)
1204: B0                                OR      B
1205: 67                                LD      H,A
1206: DD 7E FE                          LD      A,(IX-02h)
1209: B3                                OR      E
120A: 5F                                LD      E,A
120B: DD 7E FF                          LD      A,(IX-01h)
120E: B2                                OR      D
120F: 57                                LD      D,A
1210: DD F9                             LD      SP,IX
1212: DD E1                             POP     IX
1214: C9                                RET

                                        ; --- START PROC L1215 ---
1215: FD 21 02 00                L1215: LD      IY,0002h
1219: FD 39                             ADD     IY,SP
121B: FD 6E 02                          LD      L,(IY+02h)
121E: FD 66 03                          LD      H,(IY+03h)
1221: E5                                PUSH    HL
1222: FD 6E 00                          LD      L,(IY+00h)
1225: FD 66 01                          LD      H,(IY+01h)
1228: E5                                PUSH    HL
1229: CD F1 12                          CALL    L12F1
122C: F1                                POP     AF
122D: F1                                POP     AF
122E: 3E 01                             LD      A,01h
1230: D3 91                             OUT     (91h),A
1232: DB 91                      L1232: IN      A,(91h)
1234: 0F                                RRCA
1235: D0                                RET     NC
1236: 2A B8 F2                          LD      HL,(0F2B8h)
1239: CD AC 3D                          CALL    L3DAC
123C: 18 F4                             JR      L1232

                                        ; --- START PROC L123E ---
123E: 21 02 00                   L123E: LD      HL,0002h
1241: 39                                ADD     HL,SP
1242: 7E                                LD      A,(HL)
1243: 23                                INC     HL
1244: 66                                LD      H,(HL)
1245: 6F                                LD      L,A
1246: 01 92 00                          LD      BC,0092h
1249: ED B2                             INIR
124B: ED B2                             INIR
124D: C9                                RET

                                        ; --- START PROC L124E ---
124E: FD 21 02 00                L124E: LD      IY,0002h
1252: FD 39                             ADD     IY,SP
1254: FD 6E 02                          LD      L,(IY+02h)
1257: FD 66 03                          LD      H,(IY+03h)
125A: E5                                PUSH    HL
125B: FD 6E 00                          LD      L,(IY+00h)
125E: FD 66 01                          LD      H,(IY+01h)
1261: E5                                PUSH    HL
1262: CD 15 12                          CALL    L1215
1265: F1                                POP     AF
1266: F1                                POP     AF
1267: 21 06 00                          LD      HL,0006h
126A: 39                                ADD     HL,SP
126B: 4E                                LD      C,(HL)
126C: 23                                INC     HL
126D: 46                                LD      B,(HL)
126E: C5                                PUSH    BC
126F: CD 3E 12                          CALL    L123E
1272: F1                                POP     AF
1273: C9                                RET

                                        ; --- START PROC L1274 ---
1274: FD 21 00 00                L1274: LD      IY,0000h
1278: FD 39                             ADD     IY,SP
127A: FD 6E 02                          LD      L,(IY+02h)
127D: FD 66 03                          LD      H,(IY+03h)
1280: FD 46 04                          LD      B,(IY+04h)
1283: 0E 80                             LD      C,80h
1285: ED B3                             OTIR
1287: C9                                RET

                                        ; --- START PROC L1288 ---
1288: DD E5                      L1288: PUSH    IX
128A: DD 21 00 00                       LD      IX,0000h
128E: DD 39                             ADD     IX,SP
1290: DD 4E 04                          LD      C,(IX+04h)
1293: DD 46 05                          LD      B,(IX+05h)
1296: DD 7E 06                   L1296: LD      A,(IX+06h)
1299: B7                                OR      A
129A: 28 3B                             JR      Z,L12D7
129C: DB 80                             IN      A,(80h)
129E: 5F                                LD      E,A
129F: 3E FF                             LD      A,0FFh
12A1: 93                                SUB     E
12A2: 67                                LD      H,A
12A3: DD 7E 06                          LD      A,(IX+06h)
12A6: 94                                SUB     H
12A7: 30 03                             JR      NC,L12AC
12A9: DD 66 06                          LD      H,(IX+06h)
12AC: 7C                         L12AC: LD      A,H
12AD: B7                                OR      A
12AE: 20 0A                             JR      NZ,L12BA
12B0: C5                                PUSH    BC
12B1: 2A B8 F2                          LD      HL,(0F2B8h)
12B4: CD AC 3D                          CALL    L3DAC
12B7: C1                                POP     BC
12B8: 18 DC                             JR      L1296

12BA: 59                         L12BA: LD      E,C
12BB: 50                                LD      D,B
12BC: E5                                PUSH    HL
12BD: C5                                PUSH    BC
12BE: E5                                PUSH    HL
12BF: 33                                INC     SP
12C0: D5                                PUSH    DE
12C1: CD 74 12                          CALL    L1274
12C4: F1                                POP     AF
12C5: 33                                INC     SP
12C6: C1                                POP     BC
12C7: E1                                POP     HL
12C8: 79                                LD      A,C
12C9: 84                                ADD     A,H
12CA: 4F                                LD      C,A
12CB: 30 01                             JR      NC,L12CE
12CD: 04                                INC     B
12CE: DD 7E 06                   L12CE: LD      A,(IX+06h)
12D1: 94                                SUB     H
12D2: DD 77 06                          LD      (IX+06h),A
12D5: 18 BF                             JR      L1296

12D7: DD E1                      L12D7: POP     IX
12D9: C9                                RET

                                        ; --- START PROC L12DA ---
12DA: C1                         L12DA: POP     BC
12DB: E1                                POP     HL
12DC: E5                                PUSH    HL
12DD: C5                                PUSH    BC
12DE: E5                                PUSH    HL
12DF: CD BE 13                          CALL    L13BE
12E2: F1                                POP     AF
12E3: 65                                LD      H,L
12E4: D1                                POP     DE
12E5: C1                                POP     BC
12E6: C5                                PUSH    BC
12E7: D5                                PUSH    DE
12E8: E5                                PUSH    HL
12E9: 33                                INC     SP
12EA: C5                                PUSH    BC
12EB: CD 88 12                          CALL    L1288
12EE: F1                                POP     AF
12EF: 33                                INC     SP
12F0: C9                                RET

                                        ; --- START PROC L12F1 ---
12F1: 21 02 00                   L12F1: LD      HL,0002h
12F4: 39                                ADD     HL,SP
12F5: 01 90 04                          LD      BC,0490h
12F8: ED B3                             OTIR
12FA: C9                                RET

12FB: 81                         L12FB: DB      81h
12FC: 9F                         L12FC: DB      9Fh
12FD: E0                                DB      0E0h
12FE: FC                         L12FE: DB      0FCh
12FF: 40                                DB      40h     ; '@'
1300: 7E                         L1300: DB      7Eh     ; '~'
1301: 80                                DB      80h
1302: FC                         L1302: DB      0FCh
1303: 00                                DB      00h
1304: 00                         L1304: DB      00h
1305: C9                                DB      0C9h

                                        ; --- START PROC L1306 ---
1306: CD CD 13                   L1306: CALL    L13CD
1309: F5                                PUSH    AF
130A: F5                                PUSH    AF
130B: DD 7E 06                          LD      A,(IX+06h)
130E: C6 FE                             ADD     A,0FEh
1310: DD 77 06                          LD      (IX+06h),A
1313: DD 7E 07                          LD      A,(IX+07h)
1316: CE FF                             ADC     A,0FFh
1318: DD 77 07                          LD      (IX+07h),A
131B: DD 7E 08                          LD      A,(IX+08h)
131E: CE FF                             ADC     A,0FFh
1320: DD 77 08                          LD      (IX+08h),A
1323: DD 7E 09                          LD      A,(IX+09h)
1326: CE FF                             ADC     A,0FFh
1328: DD 77 09                          LD      (IX+09h),A
132B: DD 4E 04                          LD      C,(IX+04h)
132E: DD 46 05                          LD      B,(IX+05h)
1331: 69                                LD      L,C
1332: 60                                LD      H,B
1333: 11 17 00                          LD      DE,0017h
1336: 19                                ADD     HL,DE
1337: 5E                                LD      E,(HL)
1338: 23                                INC     HL
1339: 56                                LD      D,(HL)
133A: 23                                INC     HL
133B: 23                                INC     HL
133C: 7E                                LD      A,(HL)
133D: 2B                                DEC     HL
133E: 6E                                LD      L,(HL)
133F: 67                                LD      H,A
1340: 7B                                LD      A,E
1341: C6 FE                             ADD     A,0FEh
1343: 5F                                LD      E,A
1344: 7A                                LD      A,D
1345: CE FF                             ADC     A,0FFh
1347: 57                                LD      D,A
1348: 7D                                LD      A,L
1349: CE FF                             ADC     A,0FFh
134B: 6F                                LD      L,A
134C: 7C                                LD      A,H
134D: CE FF                             ADC     A,0FFh
134F: 67                                LD      H,A
1350: DD 7E 06                          LD      A,(IX+06h)
1353: 93                                SUB     E
1354: DD 7E 07                          LD      A,(IX+07h)
1357: 9A                                SBC     A,D
1358: DD 7E 08                          LD      A,(IX+08h)
135B: 9D                                SBC     A,L
135C: DD 7E 09                          LD      A,(IX+09h)
135F: 9C                                SBC     A,H
1360: 38 07                             JR      C,L1369
1362: 21 00 00                          LD      HL,0000h
1365: 5D                                LD      E,L
1366: 54                                LD      D,H
1367: 18 50                             JR      L13B9

1369: 69                         L1369: LD      L,C
136A: 60                                LD      H,B
136B: 11 2B 00                          LD      DE,002Bh
136E: 19                                ADD     HL,DE
136F: 7E                                LD      A,(HL)
1370: DD 77 FC                          LD      (IX-04h),A
1373: 23                                INC     HL
1374: 7E                                LD      A,(HL)
1375: DD 77 FD                          LD      (IX-03h),A
1378: 23                                INC     HL
1379: 7E                                LD      A,(HL)
137A: DD 77 FE                          LD      (IX-02h),A
137D: 23                                INC     HL
137E: 7E                                LD      A,(HL)
137F: DD 77 FF                          LD      (IX-01h),A
1382: 69                                LD      L,C
1383: 60                                LD      H,B
1384: 11 09 00                          LD      DE,0009h
1387: 19                                ADD     HL,DE
1388: 4E                                LD      C,(HL)
1389: 23                                INC     HL
138A: 46                                LD      B,(HL)
138B: 11 00 00                          LD      DE,0000h
138E: DD 6E 08                          LD      L,(IX+08h)
1391: DD 66 09                          LD      H,(IX+09h)
1394: E5                                PUSH    HL
1395: DD 6E 06                          LD      L,(IX+06h)
1398: DD 66 07                          LD      H,(IX+07h)
139B: E5                                PUSH    HL
139C: D5                                PUSH    DE
139D: C5                                PUSH    BC
139E: CD E2 4E                          CALL    L4EE2
13A1: F1                                POP     AF
13A2: F1                                POP     AF
13A3: F1                                POP     AF
13A4: F1                                POP     AF
13A5: DD 7E FC                          LD      A,(IX-04h)
13A8: 85                                ADD     A,L
13A9: 6F                                LD      L,A
13AA: DD 7E FD                          LD      A,(IX-03h)
13AD: 8C                                ADC     A,H
13AE: 67                                LD      H,A
13AF: DD 7E FE                          LD      A,(IX-02h)
13B2: 8B                                ADC     A,E
13B3: 5F                                LD      E,A
13B4: DD 7E FF                          LD      A,(IX-01h)
13B7: 8A                                ADC     A,D
13B8: 57                                LD      D,A
13B9: DD F9                      L13B9: LD      SP,IX
13BB: DD E1                             POP     IX
13BD: C9                                RET

                                        ; --- START PROC L13BE ---
13BE: C1                         L13BE: POP     BC
13BF: E1                                POP     HL
13C0: E5                                PUSH    HL
13C1: C5                                PUSH    BC
13C2: AF                                XOR     A
13C3: 47                                LD      B,A
13C4: 4F                                LD      C,A
13C5: ED B1                             CPIR
13C7: 21 FF FF                          LD      HL,0FFFFh
13CA: ED 42                             SBC     HL,BC
13CC: C9                                RET

                                        ; --- START PROC L13CD ---
13CD: E1                         L13CD: POP     HL
13CE: DD E5                             PUSH    IX
13D0: DD 21 00 00                       LD      IX,0000h
13D4: DD 39                             ADD     IX,SP
13D6: E9                                JP      (HL)

                                        ; --- START PROC L13D7 ---
13D7: CD CD 13                   L13D7: CALL    L13CD
13DA: F5                                PUSH    AF
13DB: F5                                PUSH    AF
13DC: DD 7E 06                          LD      A,(IX+06h)
13DF: C6 1A                             ADD     A,1Ah
13E1: 4F                                LD      C,A
13E2: DD 7E 07                          LD      A,(IX+07h)
13E5: CE 00                             ADC     A,00h
13E7: 47                                LD      B,A
13E8: C5                                PUSH    BC
13E9: CD BE 22                          CALL    L22BE
13EC: F1                                POP     AF
13ED: DD 75 FC                          LD      (IX-04h),L
13F0: DD 74 FD                          LD      (IX-03h),H
13F3: AF                                XOR     A
13F4: DD 77 FE                          LD      (IX-02h),A
13F7: DD 77 FF                          LD      (IX-01h),A
13FA: DD 4E 04                          LD      C,(IX+04h)
13FD: DD 46 05                          LD      B,(IX+05h)
1400: 0A                                LD      A,(BC)
1401: D6 03                             SUB     03h
1403: 20 30                             JR      NZ,L1435
1405: DD 7E 06                          LD      A,(IX+06h)
1408: C6 14                             ADD     A,14h
140A: 4F                                LD      C,A
140B: DD 7E 07                          LD      A,(IX+07h)
140E: CE 00                             ADC     A,00h
1410: 47                                LD      B,A
1411: C5                                PUSH    BC
1412: CD BE 22                          CALL    L22BE
1415: F1                                POP     AF
1416: 01 00 00                          LD      BC,0000h
1419: DD 7E FC                          LD      A,(IX-04h)
141C: B1                                OR      C
141D: DD 77 FC                          LD      (IX-04h),A
1420: DD 7E FD                          LD      A,(IX-03h)
1423: B0                                OR      B
1424: DD 77 FD                          LD      (IX-03h),A
1427: DD 7E FE                          LD      A,(IX-02h)
142A: B5                                OR      L
142B: DD 77 FE                          LD      (IX-02h),A
142E: DD 7E FF                          LD      A,(IX-01h)
1431: B4                                OR      H
1432: DD 77 FF                          LD      (IX-01h),A
1435: DD 6E FC                   L1435: LD      L,(IX-04h)
1438: DD 66 FD                          LD      H,(IX-03h)
143B: DD 5E FE                          LD      E,(IX-02h)
143E: DD 56 FF                          LD      D,(IX-01h)
1441: DD F9                             LD      SP,IX
1443: DD E1                             POP     IX
1445: C9                                RET

                                        ; --- START PROC L1446 ---
1446: CD CD 13                   L1446: CALL    L13CD
1449: 21 F0 FF                          LD      HL,0FFF0h
144C: 39                                ADD     HL,SP
144D: F9                                LD      SP,HL
144E: DD 4E 04                          LD      C,(IX+04h)
1451: DD 46 05                          LD      B,(IX+05h)
1454: 0A                                LD      A,(BC)
1455: DD 77 F0                          LD      (IX-10h),A
1458: 03                                INC     BC
1459: 0A                                LD      A,(BC)
145A: DD 77 F1                          LD      (IX-0Fh),A
145D: DD 7E 06                          LD      A,(IX+06h)
1460: D6 02                             SUB     02h
1462: DD 7E 07                          LD      A,(IX+07h)
1465: DE 00                             SBC     A,00h
1467: DD 7E 08                          LD      A,(IX+08h)
146A: DE 00                             SBC     A,00h
146C: DD 7E 09                          LD      A,(IX+09h)
146F: DE 00                             SBC     A,00h
1471: 38 1F                             JR      C,L1492
1473: E1                                POP     HL
1474: E5                                PUSH    HL
1475: 11 17 00                          LD      DE,0017h
1478: 19                                ADD     HL,DE
1479: 4E                                LD      C,(HL)
147A: 23                                INC     HL
147B: 46                                LD      B,(HL)
147C: 23                                INC     HL
147D: 5E                                LD      E,(HL)
147E: 23                                INC     HL
147F: 56                                LD      D,(HL)
1480: DD 7E 06                          LD      A,(IX+06h)
1483: 91                                SUB     C
1484: DD 7E 07                          LD      A,(IX+07h)
1487: 98                                SBC     A,B
1488: DD 7E 08                          LD      A,(IX+08h)
148B: 9B                                SBC     A,E
148C: DD 7E 09                          LD      A,(IX+09h)
148F: 9A                                SBC     A,D
1490: 38 11                             JR      C,L14A3
1492: DD 36 F2 01                L1492: LD      (IX-0Eh),01h
1496: AF                                XOR     A
1497: DD 77 F3                          LD      (IX-0Dh),A
149A: DD 77 F4                          LD      (IX-0Ch),A
149D: DD 77 F5                          LD      (IX-0Bh),A
14A0: C3 43 17                          JP      L1743

14A3: DD 36 F2 FF                L14A3: LD      (IX-0Eh),0FFh
14A7: DD 36 F3 FF                       LD      (IX-0Dh),0FFh
14AB: DD 36 F4 FF                       LD      (IX-0Ch),0FFh
14AF: DD 36 F5 FF                       LD      (IX-0Bh),0FFh
14B3: E1                                POP     HL
14B4: E5                                PUSH    HL
14B5: 4E                                LD      C,(HL)
14B6: DD 7E F0                          LD      A,(IX-10h)
14B9: C6 23                             ADD     A,23h   ; '#'
14BB: DD 77 FE                          LD      (IX-02h),A
14BE: DD 7E F1                          LD      A,(IX-0Fh)
14C1: CE 00                             ADC     A,00h
14C3: DD 77 FF                          LD      (IX-01h),A
14C6: DD 7E F0                          LD      A,(IX-10h)
14C9: C6 33                             ADD     A,33h   ; '3'
14CB: DD 77 F6                          LD      (IX-0Ah),A
14CE: DD 7E F1                          LD      A,(IX-0Fh)
14D1: CE 00                             ADC     A,00h
14D3: DD 77 F7                          LD      (IX-09h),A
14D6: 79                                LD      A,C
14D7: 3D                                DEC     A
14D8: 28 0E                             JR      Z,L14E8
14DA: 79                                LD      A,C
14DB: FE 02                             CP      02h
14DD: CA 3A 16                          JP      Z,L163A
14E0: D6 03                             SUB     03h
14E2: CA AF 16                          JP      Z,L16AF
14E5: C3 35 17                          JP      L1735

14E8: DD 4E 06                   L14E8: LD      C,(IX+06h)
14EB: DD 46 07                          LD      B,(IX+07h)
14EE: 69                                LD      L,C
14EF: 60                                LD      H,B
14F0: CB 3C                             SRL     H
14F2: CB 1D                             RR      L
14F4: 09                                ADD     HL,BC
14F5: E5                                PUSH    HL
14F6: DD 5E FE                          LD      E,(IX-02h)
14F9: DD 56 FF                          LD      D,(IX-01h)
14FC: 21 0C 00                          LD      HL,000Ch
14FF: 39                                ADD     HL,SP
1500: EB                                EX      DE,HL
1501: 01 04 00                          LD      BC,0004h
1504: ED B0                             LDIR
1506: D1                                POP     DE
1507: 7A                                LD      A,D
1508: CB 3F                             SRL     A
150A: 4F                                LD      C,A
150B: 06 00                             LD      B,00h
150D: 21 00 00                          LD      HL,0000h
1510: DD 7E FA                          LD      A,(IX-06h)
1513: 81                                ADD     A,C
1514: 4F                                LD      C,A
1515: DD 7E FB                          LD      A,(IX-05h)
1518: 88                                ADC     A,B
1519: 47                                LD      B,A
151A: DD 7E FC                          LD      A,(IX-04h)
151D: 8D                                ADC     A,L
151E: 6F                                LD      L,A
151F: DD 7E FD                          LD      A,(IX-03h)
1522: 8C                                ADC     A,H
1523: 67                                LD      H,A
1524: D5                                PUSH    DE
1525: E5                                PUSH    HL
1526: C5                                PUSH    BC
1527: DD 6E F0                          LD      L,(IX-10h)
152A: DD 66 F1                          LD      H,(IX-0Fh)
152D: E5                                PUSH    HL
152E: CD DD 22                          CALL    L22DD
1531: F1                                POP     AF
1532: F1                                POP     AF
1533: F1                                POP     AF
1534: 7D                                LD      A,L
1535: D1                                POP     DE
1536: B7                                OR      A
1537: C2 43 17                          JP      NZ,L1743
153A: 4B                                LD      C,E
153B: 42                                LD      B,D
153C: 13                                INC     DE
153D: DD 73 F8                          LD      (IX-08h),E
1540: DD 72 F9                          LD      (IX-07h),D
1543: 78                                LD      A,B
1544: E6 01                             AND     01h
1546: 47                                LD      B,A
1547: 79                                LD      A,C
1548: DD 86 F6                          ADD     A,(IX-0Ah)
154B: DD 77 FC                          LD      (IX-04h),A
154E: 78                                LD      A,B
154F: DD 8E F7                          ADC     A,(IX-09h)
1552: DD 77 FD                          LD      (IX-03h),A
1555: DD 6E FC                          LD      L,(IX-04h)
1558: DD 66 FD                          LD      H,(IX-03h)
155B: 7E                                LD      A,(HL)
155C: DD 77 FD                          LD      (IX-03h),A
155F: DD 77 FA                          LD      (IX-06h),A
1562: AF                                XOR     A
1563: DD 77 FB                          LD      (IX-05h),A
1566: DD 5E FE                          LD      E,(IX-02h)
1569: DD 56 FF                          LD      D,(IX-01h)
156C: 21 0C 00                          LD      HL,000Ch
156F: 39                                ADD     HL,SP
1570: EB                                EX      DE,HL
1571: 01 04 00                          LD      BC,0004h
1574: ED B0                             LDIR
1576: DD 7E F9                          LD      A,(IX-07h)
1579: CB 3F                             SRL     A
157B: 4F                                LD      C,A
157C: 06 00                             LD      B,00h
157E: 11 00 00                          LD      DE,0000h
1581: DD 7E FC                          LD      A,(IX-04h)
1584: 81                                ADD     A,C
1585: 4F                                LD      C,A
1586: DD 7E FD                          LD      A,(IX-03h)
1589: 88                                ADC     A,B
158A: 47                                LD      B,A
158B: DD 7E FE                          LD      A,(IX-02h)
158E: 8B                                ADC     A,E
158F: 5F                                LD      E,A
1590: DD 7E FF                          LD      A,(IX-01h)
1593: 8A                                ADC     A,D
1594: 57                                LD      D,A
1595: D5                                PUSH    DE
1596: C5                                PUSH    BC
1597: DD 6E F0                          LD      L,(IX-10h)
159A: DD 66 F1                          LD      H,(IX-0Fh)
159D: E5                                PUSH    HL
159E: CD DD 22                          CALL    L22DD
15A1: F1                                POP     AF
15A2: F1                                POP     AF
15A3: F1                                POP     AF
15A4: 7D                                LD      A,L
15A5: B7                                OR      A
15A6: C2 43 17                          JP      NZ,L1743
15A9: DD 7E F8                          LD      A,(IX-08h)
15AC: DD 77 FE                          LD      (IX-02h),A
15AF: DD 7E F9                          LD      A,(IX-07h)
15B2: E6 01                             AND     01h
15B4: DD 77 FF                          LD      (IX-01h),A
15B7: DD 7E FE                          LD      A,(IX-02h)
15BA: DD 86 F6                          ADD     A,(IX-0Ah)
15BD: DD 77 FC                          LD      (IX-04h),A
15C0: DD 7E FF                          LD      A,(IX-01h)
15C3: DD 8E F7                          ADC     A,(IX-09h)
15C6: DD 77 FD                          LD      (IX-03h),A
15C9: DD 6E FC                          LD      L,(IX-04h)
15CC: DD 66 FD                          LD      H,(IX-03h)
15CF: 7E                                LD      A,(HL)
15D0: DD 77 FF                          LD      (IX-01h),A
15D3: DD 77 FE                          LD      (IX-02h),A
15D6: AF                                XOR     A
15D7: DD 77 FF                          LD      (IX-01h),A
15DA: DD 7E FE                          LD      A,(IX-02h)
15DD: DD 77 FF                          LD      (IX-01h),A
15E0: DD 36 FE 00                       LD      (IX-02h),00h
15E4: DD 7E FA                          LD      A,(IX-06h)
15E7: DD B6 FE                          OR      (IX-02h)
15EA: DD 77 FC                          LD      (IX-04h),A
15ED: DD 7E FB                          LD      A,(IX-05h)
15F0: DD B6 FF                          OR      (IX-01h)
15F3: DD 77 FD                          LD      (IX-03h),A
15F6: DD CB 06 46                       BIT     0,(IX+06h)
15FA: 28 1A                             JR      Z,L1616
15FC: DD 7E FC                          LD      A,(IX-04h)
15FF: DD 77 FE                          LD      (IX-02h),A
1602: DD 7E FD                          LD      A,(IX-03h)
1605: DD 77 FF                          LD      (IX-01h),A
1608: 06 04                             LD      B,04h
160A: DD CB FF 3E                L160A: SRL     (IX-01h)
160E: DD CB FE 1E                       RR      (IX-02h)
1612: 10 F6                             DJNZ    L160A
1614: 18 0E                             JR      L1624

1616: DD 7E FC                   L1616: LD      A,(IX-04h)
1619: DD 77 FE                          LD      (IX-02h),A
161C: DD 7E FD                          LD      A,(IX-03h)
161F: E6 0F                             AND     0Fh
1621: DD 77 FF                          LD      (IX-01h),A
1624: DD 7E FE                   L1624: LD      A,(IX-02h)
1627: DD 77 F2                          LD      (IX-0Eh),A
162A: DD 7E FF                          LD      A,(IX-01h)
162D: DD 77 F3                          LD      (IX-0Dh),A
1630: AF                                XOR     A
1631: DD 77 F4                          LD      (IX-0Ch),A
1634: DD 77 F5                          LD      (IX-0Bh),A
1637: C3 43 17                          JP      L1743

163A: DD 5E FE                   L163A: LD      E,(IX-02h)
163D: DD 56 FF                          LD      D,(IX-01h)
1640: 21 0C 00                          LD      HL,000Ch
1643: 39                                ADD     HL,SP
1644: EB                                EX      DE,HL
1645: 01 04 00                          LD      BC,0004h
1648: ED B0                             LDIR
164A: DD 4E 07                          LD      C,(IX+07h)
164D: DD 46 08                          LD      B,(IX+08h)
1650: DD 5E 09                          LD      E,(IX+09h)
1653: 16 00                             LD      D,00h
1655: DD 7E FC                          LD      A,(IX-04h)
1658: 81                                ADD     A,C
1659: 4F                                LD      C,A
165A: DD 7E FD                          LD      A,(IX-03h)
165D: 88                                ADC     A,B
165E: 47                                LD      B,A
165F: DD 7E FE                          LD      A,(IX-02h)
1662: 8B                                ADC     A,E
1663: 5F                                LD      E,A
1664: DD 7E FF                          LD      A,(IX-01h)
1667: 8A                                ADC     A,D
1668: 57                                LD      D,A
1669: D5                                PUSH    DE
166A: C5                                PUSH    BC
166B: DD 6E F0                          LD      L,(IX-10h)
166E: DD 66 F1                          LD      H,(IX-0Fh)
1671: E5                                PUSH    HL
1672: CD DD 22                          CALL    L22DD
1675: F1                                POP     AF
1676: F1                                POP     AF
1677: F1                                POP     AF
1678: 7D                                LD      A,L
1679: B7                                OR      A
167A: C2 43 17                          JP      NZ,L1743
167D: DD 4E 06                          LD      C,(IX+06h)
1680: DD 46 07                          LD      B,(IX+07h)
1683: DD 6E 08                          LD      L,(IX+08h)
1686: DD 66 09                          LD      H,(IX+09h)
1689: CB 21                             SLA     C
168B: CB 10                             RL      B
168D: ED 6A                             ADC     HL,HL
168F: 78                                LD      A,B
1690: E6 01                             AND     01h
1692: 47                                LD      B,A
1693: DD 6E F6                          LD      L,(IX-0Ah)
1696: DD 66 F7                          LD      H,(IX-09h)
1699: 09                                ADD     HL,BC
169A: E5                                PUSH    HL
169B: CD BE 22                          CALL    L22BE
169E: F1                                POP     AF
169F: DD 75 F2                          LD      (IX-0Eh),L
16A2: DD 74 F3                          LD      (IX-0Dh),H
16A5: AF                                XOR     A
16A6: DD 77 F4                          LD      (IX-0Ch),A
16A9: DD 77 F5                          LD      (IX-0Bh),A
16AC: C3 43 17                          JP      L1743

16AF: DD 5E FE                   L16AF: LD      E,(IX-02h)
16B2: DD 56 FF                          LD      D,(IX-01h)
16B5: 21 0C 00                          LD      HL,000Ch
16B8: 39                                ADD     HL,SP
16B9: EB                                EX      DE,HL
16BA: 01 04 00                          LD      BC,0004h
16BD: ED B0                             LDIR
16BF: DD 5E 06                          LD      E,(IX+06h)
16C2: DD 56 07                          LD      D,(IX+07h)
16C5: DD 6E 08                          LD      L,(IX+08h)
16C8: DD 66 09                          LD      H,(IX+09h)
16CB: 06 07                             LD      B,07h
16CD: CB 3C                      L16CD: SRL     H
16CF: CB 1D                             RR      L
16D1: CB 1A                             RR      D
16D3: CB 1B                             RR      E
16D5: 10 F6                             DJNZ    L16CD
16D7: DD 7E FC                          LD      A,(IX-04h)
16DA: 83                                ADD     A,E
16DB: 4F                                LD      C,A
16DC: DD 7E FD                          LD      A,(IX-03h)
16DF: 8A                                ADC     A,D
16E0: 47                                LD      B,A
16E1: DD 7E FE                          LD      A,(IX-02h)
16E4: 8D                                ADC     A,L
16E5: 5F                                LD      E,A
16E6: DD 7E FF                          LD      A,(IX-01h)
16E9: 8C                                ADC     A,H
16EA: 57                                LD      D,A
16EB: D5                                PUSH    DE
16EC: C5                                PUSH    BC
16ED: DD 6E F0                          LD      L,(IX-10h)
16F0: DD 66 F1                          LD      H,(IX-0Fh)
16F3: E5                                PUSH    HL
16F4: CD DD 22                          CALL    L22DD
16F7: F1                                POP     AF
16F8: F1                                POP     AF
16F9: F1                                POP     AF
16FA: 7D                                LD      A,L
16FB: B7                                OR      A
16FC: 20 45                             JR      NZ,L1743
16FE: DD 5E 06                          LD      E,(IX+06h)
1701: DD 56 07                          LD      D,(IX+07h)
1704: DD 6E 08                          LD      L,(IX+08h)
1707: DD 66 09                          LD      H,(IX+09h)
170A: 06 02                             LD      B,02h
170C: CB 23                      L170C: SLA     E
170E: CB 12                             RL      D
1710: ED 6A                             ADC     HL,HL
1712: 10 F8                             DJNZ    L170C
1714: 7A                                LD      A,D
1715: E6 01                             AND     01h
1717: 57                                LD      D,A
1718: DD 6E F6                          LD      L,(IX-0Ah)
171B: DD 66 F7                          LD      H,(IX-09h)
171E: 19                                ADD     HL,DE
171F: E5                                PUSH    HL
1720: CD 75 11                          CALL    L1175
1723: F1                                POP     AF
1724: DD 75 F2                          LD      (IX-0Eh),L
1727: DD 74 F3                          LD      (IX-0Dh),H
172A: DD 73 F4                          LD      (IX-0Ch),E
172D: 7A                                LD      A,D
172E: E6 0F                             AND     0Fh
1730: DD 77 F5                          LD      (IX-0Bh),A
1733: 18 0E                             JR      L1743

1735: DD 36 F2 01                L1735: LD      (IX-0Eh),01h
1739: AF                                XOR     A
173A: DD 77 F3                          LD      (IX-0Dh),A
173D: DD 77 F4                          LD      (IX-0Ch),A
1740: DD 77 F5                          LD      (IX-0Bh),A
1743: DD 6E F2                   L1743: LD      L,(IX-0Eh)
1746: DD 66 F3                          LD      H,(IX-0Dh)
1749: DD 5E F4                          LD      E,(IX-0Ch)
174C: DD 56 F5                          LD      D,(IX-0Bh)
174F: DD F9                             LD      SP,IX
1751: DD E1                             POP     IX
1753: C9                                RET

                                        ; --- START PROC L1754 ---
1754: F5                         L1754: PUSH    AF
1755: 21 04 00                          LD      HL,0004h
1758: 39                                ADD     HL,SP
1759: 4E                                LD      C,(HL)
175A: 23                                INC     HL
175B: 46                                LD      B,(HL)
175C: C5                                PUSH    BC
175D: CD 25 3C                          CALL    L3C25
1760: F1                                POP     AF
1761: 7D                                LD      A,L
1762: B7                                OR      A
1763: 20 1E                             JR      NZ,L1783
1765: 21 00 00                          LD      HL,0000h
1768: 39                                ADD     HL,SP
1769: EB                                EX      DE,HL
176A: 21 04 00                          LD      HL,0004h
176D: 39                                ADD     HL,SP
176E: 7E                                LD      A,(HL)
176F: 23                                INC     HL
1770: 66                                LD      H,(HL)
1771: 6F                                LD      L,A
1772: E5                                PUSH    HL
1773: D5                                PUSH    DE
1774: E5                                PUSH    HL
1775: CD ED 10                          CALL    L10ED
1778: F1                                POP     AF
1779: F1                                POP     AF
177A: 7D                                LD      A,L
177B: E1                                POP     HL
177C: B7                                OR      A
177D: 20 04                             JR      NZ,L1783
177F: 77                                LD      (HL),A
1780: 23                                INC     HL
1781: 36 00                             LD      (HL),00h
1783: 6F                         L1783: LD      L,A
1784: F1                                POP     AF
1785: C9                                RET

                                        ; --- START PROC L1786 ---
1786: CD CD 13                   L1786: CALL    L13CD
1789: 21 F2 FF                          LD      HL,0FFF2h
178C: 39                                ADD     HL,SP
178D: F9                                LD      SP,HL
178E: DD 4E 04                          LD      C,(IX+04h)
1791: DD 46 05                          LD      B,(IX+05h)
1794: 59                                LD      E,C
1795: 50                                LD      D,B
1796: 0A                                LD      A,(BC)
1797: DD 77 F2                          LD      (IX-0Eh),A
179A: 03                                INC     BC
179B: 0A                                LD      A,(BC)
179C: DD 77 F3                          LD      (IX-0Dh),A
179F: 0B                                DEC     BC
17A0: DD 6E 06                          LD      L,(IX+06h)
17A3: DD 66 07                          LD      H,(IX+07h)
17A6: 7E                                LD      A,(HL)
17A7: DD 77 FF                          LD      (IX-01h),A
17AA: 79                                LD      A,C
17AB: C6 06                             ADD     A,06h
17AD: DD 77 F4                          LD      (IX-0Ch),A
17B0: 78                                LD      A,B
17B1: CE 00                             ADC     A,00h
17B3: DD 77 F5                          LD      (IX-0Bh),A
17B6: DD 7E FF                          LD      A,(IX-01h)
17B9: D6 2F                             SUB     2Fh     ; '/'
17BB: 28 37                             JR      Z,L17F4
17BD: DD 7E FF                          LD      A,(IX-01h)
17C0: D6 5C                             SUB     5Ch     ; '\'
17C2: 28 30                             JR      Z,L17F4
17C4: E1                                POP     HL
17C5: E5                                PUSH    HL
17C6: C5                                PUSH    BC
17C7: 01 13 00                          LD      BC,0013h
17CA: 09                                ADD     HL,BC
17CB: C1                                POP     BC
17CC: 7E                                LD      A,(HL)
17CD: DD 77 FC                          LD      (IX-04h),A
17D0: 23                                INC     HL
17D1: 7E                                LD      A,(HL)
17D2: DD 77 FD                          LD      (IX-03h),A
17D5: 23                                INC     HL
17D6: 7E                                LD      A,(HL)
17D7: DD 77 FE                          LD      (IX-02h),A
17DA: 23                                INC     HL
17DB: 7E                                LD      A,(HL)
17DC: DD 77 FF                          LD      (IX-01h),A
17DF: D5                                PUSH    DE
17E0: C5                                PUSH    BC
17E1: DD 5E F4                          LD      E,(IX-0Ch)
17E4: DD 56 F5                          LD      D,(IX-0Bh)
17E7: 21 0E 00                          LD      HL,000Eh
17EA: 39                                ADD     HL,SP
17EB: 01 04 00                          LD      BC,0004h
17EE: ED B0                             LDIR
17F0: C1                                POP     BC
17F1: D1                                POP     DE
17F2: 18 24                             JR      L1818

17F4: 7E                         L17F4: LD      A,(HL)
17F5: FE 2F                             CP      2Fh     ; '/'
17F7: 28 04                             JR      Z,L17FD
17F9: D6 5C                             SUB     5Ch     ; '\'
17FB: 20 09                             JR      NZ,L1806
17FD: 23                         L17FD: INC     HL
17FE: DD 75 06                          LD      (IX+06h),L
1801: DD 74 07                          LD      (IX+07h),H
1804: 18 EE                             JR      L17F4

1806: DD 75 06                   L1806: LD      (IX+06h),L
1809: DD 74 07                          LD      (IX+07h),H
180C: 21 06 00                          LD      HL,0006h
180F: 19                                ADD     HL,DE
1810: AF                                XOR     A
1811: 77                                LD      (HL),A
1812: 23                                INC     HL
1813: 77                                LD      (HL),A
1814: 23                                INC     HL
1815: 77                                LD      (HL),A
1816: 23                                INC     HL
1817: 77                                LD      (HL),A
1818: DD 6E 06                   L1818: LD      L,(IX+06h)
181B: DD 66 07                          LD      H,(IX+07h)
181E: 6E                                LD      L,(HL)
181F: 26 00                             LD      H,00h
1821: 7D                                LD      A,L
1822: D6 20                             SUB     20h     ; ' '
1824: 7C                                LD      A,H
1825: DE 00                             SBC     A,00h
1827: 30 1B                             JR      NC,L1844
1829: 21 27 00                          LD      HL,0027h
182C: 19                                ADD     HL,DE
182D: 36 80                             LD      (HL),80h
182F: 21 00 00                          LD      HL,0000h
1832: E5                                PUSH    HL
1833: 21 00 00                          LD      HL,0000h
1836: E5                                PUSH    HL
1837: D5                                PUSH    DE
1838: CD C2 42                          CALL    L42C2
183B: F1                                POP     AF
183C: F1                                POP     AF
183D: F1                                POP     AF
183E: DD 75 FC                          LD      (IX-04h),L
1841: C3 49 19                          JP      L1949

1844: 21 14 00                   L1844: LD      HL,0014h
1847: 39                                ADD     HL,SP
1848: C5                                PUSH    BC
1849: D5                                PUSH    DE
184A: E5                                PUSH    HL
184B: D5                                PUSH    DE
184C: CD 98 2A                          CALL    L2A98
184F: F1                                POP     AF
1850: F1                                POP     AF
1851: D1                                POP     DE
1852: C1                                POP     BC
1853: DD 75 FC                          LD      (IX-04h),L
1856: 7D                                LD      A,L
1857: B7                                OR      A
1858: C2 49 19                          JP      NZ,L1949
185B: C5                                PUSH    BC
185C: D5                                PUSH    DE
185D: D5                                PUSH    DE
185E: CD 1D 3B                          CALL    L3B1D
1861: F1                                POP     AF
1862: D1                                POP     DE
1863: C1                                POP     BC
1864: DD 75 FC                          LD      (IX-04h),L
1867: 21 27 00                          LD      HL,0027h
186A: 09                                ADD     HL,BC
186B: 7E                                LD      A,(HL)
186C: DD 77 FD                          LD      (IX-03h),A
186F: E6 04                             AND     04h
1871: DD 77 FE                          LD      (IX-02h),A
1874: DD 36 FF 00                       LD      (IX-01h),00h
1878: DD 7E FC                          LD      A,(IX-04h)
187B: B7                                OR      A
187C: 28 2F                             JR      Z,L18AD
187E: DD 7E FC                          LD      A,(IX-04h)
1881: D6 04                             SUB     04h
1883: C2 49 19                          JP      NZ,L1949
1886: DD CB FD 6E                       BIT     5,(IX-03h)
188A: 28 11                             JR      Z,L189D
188C: DD 7E FF                          LD      A,(IX-01h)
188F: DD B6 FE                          OR      (IX-02h)
1892: 28 B0                             JR      Z,L1844
1894: 36 80                             LD      (HL),80h
1896: AF                                XOR     A
1897: DD 77 FC                          LD      (IX-04h),A
189A: C3 49 19                          JP      L1949

189D: DD 7E FF                   L189D: LD      A,(IX-01h)
18A0: DD B6 FE                          OR      (IX-02h)
18A3: C2 49 19                          JP      NZ,L1949
18A6: DD 36 FC 05                       LD      (IX-04h),05h
18AA: C3 49 19                          JP      L1949

18AD: DD 7E FF                   L18AD: LD      A,(IX-01h)
18B0: DD B6 FE                          OR      (IX-02h)
18B3: C2 49 19                          JP      NZ,L1949
18B6: 69                                LD      L,C
18B7: 60                                LD      H,B
18B8: 23                                INC     HL
18B9: 23                                INC     HL
18BA: 23                                INC     HL
18BB: 23                                INC     HL
18BC: CB 66                             BIT     4,(HL)
18BE: 20 07                             JR      NZ,L18C7
18C0: DD 36 FC 05                       LD      (IX-04h),05h
18C4: C3 49 19                          JP      L1949

18C7: DD 7E F2                   L18C7: LD      A,(IX-0Eh)
18CA: C6 33                             ADD     A,33h   ; '3'
18CC: DD 77 F6                          LD      (IX-0Ah),A
18CF: DD 7E F3                          LD      A,(IX-0Dh)
18D2: CE 00                             ADC     A,00h
18D4: DD 77 F7                          LD      (IX-09h),A
18D7: 69                                LD      L,C
18D8: 60                                LD      H,B
18D9: C5                                PUSH    BC
18DA: 01 0E 00                          LD      BC,000Eh
18DD: 09                                ADD     HL,BC
18DE: C1                                POP     BC
18DF: 7E                                LD      A,(HL)
18E0: DD 77 F8                          LD      (IX-08h),A
18E3: 23                                INC     HL
18E4: 7E                                LD      A,(HL)
18E5: DD 77 F9                          LD      (IX-07h),A
18E8: 23                                INC     HL
18E9: 7E                                LD      A,(HL)
18EA: DD 77 FA                          LD      (IX-06h),A
18ED: 23                                INC     HL
18EE: 7E                                LD      A,(HL)
18EF: DD 77 FB                          LD      (IX-05h),A
18F2: DD 7E F8                          LD      A,(IX-08h)
18F5: DD 77 FC                          LD      (IX-04h),A
18F8: DD 7E F9                          LD      A,(IX-07h)
18FB: E6 01                             AND     01h
18FD: DD 77 FD                          LD      (IX-03h),A
1900: DD 36 FE 00                       LD      (IX-02h),00h
1904: DD 36 FF 00                       LD      (IX-01h),00h
1908: DD 7E FC                          LD      A,(IX-04h)
190B: DD 86 F6                          ADD     A,(IX-0Ah)
190E: 6F                                LD      L,A
190F: DD 7E FD                          LD      A,(IX-03h)
1912: DD 8E F7                          ADC     A,(IX-09h)
1915: 67                                LD      H,A
1916: C5                                PUSH    BC
1917: D5                                PUSH    DE
1918: E5                                PUSH    HL
1919: DD 6E F2                          LD      L,(IX-0Eh)
191C: DD 66 F3                          LD      H,(IX-0Dh)
191F: E5                                PUSH    HL
1920: CD D7 13                          CALL    L13D7
1923: F1                                POP     AF
1924: F1                                POP     AF
1925: DD 75 FC                          LD      (IX-04h),L
1928: DD 74 FD                          LD      (IX-03h),H
192B: DD 73 FE                          LD      (IX-02h),E
192E: DD 72 FF                          LD      (IX-01h),D
1931: D1                                POP     DE
1932: C1                                POP     BC
1933: D5                                PUSH    DE
1934: C5                                PUSH    BC
1935: DD 5E F4                          LD      E,(IX-0Ch)
1938: DD 56 F5                          LD      D,(IX-0Bh)
193B: 21 0E 00                          LD      HL,000Eh
193E: 39                                ADD     HL,SP
193F: 01 04 00                          LD      BC,0004h
1942: ED B0                             LDIR
1944: C1                                POP     BC
1945: D1                                POP     DE
1946: C3 44 18                          JP      L1844

1949: DD 6E FC                   L1949: LD      L,(IX-04h)
194C: DD F9                             LD      SP,IX
194E: DD E1                             POP     IX
1950: C9                                RET

                                        ; --- START PROC L1951 ---
1951: CD CD 13                   L1951: CALL    L13CD
1954: DD 4E 04                          LD      C,(IX+04h)
1957: DD 46 05                          LD      B,(IX+05h)
195A: DD 7E 06                          LD      A,(IX+06h)
195D: 02                                LD      (BC),A
195E: 03                                INC     BC
195F: DD 71 04                          LD      (IX+04h),C
1962: DD 70 05                          LD      (IX+05h),B
1965: 06 08                             LD      B,08h
1967: DD CB 09 3E                L1967: SRL     (IX+09h)
196B: DD CB 08 1E                       RR      (IX+08h)
196F: DD CB 07 1E                       RR      (IX+07h)
1973: DD CB 06 1E                       RR      (IX+06h)
1977: 10 EE                             DJNZ    L1967
1979: DD 4E 04                          LD      C,(IX+04h)
197C: DD 46 05                          LD      B,(IX+05h)
197F: DD 7E 06                          LD      A,(IX+06h)
1982: 02                                LD      (BC),A
1983: 03                                INC     BC
1984: DD 71 04                          LD      (IX+04h),C
1987: DD 70 05                          LD      (IX+05h),B
198A: 06 08                             LD      B,08h
198C: DD CB 09 3E                L198C: SRL     (IX+09h)
1990: DD CB 08 1E                       RR      (IX+08h)
1994: DD CB 07 1E                       RR      (IX+07h)
1998: DD CB 06 1E                       RR      (IX+06h)
199C: 10 EE                             DJNZ    L198C
199E: DD 4E 04                          LD      C,(IX+04h)
19A1: DD 46 05                          LD      B,(IX+05h)
19A4: DD 7E 06                          LD      A,(IX+06h)
19A7: 02                                LD      (BC),A
19A8: 03                                INC     BC
19A9: DD 71 04                          LD      (IX+04h),C
19AC: DD 70 05                          LD      (IX+05h),B
19AF: 06 08                             LD      B,08h
19B1: DD CB 09 3E                L19B1: SRL     (IX+09h)
19B5: DD CB 08 1E                       RR      (IX+08h)
19B9: DD CB 07 1E                       RR      (IX+07h)
19BD: DD CB 06 1E                       RR      (IX+06h)
19C1: 10 EE                             DJNZ    L19B1
19C3: DD 4E 04                          LD      C,(IX+04h)
19C6: DD 46 05                          LD      B,(IX+05h)
19C9: DD 7E 06                          LD      A,(IX+06h)
19CC: 02                                LD      (BC),A
19CD: DD E1                             POP     IX
19CF: C9                                RET

                                        ; --- START PROC L19D0 ---
19D0: CD CD 13                   L19D0: CALL    L13CD
19D3: 21 F7 FF                          LD      HL,0FFF7h
19D6: 39                                ADD     HL,SP
19D7: F9                                LD      SP,HL
19D8: DD 7E 04                          LD      A,(IX+04h)
19DB: DD 77 FC                          LD      (IX-04h),A
19DE: DD 7E 05                          LD      A,(IX+05h)
19E1: DD 77 FD                          LD      (IX-03h),A
19E4: DD 6E FC                          LD      L,(IX-04h)
19E7: DD 66 FD                          LD      H,(IX-03h)
19EA: 7E                                LD      A,(HL)
19EB: DD 77 F7                          LD      (IX-09h),A
19EE: 23                                INC     HL
19EF: 7E                                LD      A,(HL)
19F0: DD 77 F8                          LD      (IX-08h),A
19F3: 21 00 00                          LD      HL,0000h
19F6: E5                                PUSH    HL
19F7: 21 00 00                          LD      HL,0000h
19FA: E5                                PUSH    HL
19FB: DD 6E FC                          LD      L,(IX-04h)
19FE: DD 66 FD                          LD      H,(IX-03h)
1A01: E5                                PUSH    HL
1A02: CD C2 42                          CALL    L42C2
1A05: F1                                POP     AF
1A06: F1                                POP     AF
1A07: F1                                POP     AF
1A08: DD 75 F9                          LD      (IX-07h),L
1A0B: 7D                                LD      A,L
1A0C: B7                                OR      A
1A0D: C2 99 1A                          JP      NZ,L1A99
1A10: AF                                XOR     A
1A11: DD 77 FE                          LD      (IX-02h),A
1A14: DD 77 FF                          LD      (IX-01h),A
1A17: DD 7E FC                          LD      A,(IX-04h)
1A1A: DD 77 FA                          LD      (IX-06h),A
1A1D: DD 7E FD                          LD      A,(IX-03h)
1A20: DD 77 FB                          LD      (IX-05h),A
1A23: DD 6E FC                   L1A23: LD      L,(IX-04h)
1A26: DD 66 FD                          LD      H,(IX-03h)
1A29: 11 16 00                          LD      DE,0016h
1A2C: 19                                ADD     HL,DE
1A2D: 4E                                LD      C,(HL)
1A2E: 23                                INC     HL
1A2F: 46                                LD      B,(HL)
1A30: 23                                INC     HL
1A31: 5E                                LD      E,(HL)
1A32: 23                                INC     HL
1A33: 56                                LD      D,(HL)
1A34: D5                                PUSH    DE
1A35: C5                                PUSH    BC
1A36: DD 6E F7                          LD      L,(IX-09h)
1A39: DD 66 F8                          LD      H,(IX-08h)
1A3C: E5                                PUSH    HL
1A3D: CD DD 22                          CALL    L22DD
1A40: F1                                POP     AF
1A41: F1                                POP     AF
1A42: F1                                POP     AF
1A43: DD 75 F9                          LD      (IX-07h),L
1A46: 7D                                LD      A,L
1A47: B7                                OR      A
1A48: 20 4F                             JR      NZ,L1A99
1A4A: DD 6E FA                          LD      L,(IX-06h)
1A4D: DD 66 FB                          LD      H,(IX-05h)
1A50: 11 1A 00                          LD      DE,001Ah
1A53: 19                                ADD     HL,DE
1A54: 4E                                LD      C,(HL)
1A55: 23                                INC     HL
1A56: 46                                LD      B,(HL)
1A57: 0A                                LD      A,(BC)
1A58: FE E5                             CP      0E5h
1A5A: 28 03                             JR      Z,L1A5F
1A5C: B7                                OR      A
1A5D: 20 1C                             JR      NZ,L1A7B
1A5F: DD 34 FE                   L1A5F: INC     (IX-02h)
1A62: 20 03                             JR      NZ,L1A67
1A64: DD 34 FF                          INC     (IX-01h)
1A67: DD 7E FE                   L1A67: LD      A,(IX-02h)
1A6A: DD 96 06                          SUB     (IX+06h)
1A6D: 20 13                             JR      NZ,L1A82
1A6F: DD 7E FF                          LD      A,(IX-01h)
1A72: DD 96 07                          SUB     (IX+07h)
1A75: 28 22                             JR      Z,L1A99
1A77: 18 09                             JR      L1A82

1A79: 18                         L1A79: DB      18h
1A7A: 1E                                DB      1Eh

1A7B: AF                         L1A7B: XOR     A
1A7C: DD 77 FE                          LD      (IX-02h),A
1A7F: DD 77 FF                          LD      (IX-01h),A
1A82: 21 01 00                   L1A82: LD      HL,0001h
1A85: E5                                PUSH    HL
1A86: DD 6E FA                          LD      L,(IX-06h)
1A89: DD 66 FB                          LD      H,(IX-05h)
1A8C: E5                                PUSH    HL
1A8D: CD 50 3F                          CALL    L3F50
1A90: F1                                POP     AF
1A91: F1                                POP     AF
1A92: DD 75 F9                          LD      (IX-07h),L
1A95: 7D                                LD      A,L
1A96: B7                                OR      A
1A97: 28 8A                             JR      Z,L1A23
1A99: DD 7E F9                   L1A99: LD      A,(IX-07h)
1A9C: D6 04                             SUB     04h
1A9E: 20 04                             JR      NZ,L1AA4
1AA0: DD 36 F9 07                       LD      (IX-07h),07h
1AA4: DD 6E F9                   L1AA4: LD      L,(IX-07h)
1AA7: DD F9                             LD      SP,IX
1AA9: DD E1                             POP     IX
1AAB: C9                                RET

                                        ; --- START PROC L1AAC ---
1AAC: CD CD 13                   L1AAC: CALL    L13CD
1AAF: 21 DC FF                          LD      HL,0FFDCh
1AB2: 39                                ADD     HL,SP
1AB3: F9                                LD      SP,HL
1AB4: DD 7E 06                          LD      A,(IX+06h)
1AB7: DD 77 FC                          LD      (IX-04h),A
1ABA: DD 7E 07                          LD      A,(IX+07h)
1ABD: DD 77 FD                          LD      (IX-03h),A
1AC0: DD 6E FC                          LD      L,(IX-04h)
1AC3: DD 66 FD                          LD      H,(IX-03h)
1AC6: AF                                XOR     A
1AC7: 77                                LD      (HL),A
1AC8: 23                                INC     HL
1AC9: 77                                LD      (HL),A
1ACA: DD 6E 04                          LD      L,(IX+04h)
1ACD: DD 66 05                          LD      H,(IX+05h)
1AD0: E5                                PUSH    HL
1AD1: CD 48 3A                          CALL    L3A48
1AD4: F1                                POP     AF
1AD5: DD 75 FE                          LD      (IX-02h),L
1AD8: DD 74 FF                          LD      (IX-01h),H
1ADB: DD CB FF 7E                       BIT     7,(IX-01h)
1ADF: 28 05                             JR      Z,L1AE6
1AE1: 2E 0B                             LD      L,0Bh
1AE3: C3 A1 22                          JP      L22A1

1AE6: 01 B3 F2                   L1AE6: LD      BC,0F2B3h
1AE9: DD 6E FE                          LD      L,(IX-02h)
1AEC: DD 66 FF                          LD      H,(IX-01h)
1AEF: 29                                ADD     HL,HL
1AF0: 09                                ADD     HL,BC
1AF1: 7E                                LD      A,(HL)
1AF2: DD 77 E0                          LD      (IX-20h),A
1AF5: 23                                INC     HL
1AF6: 7E                                LD      A,(HL)
1AF7: DD 77 E1                          LD      (IX-1Fh),A
1AFA: DD B6 E0                          OR      (IX-20h)
1AFD: 20 05                             JR      NZ,L1B04
1AFF: 2E 0C                             LD      L,0Ch
1B01: C3 A1 22                          JP      L22A1

1B04: DD 6E FC                   L1B04: LD      L,(IX-04h)
1B07: DD 66 FD                          LD      H,(IX-03h)
1B0A: DD 7E E0                          LD      A,(IX-20h)
1B0D: 77                                LD      (HL),A
1B0E: 23                                INC     HL
1B0F: DD 7E E1                          LD      A,(IX-1Fh)
1B12: 77                                LD      (HL),A
1B13: DD 7E 08                          LD      A,(IX+08h)
1B16: E6 FE                             AND     0FEh
1B18: DD 77 08                          LD      (IX+08h),A
1B1B: DD 6E E0                          LD      L,(IX-20h)
1B1E: DD 66 E1                          LD      H,(IX-1Fh)
1B21: 7E                                LD      A,(HL)
1B22: DD 4E E0                          LD      C,(IX-20h)
1B25: DD 46 E1                          LD      B,(IX-1Fh)
1B28: 03                                INC     BC
1B29: B7                                OR      A
1B2A: 28 21                             JR      Z,L1B4D
1B2C: 0A                                LD      A,(BC)
1B2D: C5                                PUSH    BC
1B2E: F5                                PUSH    AF
1B2F: 33                                INC     SP
1B30: CD E0 02                          CALL    L02E0
1B33: 33                                INC     SP
1B34: C1                                POP     BC
1B35: CB 45                             BIT     0,L
1B37: 20 14                             JR      NZ,L1B4D
1B39: DD 7E 08                          LD      A,(IX+08h)
1B3C: B7                                OR      A
1B3D: 28 09                             JR      Z,L1B48
1B3F: CB 55                             BIT     2,L
1B41: 28 05                             JR      Z,L1B48
1B43: 2E 0A                             LD      L,0Ah
1B45: C3 A1 22                          JP      L22A1

1B48: 2E 00                      L1B48: LD      L,00h
1B4A: C3 A1 22                          JP      L22A1

1B4D: DD 6E E0                   L1B4D: LD      L,(IX-20h)
1B50: DD 66 E1                          LD      H,(IX-1Fh)
1B53: 36 00                             LD      (HL),00h
1B55: DD 7E FE                          LD      A,(IX-02h)
1B58: 02                                LD      (BC),A
1B59: F5                                PUSH    AF
1B5A: 33                                INC     SP
1B5B: CD CD 02                          CALL    L02CD
1B5E: 33                                INC     SP
1B5F: CB 45                             BIT     0,L
1B61: 28 05                             JR      Z,L1B68
1B63: 2E 03                             LD      L,03h
1B65: C3 A1 22                          JP      L22A1

1B68: DD 7E 08                   L1B68: LD      A,(IX+08h)
1B6B: B7                                OR      A
1B6C: 28 09                             JR      Z,L1B77
1B6E: CB 55                             BIT     2,L
1B70: 28 05                             JR      Z,L1B77
1B72: 2E 0A                             LD      L,0Ah
1B74: C3 A1 22                          JP      L22A1

1B77: 21 00 00                   L1B77: LD      HL,0000h
1B7A: E5                                PUSH    HL
1B7B: DD 6E E0                          LD      L,(IX-20h)
1B7E: DD 66 E1                          LD      H,(IX-1Fh)
1B81: E5                                PUSH    HL
1B82: CD 19 3E                          CALL    L3E19
1B85: F1                                POP     AF
1B86: F1                                POP     AF
1B87: 7D                                LD      A,L
1B88: D6 04                             SUB     04h
1B8A: B4                                OR      H
1B8B: 20 05                             JR      NZ,L1B92
1B8D: 2E 01                             LD      L,01h
1B8F: C3 A1 22                          JP      L22A1

1B92: 7D                         L1B92: LD      A,L
1B93: D6 02                             SUB     02h
1B95: 7C                                LD      A,H
1B96: DE 00                             SBC     A,00h
1B98: 38 05                             JR      C,L1B9F
1B9A: 2E 0D                             LD      L,0Dh
1B9C: C3 A1 22                          JP      L22A1

1B9F: DD 6E E0                   L1B9F: LD      L,(IX-20h)
1BA2: DD 66 E1                          LD      H,(IX-1Fh)
1BA5: 11 2F 00                          LD      DE,002Fh
1BA8: 19                                ADD     HL,DE
1BA9: 7E                                LD      A,(HL)
1BAA: DD 77 E2                          LD      (IX-1Eh),A
1BAD: 23                                INC     HL
1BAE: 7E                                LD      A,(HL)
1BAF: DD 77 E3                          LD      (IX-1Dh),A
1BB2: 23                                INC     HL
1BB3: 7E                                LD      A,(HL)
1BB4: DD 77 E4                          LD      (IX-1Ch),A
1BB7: 23                                INC     HL
1BB8: 7E                                LD      A,(HL)
1BB9: DD 77 E5                          LD      (IX-1Bh),A
1BBC: DD 7E E0                          LD      A,(IX-20h)
1BBF: C6 33                             ADD     A,33h   ; '3'
1BC1: DD 77 E6                          LD      (IX-1Ah),A
1BC4: DD 7E E1                          LD      A,(IX-1Fh)
1BC7: CE 00                             ADC     A,00h
1BC9: DD 77 E7                          LD      (IX-19h),A
1BCC: DD 7E E6                          LD      A,(IX-1Ah)
1BCF: C6 0B                             ADD     A,0Bh
1BD1: 4F                                LD      C,A
1BD2: DD 7E E7                          LD      A,(IX-19h)
1BD5: CE 00                             ADC     A,00h
1BD7: 47                                LD      B,A
1BD8: C5                                PUSH    BC
1BD9: CD BE 22                          CALL    L22BE
1BDC: F1                                POP     AF
1BDD: 7D                                LD      A,L
1BDE: B7                                OR      A
1BDF: 20 05                             JR      NZ,L1BE6
1BE1: 7C                                LD      A,H
1BE2: D6 02                             SUB     02h
1BE4: 28 05                             JR      Z,L1BEB
1BE6: 2E 0D                      L1BE6: LD      L,0Dh
1BE8: C3 A1 22                          JP      L22A1

1BEB: DD 7E E6                   L1BEB: LD      A,(IX-1Ah)
1BEE: C6 16                             ADD     A,16h
1BF0: 4F                                LD      C,A
1BF1: DD 7E E7                          LD      A,(IX-19h)
1BF4: CE 00                             ADC     A,00h
1BF6: 47                                LD      B,A
1BF7: C5                                PUSH    BC
1BF8: CD BE 22                          CALL    L22BE
1BFB: F1                                POP     AF
1BFC: 4D                                LD      C,L
1BFD: 44                                LD      B,H
1BFE: 11 00 00                          LD      DE,0000h
1C01: 7A                                LD      A,D
1C02: B3                                OR      E
1C03: B0                                OR      B
1C04: B1                                OR      C
1C05: 20 13                             JR      NZ,L1C1A
1C07: DD 7E E6                          LD      A,(IX-1Ah)
1C0A: C6 24                             ADD     A,24h   ; '$'
1C0C: 4F                                LD      C,A
1C0D: DD 7E E7                          LD      A,(IX-19h)
1C10: CE 00                             ADC     A,00h
1C12: 47                                LD      B,A
1C13: C5                                PUSH    BC
1C14: CD 75 11                          CALL    L1175
1C17: F1                                POP     AF
1C18: 4D                                LD      C,L
1C19: 44                                LD      B,H
1C1A: DD 7E E0                   L1C1A: LD      A,(IX-20h)
1C1D: C6 1B                             ADD     A,1Bh
1C1F: DD 77 E8                          LD      (IX-18h),A
1C22: DD 7E E1                          LD      A,(IX-1Fh)
1C25: CE 00                             ADC     A,00h
1C27: DD 77 E9                          LD      (IX-17h),A
1C2A: DD 6E E8                          LD      L,(IX-18h)
1C2D: DD 66 E9                          LD      H,(IX-17h)
1C30: 71                                LD      (HL),C
1C31: 23                                INC     HL
1C32: 70                                LD      (HL),B
1C33: 23                                INC     HL
1C34: 73                                LD      (HL),E
1C35: 23                                INC     HL
1C36: 72                                LD      (HL),D
1C37: DD 7E E0                          LD      A,(IX-20h)
1C3A: C6 02                             ADD     A,02h
1C3C: DD 77 FE                          LD      (IX-02h),A
1C3F: DD 7E E1                          LD      A,(IX-1Fh)
1C42: CE 00                             ADC     A,00h
1C44: DD 77 FF                          LD      (IX-01h),A
1C47: DD 6E E6                          LD      L,(IX-1Ah)
1C4A: DD 66 E7                          LD      H,(IX-19h)
1C4D: C5                                PUSH    BC
1C4E: 01 10 00                          LD      BC,0010h
1C51: 09                                ADD     HL,BC
1C52: C1                                POP     BC
1C53: 7E                                LD      A,(HL)
1C54: DD 6E FE                          LD      L,(IX-02h)
1C57: DD 66 FF                          LD      H,(IX-01h)
1C5A: 77                                LD      (HL),A
1C5B: DD 6E FE                          LD      L,(IX-02h)
1C5E: DD 66 FF                          LD      H,(IX-01h)
1C61: 6E                                LD      L,(HL)
1C62: 3D                                DEC     A
1C63: 28 0A                             JR      Z,L1C6F
1C65: 7D                                LD      A,L
1C66: D6 02                             SUB     02h
1C68: 28 05                             JR      Z,L1C6F
1C6A: 2E 0D                             LD      L,0Dh
1C6C: C3 A1 22                          JP      L22A1

1C6F: DD 75 FC                   L1C6F: LD      (IX-04h),L
1C72: AF                                XOR     A
1C73: DD 77 FD                          LD      (IX-03h),A
1C76: DD 77 FE                          LD      (IX-02h),A
1C79: DD 77 FF                          LD      (IX-01h),A
1C7C: 6F                                LD      L,A
1C7D: 67                                LD      H,A
1C7E: E5                                PUSH    HL
1C7F: DD 6E FC                          LD      L,(IX-04h)
1C82: DD 66 FD                          LD      H,(IX-03h)
1C85: E5                                PUSH    HL
1C86: D5                                PUSH    DE
1C87: C5                                PUSH    BC
1C88: CD E2 4E                          CALL    L4EE2
1C8B: F1                                POP     AF
1C8C: F1                                POP     AF
1C8D: F1                                POP     AF
1C8E: F1                                POP     AF
1C8F: DD 75 EA                          LD      (IX-16h),L
1C92: DD 74 EB                          LD      (IX-15h),H
1C95: DD 73 EC                          LD      (IX-14h),E
1C98: DD 72 ED                          LD      (IX-13h),D
1C9B: DD 7E E0                          LD      A,(IX-20h)
1C9E: C6 09                             ADD     A,09h
1CA0: DD 77 FA                          LD      (IX-06h),A
1CA3: DD 7E E1                          LD      A,(IX-1Fh)
1CA6: CE 00                             ADC     A,00h
1CA8: DD 77 FB                          LD      (IX-05h),A
1CAB: DD 6E E6                          LD      L,(IX-1Ah)
1CAE: DD 66 E7                          LD      H,(IX-19h)
1CB1: 11 0D 00                          LD      DE,000Dh
1CB4: 19                                ADD     HL,DE
1CB5: 5E                                LD      E,(HL)
1CB6: 16 00                             LD      D,00h
1CB8: DD 6E FA                          LD      L,(IX-06h)
1CBB: DD 66 FB                          LD      H,(IX-05h)
1CBE: 73                                LD      (HL),E
1CBF: 23                                INC     HL
1CC0: 72                                LD      (HL),D
1CC1: DD 6E FA                          LD      L,(IX-06h)
1CC4: DD 66 FB                          LD      H,(IX-05h)
1CC7: 4E                                LD      C,(HL)
1CC8: 23                                INC     HL
1CC9: 46                                LD      B,(HL)
1CCA: 7A                                LD      A,D
1CCB: B3                                OR      E
1CCC: 28 0B                             JR      Z,L1CD9
1CCE: 59                                LD      E,C
1CCF: 50                                LD      D,B
1CD0: 1B                                DEC     DE
1CD1: 79                                LD      A,C
1CD2: A3                                AND     E
1CD3: 4F                                LD      C,A
1CD4: 78                                LD      A,B
1CD5: A2                                AND     D
1CD6: B1                                OR      C
1CD7: 28 05                             JR      Z,L1CDE
1CD9: 2E 0D                      L1CD9: LD      L,0Dh
1CDB: C3 A1 22                          JP      L22A1

1CDE: DD 7E E0                   L1CDE: LD      A,(IX-20h)
1CE1: C6 07                             ADD     A,07h
1CE3: DD 77 EE                          LD      (IX-12h),A
1CE6: DD 7E E1                          LD      A,(IX-1Fh)
1CE9: CE 00                             ADC     A,00h
1CEB: DD 77 EF                          LD      (IX-11h),A
1CEE: DD 7E E6                          LD      A,(IX-1Ah)
1CF1: C6 11                             ADD     A,11h
1CF3: 4F                                LD      C,A
1CF4: DD 7E E7                          LD      A,(IX-19h)
1CF7: CE 00                             ADC     A,00h
1CF9: 47                                LD      B,A
1CFA: C5                                PUSH    BC
1CFB: CD BE 22                          CALL    L22BE
1CFE: F1                                POP     AF
1CFF: 4D                                LD      C,L
1D00: 44                                LD      B,H
1D01: DD 6E EE                          LD      L,(IX-12h)
1D04: DD 66 EF                          LD      H,(IX-11h)
1D07: 71                                LD      (HL),C
1D08: 23                                INC     HL
1D09: 70                                LD      (HL),B
1D0A: 79                                LD      A,C
1D0B: E6 0F                             AND     0Fh
1D0D: 28 05                             JR      Z,L1D14
1D0F: 2E 0D                             LD      L,0Dh
1D11: C3 A1 22                          JP      L22A1

1D14: DD 7E E6                   L1D14: LD      A,(IX-1Ah)
1D17: C6 13                             ADD     A,13h
1D19: 4F                                LD      C,A
1D1A: DD 7E E7                          LD      A,(IX-19h)
1D1D: CE 00                             ADC     A,00h
1D1F: 47                                LD      B,A
1D20: C5                                PUSH    BC
1D21: CD BE 22                          CALL    L22BE
1D24: F1                                POP     AF
1D25: 4D                                LD      C,L
1D26: 44                                LD      B,H
1D27: 11 00 00                          LD      DE,0000h
1D2A: 7A                                LD      A,D
1D2B: B3                                OR      E
1D2C: B0                                OR      B
1D2D: B1                                OR      C
1D2E: 20 13                             JR      NZ,L1D43
1D30: DD 7E E6                          LD      A,(IX-1Ah)
1D33: C6 20                             ADD     A,20h   ; ' '
1D35: 4F                                LD      C,A
1D36: DD 7E E7                          LD      A,(IX-19h)
1D39: CE 00                             ADC     A,00h
1D3B: 47                                LD      B,A
1D3C: C5                                PUSH    BC
1D3D: CD 75 11                          CALL    L1175
1D40: F1                                POP     AF
1D41: 4D                                LD      C,L
1D42: 44                                LD      B,H
1D43: DD 7E E6                   L1D43: LD      A,(IX-1Ah)
1D46: C6 0E                             ADD     A,0Eh
1D48: 6F                                LD      L,A
1D49: DD 7E E7                          LD      A,(IX-19h)
1D4C: CE 00                             ADC     A,00h
1D4E: 67                                LD      H,A
1D4F: C5                                PUSH    BC
1D50: D5                                PUSH    DE
1D51: E5                                PUSH    HL
1D52: CD BE 22                          CALL    L22BE
1D55: F1                                POP     AF
1D56: D1                                POP     DE
1D57: C1                                POP     BC
1D58: DD 75 FE                          LD      (IX-02h),L
1D5B: DD 74 FF                          LD      (IX-01h),H
1D5E: 7C                                LD      A,H
1D5F: B5                                OR      L
1D60: 20 05                             JR      NZ,L1D67
1D62: 2E 0D                             LD      L,0Dh
1D64: C3 A1 22                          JP      L22A1

1D67: DD 7E FE                   L1D67: LD      A,(IX-02h)
1D6A: DD 77 F0                          LD      (IX-10h),A
1D6D: DD 7E FF                          LD      A,(IX-01h)
1D70: DD 77 F1                          LD      (IX-0Fh),A
1D73: AF                                XOR     A
1D74: DD 77 F2                          LD      (IX-0Eh),A
1D77: DD 77 F3                          LD      (IX-0Dh),A
1D7A: DD 7E F0                          LD      A,(IX-10h)
1D7D: DD 86 EA                          ADD     A,(IX-16h)
1D80: DD 77 DC                          LD      (IX-24h),A
1D83: DD 7E F1                          LD      A,(IX-0Fh)
1D86: DD 8E EB                          ADC     A,(IX-15h)
1D89: DD 77 DD                          LD      (IX-23h),A
1D8C: DD 7E F2                          LD      A,(IX-0Eh)
1D8F: DD 8E EC                          ADC     A,(IX-14h)
1D92: DD 77 DE                          LD      (IX-22h),A
1D95: DD 7E F3                          LD      A,(IX-0Dh)
1D98: DD 8E ED                          ADC     A,(IX-13h)
1D9B: DD 77 DF                          LD      (IX-21h),A
1D9E: DD 6E EE                          LD      L,(IX-12h)
1DA1: DD 66 EF                          LD      H,(IX-11h)
1DA4: 7E                                LD      A,(HL)
1DA5: 23                                INC     HL
1DA6: 66                                LD      H,(HL)
1DA7: 6F                                LD      L,A
1DA8: 3E 04                             LD      A,04h
1DAA: CB 3C                      L1DAA: SRL     H
1DAC: CB 1D                             RR      L
1DAE: 3D                                DEC     A
1DAF: 20 F9                             JR      NZ,L1DAA
1DB1: DD 75 F6                          LD      (IX-0Ah),L
1DB4: DD 74 F7                          LD      (IX-09h),H
1DB7: AF                                XOR     A
1DB8: DD 77 F8                          LD      (IX-08h),A
1DBB: DD 77 F9                          LD      (IX-07h),A
1DBE: DD 7E DC                          LD      A,(IX-24h)
1DC1: DD 86 F6                          ADD     A,(IX-0Ah)
1DC4: DD 77 FC                          LD      (IX-04h),A
1DC7: DD 7E DD                          LD      A,(IX-23h)
1DCA: DD 8E F7                          ADC     A,(IX-09h)
1DCD: DD 77 FD                          LD      (IX-03h),A
1DD0: DD 7E DE                          LD      A,(IX-22h)
1DD3: DD 8E F8                          ADC     A,(IX-08h)
1DD6: DD 77 FE                          LD      (IX-02h),A
1DD9: DD 7E DF                          LD      A,(IX-21h)
1DDC: DD 8E F9                          ADC     A,(IX-07h)
1DDF: DD 77 FF                          LD      (IX-01h),A
1DE2: D5                                PUSH    DE
1DE3: C5                                PUSH    BC
1DE4: 21 1C 00                          LD      HL,001Ch
1DE7: 39                                ADD     HL,SP
1DE8: EB                                EX      DE,HL
1DE9: 21 24 00                          LD      HL,0024h
1DEC: 39                                ADD     HL,SP
1DED: 01 04 00                          LD      BC,0004h
1DF0: ED B0                             LDIR
1DF2: C1                                POP     BC
1DF3: D1                                POP     DE
1DF4: 79                                LD      A,C
1DF5: DD 96 F4                          SUB     (IX-0Ch)
1DF8: 78                                LD      A,B
1DF9: DD 9E F5                          SBC     A,(IX-0Bh)
1DFC: 7B                                LD      A,E
1DFD: DD 9E F6                          SBC     A,(IX-0Ah)
1E00: 7A                                LD      A,D
1E01: DD 9E F7                          SBC     A,(IX-09h)
1E04: 30 05                             JR      NC,L1E0B
1E06: 2E 0D                             LD      L,0Dh
1E08: C3 A1 22                          JP      L22A1

1E0B: 79                         L1E0B: LD      A,C
1E0C: DD 96 F4                          SUB     (IX-0Ch)
1E0F: DD 77 FC                          LD      (IX-04h),A
1E12: 78                                LD      A,B
1E13: DD 9E F5                          SBC     A,(IX-0Bh)
1E16: DD 77 FD                          LD      (IX-03h),A
1E19: 7B                                LD      A,E
1E1A: DD 9E F6                          SBC     A,(IX-0Ah)
1E1D: DD 77 FE                          LD      (IX-02h),A
1E20: 7A                                LD      A,D
1E21: DD 9E F7                          SBC     A,(IX-09h)
1E24: DD 77 FF                          LD      (IX-01h),A
1E27: DD 6E FA                          LD      L,(IX-06h)
1E2A: DD 66 FB                          LD      H,(IX-05h)
1E2D: 4E                                LD      C,(HL)
1E2E: 23                                INC     HL
1E2F: 46                                LD      B,(HL)
1E30: 11 00 00                          LD      DE,0000h
1E33: D5                                PUSH    DE
1E34: C5                                PUSH    BC
1E35: DD 6E FE                          LD      L,(IX-02h)
1E38: DD 66 FF                          LD      H,(IX-01h)
1E3B: E5                                PUSH    HL
1E3C: DD 6E FC                          LD      L,(IX-04h)
1E3F: DD 66 FD                          LD      H,(IX-03h)
1E42: E5                                PUSH    HL
1E43: CD 60 50                          CALL    L5060
1E46: F1                                POP     AF
1E47: F1                                POP     AF
1E48: F1                                POP     AF
1E49: F1                                POP     AF
1E4A: 4D                                LD      C,L
1E4B: 44                                LD      B,H
1E4C: 7A                                LD      A,D
1E4D: B3                                OR      E
1E4E: B0                                OR      B
1E4F: B1                                OR      C
1E50: 20 05                             JR      NZ,L1E57
1E52: 2E 0D                             LD      L,0Dh
1E54: C3 A1 22                          JP      L22A1

1E57: AF                         L1E57: XOR     A
1E58: DD 77 F8                          LD      (IX-08h),A
1E5B: DD 77 F9                          LD      (IX-07h),A
1E5E: 3E F5                             LD      A,0F5h
1E60: B9                                CP      C
1E61: 3E FF                             LD      A,0FFh
1E63: 98                                SBC     A,B
1E64: 21 FF 0F                          LD      HL,0FFFh
1E67: ED 52                             SBC     HL,DE
1E69: 38 08                             JR      C,L1E73
1E6B: DD 36 F8 03                       LD      (IX-08h),03h
1E6F: AF                                XOR     A
1E70: DD 77 F9                          LD      (IX-07h),A
1E73: 3E F5                      L1E73: LD      A,0F5h
1E75: B9                                CP      C
1E76: 3E FF                             LD      A,0FFh
1E78: 98                                SBC     A,B
1E79: 21 00 00                          LD      HL,0000h
1E7C: ED 52                             SBC     HL,DE
1E7E: 38 08                             JR      C,L1E88
1E80: DD 36 F8 02                       LD      (IX-08h),02h
1E84: AF                                XOR     A
1E85: DD 77 F9                          LD      (IX-07h),A
1E88: 3E F5                      L1E88: LD      A,0F5h
1E8A: B9                                CP      C
1E8B: 3E 0F                             LD      A,0Fh
1E8D: 98                                SBC     A,B
1E8E: 21 00 00                          LD      HL,0000h
1E91: ED 52                             SBC     HL,DE
1E93: 38 08                             JR      C,L1E9D
1E95: DD 36 F8 01                       LD      (IX-08h),01h
1E99: AF                                XOR     A
1E9A: DD 77 F9                          LD      (IX-07h),A
1E9D: DD 7E F9                   L1E9D: LD      A,(IX-07h)
1EA0: DD B6 F8                          OR      (IX-08h)
1EA3: 20 05                             JR      NZ,L1EAA
1EA5: 2E 0D                             LD      L,0Dh
1EA7: C3 A1 22                          JP      L22A1

1EAA: DD 7E E0                   L1EAA: LD      A,(IX-20h)
1EAD: C6 17                             ADD     A,17h
1EAF: DD 77 FA                          LD      (IX-06h),A
1EB2: DD 7E E1                          LD      A,(IX-1Fh)
1EB5: CE 00                             ADC     A,00h
1EB7: DD 77 FB                          LD      (IX-05h),A
1EBA: 79                                LD      A,C
1EBB: C6 02                             ADD     A,02h
1EBD: 4F                                LD      C,A
1EBE: 78                                LD      A,B
1EBF: CE 00                             ADC     A,00h
1EC1: 47                                LD      B,A
1EC2: 30 01                             JR      NC,L1EC5
1EC4: 13                                INC     DE
1EC5: DD 6E FA                   L1EC5: LD      L,(IX-06h)
1EC8: DD 66 FB                          LD      H,(IX-05h)
1ECB: 71                                LD      (HL),C
1ECC: 23                                INC     HL
1ECD: 70                                LD      (HL),B
1ECE: 23                                INC     HL
1ECF: 73                                LD      (HL),E
1ED0: 23                                INC     HL
1ED1: 72                                LD      (HL),D
1ED2: DD 7E E0                          LD      A,(IX-20h)
1ED5: C6 1F                             ADD     A,1Fh
1ED7: 5F                                LD      E,A
1ED8: DD 7E E1                          LD      A,(IX-1Fh)
1EDB: CE 00                             ADC     A,00h
1EDD: 57                                LD      D,A
1EDE: 21 06 00                          LD      HL,0006h
1EE1: 39                                ADD     HL,SP
1EE2: 01 04 00                          LD      BC,0004h
1EE5: ED B0                             LDIR
1EE7: DD 7E E0                          LD      A,(IX-20h)
1EEA: C6 23                             ADD     A,23h   ; '#'
1EEC: 4F                                LD      C,A
1EED: DD 7E E1                          LD      A,(IX-1Fh)
1EF0: CE 00                             ADC     A,00h
1EF2: 47                                LD      B,A
1EF3: DD 7E F0                          LD      A,(IX-10h)
1EF6: DD 86 E2                          ADD     A,(IX-1Eh)
1EF9: DD 77 FC                          LD      (IX-04h),A
1EFC: DD 7E F1                          LD      A,(IX-0Fh)
1EFF: DD 8E E3                          ADC     A,(IX-1Dh)
1F02: DD 77 FD                          LD      (IX-03h),A
1F05: DD 7E F2                          LD      A,(IX-0Eh)
1F08: DD 8E E4                          ADC     A,(IX-1Ch)
1F0B: DD 77 FE                          LD      (IX-02h),A
1F0E: DD 7E F3                          LD      A,(IX-0Dh)
1F11: DD 8E E5                          ADC     A,(IX-1Bh)
1F14: DD 77 FF                          LD      (IX-01h),A
1F17: C5                                PUSH    BC
1F18: 59                                LD      E,C
1F19: 50                                LD      D,B
1F1A: 21 22 00                          LD      HL,0022h
1F1D: 39                                ADD     HL,SP
1F1E: 01 04 00                          LD      BC,0004h
1F21: ED B0                             LDIR
1F23: C1                                POP     BC
1F24: DD 7E E0                          LD      A,(IX-20h)
1F27: C6 2B                             ADD     A,2Bh   ; '+'
1F29: 5F                                LD      E,A
1F2A: DD 7E E1                          LD      A,(IX-1Fh)
1F2D: CE 00                             ADC     A,00h
1F2F: 57                                LD      D,A
1F30: DD 7E F4                          LD      A,(IX-0Ch)
1F33: DD 86 E2                          ADD     A,(IX-1Eh)
1F36: DD 77 FC                          LD      (IX-04h),A
1F39: DD 7E F5                          LD      A,(IX-0Bh)
1F3C: DD 8E E3                          ADC     A,(IX-1Dh)
1F3F: DD 77 FD                          LD      (IX-03h),A
1F42: DD 7E F6                          LD      A,(IX-0Ah)
1F45: DD 8E E4                          ADC     A,(IX-1Ch)
1F48: DD 77 FE                          LD      (IX-02h),A
1F4B: DD 7E F7                          LD      A,(IX-09h)
1F4E: DD 8E E5                          ADC     A,(IX-1Bh)
1F51: DD 77 FF                          LD      (IX-01h),A
1F54: C5                                PUSH    BC
1F55: 21 22 00                          LD      HL,0022h
1F58: 39                                ADD     HL,SP
1F59: 01 04 00                          LD      BC,0004h
1F5C: ED B0                             LDIR
1F5E: C1                                POP     BC
1F5F: DD 7E F8                          LD      A,(IX-08h)
1F62: D6 03                             SUB     03h
1F64: DD B6 F9                          OR      (IX-07h)
1F67: 3E 01                             LD      A,01h
1F69: 28 01                             JR      Z,L1F6C
1F6B: AF                                XOR     A
1F6C: DD 77 FF                   L1F6C: LD      (IX-01h),A
1F6F: DD 7E E0                          LD      A,(IX-20h)
1F72: C6 27                             ADD     A,27h   ; '''
1F74: 5F                                LD      E,A
1F75: DD 7E E1                          LD      A,(IX-1Fh)
1F78: CE 00                             ADC     A,00h
1F7A: 57                                LD      D,A
1F7B: DD 7E FF                          LD      A,(IX-01h)
1F7E: B7                                OR      A
1F7F: CA 06 20                          JP      Z,L2006
1F82: DD 7E E6                          LD      A,(IX-1Ah)
1F85: C6 2A                             ADD     A,2Ah   ; '*'
1F87: 4F                                LD      C,A
1F88: DD 7E E7                          LD      A,(IX-19h)
1F8B: CE 00                             ADC     A,00h
1F8D: 47                                LD      B,A
1F8E: D5                                PUSH    DE
1F8F: C5                                PUSH    BC
1F90: CD BE 22                          CALL    L22BE
1F93: F1                                POP     AF
1F94: D1                                POP     DE
1F95: 7C                                LD      A,H
1F96: B5                                OR      L
1F97: 28 05                             JR      Z,L1F9E
1F99: 2E 0D                             LD      L,0Dh
1F9B: C3 A1 22                          JP      L22A1

1F9E: DD 6E EE                   L1F9E: LD      L,(IX-12h)
1FA1: DD 66 EF                          LD      H,(IX-11h)
1FA4: 7E                                LD      A,(HL)
1FA5: 23                                INC     HL
1FA6: B6                                OR      (HL)
1FA7: 28 05                             JR      Z,L1FAE
1FA9: 2E 0D                             LD      L,0Dh
1FAB: C3 A1 22                          JP      L22A1

1FAE: DD 7E E6                   L1FAE: LD      A,(IX-1Ah)
1FB1: C6 2C                             ADD     A,2Ch   ; ','
1FB3: 4F                                LD      C,A
1FB4: DD 7E E7                          LD      A,(IX-19h)
1FB7: CE 00                             ADC     A,00h
1FB9: 47                                LD      B,A
1FBA: D5                                PUSH    DE
1FBB: C5                                PUSH    BC
1FBC: CD 75 11                          CALL    L1175
1FBF: F1                                POP     AF
1FC0: DD 75 F4                          LD      (IX-0Ch),L
1FC3: DD 74 F5                          LD      (IX-0Bh),H
1FC6: DD 73 F6                          LD      (IX-0Ah),E
1FC9: DD 72 F7                          LD      (IX-09h),D
1FCC: D1                                POP     DE
1FCD: 21 18 00                          LD      HL,0018h
1FD0: 39                                ADD     HL,SP
1FD1: 01 04 00                          LD      BC,0004h
1FD4: ED B0                             LDIR
1FD6: DD 6E FA                          LD      L,(IX-06h)
1FD9: DD 66 FB                          LD      H,(IX-05h)
1FDC: 4E                                LD      C,(HL)
1FDD: 23                                INC     HL
1FDE: 46                                LD      B,(HL)
1FDF: 23                                INC     HL
1FE0: 5E                                LD      E,(HL)
1FE1: 23                                INC     HL
1FE2: 56                                LD      D,(HL)
1FE3: DD 71 F4                          LD      (IX-0Ch),C
1FE6: DD 70 F5                          LD      (IX-0Bh),B
1FE9: DD 73 F6                          LD      (IX-0Ah),E
1FEC: DD 72 F7                          LD      (IX-09h),D
1FEF: 06 02                             LD      B,02h
1FF1: DD CB F4 26                L1FF1: SLA     (IX-0Ch)
1FF5: DD CB F5 16                       RL      (IX-0Bh)
1FF9: DD CB F6 16                       RL      (IX-0Ah)
1FFD: DD CB F7 16                       RL      (IX-09h)
2001: 10 EE                             DJNZ    L1FF1
2003: C3 D1 20                          JP      L20D1

2006: DD 6E EE                   L2006: LD      L,(IX-12h)
2009: DD 66 EF                          LD      H,(IX-11h)
200C: 23                                INC     HL
200D: 7E                                LD      A,(HL)
200E: 2B                                DEC     HL
200F: 6E                                LD      L,(HL)
2010: B5                                OR      L
2011: 20 05                             JR      NZ,L2018
2013: 2E 0D                             LD      L,0Dh
2015: C3 A1 22                          JP      L22A1

2018: 69                         L2018: LD      L,C
2019: 60                                LD      H,B
201A: 4E                                LD      C,(HL)
201B: 23                                INC     HL
201C: 46                                LD      B,(HL)
201D: 23                                INC     HL
201E: 23                                INC     HL
201F: 7E                                LD      A,(HL)
2020: 2B                                DEC     HL
2021: 6E                                LD      L,(HL)
2022: 67                                LD      H,A
2023: 79                                LD      A,C
2024: DD 86 EA                          ADD     A,(IX-16h)
2027: DD 77 F4                          LD      (IX-0Ch),A
202A: 78                                LD      A,B
202B: DD 8E EB                          ADC     A,(IX-15h)
202E: DD 77 F5                          LD      (IX-0Bh),A
2031: 7D                                LD      A,L
2032: DD 8E EC                          ADC     A,(IX-14h)
2035: DD 77 F6                          LD      (IX-0Ah),A
2038: 7C                                LD      A,H
2039: DD 8E ED                          ADC     A,(IX-13h)
203C: DD 77 F7                          LD      (IX-09h),A
203F: 21 18 00                          LD      HL,0018h
2042: 39                                ADD     HL,SP
2043: 01 04 00                          LD      BC,0004h
2046: ED B0                             LDIR
2048: DD 5E FA                          LD      E,(IX-06h)
204B: DD 56 FB                          LD      D,(IX-05h)
204E: 21 18 00                          LD      HL,0018h
2051: 39                                ADD     HL,SP
2052: EB                                EX      DE,HL
2053: 01 04 00                          LD      BC,0004h
2056: ED B0                             LDIR
2058: DD 7E F8                          LD      A,(IX-08h)
205B: D6 02                             SUB     02h
205D: DD B6 F9                          OR      (IX-07h)
2060: 20 16                             JR      NZ,L2078
2062: DD 4E F4                          LD      C,(IX-0Ch)
2065: DD 46 F5                          LD      B,(IX-0Bh)
2068: DD 5E F6                          LD      E,(IX-0Ah)
206B: DD 56 F7                          LD      D,(IX-09h)
206E: CB 21                             SLA     C
2070: CB 10                             RL      B
2072: CB 13                             RL      E
2074: CB 12                             RL      D
2076: 18 4D                             JR      L20C5

2078: DD 6E F6                   L2078: LD      L,(IX-0Ah)
207B: DD 66 F7                          LD      H,(IX-09h)
207E: E5                                PUSH    HL
207F: DD 6E F4                          LD      L,(IX-0Ch)
2082: DD 66 F5                          LD      H,(IX-0Bh)
2085: E5                                PUSH    HL
2086: 21 00 00                          LD      HL,0000h
2089: E5                                PUSH    HL
208A: 21 03 00                          LD      HL,0003h
208D: E5                                PUSH    HL
208E: CD E2 4E                          CALL    L4EE2
2091: F1                                POP     AF
2092: F1                                POP     AF
2093: F1                                POP     AF
2094: F1                                POP     AF
2095: CB 3A                             SRL     D
2097: CB 1B                             RR      E
2099: CB 1C                             RR      H
209B: CB 1D                             RR      L
209D: DD 7E F4                          LD      A,(IX-0Ch)
20A0: E6 01                             AND     01h
20A2: DD 77 FB                          LD      (IX-05h),A
20A5: DD 36 FC 00                       LD      (IX-04h),00h
20A9: DD 36 FD 00                       LD      (IX-03h),00h
20AD: DD 36 FE 00                       LD      (IX-02h),00h
20B1: 7D                                LD      A,L
20B2: DD 86 FB                          ADD     A,(IX-05h)
20B5: 4F                                LD      C,A
20B6: 7C                                LD      A,H
20B7: DD 8E FC                          ADC     A,(IX-04h)
20BA: 47                                LD      B,A
20BB: 7B                                LD      A,E
20BC: DD 8E FD                          ADC     A,(IX-03h)
20BF: 5F                                LD      E,A
20C0: 7A                                LD      A,D
20C1: DD 8E FE                          ADC     A,(IX-02h)
20C4: 57                                LD      D,A
20C5: DD 71 F4                   L20C5: LD      (IX-0Ch),C
20C8: DD 70 F5                          LD      (IX-0Bh),B
20CB: DD 73 F6                          LD      (IX-0Ah),E
20CE: DD 72 F7                          LD      (IX-09h),D
20D1: DD 5E E8                   L20D1: LD      E,(IX-18h)
20D4: DD 56 E9                          LD      D,(IX-17h)
20D7: 21 1F 00                          LD      HL,001Fh
20DA: 39                                ADD     HL,SP
20DB: EB                                EX      DE,HL
20DC: 01 04 00                          LD      BC,0004h
20DF: ED B0                             LDIR
20E1: DD 7E F4                          LD      A,(IX-0Ch)
20E4: C6 FF                             ADD     A,0FFh
20E6: DD 7E F5                          LD      A,(IX-0Bh)
20E9: CE 01                             ADC     A,01h
20EB: 47                                LD      B,A
20EC: DD 7E F6                          LD      A,(IX-0Ah)
20EF: CE 00                             ADC     A,00h
20F1: 5F                                LD      E,A
20F2: DD 7E F7                          LD      A,(IX-09h)
20F5: CE 00                             ADC     A,00h
20F7: 6F                                LD      L,A
20F8: 48                                LD      C,B
20F9: 43                                LD      B,E
20FA: 26 00                             LD      H,00h
20FC: CB 3D                             SRL     L
20FE: CB 18                             RR      B
2100: CB 19                             RR      C
2102: DD 7E FB                          LD      A,(IX-05h)
2105: 91                                SUB     C
2106: DD 7E FC                          LD      A,(IX-04h)
2109: 98                                SBC     A,B
210A: DD 7E FD                          LD      A,(IX-03h)
210D: 9D                                SBC     A,L
210E: DD 7E FE                          LD      A,(IX-02h)
2111: 9C                                SBC     A,H
2112: 30 05                             JR      NC,L2119
2114: 2E 0D                             LD      L,0Dh
2116: C3 A1 22                          JP      L22A1

2119: DD 7E E0                   L2119: LD      A,(IX-20h)
211C: C6 0B                             ADD     A,0Bh
211E: DD 77 FB                          LD      (IX-05h),A
2121: DD 7E E1                          LD      A,(IX-1Fh)
2124: CE 00                             ADC     A,00h
2126: DD 77 FC                          LD      (IX-04h),A
2129: DD 7E E0                          LD      A,(IX-20h)
212C: C6 0F                             ADD     A,0Fh
212E: DD 77 FD                          LD      (IX-03h),A
2131: DD 7E E1                          LD      A,(IX-1Fh)
2134: CE 00                             ADC     A,00h
2136: DD 77 FE                          LD      (IX-02h),A
2139: DD 6E FD                          LD      L,(IX-03h)
213C: DD 66 FE                          LD      H,(IX-02h)
213F: 36 FF                             LD      (HL),0FFh
2141: 23                                INC     HL
2142: 36 FF                             LD      (HL),0FFh
2144: 23                                INC     HL
2145: 36 FF                             LD      (HL),0FFh
2147: 23                                INC     HL
2148: 36 FF                             LD      (HL),0FFh
214A: DD 6E FB                          LD      L,(IX-05h)
214D: DD 66 FC                          LD      H,(IX-04h)
2150: 36 FF                             LD      (HL),0FFh
2152: 23                                INC     HL
2153: 36 FF                             LD      (HL),0FFh
2155: 23                                INC     HL
2156: 36 FF                             LD      (HL),0FFh
2158: 23                                INC     HL
2159: 36 FF                             LD      (HL),0FFh
215B: DD 7E E0                          LD      A,(IX-20h)
215E: C6 04                             ADD     A,04h
2160: 4F                                LD      C,A
2161: DD 7E E1                          LD      A,(IX-1Fh)
2164: CE 00                             ADC     A,00h
2166: 47                                LD      B,A
2167: 3E 80                             LD      A,80h
2169: 02                                LD      (BC),A
216A: DD 7E FF                          LD      A,(IX-01h)
216D: B7                                OR      A
216E: CA 61 22                          JP      Z,L2261
2171: DD 7E E6                          LD      A,(IX-1Ah)
2174: C6 30                             ADD     A,30h   ; '0'
2176: 5F                                LD      E,A
2177: DD 7E E7                          LD      A,(IX-19h)
217A: CE 00                             ADC     A,00h
217C: 57                                LD      D,A
217D: C5                                PUSH    BC
217E: D5                                PUSH    DE
217F: CD BE 22                          CALL    L22BE
2182: F1                                POP     AF
2183: C1                                POP     BC
2184: 7D                                LD      A,L
2185: 3D                                DEC     A
2186: B4                                OR      H
2187: C2 61 22                          JP      NZ,L2261
218A: DD 7E E2                          LD      A,(IX-1Eh)
218D: C6 01                             ADD     A,01h
218F: 5F                                LD      E,A
2190: DD 7E E3                          LD      A,(IX-1Dh)
2193: CE 00                             ADC     A,00h
2195: 57                                LD      D,A
2196: DD 7E E4                          LD      A,(IX-1Ch)
2199: CE 00                             ADC     A,00h
219B: 6F                                LD      L,A
219C: DD 7E E5                          LD      A,(IX-1Bh)
219F: CE 00                             ADC     A,00h
21A1: 67                                LD      H,A
21A2: C5                                PUSH    BC
21A3: E5                                PUSH    HL
21A4: D5                                PUSH    DE
21A5: DD 6E E0                          LD      L,(IX-20h)
21A8: DD 66 E1                          LD      H,(IX-1Fh)
21AB: E5                                PUSH    HL
21AC: CD DD 22                          CALL    L22DD
21AF: F1                                POP     AF
21B0: F1                                POP     AF
21B1: F1                                POP     AF
21B2: 7D                                LD      A,L
21B3: C1                                POP     BC
21B4: B7                                OR      A
21B5: C2 61 22                          JP      NZ,L2261
21B8: AF                                XOR     A
21B9: 02                                LD      (BC),A
21BA: DD 7E E6                          LD      A,(IX-1Ah)
21BD: C6 FE                             ADD     A,0FEh
21BF: 4F                                LD      C,A
21C0: DD 7E E7                          LD      A,(IX-19h)
21C3: CE 01                             ADC     A,01h
21C5: 47                                LD      B,A
21C6: C5                                PUSH    BC
21C7: CD BE 22                          CALL    L22BE
21CA: F1                                POP     AF
21CB: 7D                                LD      A,L
21CC: D6 55                             SUB     55h     ; 'U'
21CE: C2 61 22                          JP      NZ,L2261
21D1: 7C                                LD      A,H
21D2: D6 AA                             SUB     0AAh
21D4: C2 61 22                          JP      NZ,L2261
21D7: DD 7E E0                          LD      A,(IX-20h)
21DA: C6 33                             ADD     A,33h   ; '3'
21DC: 4F                                LD      C,A
21DD: DD 7E E1                          LD      A,(IX-1Fh)
21E0: CE 00                             ADC     A,00h
21E2: 47                                LD      B,A
21E3: C5                                PUSH    BC
21E4: CD 75 11                          CALL    L1175
21E7: F1                                POP     AF
21E8: 7D                                LD      A,L
21E9: D6 52                             SUB     52h     ; 'R'
21EB: 20 74                             JR      NZ,L2261
21ED: 7C                                LD      A,H
21EE: D6 52                             SUB     52h     ; 'R'
21F0: 20 6F                             JR      NZ,L2261
21F2: 7B                                LD      A,E
21F3: D6 61                             SUB     61h     ; 'a'
21F5: 20 6A                             JR      NZ,L2261
21F7: 7A                                LD      A,D
21F8: D6 41                             SUB     41h     ; 'A'
21FA: 20 65                             JR      NZ,L2261
21FC: DD 7E E6                          LD      A,(IX-1Ah)
21FF: C6 E4                             ADD     A,0E4h
2201: 4F                                LD      C,A
2202: DD 7E E7                          LD      A,(IX-19h)
2205: CE 01                             ADC     A,01h
2207: 47                                LD      B,A
2208: C5                                PUSH    BC
2209: CD 75 11                          CALL    L1175
220C: F1                                POP     AF
220D: 7D                                LD      A,L
220E: D6 72                             SUB     72h     ; 'r'
2210: 20 4F                             JR      NZ,L2261
2212: 7C                                LD      A,H
2213: D6 72                             SUB     72h     ; 'r'
2215: 20 4A                             JR      NZ,L2261
2217: 7B                                LD      A,E
2218: D6 41                             SUB     41h     ; 'A'
221A: 20 45                             JR      NZ,L2261
221C: 7A                                LD      A,D
221D: D6 61                             SUB     61h     ; 'a'
221F: 20 40                             JR      NZ,L2261
2221: DD 7E E6                          LD      A,(IX-1Ah)
2224: C6 E8                             ADD     A,0E8h
2226: 4F                                LD      C,A
2227: DD 7E E7                          LD      A,(IX-19h)
222A: CE 01                             ADC     A,01h
222C: 47                                LD      B,A
222D: C5                                PUSH    BC
222E: CD 75 11                          CALL    L1175
2231: F1                                POP     AF
2232: 4D                                LD      C,L
2233: 44                                LD      B,H
2234: DD 6E FD                          LD      L,(IX-03h)
2237: DD 66 FE                          LD      H,(IX-02h)
223A: 71                                LD      (HL),C
223B: 23                                INC     HL
223C: 70                                LD      (HL),B
223D: 23                                INC     HL
223E: 73                                LD      (HL),E
223F: 23                                INC     HL
2240: 72                                LD      (HL),D
2241: DD 7E E6                          LD      A,(IX-1Ah)
2244: C6 EC                             ADD     A,0ECh
2246: 4F                                LD      C,A
2247: DD 7E E7                          LD      A,(IX-19h)
224A: CE 01                             ADC     A,01h
224C: 47                                LD      B,A
224D: C5                                PUSH    BC
224E: CD 75 11                          CALL    L1175
2251: F1                                POP     AF
2252: 4D                                LD      C,L
2253: 44                                LD      B,H
2254: DD 6E FB                          LD      L,(IX-05h)
2257: DD 66 FC                          LD      H,(IX-04h)
225A: 71                                LD      (HL),C
225B: 23                                INC     HL
225C: 70                                LD      (HL),B
225D: 23                                INC     HL
225E: 73                                LD      (HL),E
225F: 23                                INC     HL
2260: 72                                LD      (HL),D
2261: DD 7E F8                   L2261: LD      A,(IX-08h)
2264: DD 6E E0                          LD      L,(IX-20h)
2267: DD 66 E1                          LD      H,(IX-1Fh)
226A: 77                                LD      (HL),A
226B: DD 7E E0                          LD      A,(IX-20h)
226E: C6 05                             ADD     A,05h
2270: 4F                                LD      C,A
2271: DD 7E E1                          LD      A,(IX-1Fh)
2274: CE 00                             ADC     A,00h
2276: 47                                LD      B,A
2277: 2A B5 F2                          LD      HL,(0F2B5h)
227A: 23                                INC     HL
227B: 22 B5 F2                          LD      (0F2B5h),HL
227E: FD 21 B5 F2                       LD      IY,0F2B5h
2282: FD 7E 00                          LD      A,(IY+00h)
2285: 02                                LD      (BC),A
2286: 03                                INC     BC
2287: FD 7E 01                          LD      A,(IY+01h)
228A: 02                                LD      (BC),A
228B: DD 7E E0                          LD      A,(IX-20h)
228E: C6 13                             ADD     A,13h
2290: 4F                                LD      C,A
2291: DD 7E E1                          LD      A,(IX-1Fh)
2294: CE 00                             ADC     A,00h
2296: 47                                LD      B,A
2297: AF                                XOR     A
2298: 02                                LD      (BC),A
2299: 03                                INC     BC
229A: 02                                LD      (BC),A
229B: 03                                INC     BC
229C: 02                                LD      (BC),A
229D: 03                                INC     BC
229E: 02                                LD      (BC),A
229F: 2E 00                             LD      L,00h
22A1: DD F9                      L22A1: LD      SP,IX
22A3: DD E1                             POP     IX
22A5: C9                                RET

                                        ; --- START PROC L22A6 ---
22A6: D1                         L22A6: POP     DE
22A7: C1                                POP     BC
22A8: C5                                PUSH    BC
22A9: D5                                PUSH    DE
22AA: 21 06 00                          LD      HL,0006h
22AD: 39                                ADD     HL,SP
22AE: 5E                                LD      E,(HL)
22AF: 23                                INC     HL
22B0: 56                                LD      D,(HL)
22B1: 21 04 00                   L22B1: LD      HL,0004h
22B4: 39                                ADD     HL,SP
22B5: 7E                                LD      A,(HL)
22B6: 02                                LD      (BC),A
22B7: 03                                INC     BC
22B8: 1B                                DEC     DE
22B9: 7A                                LD      A,D
22BA: B3                                OR      E
22BB: 20 F4                             JR      NZ,L22B1
22BD: C9                                RET

                                        ; --- START PROC L22BE ---
22BE: CD CD 13                   L22BE: CALL    L13CD
22C1: DD 6E 04                          LD      L,(IX+04h)
22C4: DD 66 05                          LD      H,(IX+05h)
22C7: 23                                INC     HL
22C8: 46                                LD      B,(HL)
22C9: 0E 00                             LD      C,00h
22CB: DD 6E 04                          LD      L,(IX+04h)
22CE: DD 66 05                          LD      H,(IX+05h)
22D1: 5E                                LD      E,(HL)
22D2: 16 00                             LD      D,00h
22D4: 79                                LD      A,C
22D5: B3                                OR      E
22D6: 6F                                LD      L,A
22D7: 78                                LD      A,B
22D8: B2                                OR      D
22D9: 67                                LD      H,A
22DA: DD E1                             POP     IX
22DC: C9                                RET

                                        ; --- START PROC L22DD ---
22DD: CD CD 13                   L22DD: CALL    L13CD
22E0: F5                                PUSH    AF
22E1: F5                                PUSH    AF
22E2: F5                                PUSH    AF
22E3: 3B                                DEC     SP
22E4: AF                                XOR     A
22E5: DD 77 F9                          LD      (IX-07h),A
22E8: DD 4E 04                          LD      C,(IX+04h)
22EB: DD 46 05                          LD      B,(IX+05h)
22EE: 21 2F 00                          LD      HL,002Fh
22F1: 09                                ADD     HL,BC
22F2: DD 75 FA                          LD      (IX-06h),L
22F5: DD 74 FB                          LD      (IX-05h),H
22F8: C5                                PUSH    BC
22F9: DD 5E FA                          LD      E,(IX-06h)
22FC: DD 56 FB                          LD      D,(IX-05h)
22FF: 21 05 00                          LD      HL,0005h
2302: 39                                ADD     HL,SP
2303: EB                                EX      DE,HL
2304: 01 04 00                          LD      BC,0004h
2307: ED B0                             LDIR
2309: C1                                POP     BC
230A: DD 7E 06                          LD      A,(IX+06h)
230D: DD 96 FC                          SUB     (IX-04h)
2310: 20 18                             JR      NZ,L232A
2312: DD 7E 07                          LD      A,(IX+07h)
2315: DD 96 FD                          SUB     (IX-03h)
2318: 20 10                             JR      NZ,L232A
231A: DD 7E 08                          LD      A,(IX+08h)
231D: DD 96 FE                          SUB     (IX-02h)
2320: 20 08                             JR      NZ,L232A
2322: DD 7E 09                          LD      A,(IX+09h)
2325: DD 96 FF                          SUB     (IX-01h)
2328: 28 5E                             JR      Z,L2388
232A: C5                         L232A: PUSH    BC
232B: C5                                PUSH    BC
232C: CD 4B 29                          CALL    L294B
232F: F1                                POP     AF
2330: 7D                                LD      A,L
2331: C1                                POP     BC
2332: DD 77 F9                          LD      (IX-07h),A
2335: B7                                OR      A
2336: 20 50                             JR      NZ,L2388
2338: 21 33 00                          LD      HL,0033h
233B: 09                                ADD     HL,BC
233C: EB                                EX      DE,HL
233D: 69                                LD      L,C
233E: 60                                LD      H,B
233F: 23                                INC     HL
2340: 46                                LD      B,(HL)
2341: 21 01 00                          LD      HL,0001h
2344: E5                                PUSH    HL
2345: DD 6E 08                          LD      L,(IX+08h)
2348: DD 66 09                          LD      H,(IX+09h)
234B: E5                                PUSH    HL
234C: DD 6E 06                          LD      L,(IX+06h)
234F: DD 66 07                          LD      H,(IX+07h)
2352: E5                                PUSH    HL
2353: D5                                PUSH    DE
2354: C5                                PUSH    BC
2355: 33                                INC     SP
2356: CD EE 02                          CALL    L02EE
2359: FD 21 09 00                       LD      IY,0009h
235D: FD 39                             ADD     IY,SP
235F: FD F9                             LD      SP,IY
2361: 7D                                LD      A,L
2362: B7                                OR      A
2363: 28 14                             JR      Z,L2379
2365: DD 36 06 FF                       LD      (IX+06h),0FFh
2369: DD 36 07 FF                       LD      (IX+07h),0FFh
236D: DD 36 08 FF                       LD      (IX+08h),0FFh
2371: DD 36 09 FF                       LD      (IX+09h),0FFh
2375: DD 36 F9 01                       LD      (IX-07h),01h
2379: DD 5E FA                   L2379: LD      E,(IX-06h)
237C: DD 56 FB                          LD      D,(IX-05h)
237F: 21 0D 00                          LD      HL,000Dh
2382: 39                                ADD     HL,SP
2383: 01 04 00                          LD      BC,0004h
2386: ED B0                             LDIR
2388: DD 6E F9                   L2388: LD      L,(IX-07h)
238B: DD F9                             LD      SP,IX
238D: DD E1                             POP     IX
238F: C9                                RET

                                        ; --- START PROC L2390 ---
2390: CD CD 13                   L2390: CALL    L13CD
2393: 21 EE FF                          LD      HL,0FFEEh
2396: 39                                ADD     HL,SP
2397: F9                                LD      SP,HL
2398: DD 7E 04                          LD      A,(IX+04h)
239B: DD 77 EE                          LD      (IX-12h),A
239E: DD 7E 05                          LD      A,(IX+05h)
23A1: DD 77 EF                          LD      (IX-11h),A
23A4: E1                                POP     HL
23A5: E5                                PUSH    HL
23A6: 4E                                LD      C,(HL)
23A7: 23                                INC     HL
23A8: 46                                LD      B,(HL)
23A9: DD 7E 06                          LD      A,(IX+06h)
23AC: D6 02                             SUB     02h
23AE: DD 7E 07                          LD      A,(IX+07h)
23B1: DE 00                             SBC     A,00h
23B3: DD 7E 08                          LD      A,(IX+08h)
23B6: DE 00                             SBC     A,00h
23B8: DD 7E 09                          LD      A,(IX+09h)
23BB: DE 00                             SBC     A,00h
23BD: 38 2D                             JR      C,L23EC
23BF: 21 17 00                          LD      HL,0017h
23C2: 09                                ADD     HL,BC
23C3: EB                                EX      DE,HL
23C4: D5                                PUSH    DE
23C5: C5                                PUSH    BC
23C6: 21 12 00                          LD      HL,0012h
23C9: 39                                ADD     HL,SP
23CA: EB                                EX      DE,HL
23CB: 01 04 00                          LD      BC,0004h
23CE: ED B0                             LDIR
23D0: C1                                POP     BC
23D1: D1                                POP     DE
23D2: DD 7E 06                          LD      A,(IX+06h)
23D5: DD 96 FC                          SUB     (IX-04h)
23D8: DD 7E 07                          LD      A,(IX+07h)
23DB: DD 9E FD                          SBC     A,(IX-03h)
23DE: DD 7E 08                          LD      A,(IX+08h)
23E1: DD 9E FE                          SBC     A,(IX-02h)
23E4: DD 7E 09                          LD      A,(IX+09h)
23E7: DD 9E FF                          SBC     A,(IX-01h)
23EA: 38 05                             JR      C,L23F1
23EC: 2E 02                      L23EC: LD      L,02h
23EE: C3 6F 25                          JP      L256F

23F1: DD 7E 0D                   L23F1: LD      A,(IX+0Dh)
23F4: DD B6 0C                          OR      (IX+0Ch)
23F7: DD B6 0B                          OR      (IX+0Bh)
23FA: DD B6 0A                          OR      (IX+0Ah)
23FD: 28 2B                             JR      Z,L242A
23FF: C5                                PUSH    BC
2400: D5                                PUSH    DE
2401: 21 FF FF                          LD      HL,0FFFFh
2404: E5                                PUSH    HL
2405: 21 FF FF                          LD      HL,0FFFFh
2408: E5                                PUSH    HL
2409: DD 6E 0C                          LD      L,(IX+0Ch)
240C: DD 66 0D                          LD      H,(IX+0Dh)
240F: E5                                PUSH    HL
2410: DD 6E 0A                          LD      L,(IX+0Ah)
2413: DD 66 0B                          LD      H,(IX+0Bh)
2416: E5                                PUSH    HL
2417: C5                                PUSH    BC
2418: CD B7 25                          CALL    L25B7
241B: FD 21 0A 00                       LD      IY,000Ah
241F: FD 39                             ADD     IY,SP
2421: FD F9                             LD      SP,IY
2423: D1                                POP     DE
2424: C1                                POP     BC
2425: 7D                                LD      A,L
2426: B7                                OR      A
2427: C2 6F 25                          JP      NZ,L256F
242A: DD 73 F0                   L242A: LD      (IX-10h),E
242D: DD 72 F1                          LD      (IX-0Fh),D
2430: C5                         L2430: PUSH    BC
2431: DD 6E 08                          LD      L,(IX+08h)
2434: DD 66 09                          LD      H,(IX+09h)
2437: E5                                PUSH    HL
2438: DD 6E 06                          LD      L,(IX+06h)
243B: DD 66 07                          LD      H,(IX+07h)
243E: E5                                PUSH    HL
243F: DD 6E EE                          LD      L,(IX-12h)
2442: DD 66 EF                          LD      H,(IX-11h)
2445: E5                                PUSH    HL
2446: CD 46 14                          CALL    L1446
2449: F1                                POP     AF
244A: F1                                POP     AF
244B: F1                                POP     AF
244C: C1                                POP     BC
244D: DD 75 F2                          LD      (IX-0Eh),L
2450: DD 74 F3                          LD      (IX-0Dh),H
2453: DD 73 F4                          LD      (IX-0Ch),E
2456: DD 72 F5                          LD      (IX-0Bh),D
2459: 7A                                LD      A,D
245A: DD B6 F4                          OR      (IX-0Ch)
245D: DD B6 F3                          OR      (IX-0Dh)
2460: DD B6 F2                          OR      (IX-0Eh)
2463: CA 6D 25                          JP      Z,L256D
2466: DD 7E F2                          LD      A,(IX-0Eh)
2469: 3D                                DEC     A
246A: DD B6 F3                          OR      (IX-0Dh)
246D: DD B6 F4                          OR      (IX-0Ch)
2470: DD B6 F5                          OR      (IX-0Bh)
2473: 20 05                             JR      NZ,L247A
2475: 2E 02                             LD      L,02h
2477: C3 6F 25                          JP      L256F

247A: DD 7E F2                   L247A: LD      A,(IX-0Eh)
247D: DD A6 F3                          AND     (IX-0Dh)
2480: DD A6 F4                          AND     (IX-0Ch)
2483: DD A6 F5                          AND     (IX-0Bh)
2486: 3C                                INC     A
2487: 20 05                             JR      NZ,L248E
2489: 2E 01                             LD      L,01h
248B: C3 6F 25                          JP      L256F

248E: C5                         L248E: PUSH    BC
248F: 21 00 00                          LD      HL,0000h
2492: E5                                PUSH    HL
2493: 21 00 00                          LD      HL,0000h
2496: E5                                PUSH    HL
2497: DD 6E 08                          LD      L,(IX+08h)
249A: DD 66 09                          LD      H,(IX+09h)
249D: E5                                PUSH    HL
249E: DD 6E 06                          LD      L,(IX+06h)
24A1: DD 66 07                          LD      H,(IX+07h)
24A4: E5                                PUSH    HL
24A5: C5                                PUSH    BC
24A6: CD B7 25                          CALL    L25B7
24A9: FD 21 0A 00                       LD      IY,000Ah
24AD: FD 39                             ADD     IY,SP
24AF: FD F9                             LD      SP,IY
24B1: C1                                POP     BC
24B2: 7D                                LD      A,L
24B3: B7                                OR      A
24B4: C2 6F 25                          JP      NZ,L256F
24B7: 21 0F 00                          LD      HL,000Fh
24BA: 09                                ADD     HL,BC
24BB: DD 75 F6                          LD      (IX-0Ah),L
24BE: DD 74 F7                          LD      (IX-09h),H
24C1: C5                                PUSH    BC
24C2: DD 5E F6                          LD      E,(IX-0Ah)
24C5: DD 56 F7                          LD      D,(IX-09h)
24C8: 21 0C 00                          LD      HL,000Ch
24CB: 39                                ADD     HL,SP
24CC: EB                                EX      DE,HL
24CD: 01 04 00                          LD      BC,0004h
24D0: ED B0                             LDIR
24D2: C1                                POP     BC
24D3: DD 6E F0                          LD      L,(IX-10h)
24D6: DD 66 F1                          LD      H,(IX-0Fh)
24D9: 5E                                LD      E,(HL)
24DA: 23                                INC     HL
24DB: 56                                LD      D,(HL)
24DC: 23                                INC     HL
24DD: 23                                INC     HL
24DE: 7E                                LD      A,(HL)
24DF: 2B                                DEC     HL
24E0: 6E                                LD      L,(HL)
24E1: 67                                LD      H,A
24E2: 7B                                LD      A,E
24E3: C6 FE                             ADD     A,0FEh
24E5: 5F                                LD      E,A
24E6: 7A                                LD      A,D
24E7: CE FF                             ADC     A,0FFh
24E9: 57                                LD      D,A
24EA: 7D                                LD      A,L
24EB: CE FF                             ADC     A,0FFh
24ED: 6F                                LD      L,A
24EE: 7C                                LD      A,H
24EF: CE FF                             ADC     A,0FFh
24F1: 67                                LD      H,A
24F2: DD 7E F8                          LD      A,(IX-08h)
24F5: 93                                SUB     E
24F6: DD 7E F9                          LD      A,(IX-07h)
24F9: 9A                                SBC     A,D
24FA: DD 7E FA                          LD      A,(IX-06h)
24FD: 9D                                SBC     A,L
24FE: DD 7E FB                          LD      A,(IX-05h)
2501: 9C                                SBC     A,H
2502: 30 37                             JR      NC,L253B
2504: DD 7E F8                          LD      A,(IX-08h)
2507: C6 01                             ADD     A,01h
2509: DD 77 FC                          LD      (IX-04h),A
250C: DD 7E F9                          LD      A,(IX-07h)
250F: CE 00                             ADC     A,00h
2511: DD 77 FD                          LD      (IX-03h),A
2514: DD 7E FA                          LD      A,(IX-06h)
2517: CE 00                             ADC     A,00h
2519: DD 77 FE                          LD      (IX-02h),A
251C: DD 7E FB                          LD      A,(IX-05h)
251F: CE 00                             ADC     A,00h
2521: DD 77 FF                          LD      (IX-01h),A
2524: C5                                PUSH    BC
2525: DD 5E F6                          LD      E,(IX-0Ah)
2528: DD 56 F7                          LD      D,(IX-09h)
252B: 21 10 00                          LD      HL,0010h
252E: 39                                ADD     HL,SP
252F: 01 04 00                          LD      BC,0004h
2532: ED B0                             LDIR
2534: C1                                POP     BC
2535: 21 04 00                          LD      HL,0004h
2538: 09                                ADD     HL,BC
2539: CB C6                             SET     0,(HL)
253B: C5                         L253B: PUSH    BC
253C: 21 1A 00                          LD      HL,001Ah
253F: 39                                ADD     HL,SP
2540: EB                                EX      DE,HL
2541: 21 06 00                          LD      HL,0006h
2544: 39                                ADD     HL,SP
2545: 01 04 00                          LD      BC,0004h
2548: ED B0                             LDIR
254A: C1                                POP     BC
254B: DD 6E F0                          LD      L,(IX-10h)
254E: DD 66 F1                          LD      H,(IX-0Fh)
2551: 5E                                LD      E,(HL)
2552: 23                                INC     HL
2553: 56                                LD      D,(HL)
2554: 23                                INC     HL
2555: 23                                INC     HL
2556: 7E                                LD      A,(HL)
2557: 2B                                DEC     HL
2558: 6E                                LD      L,(HL)
2559: 67                                LD      H,A
255A: DD 7E F2                          LD      A,(IX-0Eh)
255D: 93                                SUB     E
255E: DD 7E F3                          LD      A,(IX-0Dh)
2561: 9A                                SBC     A,D
2562: DD 7E F4                          LD      A,(IX-0Ch)
2565: 9D                                SBC     A,L
2566: DD 7E F5                          LD      A,(IX-0Bh)
2569: 9C                                SBC     A,H
256A: DA 30 24                          JP      C,L2430
256D: 2E 00                      L256D: LD      L,00h
256F: DD F9                      L256F: LD      SP,IX
2571: DD E1                             POP     IX
2573: C9                                RET

                                        ; --- START PROC L2574 ---
2574: CD CD 13                   L2574: CALL    L13CD
2577: DD 5E 08                          LD      E,(IX+08h)
257A: DD 56 09                          LD      D,(IX+09h)
257D: DD 7E 06                          LD      A,(IX+06h)
2580: C6 1A                             ADD     A,1Ah
2582: 4F                                LD      C,A
2583: DD 7E 07                          LD      A,(IX+07h)
2586: CE 00                             ADC     A,00h
2588: 47                                LD      B,A
2589: D5                                PUSH    DE
258A: C5                                PUSH    BC
258B: CD FA 3B                          CALL    L3BFA
258E: F1                                POP     AF
258F: F1                                POP     AF
2590: DD 4E 04                          LD      C,(IX+04h)
2593: DD 46 05                          LD      B,(IX+05h)
2596: 0A                                LD      A,(BC)
2597: D6 03                             SUB     03h
2599: 20 19                             JR      NZ,L25B4
259B: DD 5E 0A                          LD      E,(IX+0Ah)
259E: DD 56 0B                          LD      D,(IX+0Bh)
25A1: DD 7E 06                          LD      A,(IX+06h)
25A4: C6 14                             ADD     A,14h
25A6: 4F                                LD      C,A
25A7: DD 7E 07                          LD      A,(IX+07h)
25AA: CE 00                             ADC     A,00h
25AC: 47                                LD      B,A
25AD: D5                                PUSH    DE
25AE: C5                                PUSH    BC
25AF: CD FA 3B                          CALL    L3BFA
25B2: F1                                POP     AF
25B3: F1                                POP     AF
25B4: DD E1                      L25B4: POP     IX
25B6: C9                                RET

                                        ; --- START PROC L25B7 ---
25B7: CD CD 13                   L25B7: CALL    L13CD
25BA: 21 F0 FF                          LD      HL,0FFF0h
25BD: 39                                ADD     HL,SP
25BE: F9                                LD      SP,HL
25BF: DD 36 FB 02                       LD      (IX-05h),02h
25C3: DD 7E 06                          LD      A,(IX+06h)
25C6: D6 02                             SUB     02h
25C8: DD 7E 07                          LD      A,(IX+07h)
25CB: DE 00                             SBC     A,00h
25CD: DD 7E 08                          LD      A,(IX+08h)
25D0: DE 00                             SBC     A,00h
25D2: DD 7E 09                          LD      A,(IX+09h)
25D5: DE 00                             SBC     A,00h
25D7: DA 43 29                          JP      C,L2943
25DA: DD 7E 04                          LD      A,(IX+04h)
25DD: DD 77 F0                          LD      (IX-10h),A
25E0: DD 7E 05                          LD      A,(IX+05h)
25E3: DD 77 F1                          LD      (IX-0Fh),A
25E6: E1                                POP     HL
25E7: E5                                PUSH    HL
25E8: 11 17 00                          LD      DE,0017h
25EB: 19                                ADD     HL,DE
25EC: 4E                                LD      C,(HL)
25ED: 23                                INC     HL
25EE: 46                                LD      B,(HL)
25EF: 23                                INC     HL
25F0: 5E                                LD      E,(HL)
25F1: 23                                INC     HL
25F2: 56                                LD      D,(HL)
25F3: DD 7E 06                          LD      A,(IX+06h)
25F6: 91                                SUB     C
25F7: DD 7E 07                          LD      A,(IX+07h)
25FA: 98                                SBC     A,B
25FB: DD 7E 08                          LD      A,(IX+08h)
25FE: 9B                                SBC     A,E
25FF: DD 7E 09                          LD      A,(IX+09h)
2602: 9A                                SBC     A,D
2603: D2 43 29                          JP      NC,L2943
2606: E1                                POP     HL
2607: E5                                PUSH    HL
2608: 5E                                LD      E,(HL)
2609: DD 7E F0                          LD      A,(IX-10h)
260C: C6 23                             ADD     A,23h   ; '#'
260E: DD 77 F2                          LD      (IX-0Eh),A
2611: DD 7E F1                          LD      A,(IX-0Fh)
2614: CE 00                             ADC     A,00h
2616: DD 77 F3                          LD      (IX-0Dh),A
2619: DD 7E F0                          LD      A,(IX-10h)
261C: C6 33                             ADD     A,33h   ; '3'
261E: DD 77 F4                          LD      (IX-0Ch),A
2621: DD 7E F1                          LD      A,(IX-0Fh)
2624: CE 00                             ADC     A,00h
2626: DD 77 F5                          LD      (IX-0Bh),A
2629: C1                                POP     BC
262A: C5                                PUSH    BC
262B: 03                                INC     BC
262C: 03                                INC     BC
262D: 03                                INC     BC
262E: 7B                                LD      A,E
262F: 3D                                DEC     A
2630: 28 0E                             JR      Z,L2640
2632: 7B                                LD      A,E
2633: FE 02                             CP      02h
2635: CA C9 27                          JP      Z,L27C9
2638: D6 03                             SUB     03h
263A: CA 53 28                          JP      Z,L2853
263D: C3 43 29                          JP      L2943

2640: DD 5E 06                   L2640: LD      E,(IX+06h)
2643: DD 56 07                          LD      D,(IX+07h)
2646: 6B                                LD      L,E
2647: 62                                LD      H,D
2648: CB 3C                             SRL     H
264A: CB 1D                             RR      L
264C: 19                                ADD     HL,DE
264D: DD 75 FE                          LD      (IX-02h),L
2650: DD 74 FF                          LD      (IX-01h),H
2653: C5                                PUSH    BC
2654: DD 5E F2                          LD      E,(IX-0Eh)
2657: DD 56 F3                          LD      D,(IX-0Dh)
265A: 21 0C 00                          LD      HL,000Ch
265D: 39                                ADD     HL,SP
265E: EB                                EX      DE,HL
265F: 01 04 00                          LD      BC,0004h
2662: ED B0                             LDIR
2664: C1                                POP     BC
2665: DD 7E FF                          LD      A,(IX-01h)
2668: CB 3F                             SRL     A
266A: 5F                                LD      E,A
266B: 16 00                             LD      D,00h
266D: 21 00 00                          LD      HL,0000h
2670: DD 7E FA                          LD      A,(IX-06h)
2673: 83                                ADD     A,E
2674: 5F                                LD      E,A
2675: DD 7E FB                          LD      A,(IX-05h)
2678: 8A                                ADC     A,D
2679: 57                                LD      D,A
267A: DD 7E FC                          LD      A,(IX-04h)
267D: 8D                                ADC     A,L
267E: 6F                                LD      L,A
267F: DD 7E FD                          LD      A,(IX-03h)
2682: 8C                                ADC     A,H
2683: 67                                LD      H,A
2684: C5                                PUSH    BC
2685: E5                                PUSH    HL
2686: D5                                PUSH    DE
2687: DD 6E F0                          LD      L,(IX-10h)
268A: DD 66 F1                          LD      H,(IX-0Fh)
268D: E5                                PUSH    HL
268E: CD DD 22                          CALL    L22DD
2691: F1                                POP     AF
2692: F1                                POP     AF
2693: F1                                POP     AF
2694: C1                                POP     BC
2695: DD 75 FB                          LD      (IX-05h),L
2698: 7D                                LD      A,L
2699: B7                                OR      A
269A: C2 43 29                          JP      NZ,L2943
269D: DD 5E FE                          LD      E,(IX-02h)
26A0: DD 56 FF                          LD      D,(IX-01h)
26A3: DD 7E FE                          LD      A,(IX-02h)
26A6: C6 01                             ADD     A,01h
26A8: DD 77 F6                          LD      (IX-0Ah),A
26AB: DD 7E FF                          LD      A,(IX-01h)
26AE: CE 00                             ADC     A,00h
26B0: DD 77 F7                          LD      (IX-09h),A
26B3: 7A                                LD      A,D
26B4: E6 01                             AND     01h
26B6: 57                                LD      D,A
26B7: 7B                                LD      A,E
26B8: DD 86 F4                          ADD     A,(IX-0Ch)
26BB: DD 77 F8                          LD      (IX-08h),A
26BE: 7A                                LD      A,D
26BF: DD 8E F5                          ADC     A,(IX-0Bh)
26C2: DD 77 F9                          LD      (IX-07h),A
26C5: DD 7E F8                          LD      A,(IX-08h)
26C8: DD 77 FA                          LD      (IX-06h),A
26CB: DD 7E F9                          LD      A,(IX-07h)
26CE: DD 77 FB                          LD      (IX-05h),A
26D1: DD 7E 06                          LD      A,(IX+06h)
26D4: E6 01                             AND     01h
26D6: DD 77 FC                          LD      (IX-04h),A
26D9: DD 36 FD 00                       LD      (IX-03h),00h
26DD: DD 36 FE 00                       LD      (IX-02h),00h
26E1: DD 36 FF 00                       LD      (IX-01h),00h
26E5: DD 5E 0A                          LD      E,(IX+0Ah)
26E8: DD 7E FF                          LD      A,(IX-01h)
26EB: DD B6 FE                          OR      (IX-02h)
26EE: DD B6 FD                          OR      (IX-03h)
26F1: DD B6 FC                          OR      (IX-04h)
26F4: 28 1C                             JR      Z,L2712
26F6: DD 6E F8                          LD      L,(IX-08h)
26F9: DD 66 F9                          LD      H,(IX-07h)
26FC: 7E                                LD      A,(HL)
26FD: E6 0F                             AND     0Fh
26FF: 6F                                LD      L,A
2700: 26 00                             LD      H,00h
2702: 7B                                LD      A,E
2703: 87                                ADD     A,A
2704: 87                                ADD     A,A
2705: 87                                ADD     A,A
2706: 87                                ADD     A,A
2707: 5F                                LD      E,A
2708: 17                                RLA
2709: 9F                                SBC     A,A
270A: 57                                LD      D,A
270B: 7D                                LD      A,L
270C: B3                                OR      E
270D: 5F                                LD      E,A
270E: 7C                                LD      A,H
270F: B2                                OR      D
2710: 18 01                             JR      L2713

2712: AF                         L2712: XOR     A
2713: DD 6E FA                   L2713: LD      L,(IX-06h)
2716: DD 66 FB                          LD      H,(IX-05h)
2719: 73                                LD      (HL),E
271A: 3E 01                             LD      A,01h
271C: 02                                LD      (BC),A
271D: C5                                PUSH    BC
271E: DD 5E F2                          LD      E,(IX-0Eh)
2721: DD 56 F3                          LD      D,(IX-0Dh)
2724: 21 0A 00                          LD      HL,000Ah
2727: 39                                ADD     HL,SP
2728: EB                                EX      DE,HL
2729: 01 04 00                          LD      BC,0004h
272C: ED B0                             LDIR
272E: C1                                POP     BC
272F: DD 7E F7                          LD      A,(IX-09h)
2732: CB 3F                             SRL     A
2734: 5F                                LD      E,A
2735: 16 00                             LD      D,00h
2737: 21 00 00                          LD      HL,0000h
273A: 7B                                LD      A,E
273B: DD 86 F8                          ADD     A,(IX-08h)
273E: 5F                                LD      E,A
273F: 7A                                LD      A,D
2740: DD 8E F9                          ADC     A,(IX-07h)
2743: 57                                LD      D,A
2744: 7D                                LD      A,L
2745: DD 8E FA                          ADC     A,(IX-06h)
2748: 6F                                LD      L,A
2749: 7C                                LD      A,H
274A: DD 8E FB                          ADC     A,(IX-05h)
274D: 67                                LD      H,A
274E: C5                                PUSH    BC
274F: E5                                PUSH    HL
2750: D5                                PUSH    DE
2751: DD 6E F0                          LD      L,(IX-10h)
2754: DD 66 F1                          LD      H,(IX-0Fh)
2757: E5                                PUSH    HL
2758: CD DD 22                          CALL    L22DD
275B: F1                                POP     AF
275C: F1                                POP     AF
275D: F1                                POP     AF
275E: C1                                POP     BC
275F: DD 75 FB                          LD      (IX-05h),L
2762: 7D                                LD      A,L
2763: B7                                OR      A
2764: C2 43 29                          JP      NZ,L2943
2767: DD 5E F6                          LD      E,(IX-0Ah)
276A: DD 7E F7                          LD      A,(IX-09h)
276D: E6 01                             AND     01h
276F: 57                                LD      D,A
2770: DD 6E F4                          LD      L,(IX-0Ch)
2773: DD 66 F5                          LD      H,(IX-0Bh)
2776: 19                                ADD     HL,DE
2777: EB                                EX      DE,HL
2778: DD 73 F7                          LD      (IX-09h),E
277B: DD 72 F8                          LD      (IX-08h),D
277E: DD 7E 0A                          LD      A,(IX+0Ah)
2781: DD 77 F9                          LD      (IX-07h),A
2784: DD 7E 0B                          LD      A,(IX+0Bh)
2787: DD 77 FA                          LD      (IX-06h),A
278A: DD 7E FF                          LD      A,(IX-01h)
278D: DD B6 FE                          OR      (IX-02h)
2790: DD B6 FD                          OR      (IX-03h)
2793: DD B6 FC                          OR      (IX-04h)
2796: 28 11                             JR      Z,L27A9
2798: DD 5E F9                          LD      E,(IX-07h)
279B: DD 56 FA                          LD      D,(IX-06h)
279E: 3E 04                             LD      A,04h
27A0: CB 3A                      L27A0: SRL     D
27A2: CB 1B                             RR      E
27A4: 3D                                DEC     A
27A5: 20 F9                             JR      NZ,L27A0
27A7: 18 13                             JR      L27BC

27A9: 1A                         L27A9: LD      A,(DE)
27AA: E6 F0                             AND     0F0h
27AC: 5F                                LD      E,A
27AD: 16 00                             LD      D,00h
27AF: DD 7E FA                          LD      A,(IX-06h)
27B2: E6 0F                             AND     0Fh
27B4: 6F                                LD      L,A
27B5: 26 00                             LD      H,00h
27B7: 7B                                LD      A,E
27B8: B5                                OR      L
27B9: 5F                                LD      E,A
27BA: 7A                                LD      A,D
27BB: B4                                OR      H
27BC: DD 6E F7                   L27BC: LD      L,(IX-09h)
27BF: DD 66 F8                          LD      H,(IX-08h)
27C2: 73                                LD      (HL),E
27C3: 3E 01                             LD      A,01h
27C5: 02                                LD      (BC),A
27C6: C3 43 29                          JP      L2943

27C9: C5                         L27C9: PUSH    BC
27CA: DD 5E F2                          LD      E,(IX-0Eh)
27CD: DD 56 F3                          LD      D,(IX-0Dh)
27D0: 21 0E 00                          LD      HL,000Eh
27D3: 39                                ADD     HL,SP
27D4: EB                                EX      DE,HL
27D5: 01 04 00                          LD      BC,0004h
27D8: ED B0                             LDIR
27DA: C1                                POP     BC
27DB: DD 5E 07                          LD      E,(IX+07h)
27DE: DD 56 08                          LD      D,(IX+08h)
27E1: DD 6E 09                          LD      L,(IX+09h)
27E4: 26 00                             LD      H,00h
27E6: 7B                                LD      A,E
27E7: DD 86 FC                          ADD     A,(IX-04h)
27EA: 5F                                LD      E,A
27EB: 7A                                LD      A,D
27EC: DD 8E FD                          ADC     A,(IX-03h)
27EF: 57                                LD      D,A
27F0: 7D                                LD      A,L
27F1: DD 8E FE                          ADC     A,(IX-02h)
27F4: 6F                                LD      L,A
27F5: 7C                                LD      A,H
27F6: DD 8E FF                          ADC     A,(IX-01h)
27F9: 67                                LD      H,A
27FA: C5                                PUSH    BC
27FB: E5                                PUSH    HL
27FC: D5                                PUSH    DE
27FD: DD 6E F0                          LD      L,(IX-10h)
2800: DD 66 F1                          LD      H,(IX-0Fh)
2803: E5                                PUSH    HL
2804: CD DD 22                          CALL    L22DD
2807: F1                                POP     AF
2808: F1                                POP     AF
2809: F1                                POP     AF
280A: C1                                POP     BC
280B: DD 75 FB                          LD      (IX-05h),L
280E: 7D                                LD      A,L
280F: B7                                OR      A
2810: C2 43 29                          JP      NZ,L2943
2813: DD 7E 0A                          LD      A,(IX+0Ah)
2816: DD 77 FE                          LD      (IX-02h),A
2819: DD 7E 0B                          LD      A,(IX+0Bh)
281C: DD 77 FF                          LD      (IX-01h),A
281F: DD 6E 06                          LD      L,(IX+06h)
2822: DD 66 07                          LD      H,(IX+07h)
2825: DD 5E 08                          LD      E,(IX+08h)
2828: DD 56 09                          LD      D,(IX+09h)
282B: 29                                ADD     HL,HL
282C: CB 13                             RL      E
282E: CB 12                             RL      D
2830: 7C                                LD      A,H
2831: E6 01                             AND     01h
2833: 67                                LD      H,A
2834: 7D                                LD      A,L
2835: DD 86 F4                          ADD     A,(IX-0Ch)
2838: 6F                                LD      L,A
2839: 7C                                LD      A,H
283A: DD 8E F5                          ADC     A,(IX-0Bh)
283D: 67                                LD      H,A
283E: C5                                PUSH    BC
283F: DD 5E FE                          LD      E,(IX-02h)
2842: DD 56 FF                          LD      D,(IX-01h)
2845: D5                                PUSH    DE
2846: E5                                PUSH    HL
2847: CD FA 3B                          CALL    L3BFA
284A: F1                                POP     AF
284B: F1                                POP     AF
284C: C1                                POP     BC
284D: 3E 01                             LD      A,01h
284F: 02                                LD      (BC),A
2850: C3 43 29                          JP      L2943

2853: C5                         L2853: PUSH    BC
2854: DD 5E F2                          LD      E,(IX-0Eh)
2857: DD 56 F3                          LD      D,(IX-0Dh)
285A: 21 0E 00                          LD      HL,000Eh
285D: 39                                ADD     HL,SP
285E: EB                                EX      DE,HL
285F: 01 04 00                          LD      BC,0004h
2862: ED B0                             LDIR
2864: C1                                POP     BC
2865: DD 5E 06                          LD      E,(IX+06h)
2868: DD 56 07                          LD      D,(IX+07h)
286B: DD 6E 08                          LD      L,(IX+08h)
286E: DD 66 09                          LD      H,(IX+09h)
2871: 3E 07                             LD      A,07h
2873: CB 3C                      L2873: SRL     H
2875: CB 1D                             RR      L
2877: CB 1A                             RR      D
2879: CB 1B                             RR      E
287B: 3D                                DEC     A
287C: 20 F5                             JR      NZ,L2873
287E: 7B                                LD      A,E
287F: DD 86 FC                          ADD     A,(IX-04h)
2882: 5F                                LD      E,A
2883: 7A                                LD      A,D
2884: DD 8E FD                          ADC     A,(IX-03h)
2887: 57                                LD      D,A
2888: 7D                                LD      A,L
2889: DD 8E FE                          ADC     A,(IX-02h)
288C: 6F                                LD      L,A
288D: 7C                                LD      A,H
288E: DD 8E FF                          ADC     A,(IX-01h)
2891: 67                                LD      H,A
2892: C5                                PUSH    BC
2893: E5                                PUSH    HL
2894: D5                                PUSH    DE
2895: DD 6E F0                          LD      L,(IX-10h)
2898: DD 66 F1                          LD      H,(IX-0Fh)
289B: E5                                PUSH    HL
289C: CD DD 22                          CALL    L22DD
289F: F1                                POP     AF
28A0: F1                                POP     AF
28A1: F1                                POP     AF
28A2: C1                                POP     BC
28A3: DD 75 FB                          LD      (IX-05h),L
28A6: 7D                                LD      A,L
28A7: B7                                OR      A
28A8: C2 43 29                          JP      NZ,L2943
28AB: DD 7E 0A                          LD      A,(IX+0Ah)
28AE: DD 77 F7                          LD      (IX-09h),A
28B1: DD 7E 0B                          LD      A,(IX+0Bh)
28B4: DD 77 F8                          LD      (IX-08h),A
28B7: DD 7E 0C                          LD      A,(IX+0Ch)
28BA: DD 77 F9                          LD      (IX-07h),A
28BD: DD 7E 0D                          LD      A,(IX+0Dh)
28C0: E6 0F                             AND     0Fh
28C2: DD 77 FA                          LD      (IX-06h),A
28C5: DD 6E 06                          LD      L,(IX+06h)
28C8: DD 66 07                          LD      H,(IX+07h)
28CB: DD 5E 08                          LD      E,(IX+08h)
28CE: DD 56 09                          LD      D,(IX+09h)
28D1: 3E 02                             LD      A,02h
28D3: 29                         L28D3: ADD     HL,HL
28D4: CB 13                             RL      E
28D6: CB 12                             RL      D
28D8: 3D                                DEC     A
28D9: 20 F8                             JR      NZ,L28D3
28DB: 7C                                LD      A,H
28DC: E6 01                             AND     01h
28DE: 67                                LD      H,A
28DF: 7D                                LD      A,L
28E0: DD 86 F4                          ADD     A,(IX-0Ch)
28E3: DD 77 FE                          LD      (IX-02h),A
28E6: 7C                                LD      A,H
28E7: DD 8E F5                          ADC     A,(IX-0Bh)
28EA: DD 77 FF                          LD      (IX-01h),A
28ED: C5                                PUSH    BC
28EE: DD 6E FE                          LD      L,(IX-02h)
28F1: DD 66 FF                          LD      H,(IX-01h)
28F4: E5                                PUSH    HL
28F5: CD 75 11                          CALL    L1175
28F8: F1                                POP     AF
28F9: C1                                POP     BC
28FA: 21 00 00                          LD      HL,0000h
28FD: 1E 00                             LD      E,00h
28FF: 7A                                LD      A,D
2900: E6 F0                             AND     0F0h
2902: F5                                PUSH    AF
2903: DD 7E F7                          LD      A,(IX-09h)
2906: B5                                OR      L
2907: 6F                                LD      L,A
2908: DD 7E F8                          LD      A,(IX-08h)
290B: B4                                OR      H
290C: 67                                LD      H,A
290D: DD 7E F9                          LD      A,(IX-07h)
2910: B3                                OR      E
2911: 5F                                LD      E,A
2912: F1                                POP     AF
2913: DD B6 FA                          OR      (IX-06h)
2916: 57                                LD      D,A
2917: DD 75 0A                          LD      (IX+0Ah),L
291A: DD 74 0B                          LD      (IX+0Bh),H
291D: DD 73 0C                          LD      (IX+0Ch),E
2920: DD 72 0D                          LD      (IX+0Dh),D
2923: C5                                PUSH    BC
2924: DD 6E 0C                          LD      L,(IX+0Ch)
2927: DD 66 0D                          LD      H,(IX+0Dh)
292A: E5                                PUSH    HL
292B: DD 6E 0A                          LD      L,(IX+0Ah)
292E: DD 66 0B                          LD      H,(IX+0Bh)
2931: E5                                PUSH    HL
2932: DD 6E FE                          LD      L,(IX-02h)
2935: DD 66 FF                          LD      H,(IX-01h)
2938: E5                                PUSH    HL
2939: CD 51 19                          CALL    L1951
293C: F1                                POP     AF
293D: F1                                POP     AF
293E: F1                                POP     AF
293F: C1                                POP     BC
2940: 3E 01                             LD      A,01h
2942: 02                                LD      (BC),A
2943: DD 6E FB                   L2943: LD      L,(IX-05h)
2946: DD F9                             LD      SP,IX
2948: DD E1                             POP     IX
294A: C9                                RET

                                        ; --- START PROC L294B ---
294B: CD CD 13                   L294B: CALL    L13CD
294E: 21 EF FF                          LD      HL,0FFEFh
2951: 39                                ADD     HL,SP
2952: F9                                LD      SP,HL
2953: AF                                XOR     A
2954: DD 77 EF                          LD      (IX-11h),A
2957: DD 4E 04                          LD      C,(IX+04h)
295A: DD 46 05                          LD      B,(IX+05h)
295D: 59                                LD      E,C
295E: 50                                LD      D,B
295F: 13                                INC     DE
2960: 13                                INC     DE
2961: 13                                INC     DE
2962: 1A                                LD      A,(DE)
2963: B7                                OR      A
2964: CA 90 2A                          JP      Z,L2A90
2967: 21 2F 00                          LD      HL,002Fh
296A: 09                                ADD     HL,BC
296B: DD 75 FE                          LD      (IX-02h),L
296E: DD 74 FF                          LD      (IX-01h),H
2971: D5                                PUSH    DE
2972: C5                                PUSH    BC
2973: DD 5E FE                          LD      E,(IX-02h)
2976: DD 56 FF                          LD      D,(IX-01h)
2979: 21 0E 00                          LD      HL,000Eh
297C: 39                                ADD     HL,SP
297D: EB                                EX      DE,HL
297E: 01 04 00                          LD      BC,0004h
2981: ED B0                             LDIR
2983: C1                                POP     BC
2984: D1                                POP     DE
2985: 21 33 00                          LD      HL,0033h
2988: 09                                ADD     HL,BC
2989: DD 75 F0                          LD      (IX-10h),L
298C: DD 74 F1                          LD      (IX-0Fh),H
298F: 21 01 00                          LD      HL,0001h
2992: 09                                ADD     HL,BC
2993: DD 75 F2                          LD      (IX-0Eh),L
2996: DD 74 F3                          LD      (IX-0Dh),H
2999: 7E                                LD      A,(HL)
299A: DD 77 FD                          LD      (IX-03h),A
299D: C5                                PUSH    BC
299E: D5                                PUSH    DE
299F: 21 01 00                          LD      HL,0001h
29A2: E5                                PUSH    HL
29A3: DD 6E FB                          LD      L,(IX-05h)
29A6: DD 66 FC                          LD      H,(IX-04h)
29A9: E5                                PUSH    HL
29AA: DD 6E F9                          LD      L,(IX-07h)
29AD: DD 66 FA                          LD      H,(IX-06h)
29B0: E5                                PUSH    HL
29B1: DD 6E F0                          LD      L,(IX-10h)
29B4: DD 66 F1                          LD      H,(IX-0Fh)
29B7: E5                                PUSH    HL
29B8: DD 7E FD                          LD      A,(IX-03h)
29BB: F5                                PUSH    AF
29BC: 33                                INC     SP
29BD: CD 78 03                          CALL    L0378
29C0: FD 21 09 00                       LD      IY,0009h
29C4: FD 39                             ADD     IY,SP
29C6: FD F9                             LD      SP,IY
29C8: 7D                                LD      A,L
29C9: D1                                POP     DE
29CA: C1                                POP     BC
29CB: B7                                OR      A
29CC: C2 8C 2A                          JP      NZ,L2A8C
29CF: AF                                XOR     A
29D0: 12                                LD      (DE),A
29D1: C5                                PUSH    BC
29D2: DD 5E FE                          LD      E,(IX-02h)
29D5: DD 56 FF                          LD      D,(IX-01h)
29D8: 21 07 00                          LD      HL,0007h
29DB: 39                                ADD     HL,SP
29DC: EB                                EX      DE,HL
29DD: 01 04 00                          LD      BC,0004h
29E0: ED B0                             LDIR
29E2: C1                                POP     BC
29E3: 69                                LD      L,C
29E4: 60                                LD      H,B
29E5: 11 23 00                          LD      DE,0023h
29E8: 19                                ADD     HL,DE
29E9: 5E                                LD      E,(HL)
29EA: 23                                INC     HL
29EB: 56                                LD      D,(HL)
29EC: 23                                INC     HL
29ED: 23                                INC     HL
29EE: 7E                                LD      A,(HL)
29EF: 2B                                DEC     HL
29F0: 6E                                LD      L,(HL)
29F1: 67                                LD      H,A
29F2: DD 7E F4                          LD      A,(IX-0Ch)
29F5: 93                                SUB     E
29F6: DD 77 F8                          LD      (IX-08h),A
29F9: DD 7E F5                          LD      A,(IX-0Bh)
29FC: 9A                                SBC     A,D
29FD: DD 77 F9                          LD      (IX-07h),A
2A00: DD 7E F6                          LD      A,(IX-0Ah)
2A03: 9D                                SBC     A,L
2A04: DD 77 FA                          LD      (IX-06h),A
2A07: DD 7E F7                          LD      A,(IX-09h)
2A0A: 9C                                SBC     A,H
2A0B: DD 77 FB                          LD      (IX-05h),A
2A0E: 69                                LD      L,C
2A0F: 60                                LD      H,B
2A10: 11 1B 00                          LD      DE,001Bh
2A13: 19                                ADD     HL,DE
2A14: 7E                                LD      A,(HL)
2A15: DD 77 FC                          LD      (IX-04h),A
2A18: 23                                INC     HL
2A19: 7E                                LD      A,(HL)
2A1A: DD 77 FD                          LD      (IX-03h),A
2A1D: 23                                INC     HL
2A1E: 7E                                LD      A,(HL)
2A1F: DD 77 FE                          LD      (IX-02h),A
2A22: 23                                INC     HL
2A23: 7E                                LD      A,(HL)
2A24: DD 77 FF                          LD      (IX-01h),A
2A27: DD 7E F8                          LD      A,(IX-08h)
2A2A: DD 96 FC                          SUB     (IX-04h)
2A2D: DD 7E F9                          LD      A,(IX-07h)
2A30: DD 9E FD                          SBC     A,(IX-03h)
2A33: DD 7E FA                          LD      A,(IX-06h)
2A36: DD 9E FE                          SBC     A,(IX-02h)
2A39: DD 7E FB                          LD      A,(IX-05h)
2A3C: DD 9E FF                          SBC     A,(IX-01h)
2A3F: 30 4F                             JR      NC,L2A90
2A41: 69                                LD      L,C
2A42: 60                                LD      H,B
2A43: 23                                INC     HL
2A44: 23                                INC     HL
2A45: 7E                                LD      A,(HL)
2A46: D6 02                             SUB     02h
2A48: 20 46                             JR      NZ,L2A90
2A4A: DD 7E F4                          LD      A,(IX-0Ch)
2A4D: DD 86 FC                          ADD     A,(IX-04h)
2A50: 4F                                LD      C,A
2A51: DD 7E F5                          LD      A,(IX-0Bh)
2A54: DD 8E FD                          ADC     A,(IX-03h)
2A57: 47                                LD      B,A
2A58: DD 7E F6                          LD      A,(IX-0Ah)
2A5B: DD 8E FE                          ADC     A,(IX-02h)
2A5E: 5F                                LD      E,A
2A5F: DD 7E F7                          LD      A,(IX-09h)
2A62: DD 8E FF                          ADC     A,(IX-01h)
2A65: 57                                LD      D,A
2A66: DD 6E F2                          LD      L,(IX-0Eh)
2A69: DD 66 F3                          LD      H,(IX-0Dh)
2A6C: 7E                                LD      A,(HL)
2A6D: DD 77 FF                          LD      (IX-01h),A
2A70: 21 01 00                          LD      HL,0001h
2A73: E5                                PUSH    HL
2A74: D5                                PUSH    DE
2A75: C5                                PUSH    BC
2A76: DD 6E F0                          LD      L,(IX-10h)
2A79: DD 66 F1                          LD      H,(IX-0Fh)
2A7C: E5                                PUSH    HL
2A7D: DD 7E FF                          LD      A,(IX-01h)
2A80: F5                                PUSH    AF
2A81: 33                                INC     SP
2A82: CD 78 03                          CALL    L0378
2A85: 21 09 00                          LD      HL,0009h
2A88: 39                                ADD     HL,SP
2A89: F9                                LD      SP,HL
2A8A: 18 04                             JR      L2A90

2A8C: DD 36 EF 01                L2A8C: LD      (IX-11h),01h
2A90: DD 6E EF                   L2A90: LD      L,(IX-11h)
2A93: DD F9                             LD      SP,IX
2A95: DD E1                             POP     IX
2A97: C9                                RET

                                        ; --- START PROC L2A98 ---
2A98: CD CD 13                   L2A98: CALL    L13CD
2A9B: 21 F2 FF                          LD      HL,0FFF2h
2A9E: 39                                ADD     HL,SP
2A9F: F9                                LD      SP,HL
2AA0: DD 5E 06                          LD      E,(IX+06h)
2AA3: DD 56 07                          LD      D,(IX+07h)
2AA6: 1A                                LD      A,(DE)
2AA7: DD 77 F2                          LD      (IX-0Eh),A
2AAA: 13                                INC     DE
2AAB: 1A                                LD      A,(DE)
2AAC: DD 77 F3                          LD      (IX-0Dh),A
2AAF: 1B                                DEC     DE
2AB0: DD 4E 04                          LD      C,(IX+04h)
2AB3: DD 46 05                          LD      B,(IX+05h)
2AB6: 21 1C 00                          LD      HL,001Ch
2AB9: 09                                ADD     HL,BC
2ABA: DD 75 F4                          LD      (IX-0Ch),L
2ABD: DD 74 F5                          LD      (IX-0Bh),H
2AC0: 4D                                LD      C,L
2AC1: 44                                LD      B,H
2AC2: D5                                PUSH    DE
2AC3: 21 0B 00                          LD      HL,000Bh
2AC6: E5                                PUSH    HL
2AC7: 2E 20                             LD      L,20h   ; ' '
2AC9: E5                                PUSH    HL
2ACA: C5                                PUSH    BC
2ACB: CD A6 22                          CALL    L22A6
2ACE: F1                                POP     AF
2ACF: F1                                POP     AF
2AD0: F1                                POP     AF
2AD1: D1                                POP     DE
2AD2: AF                                XOR     A
2AD3: DD 77 F6                          LD      (IX-0Ah),A
2AD6: DD 77 F7                          LD      (IX-09h),A
2AD9: AF                                XOR     A
2ADA: DD 77 FE                          LD      (IX-02h),A
2ADD: DD 77 FF                          LD      (IX-01h),A
2AE0: DD 36 F8 08                       LD      (IX-08h),08h
2AE4: AF                                XOR     A
2AE5: DD 77 F9                          LD      (IX-07h),A
2AE8: E1                                POP     HL
2AE9: E5                                PUSH    HL
2AEA: 6E                                LD      L,(HL)
2AEB: DD 7E F4                          LD      A,(IX-0Ch)
2AEE: C6 0B                             ADD     A,0Bh
2AF0: 4F                                LD      C,A
2AF1: DD 7E F5                          LD      A,(IX-0Bh)
2AF4: CE 00                             ADC     A,00h
2AF6: 47                                LD      B,A
2AF7: 7D                                LD      A,L
2AF8: D6 2E                             SUB     2Eh     ; '.'
2AFA: C2 A7 2B                          JP      NZ,L2BA7
2AFD: AF                                XOR     A
2AFE: DD 77 FC                          LD      (IX-04h),A
2B01: DD 77 FD                          LD      (IX-03h),A
2B04: AF                                XOR     A
2B05: DD 77 FE                          LD      (IX-02h),A
2B08: DD 77 FF                          LD      (IX-01h),A
2B0B: DD 7E F2                   L2B0B: LD      A,(IX-0Eh)
2B0E: DD 86 FE                          ADD     A,(IX-02h)
2B11: 6F                                LD      L,A
2B12: DD 7E F3                          LD      A,(IX-0Dh)
2B15: DD 8E FF                          ADC     A,(IX-01h)
2B18: 67                                LD      H,A
2B19: DD 34 FE                          INC     (IX-02h)
2B1C: 20 03                             JR      NZ,L2B21
2B1E: DD 34 FF                          INC     (IX-01h)
2B21: 7E                         L2B21: LD      A,(HL)
2B22: DD 77 FB                          LD      (IX-05h),A
2B25: D6 2E                             SUB     2Eh     ; '.'
2B27: 20 28                             JR      NZ,L2B51
2B29: DD 7E FE                          LD      A,(IX-02h)
2B2C: D6 03                             SUB     03h
2B2E: DD 7E FF                          LD      A,(IX-01h)
2B31: DE 00                             SBC     A,00h
2B33: 30 1C                             JR      NC,L2B51
2B35: DD 7E F4                          LD      A,(IX-0Ch)
2B38: DD 86 FC                          ADD     A,(IX-04h)
2B3B: 6F                                LD      L,A
2B3C: DD 7E F5                          LD      A,(IX-0Bh)
2B3F: DD 8E FD                          ADC     A,(IX-03h)
2B42: DD 34 FC                          INC     (IX-04h)
2B45: 20 03                             JR      NZ,L2B4A
2B47: DD 34 FD                          INC     (IX-03h)
2B4A: 67                         L2B4A: LD      H,A
2B4B: DD 7E FB                          LD      A,(IX-05h)
2B4E: 77                                LD      (HL),A
2B4F: 18 BA                             JR      L2B0B

2B51: DD 6E FE                   L2B51: LD      L,(IX-02h)
2B54: DD 66 FF                          LD      H,(IX-01h)
2B57: 3E 20                             LD      A,20h   ; ' '
2B59: DD 96 FB                          SUB     (IX-05h)
2B5C: 3E 00                             LD      A,00h
2B5E: 17                                RLA
2B5F: DD 77 FF                          LD      (IX-01h),A
2B62: DD 7E FB                          LD      A,(IX-05h)
2B65: D6 2F                             SUB     2Fh     ; '/'
2B67: 28 12                             JR      Z,L2B7B
2B69: DD 7E FB                          LD      A,(IX-05h)
2B6C: D6 5C                             SUB     5Ch     ; '\'
2B6E: 28 0B                             JR      Z,L2B7B
2B70: DD 7E FF                          LD      A,(IX-01h)
2B73: B7                                OR      A
2B74: 28 05                             JR      Z,L2B7B
2B76: 2E 06                             LD      L,06h
2B78: C3 84 2D                          JP      L2D84

2B7B: DD 7E F2                   L2B7B: LD      A,(IX-0Eh)
2B7E: 85                                ADD     A,L
2B7F: DD 77 FD                          LD      (IX-03h),A
2B82: DD 7E F3                          LD      A,(IX-0Dh)
2B85: 8C                                ADC     A,H
2B86: DD 77 FE                          LD      (IX-02h),A
2B89: DD 7E FD                          LD      A,(IX-03h)
2B8C: 12                                LD      (DE),A
2B8D: 13                                INC     DE
2B8E: DD 7E FE                          LD      A,(IX-02h)
2B91: 12                                LD      (DE),A
2B92: DD CB FF 46                       BIT     0,(IX-01h)
2B96: 20 05                             JR      NZ,L2B9D
2B98: 11 24 00                          LD      DE,0024h
2B9B: 18 03                             JR      L2BA0

2B9D: 11 20 00                   L2B9D: LD      DE,0020h
2BA0: 7B                         L2BA0: LD      A,E
2BA1: 02                                LD      (BC),A
2BA2: 2E 00                             LD      L,00h
2BA4: C3 84 2D                          JP      L2D84

2BA7: DD 6E FE                   L2BA7: LD      L,(IX-02h)
2BAA: DD 66 FF                          LD      H,(IX-01h)
2BAD: DD 34 FE                          INC     (IX-02h)
2BB0: 20 03                             JR      NZ,L2BB5
2BB2: DD 34 FF                          INC     (IX-01h)
2BB5: DD 7E F2                   L2BB5: LD      A,(IX-0Eh)
2BB8: 85                                ADD     A,L
2BB9: 6F                                LD      L,A
2BBA: DD 7E F3                          LD      A,(IX-0Dh)
2BBD: 8C                                ADC     A,H
2BBE: 67                                LD      H,A
2BBF: 7E                                LD      A,(HL)
2BC0: DD 77 FA                          LD      (IX-06h),A
2BC3: 3E 20                             LD      A,20h   ; ' '
2BC5: DD 96 FA                          SUB     (IX-06h)
2BC8: 3E 00                             LD      A,00h
2BCA: 17                                RLA
2BCB: DD 77 FD                          LD      (IX-03h),A
2BCE: CB 47                             BIT     0,A
2BD0: CA 3A 2D                          JP      Z,L2D3A
2BD3: DD 7E FA                          LD      A,(IX-06h)
2BD6: D6 2F                             SUB     2Fh     ; '/'
2BD8: 28 07                             JR      Z,L2BE1
2BDA: DD 7E FA                          LD      A,(IX-06h)
2BDD: D6 5C                             SUB     5Ch     ; '\'
2BDF: 20 22                             JR      NZ,L2C03
2BE1: DD 7E F2                   L2BE1: LD      A,(IX-0Eh)
2BE4: DD 86 FE                          ADD     A,(IX-02h)
2BE7: 6F                                LD      L,A
2BE8: DD 7E F3                          LD      A,(IX-0Dh)
2BEB: DD 8E FF                          ADC     A,(IX-01h)
2BEE: 67                                LD      H,A
2BEF: 7E                                LD      A,(HL)
2BF0: FE 2F                             CP      2Fh     ; '/'
2BF2: 28 05                             JR      Z,L2BF9
2BF4: D6 5C                             SUB     5Ch     ; '\'
2BF6: C2 3A 2D                          JP      NZ,L2D3A
2BF9: DD 34 FE                   L2BF9: INC     (IX-02h)
2BFC: 20 E3                             JR      NZ,L2BE1
2BFE: DD 34 FF                          INC     (IX-01h)
2C01: 18 DE                             JR      L2BE1

2C03: DD 7E FA                   L2C03: LD      A,(IX-06h)
2C06: D6 2E                             SUB     2Eh     ; '.'
2C08: 3E 01                             LD      A,01h
2C0A: 28 01                             JR      Z,L2C0D
2C0C: AF                                XOR     A
2C0D: 6F                         L2C0D: LD      L,A
2C0E: B7                                OR      A
2C0F: 20 0E                             JR      NZ,L2C1F
2C11: DD 7E F6                          LD      A,(IX-0Ah)
2C14: DD 96 F8                          SUB     (IX-08h)
2C17: DD 7E F7                          LD      A,(IX-09h)
2C1A: DD 9E F9                          SBC     A,(IX-07h)
2C1D: 38 26                             JR      C,L2C45
2C1F: DD 7E F8                   L2C1F: LD      A,(IX-08h)
2C22: D6 0B                             SUB     0Bh
2C24: DD B6 F9                          OR      (IX-07h)
2C27: 28 04                             JR      Z,L2C2D
2C29: CB 45                             BIT     0,L
2C2B: 20 05                             JR      NZ,L2C32
2C2D: 2E 06                      L2C2D: LD      L,06h
2C2F: C3 84 2D                          JP      L2D84

2C32: DD 36 F6 08                L2C32: LD      (IX-0Ah),08h
2C36: AF                                XOR     A
2C37: DD 77 F7                          LD      (IX-09h),A
2C3A: DD 36 F8 0B                       LD      (IX-08h),0Bh
2C3E: AF                                XOR     A
2C3F: DD 77 F9                          LD      (IX-07h),A
2C42: C3 A7 2B                          JP      L2BA7

2C45: C5                         L2C45: PUSH    BC
2C46: D5                                PUSH    DE
2C47: DD 7E FA                          LD      A,(IX-06h)
2C4A: F5                                PUSH    AF
2C4B: 33                                INC     SP
2C4C: CD EA 45                          CALL    L45EA
2C4F: 33                                INC     SP
2C50: D1                                POP     DE
2C51: C1                                POP     BC
2C52: DD 7E F6                          LD      A,(IX-0Ah)
2C55: C6 01                             ADD     A,01h
2C57: DD 77 FC                          LD      (IX-04h),A
2C5A: DD 7E F7                          LD      A,(IX-09h)
2C5D: CE 00                             ADC     A,00h
2C5F: DD 77 FD                          LD      (IX-03h),A
2C62: 7C                                LD      A,H
2C63: B5                                OR      L
2C64: CA E5 2C                          JP      Z,L2CE5
2C67: DD 6E FE                          LD      L,(IX-02h)
2C6A: DD 66 FF                          LD      H,(IX-01h)
2C6D: DD 34 FE                          INC     (IX-02h)
2C70: 20 03                             JR      NZ,L2C75
2C72: DD 34 FF                          INC     (IX-01h)
2C75: DD 7E F2                   L2C75: LD      A,(IX-0Eh)
2C78: 85                                ADD     A,L
2C79: 6F                                LD      L,A
2C7A: DD 7E F3                          LD      A,(IX-0Dh)
2C7D: 8C                                ADC     A,H
2C7E: 67                                LD      H,A
2C7F: 7E                                LD      A,(HL)
2C80: DD 77 FB                          LD      (IX-05h),A
2C83: C5                                PUSH    BC
2C84: D5                                PUSH    DE
2C85: DD 7E FB                          LD      A,(IX-05h)
2C88: F5                                PUSH    AF
2C89: 33                                INC     SP
2C8A: CD AD 3D                          CALL    L3DAD
2C8D: 33                                INC     SP
2C8E: D1                                POP     DE
2C8F: C1                                POP     BC
2C90: 7C                                LD      A,H
2C91: B5                                OR      L
2C92: 28 11                             JR      Z,L2CA5
2C94: DD 6E F8                          LD      L,(IX-08h)
2C97: DD 66 F9                          LD      H,(IX-07h)
2C9A: 2B                                DEC     HL
2C9B: DD 7E F6                          LD      A,(IX-0Ah)
2C9E: 95                                SUB     L
2C9F: DD 7E F7                          LD      A,(IX-09h)
2CA2: 9C                                SBC     A,H
2CA3: 38 05                             JR      C,L2CAA
2CA5: 2E 06                      L2CA5: LD      L,06h
2CA7: C3 84 2D                          JP      L2D84

2CAA: DD 6E F6                   L2CAA: LD      L,(IX-0Ah)
2CAD: DD 66 F7                          LD      H,(IX-09h)
2CB0: DD 7E F4                          LD      A,(IX-0Ch)
2CB3: 85                                ADD     A,L
2CB4: 6F                                LD      L,A
2CB5: DD 7E F5                          LD      A,(IX-0Bh)
2CB8: 8C                                ADC     A,H
2CB9: 67                                LD      H,A
2CBA: DD 7E FA                          LD      A,(IX-06h)
2CBD: 77                                LD      (HL),A
2CBE: DD 6E FC                          LD      L,(IX-04h)
2CC1: DD 66 FD                          LD      H,(IX-03h)
2CC4: DD 7E FC                          LD      A,(IX-04h)
2CC7: C6 01                             ADD     A,01h
2CC9: DD 77 F6                          LD      (IX-0Ah),A
2CCC: DD 7E FD                          LD      A,(IX-03h)
2CCF: CE 00                             ADC     A,00h
2CD1: DD 77 F7                          LD      (IX-09h),A
2CD4: DD 7E F4                          LD      A,(IX-0Ch)
2CD7: 85                                ADD     A,L
2CD8: 6F                                LD      L,A
2CD9: DD 7E F5                          LD      A,(IX-0Bh)
2CDC: 8C                                ADC     A,H
2CDD: 67                                LD      H,A
2CDE: DD 7E FB                          LD      A,(IX-05h)
2CE1: 77                                LD      (HL),A
2CE2: C3 A7 2B                          JP      L2BA7

2CE5: DD 6E FA                   L2CE5: LD      L,(IX-06h)
2CE8: 26 00                             LD      H,00h
2CEA: C5                                PUSH    BC
2CEB: D5                                PUSH    DE
2CEC: E5                                PUSH    HL
2CED: 21 89 2D                          LD      HL,2D89h
2CF0: E5                                PUSH    HL
2CF1: CD F8 3D                          CALL    L3DF8
2CF4: F1                                POP     AF
2CF5: F1                                POP     AF
2CF6: D1                                POP     DE
2CF7: C1                                POP     BC
2CF8: 7C                                LD      A,H
2CF9: B5                                OR      L
2CFA: 28 05                             JR      Z,L2D01
2CFC: 2E 06                             LD      L,06h
2CFE: C3 84 2D                          JP      L2D84

2D01: DD 7E FA                   L2D01: LD      A,(IX-06h)
2D04: D6 61                             SUB     61h     ; 'a'
2D06: 38 0F                             JR      C,L2D17
2D08: 3E 7A                             LD      A,7Ah   ; 'z'
2D0A: DD 96 FA                          SUB     (IX-06h)
2D0D: 38 08                             JR      C,L2D17
2D0F: DD 7E FA                          LD      A,(IX-06h)
2D12: C6 E0                             ADD     A,0E0h
2D14: DD 77 FA                          LD      (IX-06h),A
2D17: DD 6E F6                   L2D17: LD      L,(IX-0Ah)
2D1A: DD 66 F7                          LD      H,(IX-09h)
2D1D: DD 7E FC                          LD      A,(IX-04h)
2D20: DD 77 F6                          LD      (IX-0Ah),A
2D23: DD 7E FD                          LD      A,(IX-03h)
2D26: DD 77 F7                          LD      (IX-09h),A
2D29: 7D                                LD      A,L
2D2A: DD 86 F4                          ADD     A,(IX-0Ch)
2D2D: 6F                                LD      L,A
2D2E: 7C                                LD      A,H
2D2F: DD 8E F5                          ADC     A,(IX-0Bh)
2D32: 67                                LD      H,A
2D33: DD 7E FA                          LD      A,(IX-06h)
2D36: 77                                LD      (HL),A
2D37: C3 A7 2B                          JP      L2BA7

2D3A: DD 7E F2                   L2D3A: LD      A,(IX-0Eh)
2D3D: DD 86 FE                          ADD     A,(IX-02h)
2D40: DD 77 FB                          LD      (IX-05h),A
2D43: DD 7E F3                          LD      A,(IX-0Dh)
2D46: DD 8E FF                          ADC     A,(IX-01h)
2D49: DD 77 FC                          LD      (IX-04h),A
2D4C: DD 7E FB                          LD      A,(IX-05h)
2D4F: 12                                LD      (DE),A
2D50: 13                                INC     DE
2D51: DD 7E FC                          LD      A,(IX-04h)
2D54: 12                                LD      (DE),A
2D55: DD 7E F7                          LD      A,(IX-09h)
2D58: DD B6 F6                          OR      (IX-0Ah)
2D5B: 20 04                             JR      NZ,L2D61
2D5D: 2E 06                             LD      L,06h
2D5F: 18 23                             JR      L2D84

2D61: DD 6E F4                   L2D61: LD      L,(IX-0Ch)
2D64: DD 66 F5                          LD      H,(IX-0Bh)
2D67: 7E                                LD      A,(HL)
2D68: D6 E5                             SUB     0E5h
2D6A: 20 06                             JR      NZ,L2D72
2D6C: D1                                POP     DE
2D6D: E1                                POP     HL
2D6E: E5                                PUSH    HL
2D6F: D5                                PUSH    DE
2D70: 36 05                             LD      (HL),05h
2D72: DD CB FD 46                L2D72: BIT     0,(IX-03h)
2D76: 20 05                             JR      NZ,L2D7D
2D78: 11 04 00                          LD      DE,0004h
2D7B: 18 03                             JR      L2D80

2D7D: 11 00 00                   L2D7D: LD      DE,0000h
2D80: 7B                         L2D80: LD      A,E
2D81: 02                                LD      (BC),A
2D82: 2E 00                             LD      L,00h
2D84: DD F9                      L2D84: LD      SP,IX
2D86: DD E1                             POP     IX
2D88: C9                                RET

2D89: 22                         L2D89: DB      22h     ; '"'
2D8A: 2A 2B 2C 3A 3B 3C 3D 3E           DB      "*+,:;<=>?[]|"
2D92: 3F 5B 5D 7C
2D96: 7F                                DB      7Fh
2D97: 00                                DB      00h

                                        ; --- START PROC L2D98 ---
2D98: FD 21 02 00                L2D98: LD      IY,0002h
2D9C: FD 39                             ADD     IY,SP
2D9E: FD 7E 00                          LD      A,(IY+00h)
2DA1: C6 30                             ADD     A,30h   ; '0'
2DA3: 47                                LD      B,A
2DA4: 3E 39                             LD      A,39h   ; '9'
2DA6: 90                                SUB     B
2DA7: 30 10                             JR      NC,L2DB9
2DA9: 78                                LD      A,B
2DAA: C6 07                             ADD     A,07h
2DAC: 47                                LD      B,A
2DAD: FD 23                             INC     IY
2DAF: FD CB 00 46                       BIT     0,(IY+00h)
2DB3: 28 04                             JR      Z,L2DB9
2DB5: 78                                LD      A,B
2DB6: C6 20                             ADD     A,20h   ; ' '
2DB8: 47                                LD      B,A
2DB9: FD 21 06 00                L2DB9: LD      IY,0006h
2DBD: FD 39                             ADD     IY,SP
2DBF: FD 6E 00                          LD      L,(IY+00h)
2DC2: FD 66 01                          LD      H,(IY+01h)
2DC5: E5                                PUSH    HL
2DC6: C5                                PUSH    BC
2DC7: 33                                INC     SP
2DC8: FD 2B                             DEC     IY
2DCA: FD 2B                             DEC     IY
2DCC: FD 6E 00                          LD      L,(IY+00h)
2DCF: FD 66 01                          LD      H,(IY+01h)
2DD2: CD AC 3D                          CALL    L3DAC
2DD5: F1                                POP     AF
2DD6: 33                                INC     SP
2DD7: C9                                RET

                                        ; --- START PROC L2DD8 ---
2DD8: DD E5                      L2DD8: PUSH    IX
2DDA: DD 21 00 00                       LD      IX,0000h
2DDE: DD 39                             ADD     IX,SP
2DE0: DD 46 04                          LD      B,(IX+04h)
2DE3: CB 38                             SRL     B
2DE5: CB 38                             SRL     B
2DE7: CB 38                             SRL     B
2DE9: CB 38                             SRL     B
2DEB: DD 6E 08                          LD      L,(IX+08h)
2DEE: DD 66 09                          LD      H,(IX+09h)
2DF1: E5                                PUSH    HL
2DF2: DD 6E 06                          LD      L,(IX+06h)
2DF5: DD 66 07                          LD      H,(IX+07h)
2DF8: E5                                PUSH    HL
2DF9: DD 7E 05                          LD      A,(IX+05h)
2DFC: F5                                PUSH    AF
2DFD: 33                                INC     SP
2DFE: C5                                PUSH    BC
2DFF: 33                                INC     SP
2E00: CD 98 2D                          CALL    L2D98
2E03: 21 06 00                          LD      HL,0006h
2E06: 39                                ADD     HL,SP
2E07: F9                                LD      SP,HL
2E08: DD 7E 04                          LD      A,(IX+04h)
2E0B: E6 0F                             AND     0Fh
2E0D: 47                                LD      B,A
2E0E: DD 6E 08                          LD      L,(IX+08h)
2E11: DD 66 09                          LD      H,(IX+09h)
2E14: E5                                PUSH    HL
2E15: DD 6E 06                          LD      L,(IX+06h)
2E18: DD 66 07                          LD      H,(IX+07h)
2E1B: E5                                PUSH    HL
2E1C: DD 7E 05                          LD      A,(IX+05h)
2E1F: F5                                PUSH    AF
2E20: 33                                INC     SP
2E21: C5                                PUSH    BC
2E22: 33                                INC     SP
2E23: CD 98 2D                          CALL    L2D98
2E26: 21 06 00                          LD      HL,0006h
2E29: 39                                ADD     HL,SP
2E2A: F9                                LD      SP,HL
2E2B: DD E1                             POP     IX
2E2D: C9                                RET

                                        ; --- START PROC L2E2E ---
2E2E: DD E5                      L2E2E: PUSH    IX
2E30: DD 21 00 00                       LD      IX,0000h
2E34: DD 39                             ADD     IX,SP
2E36: 21 F9 FF                          LD      HL,0FFF9h
2E39: 39                                ADD     HL,SP
2E3A: F9                                LD      SP,HL
2E3B: DD 5E 04                          LD      E,(IX+04h)
2E3E: DD 56 05                          LD      D,(IX+05h)
2E41: D5                                PUSH    DE
2E42: 21 05 00                          LD      HL,0005h
2E45: 39                                ADD     HL,SP
2E46: EB                                EX      DE,HL
2E47: 01 04 00                          LD      BC,0004h
2E4A: ED B0                             LDIR
2E4C: D1                                POP     DE
2E4D: 21 04 00                          LD      HL,0004h
2E50: 19                                ADD     HL,DE
2E51: 4D                                LD      C,L
2E52: 44                                LD      B,H
2E53: DD 36 FA 20                       LD      (IX-06h),20h    ; ' '
2E57: 0A                         L2E57: LD      A,(BC)
2E58: 87                                ADD     A,A
2E59: DD 77 F9                          LD      (IX-07h),A
2E5C: DD 7E FF                          LD      A,(IX-01h)
2E5F: CB 07                             RLC     A
2E61: E6 01                             AND     01h
2E63: DD 77 FB                          LD      (IX-05h),A
2E66: DD 7E F9                          LD      A,(IX-07h)
2E69: DD B6 FB                          OR      (IX-05h)
2E6C: DD 77 FB                          LD      (IX-05h),A
2E6F: 02                                LD      (BC),A
2E70: DD CB FC 26                       SLA     (IX-04h)
2E74: DD CB FD 16                       RL      (IX-03h)
2E78: DD CB FE 16                       RL      (IX-02h)
2E7C: DD CB FF 16                       RL      (IX-01h)
2E80: DD 7E FB                          LD      A,(IX-05h)
2E83: DD 96 06                          SUB     (IX+06h)
2E86: 38 1F                             JR      C,L2EA7
2E88: 0A                                LD      A,(BC)
2E89: DD 96 06                          SUB     (IX+06h)
2E8C: 02                                LD      (BC),A
2E8D: DD 7E FC                          LD      A,(IX-04h)
2E90: F6 01                             OR      01h
2E92: DD 77 FC                          LD      (IX-04h),A
2E95: DD 7E FD                          LD      A,(IX-03h)
2E98: DD 77 FD                          LD      (IX-03h),A
2E9B: DD 7E FE                          LD      A,(IX-02h)
2E9E: DD 77 FE                          LD      (IX-02h),A
2EA1: DD 7E FF                          LD      A,(IX-01h)
2EA4: DD 77 FF                          LD      (IX-01h),A
2EA7: DD 35 FA                   L2EA7: DEC     (IX-06h)
2EAA: DD 7E FA                          LD      A,(IX-06h)
2EAD: B7                                OR      A
2EAE: 20 A7                             JR      NZ,L2E57
2EB0: 21 03 00                          LD      HL,0003h
2EB3: 39                                ADD     HL,SP
2EB4: 01 04 00                          LD      BC,0004h
2EB7: ED B0                             LDIR
2EB9: DD F9                             LD      SP,IX
2EBB: DD E1                             POP     IX
2EBD: C9                                RET

                                        ; --- START PROC L2EBE ---
2EBE: DD E5                      L2EBE: PUSH    IX
2EC0: DD 21 00 00                       LD      IX,0000h
2EC4: DD 39                             ADD     IX,SP
2EC6: 21 CD FF                          LD      HL,0FFCDh
2EC9: 39                                ADD     HL,SP
2ECA: F9                                LD      SP,HL
2ECB: AF                                XOR     A
2ECC: DD 77 FA                          LD      (IX-06h),A
2ECF: DD 77 FB                          LD      (IX-05h),A
2ED2: 21 08 00                          LD      HL,0008h
2ED5: 39                                ADD     HL,SP
2ED6: DD 75 E0                          LD      (IX-20h),L
2ED9: DD 74 E1                          LD      (IX-1Fh),H
2EDC: 21 12 00                          LD      HL,0012h
2EDF: 39                                ADD     HL,SP
2EE0: DD 75 E2                          LD      (IX-1Eh),L
2EE3: DD 74 E3                          LD      (IX-1Dh),H
2EE6: 21 08 00                          LD      HL,0008h
2EE9: 39                                ADD     HL,SP
2EEA: DD 75 E4                          LD      (IX-1Ch),L
2EED: DD 74 E5                          LD      (IX-1Bh),H
2EF0: DD 7E E4                          LD      A,(IX-1Ch)
2EF3: C6 04                             ADD     A,04h
2EF5: DD 77 E6                          LD      (IX-1Ah),A
2EF8: DD 7E E5                          LD      A,(IX-1Bh)
2EFB: CE 00                             ADC     A,00h
2EFD: DD 77 E7                          LD      (IX-19h),A
2F00: DD 7E E6                          LD      A,(IX-1Ah)
2F03: DD 77 E8                          LD      (IX-18h),A
2F06: DD 7E E7                          LD      A,(IX-19h)
2F09: DD 77 E9                          LD      (IX-17h),A
2F0C: DD 7E E6                          LD      A,(IX-1Ah)
2F0F: DD 77 EA                          LD      (IX-16h),A
2F12: DD 7E E7                          LD      A,(IX-19h)
2F15: DD 77 EB                          LD      (IX-15h),A
2F18: DD 6E 08                   L2F18: LD      L,(IX+08h)
2F1B: DD 66 09                          LD      H,(IX+09h)
2F1E: 5E                                LD      E,(HL)
2F1F: 23                                INC     HL
2F20: DD 75 08                          LD      (IX+08h),L
2F23: DD 74 09                          LD      (IX+09h),H
2F26: DD 73 FF                          LD      (IX-01h),E
2F29: 7B                                LD      A,E
2F2A: B7                                OR      A
2F2B: CA 18 3A                          JP      Z,L3A18
2F2E: DD 7E FF                          LD      A,(IX-01h)
2F31: D6 25                             SUB     25h     ; '%'
2F33: C2 F5 39                          JP      NZ,L39F5
2F36: AF                                XOR     A
2F37: DD 77 EC                          LD      (IX-14h),A
2F3A: AF                                XOR     A
2F3B: DD 77 ED                          LD      (IX-13h),A
2F3E: AF                                XOR     A
2F3F: DD 77 EE                          LD      (IX-12h),A
2F42: AF                                XOR     A
2F43: DD 77 EF                          LD      (IX-11h),A
2F46: AF                                XOR     A
2F47: DD 77 F0                          LD      (IX-10h),A
2F4A: AF                                XOR     A
2F4B: DD 77 F1                          LD      (IX-0Fh),A
2F4E: AF                                XOR     A
2F4F: DD 77 F2                          LD      (IX-0Eh),A
2F52: AF                                XOR     A
2F53: DD 77 F3                          LD      (IX-0Dh),A
2F56: AF                                XOR     A
2F57: DD 77 F4                          LD      (IX-0Ch),A
2F5A: AF                                XOR     A
2F5B: DD 77 FC                          LD      (IX-04h),A
2F5E: DD 77 FD                          LD      (IX-03h),A
2F61: DD 36 F5 FF                       LD      (IX-0Bh),0FFh
2F65: DD 36 F6 FF                       LD      (IX-0Ah),0FFh
2F69: DD 7E 08                          LD      A,(IX+08h)
2F6C: DD 77 F8                          LD      (IX-08h),A
2F6F: DD 7E 09                          LD      A,(IX+09h)
2F72: DD 77 F9                          LD      (IX-07h),A
2F75: DD 6E F8                   L2F75: LD      L,(IX-08h)
2F78: DD 66 F9                          LD      H,(IX-07h)
2F7B: 7E                                LD      A,(HL)
2F7C: DD 77 FF                          LD      (IX-01h),A
2F7F: DD 34 F8                          INC     (IX-08h)
2F82: 20 03                             JR      NZ,L2F87
2F84: DD 34 F9                          INC     (IX-07h)
2F87: DD 7E F8                   L2F87: LD      A,(IX-08h)
2F8A: DD 77 08                          LD      (IX+08h),A
2F8D: DD 7E F9                          LD      A,(IX-07h)
2F90: DD 77 09                          LD      (IX+09h),A
2F93: DD 7E FF                          LD      A,(IX-01h)
2F96: D6 25                             SUB     25h     ; '%'
2F98: 20 23                             JR      NZ,L2FBD
2F9A: DD 6E 06                          LD      L,(IX+06h)
2F9D: DD 66 07                          LD      H,(IX+07h)
2FA0: E5                                PUSH    HL
2FA1: DD 7E FF                          LD      A,(IX-01h)
2FA4: F5                                PUSH    AF
2FA5: 33                                INC     SP
2FA6: DD 6E 04                          LD      L,(IX+04h)
2FA9: DD 66 05                          LD      H,(IX+05h)
2FAC: CD AC 3D                          CALL    L3DAC
2FAF: F1                                POP     AF
2FB0: 33                                INC     SP
2FB1: DD 34 FA                          INC     (IX-06h)
2FB4: C2 18 2F                          JP      NZ,L2F18
2FB7: DD 34 FB                          INC     (IX-05h)
2FBA: C3 18 2F                          JP      L2F18

2FBD: DD 7E FF                   L2FBD: LD      A,(IX-01h)
2FC0: D6 30                             SUB     30h     ; '0'
2FC2: 38 73                             JR      C,L3037
2FC4: 3E 39                             LD      A,39h   ; '9'
2FC6: DD 96 FF                          SUB     (IX-01h)
2FC9: 38 6C                             JR      C,L3037
2FCB: DD 7E F5                          LD      A,(IX-0Bh)
2FCE: DD A6 F6                          AND     (IX-0Ah)
2FD1: 3C                                INC     A
2FD2: 20 42                             JR      NZ,L3016
2FD4: DD 4E FC                          LD      C,(IX-04h)
2FD7: DD 46 FD                          LD      B,(IX-03h)
2FDA: 69                                LD      L,C
2FDB: 60                                LD      H,B
2FDC: 29                                ADD     HL,HL
2FDD: 29                                ADD     HL,HL
2FDE: 09                                ADD     HL,BC
2FDF: 29                                ADD     HL,HL
2FE0: DD 75 D3                          LD      (IX-2Dh),L
2FE3: DD 74 D4                          LD      (IX-2Ch),H
2FE6: DD 7E FF                          LD      A,(IX-01h)
2FE9: DD 77 FE                          LD      (IX-02h),A
2FEC: AF                                XOR     A
2FED: DD 77 FF                          LD      (IX-01h),A
2FF0: DD 4E FE                          LD      C,(IX-02h)
2FF3: DD 46 FF                          LD      B,(IX-01h)
2FF6: DD 6E D3                          LD      L,(IX-2Dh)
2FF9: DD 66 D4                          LD      H,(IX-2Ch)
2FFC: 09                                ADD     HL,BC
2FFD: 7D                                LD      A,L
2FFE: C6 D0                             ADD     A,0D0h
3000: DD 77 FC                          LD      (IX-04h),A
3003: 7C                                LD      A,H
3004: CE FF                             ADC     A,0FFh
3006: DD 77 FD                          LD      (IX-03h),A
3009: DD B6 FC                          OR      (IX-04h)
300C: C2 75 2F                          JP      NZ,L2F75
300F: DD 36 ED 01                       LD      (IX-13h),01h
3013: C3 75 2F                          JP      L2F75

3016: DD 4E F5                   L3016: LD      C,(IX-0Bh)
3019: DD 46 F6                          LD      B,(IX-0Ah)
301C: 69                                LD      L,C
301D: 60                                LD      H,B
301E: 29                                ADD     HL,HL
301F: 29                                ADD     HL,HL
3020: 09                                ADD     HL,BC
3021: 29                                ADD     HL,HL
3022: DD 4E FF                          LD      C,(IX-01h)
3025: 06 00                             LD      B,00h
3027: 09                                ADD     HL,BC
3028: 7D                                LD      A,L
3029: C6 D0                             ADD     A,0D0h
302B: DD 77 F5                          LD      (IX-0Bh),A
302E: 7C                                LD      A,H
302F: CE FF                             ADC     A,0FFh
3031: DD 77 F6                          LD      (IX-0Ah),A
3034: C3 75 2F                          JP      L2F75

3037: DD 7E FF                   L3037: LD      A,(IX-01h)
303A: D6 2E                             SUB     2Eh     ; '.'
303C: 20 14                             JR      NZ,L3052
303E: DD 7E F5                          LD      A,(IX-0Bh)
3041: DD A6 F6                          AND     (IX-0Ah)
3044: 3C                                INC     A
3045: C2 75 2F                          JP      NZ,L2F75
3048: AF                                XOR     A
3049: DD 77 F5                          LD      (IX-0Bh),A
304C: DD 77 F6                          LD      (IX-0Ah),A
304F: C3 75 2F                          JP      L2F75

3052: DD 7E FF                   L3052: LD      A,(IX-01h)
3055: D6 61                             SUB     61h     ; 'a'
3057: 38 15                             JR      C,L306E
3059: 3E 7A                             LD      A,7Ah   ; 'z'
305B: DD 96 FF                          SUB     (IX-01h)
305E: 38 0E                             JR      C,L306E
3060: DD 7E FF                          LD      A,(IX-01h)
3063: E6 DF                             AND     0DFh
3065: DD 77 FF                          LD      (IX-01h),A
3068: DD 36 F7 01                       LD      (IX-09h),01h
306C: 18 04                             JR      L3072

306E: AF                         L306E: XOR     A
306F: DD 77 F7                          LD      (IX-09h),A
3072: DD 7E FF                   L3072: LD      A,(IX-01h)
3075: D6 20                             SUB     20h     ; ' '
3077: CA 11 31                          JP      Z,L3111
307A: DD 7E FF                          LD      A,(IX-01h)
307D: D6 2B                             SUB     2Bh     ; '+'
307F: CA 0A 31                          JP      Z,L310A
3082: DD 7E FF                          LD      A,(IX-01h)
3085: D6 2D                             SUB     2Dh     ; '-'
3087: 28 7A                             JR      Z,L3103
3089: DD 7E FF                          LD      A,(IX-01h)
308C: D6 42                             SUB     42h     ; 'B'
308E: CA 18 31                          JP      Z,L3118
3091: DD 7E FF                          LD      A,(IX-01h)
3094: D6 43                             SUB     43h     ; 'C'
3096: CA 26 31                          JP      Z,L3126
3099: DD 7E FF                          LD      A,(IX-01h)
309C: D6 44                             SUB     44h     ; 'D'
309E: CA 84 33                          JP      Z,L3384
30A1: DD 7E FF                          LD      A,(IX-01h)
30A4: D6 46                             SUB     46h     ; 'F'
30A6: CA A0 33                          JP      Z,L33A0
30A9: DD 7E FF                          LD      A,(IX-01h)
30AC: D6 48                             SUB     48h     ; 'H'
30AE: CA 75 2F                          JP      Z,L2F75
30B1: DD 7E FF                          LD      A,(IX-01h)
30B4: D6 49                             SUB     49h     ; 'I'
30B6: CA 84 33                          JP      Z,L3384
30B9: DD 7E FF                          LD      A,(IX-01h)
30BC: D6 4A                             SUB     4Ah     ; 'J'
30BE: CA 75 2F                          JP      Z,L2F75
30C1: DD 7E FF                          LD      A,(IX-01h)
30C4: D6 4C                             SUB     4Ch     ; 'L'
30C6: 28 57                             JR      Z,L311F
30C8: DD 7E FF                          LD      A,(IX-01h)
30CB: D6 4F                             SUB     4Fh     ; 'O'
30CD: CA 8E 33                          JP      Z,L338E
30D0: DD 7E FF                          LD      A,(IX-01h)
30D3: D6 50                             SUB     50h     ; 'P'
30D5: CA DB 32                          JP      Z,L32DB
30D8: DD 7E FF                          LD      A,(IX-01h)
30DB: D6 53                             SUB     53h     ; 'S'
30DD: CA 6E 31                          JP      Z,L316E
30E0: DD 7E FF                          LD      A,(IX-01h)
30E3: D6 54                             SUB     54h     ; 'T'
30E5: CA 75 2F                          JP      Z,L2F75
30E8: DD 7E FF                          LD      A,(IX-01h)
30EB: D6 55                             SUB     55h     ; 'U'
30ED: CA 94 33                          JP      Z,L3394
30F0: DD 7E FF                          LD      A,(IX-01h)
30F3: D6 58                             SUB     58h     ; 'X'
30F5: CA 9A 33                          JP      Z,L339A
30F8: DD 7E FF                          LD      A,(IX-01h)
30FB: D6 5A                             SUB     5Ah     ; 'Z'
30FD: CA 75 2F                          JP      Z,L2F75
3100: C3 A6 33                          JP      L33A6

3103: DD 36 EC 01                L3103: LD      (IX-14h),01h
3107: C3 75 2F                          JP      L2F75

310A: DD 36 EE 01                L310A: LD      (IX-12h),01h
310E: C3 75 2F                          JP      L2F75

3111: DD 36 EF 01                L3111: LD      (IX-11h),01h
3115: C3 75 2F                          JP      L2F75

3118: DD 36 F1 01                L3118: LD      (IX-0Fh),01h
311C: C3 75 2F                          JP      L2F75

311F: DD 36 F2 01                L311F: LD      (IX-0Eh),01h
3123: C3 75 2F                          JP      L2F75

3126: DD CB F1 46                L3126: BIT     0,(IX-0Fh)
312A: 28 11                             JR      Z,L313D
312C: DD 6E 0A                          LD      L,(IX+0Ah)
312F: DD 66 0B                          LD      H,(IX+0Bh)
3132: 23                                INC     HL
3133: DD 75 0A                          LD      (IX+0Ah),L
3136: DD 74 0B                          LD      (IX+0Bh),H
3139: 2B                                DEC     HL
313A: 46                                LD      B,(HL)
313B: 18 11                             JR      L314E

313D: DD 6E 0A                   L313D: LD      L,(IX+0Ah)
3140: DD 66 0B                          LD      H,(IX+0Bh)
3143: 23                                INC     HL
3144: 23                                INC     HL
3145: DD 75 0A                          LD      (IX+0Ah),L
3148: DD 74 0B                          LD      (IX+0Bh),H
314B: 2B                                DEC     HL
314C: 2B                                DEC     HL
314D: 46                                LD      B,(HL)
314E: DD 6E 06                   L314E: LD      L,(IX+06h)
3151: DD 66 07                          LD      H,(IX+07h)
3154: E5                                PUSH    HL
3155: C5                                PUSH    BC
3156: 33                                INC     SP
3157: DD 6E 04                          LD      L,(IX+04h)
315A: DD 66 05                          LD      H,(IX+05h)
315D: CD AC 3D                          CALL    L3DAC
3160: F1                                POP     AF
3161: 33                                INC     SP
3162: DD 34 FA                          INC     (IX-06h)
3165: C2 D3 33                          JP      NZ,L33D3
3168: DD 34 FB                          INC     (IX-05h)
316B: C3 D3 33                          JP      L33D3

316E: 21 08 00                   L316E: LD      HL,0008h
3171: 39                                ADD     HL,SP
3172: DD 75 F8                          LD      (IX-08h),L
3175: DD 74 F9                          LD      (IX-07h),H
3178: DD 6E 0A                          LD      L,(IX+0Ah)
317B: DD 66 0B                          LD      H,(IX+0Bh)
317E: 23                                INC     HL
317F: 23                                INC     HL
3180: DD 75 0A                          LD      (IX+0Ah),L
3183: DD 74 0B                          LD      (IX+0Bh),H
3186: 2B                                DEC     HL
3187: 2B                                DEC     HL
3188: 4E                                LD      C,(HL)
3189: 23                                INC     HL
318A: 46                                LD      B,(HL)
318B: DD 6E F8                          LD      L,(IX-08h)
318E: DD 66 F9                          LD      H,(IX-07h)
3191: 71                                LD      (HL),C
3192: 23                                INC     HL
3193: 70                                LD      (HL),B
3194: C5                                PUSH    BC
3195: CD BE 13                          CALL    L13BE
3198: F1                                POP     AF
3199: 4D                                LD      C,L
319A: 44                                LD      B,H
319B: DD 7E F5                          LD      A,(IX-0Bh)
319E: DD A6 F6                          AND     (IX-0Ah)
31A1: 3C                                INC     A
31A2: 20 06                             JR      NZ,L31AA
31A4: DD 71 F5                          LD      (IX-0Bh),C
31A7: DD 70 F6                          LD      (IX-0Ah),B
31AA: DD CB EC 46                L31AA: BIT     0,(IX-14h)
31AE: 20 67                             JR      NZ,L3217
31B0: 79                                LD      A,C
31B1: DD 96 FC                          SUB     (IX-04h)
31B4: 78                                LD      A,B
31B5: DD 9E FD                          SBC     A,(IX-03h)
31B8: 30 5D                             JR      NC,L3217
31BA: DD 7E FC                          LD      A,(IX-04h)
31BD: 91                                SUB     C
31BE: DD 77 FE                          LD      (IX-02h),A
31C1: DD 7E FD                          LD      A,(IX-03h)
31C4: 98                                SBC     A,B
31C5: DD 77 FF                          LD      (IX-01h),A
31C8: DD 5E FA                          LD      E,(IX-06h)
31CB: DD 56 FB                          LD      D,(IX-05h)
31CE: DD 6E FE                   L31CE: LD      L,(IX-02h)
31D1: DD 66 FF                          LD      H,(IX-01h)
31D4: DD 7E FE                          LD      A,(IX-02h)
31D7: C6 FF                             ADD     A,0FFh
31D9: DD 77 FE                          LD      (IX-02h),A
31DC: DD 7E FF                          LD      A,(IX-01h)
31DF: CE FF                             ADC     A,0FFh
31E1: DD 77 FF                          LD      (IX-01h),A
31E4: 7C                                LD      A,H
31E5: B5                                OR      L
31E6: 28 1D                             JR      Z,L3205
31E8: C5                                PUSH    BC
31E9: D5                                PUSH    DE
31EA: DD 6E 06                          LD      L,(IX+06h)
31ED: DD 66 07                          LD      H,(IX+07h)
31F0: E5                                PUSH    HL
31F1: 3E 20                             LD      A,20h   ; ' '
31F3: F5                                PUSH    AF
31F4: 33                                INC     SP
31F5: DD 6E 04                          LD      L,(IX+04h)
31F8: DD 66 05                          LD      H,(IX+05h)
31FB: CD AC 3D                          CALL    L3DAC
31FE: F1                                POP     AF
31FF: 33                                INC     SP
3200: D1                                POP     DE
3201: C1                                POP     BC
3202: 13                                INC     DE
3203: 18 C9                             JR      L31CE

3205: DD 73 FA                   L3205: LD      (IX-06h),E
3208: DD 72 FB                          LD      (IX-05h),D
320B: DD 7E FE                          LD      A,(IX-02h)
320E: DD 77 FC                          LD      (IX-04h),A
3211: DD 7E FF                          LD      A,(IX-01h)
3214: DD 77 FD                          LD      (IX-03h),A
3217: DD 7E F5                   L3217: LD      A,(IX-0Bh)
321A: DD 77 FE                          LD      (IX-02h),A
321D: DD 7E F6                          LD      A,(IX-0Ah)
3220: DD 77 FF                          LD      (IX-01h),A
3223: DD 5E FA                          LD      E,(IX-06h)
3226: DD 56 FB                          LD      D,(IX-05h)
3229: DD 6E F8                   L3229: LD      L,(IX-08h)
322C: DD 66 F9                          LD      H,(IX-07h)
322F: 7E                                LD      A,(HL)
3230: 23                                INC     HL
3231: 66                                LD      H,(HL)
3232: 6F                                LD      L,A
3233: 7E                                LD      A,(HL)
3234: DD 77 FB                          LD      (IX-05h),A
3237: B7                                OR      A
3238: 28 5A                             JR      Z,L3294
323A: AF                                XOR     A
323B: DD BE FE                          CP      (IX-02h)
323E: DD 9E FF                          SBC     A,(IX-01h)
3241: E2 46 32                          JP      PO,L3246
3244: EE 80                             XOR     80h
3246: F2 94 32                   L3246: JP      P,L3294
3249: DD 6E FE                          LD      L,(IX-02h)
324C: DD 66 FF                          LD      H,(IX-01h)
324F: 2B                                DEC     HL
3250: DD 75 FE                          LD      (IX-02h),L
3253: DD 74 FF                          LD      (IX-01h),H
3256: C5                                PUSH    BC
3257: D5                                PUSH    DE
3258: DD 6E 06                          LD      L,(IX+06h)
325B: DD 66 07                          LD      H,(IX+07h)
325E: E5                                PUSH    HL
325F: DD 7E FB                          LD      A,(IX-05h)
3262: F5                                PUSH    AF
3263: 33                                INC     SP
3264: DD 6E 04                          LD      L,(IX+04h)
3267: DD 66 05                          LD      H,(IX+05h)
326A: CD AC 3D                          CALL    L3DAC
326D: F1                                POP     AF
326E: 33                                INC     SP
326F: D1                                POP     DE
3270: C1                                POP     BC
3271: 13                                INC     DE
3272: DD 6E F8                          LD      L,(IX-08h)
3275: DD 66 F9                          LD      H,(IX-07h)
3278: 7E                                LD      A,(HL)
3279: 23                                INC     HL
327A: 66                                LD      H,(HL)
327B: 6F                                LD      L,A
327C: 23                                INC     HL
327D: DD 75 FA                          LD      (IX-06h),L
3280: DD 74 FB                          LD      (IX-05h),H
3283: DD 6E F8                          LD      L,(IX-08h)
3286: DD 66 F9                          LD      H,(IX-07h)
3289: DD 7E FA                          LD      A,(IX-06h)
328C: 77                                LD      (HL),A
328D: 23                                INC     HL
328E: DD 7E FB                          LD      A,(IX-05h)
3291: 77                                LD      (HL),A
3292: 18 95                             JR      L3229

3294: DD 73 FA                   L3294: LD      (IX-06h),E
3297: DD 72 FB                          LD      (IX-05h),D
329A: DD CB EC 46                       BIT     0,(IX-14h)
329E: CA D3 33                          JP      Z,L33D3
32A1: 79                                LD      A,C
32A2: DD 96 FC                          SUB     (IX-04h)
32A5: 78                                LD      A,B
32A6: DD 9E FD                          SBC     A,(IX-03h)
32A9: D2 D3 33                          JP      NC,L33D3
32AC: DD 7E FC                          LD      A,(IX-04h)
32AF: 91                                SUB     C
32B0: 4F                                LD      C,A
32B1: DD 7E FD                          LD      A,(IX-03h)
32B4: 98                                SBC     A,B
32B5: 47                                LD      B,A
32B6: 69                         L32B6: LD      L,C
32B7: 60                                LD      H,B
32B8: 0B                                DEC     BC
32B9: 7C                                LD      A,H
32BA: B5                                OR      L
32BB: CA C7 33                          JP      Z,L33C7
32BE: C5                                PUSH    BC
32BF: D5                                PUSH    DE
32C0: DD 6E 06                          LD      L,(IX+06h)
32C3: DD 66 07                          LD      H,(IX+07h)
32C6: E5                                PUSH    HL
32C7: 3E 20                             LD      A,20h   ; ' '
32C9: F5                                PUSH    AF
32CA: 33                                INC     SP
32CB: DD 6E 04                          LD      L,(IX+04h)
32CE: DD 66 05                          LD      H,(IX+05h)
32D1: CD AC 3D                          CALL    L3DAC
32D4: F1                                POP     AF
32D5: 33                                INC     SP
32D6: D1                                POP     DE
32D7: C1                                POP     BC
32D8: 13                                INC     DE
32D9: 18 DB                             JR      L32B6

32DB: 21 08 00                   L32DB: LD      HL,0008h
32DE: 39                                ADD     HL,SP
32DF: EB                                EX      DE,HL
32E0: DD 6E 0A                          LD      L,(IX+0Ah)
32E3: DD 66 0B                          LD      H,(IX+0Bh)
32E6: 23                                INC     HL
32E7: 23                                INC     HL
32E8: DD 75 0A                          LD      (IX+0Ah),L
32EB: DD 74 0B                          LD      (IX+0Bh),H
32EE: 2B                                DEC     HL
32EF: 2B                                DEC     HL
32F0: 4E                                LD      C,(HL)
32F1: 23                                INC     HL
32F2: 46                                LD      B,(HL)
32F3: 79                                LD      A,C
32F4: 12                                LD      (DE),A
32F5: 13                                INC     DE
32F6: 78                                LD      A,B
32F7: 12                                LD      (DE),A
32F8: DD 6E 06                          LD      L,(IX+06h)
32FB: DD 66 07                          LD      H,(IX+07h)
32FE: E5                                PUSH    HL
32FF: 3E 30                             LD      A,30h   ; '0'
3301: F5                                PUSH    AF
3302: 33                                INC     SP
3303: DD 6E 04                          LD      L,(IX+04h)
3306: DD 66 05                          LD      H,(IX+05h)
3309: CD AC 3D                          CALL    L3DAC
330C: F1                                POP     AF
330D: 33                                INC     SP
330E: DD 4E FA                          LD      C,(IX-06h)
3311: DD 46 FB                          LD      B,(IX-05h)
3314: 03                                INC     BC
3315: C5                                PUSH    BC
3316: DD 6E 06                          LD      L,(IX+06h)
3319: DD 66 07                          LD      H,(IX+07h)
331C: E5                                PUSH    HL
331D: 3E 78                             LD      A,78h   ; 'x'
331F: F5                                PUSH    AF
3320: 33                                INC     SP
3321: DD 6E 04                          LD      L,(IX+04h)
3324: DD 66 05                          LD      H,(IX+05h)
3327: CD AC 3D                          CALL    L3DAC
332A: F1                                POP     AF
332B: 33                                INC     SP
332C: C1                                POP     BC
332D: 03                                INC     BC
332E: 21 09 00                          LD      HL,0009h
3331: 39                                ADD     HL,SP
3332: 56                                LD      D,(HL)
3333: C5                                PUSH    BC
3334: DD 6E 06                          LD      L,(IX+06h)
3337: DD 66 07                          LD      H,(IX+07h)
333A: E5                                PUSH    HL
333B: DD 6E 04                          LD      L,(IX+04h)
333E: DD 66 05                          LD      H,(IX+05h)
3341: E5                                PUSH    HL
3342: DD 7E F7                          LD      A,(IX-09h)
3345: F5                                PUSH    AF
3346: 33                                INC     SP
3347: D5                                PUSH    DE
3348: 33                                INC     SP
3349: CD D8 2D                          CALL    L2DD8
334C: 21 06 00                          LD      HL,0006h
334F: 39                                ADD     HL,SP
3350: F9                                LD      SP,HL
3351: C1                                POP     BC
3352: 03                                INC     BC
3353: 03                                INC     BC
3354: DD 6E E0                          LD      L,(IX-20h)
3357: DD 66 E1                          LD      H,(IX-1Fh)
335A: 56                                LD      D,(HL)
335B: C5                                PUSH    BC
335C: DD 6E 06                          LD      L,(IX+06h)
335F: DD 66 07                          LD      H,(IX+07h)
3362: E5                                PUSH    HL
3363: DD 6E 04                          LD      L,(IX+04h)
3366: DD 66 05                          LD      H,(IX+05h)
3369: E5                                PUSH    HL
336A: DD 7E F7                          LD      A,(IX-09h)
336D: F5                                PUSH    AF
336E: 33                                INC     SP
336F: D5                                PUSH    DE
3370: 33                                INC     SP
3371: CD D8 2D                          CALL    L2DD8
3374: 21 06 00                          LD      HL,0006h
3377: 39                                ADD     HL,SP
3378: F9                                LD      SP,HL
3379: C1                                POP     BC
337A: 03                                INC     BC
337B: 03                                INC     BC
337C: DD 71 FA                          LD      (IX-06h),C
337F: DD 70 FB                          LD      (IX-05h),B
3382: 18 4F                             JR      L33D3

3384: DD 36 F0 01                L3384: LD      (IX-10h),01h
3388: DD 36 F4 0A                       LD      (IX-0Ch),0Ah
338C: 18 45                             JR      L33D3

338E: DD 36 F4 08                L338E: LD      (IX-0Ch),08h
3392: 18 3F                             JR      L33D3

3394: DD 36 F4 0A                L3394: LD      (IX-0Ch),0Ah
3398: 18 39                             JR      L33D3

339A: DD 36 F4 10                L339A: LD      (IX-0Ch),10h
339E: 18 33                             JR      L33D3

33A0: DD 36 F3 01                L33A0: LD      (IX-0Dh),01h
33A4: 18 2D                             JR      L33D3

33A6: DD 6E 06                   L33A6: LD      L,(IX+06h)
33A9: DD 66 07                          LD      H,(IX+07h)
33AC: E5                                PUSH    HL
33AD: DD 7E FF                          LD      A,(IX-01h)
33B0: F5                                PUSH    AF
33B1: 33                                INC     SP
33B2: DD 6E 04                          LD      L,(IX+04h)
33B5: DD 66 05                          LD      H,(IX+05h)
33B8: CD AC 3D                          CALL    L3DAC
33BB: F1                                POP     AF
33BC: 33                                INC     SP
33BD: DD 34 FA                          INC     (IX-06h)
33C0: 20 11                             JR      NZ,L33D3
33C2: DD 34 FB                          INC     (IX-05h)
33C5: 18 0C                             JR      L33D3

33C7: DD 73 FA                   L33C7: LD      (IX-06h),E
33CA: DD 72 FB                          LD      (IX-05h),D
33CD: DD 71 FC                          LD      (IX-04h),C
33D0: DD 70 FD                          LD      (IX-03h),B
33D3: DD CB F3 46                L33D3: BIT     0,(IX-0Dh)
33D7: CA 8F 34                          JP      Z,L348F
33DA: 21 08 00                          LD      HL,0008h
33DD: 39                                ADD     HL,SP
33DE: DD 75 F8                          LD      (IX-08h),L
33E1: DD 74 F9                          LD      (IX-07h),H
33E4: DD 7E 0A                          LD      A,(IX+0Ah)
33E7: C6 04                             ADD     A,04h
33E9: DD 77 FC                          LD      (IX-04h),A
33EC: DD 7E 0B                          LD      A,(IX+0Bh)
33EF: CE 00                             ADC     A,00h
33F1: DD 77 FD                          LD      (IX-03h),A
33F4: DD 7E FC                          LD      A,(IX-04h)
33F7: DD 77 0A                          LD      (IX+0Ah),A
33FA: DD 7E FD                          LD      A,(IX-03h)
33FD: DD 77 0B                          LD      (IX+0Bh),A
3400: DD 7E FC                          LD      A,(IX-04h)
3403: C6 FC                             ADD     A,0FCh
3405: DD 77 FE                          LD      (IX-02h),A
3408: DD 7E FD                          LD      A,(IX-03h)
340B: CE FF                             ADC     A,0FFh
340D: DD 77 FF                          LD      (IX-01h),A
3410: DD 5E FE                          LD      E,(IX-02h)
3413: DD 56 FF                          LD      D,(IX-01h)
3416: 21 2F 00                          LD      HL,002Fh
3419: 39                                ADD     HL,SP
341A: EB                                EX      DE,HL
341B: 01 04 00                          LD      BC,0004h
341E: ED B0                             LDIR
3420: DD 5E F8                          LD      E,(IX-08h)
3423: DD 56 F9                          LD      D,(IX-07h)
3426: 21 2F 00                          LD      HL,002Fh
3429: 39                                ADD     HL,SP
342A: 01 04 00                          LD      BC,0004h
342D: ED B0                             LDIR
342F: 21 08 00                          LD      HL,0008h
3432: 39                                ADD     HL,SP
3433: DD 75 FC                          LD      (IX-04h),L
3436: DD 74 FD                          LD      (IX-03h),H
3439: 36 23                             LD      (HL),23h        ; '#'
343B: 23                                INC     HL
343C: 36 3A                             LD      (HL),3Ah        ; ':'
343E: DD 7E FA                          LD      A,(IX-06h)
3441: DD 77 FE                          LD      (IX-02h),A
3444: DD 7E FB                          LD      A,(IX-05h)
3447: DD 77 FF                          LD      (IX-01h),A
344A: DD 6E FC                   L344A: LD      L,(IX-04h)
344D: DD 66 FD                          LD      H,(IX-03h)
3450: 4E                                LD      C,(HL)
3451: 23                                INC     HL
3452: 46                                LD      B,(HL)
3453: 59                                LD      E,C
3454: 50                                LD      D,B
3455: 13                                INC     DE
3456: DD 6E FC                          LD      L,(IX-04h)
3459: DD 66 FD                          LD      H,(IX-03h)
345C: 73                                LD      (HL),E
345D: 23                                INC     HL
345E: 72                                LD      (HL),D
345F: 0A                                LD      A,(BC)
3460: 47                                LD      B,A
3461: B7                                OR      A
3462: CA 18 2F                          JP      Z,L2F18
3465: DD 6E 06                          LD      L,(IX+06h)
3468: DD 66 07                          LD      H,(IX+07h)
346B: E5                                PUSH    HL
346C: C5                                PUSH    BC
346D: 33                                INC     SP
346E: DD 6E 04                          LD      L,(IX+04h)
3471: DD 66 05                          LD      H,(IX+05h)
3474: CD AC 3D                          CALL    L3DAC
3477: F1                                POP     AF
3478: 33                                INC     SP
3479: DD 34 FE                          INC     (IX-02h)
347C: 20 03                             JR      NZ,L3481
347E: DD 34 FF                          INC     (IX-01h)
3481: DD 7E FE                   L3481: LD      A,(IX-02h)
3484: DD 77 FA                          LD      (IX-06h),A
3487: DD 7E FF                          LD      A,(IX-01h)
348A: DD 77 FB                          LD      (IX-05h),A
348D: 18 BB                             JR      L344A

348F: DD 7E F4                   L348F: LD      A,(IX-0Ch)
3492: B7                                OR      A
3493: CA 18 2F                          JP      Z,L2F18
3496: DD 7E E2                          LD      A,(IX-1Eh)
3499: DD 77 F8                          LD      (IX-08h),A
349C: DD 7E E3                          LD      A,(IX-1Dh)
349F: DD 77 F9                          LD      (IX-07h),A
34A2: DD CB F1 46                       BIT     0,(IX-0Fh)
34A6: CA 31 35                          JP      Z,L3531
34A9: 21 08 00                          LD      HL,0008h
34AC: 39                                ADD     HL,SP
34AD: DD 75 FE                          LD      (IX-02h),L
34B0: DD 74 FF                          LD      (IX-01h),H
34B3: DD 7E 0A                          LD      A,(IX+0Ah)
34B6: C6 01                             ADD     A,01h
34B8: DD 77 F5                          LD      (IX-0Bh),A
34BB: DD 7E 0B                          LD      A,(IX+0Bh)
34BE: CE 00                             ADC     A,00h
34C0: DD 77 F6                          LD      (IX-0Ah),A
34C3: DD 7E F5                          LD      A,(IX-0Bh)
34C6: DD 77 0A                          LD      (IX+0Ah),A
34C9: DD 7E F6                          LD      A,(IX-0Ah)
34CC: DD 77 0B                          LD      (IX+0Bh),A
34CF: DD 6E F5                          LD      L,(IX-0Bh)
34D2: DD 66 F6                          LD      H,(IX-0Ah)
34D5: 2B                                DEC     HL
34D6: 7E                                LD      A,(HL)
34D7: DD 77 F6                          LD      (IX-0Ah),A
34DA: DD 77 D1                          LD      (IX-2Fh),A
34DD: AF                                XOR     A
34DE: DD 77 D2                          LD      (IX-2Eh),A
34E1: DD 77 D3                          LD      (IX-2Dh),A
34E4: DD 77 D4                          LD      (IX-2Ch),A
34E7: DD 5E FE                          LD      E,(IX-02h)
34EA: DD 56 FF                          LD      D,(IX-01h)
34ED: 21 04 00                          LD      HL,0004h
34F0: 39                                ADD     HL,SP
34F1: 01 04 00                          LD      BC,0004h
34F4: ED B0                             LDIR
34F6: DD CB F0 46                       BIT     0,(IX-10h)
34FA: C2 30 36                          JP      NZ,L3630
34FD: DD 5E FE                          LD      E,(IX-02h)
3500: DD 56 FF                          LD      D,(IX-01h)
3503: 21 00 00                          LD      HL,0000h
3506: 39                                ADD     HL,SP
3507: EB                                EX      DE,HL
3508: 01 04 00                          LD      BC,0004h
350B: ED B0                             LDIR
350D: DD 7E CD                          LD      A,(IX-33h)
3510: DD 77 D1                          LD      (IX-2Fh),A
3513: DD 36 D2 00                       LD      (IX-2Eh),00h
3517: DD 36 D3 00                       LD      (IX-2Dh),00h
351B: DD 36 D4 00                       LD      (IX-2Ch),00h
351F: DD 5E FE                          LD      E,(IX-02h)
3522: DD 56 FF                          LD      D,(IX-01h)
3525: 21 04 00                          LD      HL,0004h
3528: 39                                ADD     HL,SP
3529: 01 04 00                          LD      BC,0004h
352C: ED B0                             LDIR
352E: C3 30 36                          JP      L3630

3531: DD CB F2 46                L3531: BIT     0,(IX-0Eh)
3535: 28 58                             JR      Z,L358F
3537: 21 08 00                          LD      HL,0008h
353A: 39                                ADD     HL,SP
353B: DD 75 F5                          LD      (IX-0Bh),L
353E: DD 74 F6                          LD      (IX-0Ah),H
3541: DD 7E 0A                          LD      A,(IX+0Ah)
3544: C6 04                             ADD     A,04h
3546: DD 77 F2                          LD      (IX-0Eh),A
3549: DD 7E 0B                          LD      A,(IX+0Bh)
354C: CE 00                             ADC     A,00h
354E: DD 77 F3                          LD      (IX-0Dh),A
3551: DD 7E F2                          LD      A,(IX-0Eh)
3554: DD 77 0A                          LD      (IX+0Ah),A
3557: DD 7E F3                          LD      A,(IX-0Dh)
355A: DD 77 0B                          LD      (IX+0Bh),A
355D: DD 7E F2                          LD      A,(IX-0Eh)
3560: C6 FC                             ADD     A,0FCh
3562: DD 77 FE                          LD      (IX-02h),A
3565: DD 7E F3                          LD      A,(IX-0Dh)
3568: CE FF                             ADC     A,0FFh
356A: DD 77 FF                          LD      (IX-01h),A
356D: DD 5E FE                          LD      E,(IX-02h)
3570: DD 56 FF                          LD      D,(IX-01h)
3573: 21 04 00                          LD      HL,0004h
3576: 39                                ADD     HL,SP
3577: EB                                EX      DE,HL
3578: 01 04 00                          LD      BC,0004h
357B: ED B0                             LDIR
357D: DD 5E F5                          LD      E,(IX-0Bh)
3580: DD 56 F6                          LD      D,(IX-0Ah)
3583: 21 04 00                          LD      HL,0004h
3586: 39                                ADD     HL,SP
3587: 01 04 00                          LD      BC,0004h
358A: ED B0                             LDIR
358C: C3 30 36                          JP      L3630

358F: 21 08 00                   L358F: LD      HL,0008h
3592: 39                                ADD     HL,SP
3593: DD 75 FE                          LD      (IX-02h),L
3596: DD 74 FF                          LD      (IX-01h),H
3599: DD 7E 0A                          LD      A,(IX+0Ah)
359C: C6 02                             ADD     A,02h
359E: DD 77 F2                          LD      (IX-0Eh),A
35A1: DD 7E 0B                          LD      A,(IX+0Bh)
35A4: CE 00                             ADC     A,00h
35A6: DD 77 F3                          LD      (IX-0Dh),A
35A9: DD 7E F2                          LD      A,(IX-0Eh)
35AC: DD 77 0A                          LD      (IX+0Ah),A
35AF: DD 7E F3                          LD      A,(IX-0Dh)
35B2: DD 77 0B                          LD      (IX+0Bh),A
35B5: DD 7E F2                          LD      A,(IX-0Eh)
35B8: C6 FE                             ADD     A,0FEh
35BA: DD 77 F5                          LD      (IX-0Bh),A
35BD: DD 7E F3                          LD      A,(IX-0Dh)
35C0: CE FF                             ADC     A,0FFh
35C2: DD 77 F6                          LD      (IX-0Ah),A
35C5: DD 6E F5                          LD      L,(IX-0Bh)
35C8: DD 66 F6                          LD      H,(IX-0Ah)
35CB: 7E                                LD      A,(HL)
35CC: DD 77 F5                          LD      (IX-0Bh),A
35CF: 23                                INC     HL
35D0: 7E                                LD      A,(HL)
35D1: DD 77 F6                          LD      (IX-0Ah),A
35D4: DD 7E F5                          LD      A,(IX-0Bh)
35D7: DD 77 D1                          LD      (IX-2Fh),A
35DA: DD 7E F6                          LD      A,(IX-0Ah)
35DD: DD 77 D2                          LD      (IX-2Eh),A
35E0: 17                                RLA
35E1: 9F                                SBC     A,A
35E2: DD 77 D3                          LD      (IX-2Dh),A
35E5: DD 77 D4                          LD      (IX-2Ch),A
35E8: DD 5E FE                          LD      E,(IX-02h)
35EB: DD 56 FF                          LD      D,(IX-01h)
35EE: 21 04 00                          LD      HL,0004h
35F1: 39                                ADD     HL,SP
35F2: 01 04 00                          LD      BC,0004h
35F5: ED B0                             LDIR
35F7: DD CB F0 46                       BIT     0,(IX-10h)
35FB: 20 33                             JR      NZ,L3630
35FD: DD 5E FE                          LD      E,(IX-02h)
3600: DD 56 FF                          LD      D,(IX-01h)
3603: 21 00 00                          LD      HL,0000h
3606: 39                                ADD     HL,SP
3607: EB                                EX      DE,HL
3608: 01 04 00                          LD      BC,0004h
360B: ED B0                             LDIR
360D: DD 7E CD                          LD      A,(IX-33h)
3610: DD 77 D1                          LD      (IX-2Fh),A
3613: DD 7E CE                          LD      A,(IX-32h)
3616: DD 77 D2                          LD      (IX-2Eh),A
3619: DD 36 D3 00                       LD      (IX-2Dh),00h
361D: DD 36 D4 00                       LD      (IX-2Ch),00h
3621: DD 5E FE                          LD      E,(IX-02h)
3624: DD 56 FF                          LD      D,(IX-01h)
3627: 21 04 00                          LD      HL,0004h
362A: 39                                ADD     HL,SP
362B: 01 04 00                          LD      BC,0004h
362E: ED B0                             LDIR
3630: DD CB F0 46                L3630: BIT     0,(IX-10h)
3634: 28 5F                             JR      Z,L3695
3636: 21 08 00                          LD      HL,0008h
3639: 39                                ADD     HL,SP
363A: DD 75 FE                          LD      (IX-02h),L
363D: DD 74 FF                          LD      (IX-01h),H
3640: EB                                EX      DE,HL
3641: 21 04 00                          LD      HL,0004h
3644: 39                                ADD     HL,SP
3645: EB                                EX      DE,HL
3646: 01 04 00                          LD      BC,0004h
3649: ED B0                             LDIR
364B: DD CB D4 7E                       BIT     7,(IX-2Ch)
364F: 28 40                             JR      Z,L3691
3651: DD 5E FE                          LD      E,(IX-02h)
3654: DD 56 FF                          LD      D,(IX-01h)
3657: 21 00 00                          LD      HL,0000h
365A: 39                                ADD     HL,SP
365B: EB                                EX      DE,HL
365C: 01 04 00                          LD      BC,0004h
365F: ED B0                             LDIR
3661: AF                                XOR     A
3662: DD 96 CD                          SUB     (IX-33h)
3665: DD 77 D1                          LD      (IX-2Fh),A
3668: 3E 00                             LD      A,00h
366A: DD 9E CE                          SBC     A,(IX-32h)
366D: DD 77 D2                          LD      (IX-2Eh),A
3670: 3E 00                             LD      A,00h
3672: DD 9E CF                          SBC     A,(IX-31h)
3675: DD 77 D3                          LD      (IX-2Dh),A
3678: 3E 00                             LD      A,00h
367A: DD 9E D0                          SBC     A,(IX-30h)
367D: DD 77 D4                          LD      (IX-2Ch),A
3680: DD 5E FE                          LD      E,(IX-02h)
3683: DD 56 FF                          LD      D,(IX-01h)
3686: 21 04 00                          LD      HL,0004h
3689: 39                                ADD     HL,SP
368A: 01 04 00                          LD      BC,0004h
368D: ED B0                             LDIR
368F: 18 04                             JR      L3695

3691: AF                         L3691: XOR     A
3692: DD 77 F0                          LD      (IX-10h),A
3695: DD 36 FF 01                L3695: LD      (IX-01h),01h
3699: DD 4E F8                          LD      C,(IX-08h)
369C: DD 46 F9                          LD      B,(IX-07h)
369F: AF                                XOR     A
36A0: DD 77 F8                          LD      (IX-08h),A
36A3: DD 77 F9                          LD      (IX-07h),A
36A6: 21 0C 00                   L36A6: LD      HL,000Ch
36A9: 39                                ADD     HL,SP
36AA: 36 00                             LD      (HL),00h
36AC: DD 5E E4                          LD      E,(IX-1Ch)
36AF: DD 56 E5                          LD      D,(IX-1Bh)
36B2: C5                                PUSH    BC
36B3: DD 7E F4                          LD      A,(IX-0Ch)
36B6: F5                                PUSH    AF
36B7: 33                                INC     SP
36B8: D5                                PUSH    DE
36B9: CD 2E 2E                          CALL    L2E2E
36BC: F1                                POP     AF
36BD: 33                                INC     SP
36BE: C1                                POP     BC
36BF: DD CB FF 46                       BIT     0,(IX-01h)
36C3: 20 21                             JR      NZ,L36E6
36C5: DD 6E E8                          LD      L,(IX-18h)
36C8: DD 66 E9                          LD      H,(IX-17h)
36CB: 7E                                LD      A,(HL)
36CC: 87                                ADD     A,A
36CD: 87                                ADD     A,A
36CE: 87                                ADD     A,A
36CF: 87                                ADD     A,A
36D0: 5F                                LD      E,A
36D1: DD 6E E8                          LD      L,(IX-18h)
36D4: DD 66 E9                          LD      H,(IX-17h)
36D7: 7E                                LD      A,(HL)
36D8: 07                                RLCA
36D9: 07                                RLCA
36DA: 07                                RLCA
36DB: 07                                RLCA
36DC: E6 0F                             AND     0Fh
36DE: B3                                OR      E
36DF: 5F                                LD      E,A
36E0: 0A                                LD      A,(BC)
36E1: B3                                OR      E
36E2: 02                                LD      (BC),A
36E3: 0B                                DEC     BC
36E4: 18 08                             JR      L36EE

36E6: DD 6E E6                   L36E6: LD      L,(IX-1Ah)
36E9: DD 66 E7                          LD      H,(IX-19h)
36EC: 7E                                LD      A,(HL)
36ED: 02                                LD      (BC),A
36EE: DD 34 F8                   L36EE: INC     (IX-08h)
36F1: 20 03                             JR      NZ,L36F6
36F3: DD 34 F9                          INC     (IX-07h)
36F6: DD 7E FF                   L36F6: LD      A,(IX-01h)
36F9: EE 01                             XOR     01h
36FB: DD 77 FF                          LD      (IX-01h),A
36FE: DD 6E E4                          LD      L,(IX-1Ch)
3701: DD 66 E5                          LD      H,(IX-1Bh)
3704: 5E                                LD      E,(HL)
3705: 23                                INC     HL
3706: 56                                LD      D,(HL)
3707: 23                                INC     HL
3708: 23                                INC     HL
3709: 7E                                LD      A,(HL)
370A: 2B                                DEC     HL
370B: 6E                                LD      L,(HL)
370C: B5                                OR      L
370D: B2                                OR      D
370E: B3                                OR      E
370F: 20 95                             JR      NZ,L36A6
3711: DD 71 F3                          LD      (IX-0Dh),C
3714: DD 70 F4                          LD      (IX-0Ch),B
3717: DD 7E F8                          LD      A,(IX-08h)
371A: DD 77 F5                          LD      (IX-0Bh),A
371D: DD 7E F9                          LD      A,(IX-07h)
3720: DD 77 F6                          LD      (IX-0Ah),A
3723: DD 7E FD                          LD      A,(IX-03h)
3726: DD B6 FC                          OR      (IX-04h)
3729: 20 08                             JR      NZ,L3733
372B: DD 36 FC 01                       LD      (IX-04h),01h
372F: AF                                XOR     A
3730: DD 77 FD                          LD      (IX-03h),A
3733: DD CB ED 46                L3733: BIT     0,(IX-13h)
3737: 20 6C                             JR      NZ,L37A5
3739: DD CB EC 46                       BIT     0,(IX-14h)
373D: 20 66                             JR      NZ,L37A5
373F: DD 7E FC                          LD      A,(IX-04h)
3742: DD 77 F8                          LD      (IX-08h),A
3745: DD 7E FD                          LD      A,(IX-03h)
3748: DD 77 F9                          LD      (IX-07h),A
374B: DD 7E F5                   L374B: LD      A,(IX-0Bh)
374E: DD 77 FE                          LD      (IX-02h),A
3751: DD 34 FE                          INC     (IX-02h)
3754: DD 7E FE                          LD      A,(IX-02h)
3757: DD 77 FD                          LD      (IX-03h),A
375A: AF                                XOR     A
375B: DD 77 FE                          LD      (IX-02h),A
375E: DD 7E FD                          LD      A,(IX-03h)
3761: DD 96 F8                          SUB     (IX-08h)
3764: DD 7E FE                          LD      A,(IX-02h)
3767: DD 9E F9                          SBC     A,(IX-07h)
376A: 30 2D                             JR      NC,L3799
376C: DD 6E 06                          LD      L,(IX+06h)
376F: DD 66 07                          LD      H,(IX+07h)
3772: E5                                PUSH    HL
3773: 3E 20                             LD      A,20h   ; ' '
3775: F5                                PUSH    AF
3776: 33                                INC     SP
3777: DD 6E 04                          LD      L,(IX+04h)
377A: DD 66 05                          LD      H,(IX+05h)
377D: CD AC 3D                          CALL    L3DAC
3780: F1                                POP     AF
3781: 33                                INC     SP
3782: DD 34 FA                          INC     (IX-06h)
3785: 20 03                             JR      NZ,L378A
3787: DD 34 FB                          INC     (IX-05h)
378A: DD 6E F8                   L378A: LD      L,(IX-08h)
378D: DD 66 F9                          LD      H,(IX-07h)
3790: 2B                                DEC     HL
3791: DD 75 F8                          LD      (IX-08h),L
3794: DD 74 F9                          LD      (IX-07h),H
3797: 18 B2                             JR      L374B

3799: DD 7E F8                   L3799: LD      A,(IX-08h)
379C: DD 77 FC                          LD      (IX-04h),A
379F: DD 7E F9                          LD      A,(IX-07h)
37A2: DD 77 FD                          LD      (IX-03h),A
37A5: DD CB F0 46                L37A5: BIT     0,(IX-10h)
37A9: 28 2D                             JR      Z,L37D8
37AB: DD 6E 06                          LD      L,(IX+06h)
37AE: DD 66 07                          LD      H,(IX+07h)
37B1: E5                                PUSH    HL
37B2: 3E 2D                             LD      A,2Dh   ; '-'
37B4: F5                                PUSH    AF
37B5: 33                                INC     SP
37B6: DD 6E 04                          LD      L,(IX+04h)
37B9: DD 66 05                          LD      H,(IX+05h)
37BC: CD AC 3D                          CALL    L3DAC
37BF: F1                                POP     AF
37C0: 33                                INC     SP
37C1: DD 34 FA                          INC     (IX-06h)
37C4: 20 03                             JR      NZ,L37C9
37C6: DD 34 FB                          INC     (IX-05h)
37C9: DD 6E FC                   L37C9: LD      L,(IX-04h)
37CC: DD 66 FD                          LD      H,(IX-03h)
37CF: 2B                                DEC     HL
37D0: DD 75 FC                          LD      (IX-04h),L
37D3: DD 74 FD                          LD      (IX-03h),H
37D6: 18 6C                             JR      L3844

37D8: DD 7E F6                   L37D8: LD      A,(IX-0Ah)
37DB: DD B6 F5                          OR      (IX-0Bh)
37DE: 28 64                             JR      Z,L3844
37E0: DD CB EE 46                       BIT     0,(IX-12h)
37E4: 28 2D                             JR      Z,L3813
37E6: DD 6E 06                          LD      L,(IX+06h)
37E9: DD 66 07                          LD      H,(IX+07h)
37EC: E5                                PUSH    HL
37ED: 3E 2B                             LD      A,2Bh   ; '+'
37EF: F5                                PUSH    AF
37F0: 33                                INC     SP
37F1: DD 6E 04                          LD      L,(IX+04h)
37F4: DD 66 05                          LD      H,(IX+05h)
37F7: CD AC 3D                          CALL    L3DAC
37FA: F1                                POP     AF
37FB: 33                                INC     SP
37FC: DD 34 FA                          INC     (IX-06h)
37FF: 20 03                             JR      NZ,L3804
3801: DD 34 FB                          INC     (IX-05h)
3804: DD 6E FC                   L3804: LD      L,(IX-04h)
3807: DD 66 FD                          LD      H,(IX-03h)
380A: 2B                                DEC     HL
380B: DD 75 FC                          LD      (IX-04h),L
380E: DD 74 FD                          LD      (IX-03h),H
3811: 18 31                             JR      L3844

3813: DD CB EF 46                L3813: BIT     0,(IX-11h)
3817: 28 2B                             JR      Z,L3844
3819: DD 6E 06                          LD      L,(IX+06h)
381C: DD 66 07                          LD      H,(IX+07h)
381F: E5                                PUSH    HL
3820: 3E 20                             LD      A,20h   ; ' '
3822: F5                                PUSH    AF
3823: 33                                INC     SP
3824: DD 6E 04                          LD      L,(IX+04h)
3827: DD 66 05                          LD      H,(IX+05h)
382A: CD AC 3D                          CALL    L3DAC
382D: F1                                POP     AF
382E: 33                                INC     SP
382F: DD 34 FA                          INC     (IX-06h)
3832: 20 03                             JR      NZ,L3837
3834: DD 34 FB                          INC     (IX-05h)
3837: DD 6E FC                   L3837: LD      L,(IX-04h)
383A: DD 66 FD                          LD      H,(IX-03h)
383D: 2B                                DEC     HL
383E: DD 75 FC                          LD      (IX-04h),L
3841: DD 74 FD                          LD      (IX-03h),H
3844: DD CB EC 46                L3844: BIT     0,(IX-14h)
3848: 20 62                             JR      NZ,L38AC
384A: DD 7E FC                          LD      A,(IX-04h)
384D: DD 77 F8                          LD      (IX-08h),A
3850: DD 7E FD                          LD      A,(IX-03h)
3853: DD 77 F9                          LD      (IX-07h),A
3856: DD 4E F8                   L3856: LD      C,(IX-08h)
3859: DD 46 F9                          LD      B,(IX-07h)
385C: DD 6E F8                          LD      L,(IX-08h)
385F: DD 66 F9                          LD      H,(IX-07h)
3862: 2B                                DEC     HL
3863: DD 75 F8                          LD      (IX-08h),L
3866: DD 74 F9                          LD      (IX-07h),H
3869: DD 7E F5                          LD      A,(IX-0Bh)
386C: 91                                SUB     C
386D: DD 7E F6                          LD      A,(IX-0Ah)
3870: 98                                SBC     A,B
3871: 30 62                             JR      NC,L38D5
3873: DD CB ED 46                       BIT     0,(IX-13h)
3877: 28 0A                             JR      Z,L3883
3879: DD 36 FD 30                       LD      (IX-03h),30h    ; '0'
387D: AF                                XOR     A
387E: DD 77 FE                          LD      (IX-02h),A
3881: 18 08                             JR      L388B

3883: DD 36 FD 20                L3883: LD      (IX-03h),20h    ; ' '
3887: AF                                XOR     A
3888: DD 77 FE                          LD      (IX-02h),A
388B: DD 46 FD                   L388B: LD      B,(IX-03h)
388E: DD 6E 06                          LD      L,(IX+06h)
3891: DD 66 07                          LD      H,(IX+07h)
3894: E5                                PUSH    HL
3895: C5                                PUSH    BC
3896: 33                                INC     SP
3897: DD 6E 04                          LD      L,(IX+04h)
389A: DD 66 05                          LD      H,(IX+05h)
389D: CD AC 3D                          CALL    L3DAC
38A0: F1                                POP     AF
38A1: 33                                INC     SP
38A2: DD 34 FA                          INC     (IX-06h)
38A5: 20 AF                             JR      NZ,L3856
38A7: DD 34 FB                          INC     (IX-05h)
38AA: 18 AA                             JR      L3856

38AC: DD 7E F5                   L38AC: LD      A,(IX-0Bh)
38AF: DD 96 FC                          SUB     (IX-04h)
38B2: DD 7E F6                          LD      A,(IX-0Ah)
38B5: DD 9E FD                          SBC     A,(IX-03h)
38B8: 30 14                             JR      NC,L38CE
38BA: DD 7E FC                          LD      A,(IX-04h)
38BD: DD 96 F5                          SUB     (IX-0Bh)
38C0: DD 77 F8                          LD      (IX-08h),A
38C3: DD 7E FD                          LD      A,(IX-03h)
38C6: DD 9E F6                          SBC     A,(IX-0Ah)
38C9: DD 77 F9                          LD      (IX-07h),A
38CC: 18 07                             JR      L38D5

38CE: AF                         L38CE: XOR     A
38CF: DD 77 F8                          LD      (IX-08h),A
38D2: DD 77 F9                          LD      (IX-07h),A
38D5: DD 7E F3                   L38D5: LD      A,(IX-0Dh)
38D8: DD 77 FD                          LD      (IX-03h),A
38DB: DD 7E F4                          LD      A,(IX-0Ch)
38DE: DD 77 FE                          LD      (IX-02h),A
38E1: DD 7E FA                          LD      A,(IX-06h)
38E4: DD 77 F3                          LD      (IX-0Dh),A
38E7: DD 7E FB                          LD      A,(IX-05h)
38EA: DD 77 F4                          LD      (IX-0Ch),A
38ED: DD 7E F5                          LD      A,(IX-0Bh)
38F0: DD 77 FB                          LD      (IX-05h),A
38F3: DD 7E F6                          LD      A,(IX-0Ah)
38F6: DD 77 FC                          LD      (IX-04h),A
38F9: DD 7E FB                   L38F9: LD      A,(IX-05h)
38FC: DD 77 F5                          LD      (IX-0Bh),A
38FF: DD 7E FC                          LD      A,(IX-04h)
3902: DD 77 F6                          LD      (IX-0Ah),A
3905: DD 6E FB                          LD      L,(IX-05h)
3908: DD 66 FC                          LD      H,(IX-04h)
390B: 2B                                DEC     HL
390C: DD 75 FB                          LD      (IX-05h),L
390F: DD 74 FC                          LD      (IX-04h),H
3912: DD 7E F6                          LD      A,(IX-0Ah)
3915: DD B6 F5                          OR      (IX-0Bh)
3918: 28 6C                             JR      Z,L3986
391A: DD 7E FF                          LD      A,(IX-01h)
391D: EE 01                             XOR     01h
391F: DD 77 FF                          LD      (IX-01h),A
3922: DD CB FF 46                       BIT     0,(IX-01h)
3926: 20 1E                             JR      NZ,L3946
3928: DD 34 FD                          INC     (IX-03h)
392B: 20 03                             JR      NZ,L3930
392D: DD 34 FE                          INC     (IX-02h)
3930: DD 6E FD                   L3930: LD      L,(IX-03h)
3933: DD 66 FE                          LD      H,(IX-02h)
3936: 7E                                LD      A,(HL)
3937: 07                                RLCA
3938: 07                                RLCA
3939: 07                                RLCA
393A: 07                                RLCA
393B: E6 0F                             AND     0Fh
393D: DD 6E E6                          LD      L,(IX-1Ah)
3940: DD 66 E7                          LD      H,(IX-19h)
3943: 77                                LD      (HL),A
3944: 18 10                             JR      L3956

3946: DD 6E FD                   L3946: LD      L,(IX-03h)
3949: DD 66 FE                          LD      H,(IX-02h)
394C: 7E                                LD      A,(HL)
394D: E6 0F                             AND     0Fh
394F: DD 6E E6                          LD      L,(IX-1Ah)
3952: DD 66 E7                          LD      H,(IX-19h)
3955: 77                                LD      (HL),A
3956: DD 6E EA                   L3956: LD      L,(IX-16h)
3959: DD 66 EB                          LD      H,(IX-15h)
395C: 46                                LD      B,(HL)
395D: DD 6E 06                          LD      L,(IX+06h)
3960: DD 66 07                          LD      H,(IX+07h)
3963: E5                                PUSH    HL
3964: DD 6E 04                          LD      L,(IX+04h)
3967: DD 66 05                          LD      H,(IX+05h)
396A: E5                                PUSH    HL
396B: DD 7E F7                          LD      A,(IX-09h)
396E: F5                                PUSH    AF
396F: 33                                INC     SP
3970: C5                                PUSH    BC
3971: 33                                INC     SP
3972: CD 98 2D                          CALL    L2D98
3975: 21 06 00                          LD      HL,0006h
3978: 39                                ADD     HL,SP
3979: F9                                LD      SP,HL
397A: DD 34 F3                          INC     (IX-0Dh)
397D: C2 F9 38                          JP      NZ,L38F9
3980: DD 34 F4                          INC     (IX-0Ch)
3983: C3 F9 38                          JP      L38F9

3986: DD 7E F3                   L3986: LD      A,(IX-0Dh)
3989: DD 77 FA                          LD      (IX-06h),A
398C: DD 7E F4                          LD      A,(IX-0Ch)
398F: DD 77 FB                          LD      (IX-05h),A
3992: DD CB EC 46                       BIT     0,(IX-14h)
3996: CA 18 2F                          JP      Z,L2F18
3999: DD 7E F3                          LD      A,(IX-0Dh)
399C: DD 77 FE                          LD      (IX-02h),A
399F: DD 7E F4                          LD      A,(IX-0Ch)
39A2: DD 77 FF                          LD      (IX-01h),A
39A5: DD 7E F8                          LD      A,(IX-08h)
39A8: DD 77 FC                          LD      (IX-04h),A
39AB: DD 7E F9                          LD      A,(IX-07h)
39AE: DD 77 FD                          LD      (IX-03h),A
39B1: DD 4E FC                   L39B1: LD      C,(IX-04h)
39B4: DD 46 FD                          LD      B,(IX-03h)
39B7: DD 6E FC                          LD      L,(IX-04h)
39BA: DD 66 FD                          LD      H,(IX-03h)
39BD: 2B                                DEC     HL
39BE: DD 75 FC                          LD      (IX-04h),L
39C1: DD 74 FD                          LD      (IX-03h),H
39C4: 78                                LD      A,B
39C5: B1                                OR      C
39C6: CA 18 2F                          JP      Z,L2F18
39C9: DD 6E 06                          LD      L,(IX+06h)
39CC: DD 66 07                          LD      H,(IX+07h)
39CF: E5                                PUSH    HL
39D0: 3E 20                             LD      A,20h   ; ' '
39D2: F5                                PUSH    AF
39D3: 33                                INC     SP
39D4: DD 6E 04                          LD      L,(IX+04h)
39D7: DD 66 05                          LD      H,(IX+05h)
39DA: CD AC 3D                          CALL    L3DAC
39DD: F1                                POP     AF
39DE: 33                                INC     SP
39DF: DD 34 FE                          INC     (IX-02h)
39E2: 20 03                             JR      NZ,L39E7
39E4: DD 34 FF                          INC     (IX-01h)
39E7: DD 7E FE                   L39E7: LD      A,(IX-02h)
39EA: DD 77 FA                          LD      (IX-06h),A
39ED: DD 7E FF                          LD      A,(IX-01h)
39F0: DD 77 FB                          LD      (IX-05h),A
39F3: 18 BC                             JR      L39B1

39F5: DD 6E 06                   L39F5: LD      L,(IX+06h)
39F8: DD 66 07                          LD      H,(IX+07h)
39FB: E5                                PUSH    HL
39FC: DD 7E FF                          LD      A,(IX-01h)
39FF: F5                                PUSH    AF
3A00: 33                                INC     SP
3A01: DD 6E 04                          LD      L,(IX+04h)
3A04: DD 66 05                          LD      H,(IX+05h)
3A07: CD AC 3D                          CALL    L3DAC
3A0A: F1                                POP     AF
3A0B: 33                                INC     SP
3A0C: DD 34 FA                          INC     (IX-06h)
3A0F: C2 18 2F                          JP      NZ,L2F18
3A12: DD 34 FB                          INC     (IX-05h)
3A15: C3 18 2F                          JP      L2F18

3A18: DD 6E FA                   L3A18: LD      L,(IX-06h)
3A1B: DD 66 FB                          LD      H,(IX-05h)
3A1E: DD F9                             LD      SP,IX
3A20: DD E1                             POP     IX
3A22: C9                                RET

3A23: 3C 4E 4F 20 46 4C 4F 41    L3A23: DB      "<NO FLOAT>"
3A2B: 54 3E
3A2D: 00                                DB      00h

                                        ; --- START PROC L3A2E ---
3A2E: F1                         L3A2E: POP     AF
3A2F: C1                                POP     BC
3A30: D1                                POP     DE
3A31: D5                                PUSH    DE
3A32: C5                                PUSH    BC
3A33: F5                                PUSH    AF
3A34: AF                                XOR     A
3A35: 6F                                LD      L,A
3A36: B0                                OR      B
3A37: 06 10                             LD      B,10h
3A39: 20 04                             JR      NZ,L3A3F
3A3B: 06 08                             LD      B,08h
3A3D: 79                                LD      A,C
3A3E: 29                         L3A3E: ADD     HL,HL
3A3F: CB 11                      L3A3F: RL      C
3A41: 17                                RLA
3A42: 30 01                             JR      NC,L3A45
3A44: 19                                ADD     HL,DE
3A45: 10 F7                      L3A45: DJNZ    L3A3E
3A47: C9                                RET

                                        ; --- START PROC L3A48 ---
3A48: CD CD 13                   L3A48: CALL    L13CD
3A4B: 21 F6 FF                          LD      HL,0FFF6h
3A4E: 39                                ADD     HL,SP
3A4F: F9                                LD      SP,HL
3A50: 21 FF FF                          LD      HL,0FFFFh
3A53: E3                                EX      (SP),HL
3A54: DD 7E 04                          LD      A,(IX+04h)
3A57: DD 77 F8                          LD      (IX-08h),A
3A5A: DD 7E 05                          LD      A,(IX+05h)
3A5D: DD 77 F9                          LD      (IX-07h),A
3A60: DD 6E F8                          LD      L,(IX-08h)
3A63: DD 66 F9                          LD      H,(IX-07h)
3A66: 7E                                LD      A,(HL)
3A67: DD 77 FE                          LD      (IX-02h),A
3A6A: 23                                INC     HL
3A6B: 7E                                LD      A,(HL)
3A6C: DD 77 FF                          LD      (IX-01h),A
3A6F: DD 5E FE                          LD      E,(IX-02h)
3A72: DD 56 FF                          LD      D,(IX-01h)
3A75: 7A                                LD      A,D
3A76: B3                                OR      E
3A77: 20 06                             JR      NZ,L3A7F
3A79: 21 FF FF                          LD      HL,0FFFFh
3A7C: C3 18 3B                          JP      L3B18

3A7F: DD 6E FE                   L3A7F: LD      L,(IX-02h)
3A82: DD 66 FF                          LD      H,(IX-01h)
3A85: 7E                                LD      A,(HL)
3A86: DD 34 FE                          INC     (IX-02h)
3A89: 20 03                             JR      NZ,L3A8E
3A8B: DD 34 FF                          INC     (IX-01h)
3A8E: 6F                         L3A8E: LD      L,A
3A8F: 06 00                             LD      B,00h
3A91: D6 3A                             SUB     3Ah     ; ':'
3A93: 3E 01                             LD      A,01h
3A95: 28 01                             JR      Z,L3A98
3A97: AF                                XOR     A
3A98: 4F                         L3A98: LD      C,A
3A99: 7D                                LD      A,L
3A9A: D6 21                             SUB     21h     ; '!'
3A9C: 78                                LD      A,B
3A9D: DE 00                             SBC     A,00h
3A9F: 38 04                             JR      C,L3AA5
3AA1: CB 41                             BIT     0,C
3AA3: 28 DA                             JR      Z,L3A7F
3AA5: DD 7E FE                   L3AA5: LD      A,(IX-02h)
3AA8: DD 77 FA                          LD      (IX-06h),A
3AAB: DD 7E FF                          LD      A,(IX-01h)
3AAE: DD 77 FB                          LD      (IX-05h),A
3AB1: 79                                LD      A,C
3AB2: B7                                OR      A
3AB3: 28 5A                             JR      Z,L3B0F
3AB5: DD 36 FC 01                       LD      (IX-04h),01h
3AB9: AF                                XOR     A
3ABA: DD 77 FD                          LD      (IX-03h),A
3ABD: 1A                                LD      A,(DE)
3ABE: 4F                                LD      C,A
3ABF: D6 30                             SUB     30h     ; '0'
3AC1: 38 20                             JR      C,L3AE3
3AC3: 3E 39                             LD      A,39h   ; '9'
3AC5: 91                                SUB     C
3AC6: 38 1B                             JR      C,L3AE3
3AC8: 13                                INC     DE
3AC9: 13                                INC     DE
3ACA: DD 6E FE                          LD      L,(IX-02h)
3ACD: DD 66 FF                          LD      H,(IX-01h)
3AD0: BF                                CP      A
3AD1: ED 52                             SBC     HL,DE
3AD3: 20 0E                             JR      NZ,L3AE3
3AD5: 06 00                             LD      B,00h
3AD7: 79                                LD      A,C
3AD8: C6 D0                             ADD     A,0D0h
3ADA: DD 77 FC                          LD      (IX-04h),A
3ADD: 78                                LD      A,B
3ADE: CE FF                             ADC     A,0FFh
3AE0: DD 77 FD                          LD      (IX-03h),A
3AE3: DD 7E FC                   L3AE3: LD      A,(IX-04h)
3AE6: D6 01                             SUB     01h
3AE8: DD 7E FD                          LD      A,(IX-03h)
3AEB: 17                                RLA
3AEC: 3F                                CCF
3AED: 1F                                RRA
3AEE: DE 80                             SBC     A,80h
3AF0: 30 19                             JR      NC,L3B0B
3AF2: DD 7E FC                          LD      A,(IX-04h)
3AF5: DD 77 F6                          LD      (IX-0Ah),A
3AF8: DD 7E FD                          LD      A,(IX-03h)
3AFB: DD 77 F7                          LD      (IX-09h),A
3AFE: C1                                POP     BC
3AFF: E1                                POP     HL
3B00: E5                                PUSH    HL
3B01: C5                                PUSH    BC
3B02: DD 7E FA                          LD      A,(IX-06h)
3B05: 77                                LD      (HL),A
3B06: 23                                INC     HL
3B07: DD 7E FB                          LD      A,(IX-05h)
3B0A: 77                                LD      (HL),A
3B0B: E1                         L3B0B: POP     HL
3B0C: E5                                PUSH    HL
3B0D: 18 09                             JR      L3B18

3B0F: FD 21 B7 F2                L3B0F: LD      IY,0F2B7h
3B13: FD 6E 00                          LD      L,(IY+00h)
3B16: 26 00                             LD      H,00h
3B18: DD F9                      L3B18: LD      SP,IX
3B1A: DD E1                             POP     IX
3B1C: C9                                RET

                                        ; --- START PROC L3B1D ---
3B1D: CD CD 13                   L3B1D: CALL    L13CD
3B20: F5                                PUSH    AF
3B21: F5                                PUSH    AF
3B22: F5                                PUSH    AF
3B23: 3B                                DEC     SP
3B24: DD 4E 04                          LD      C,(IX+04h)
3B27: DD 46 05                          LD      B,(IX+05h)
3B2A: 0A                                LD      A,(BC)
3B2B: DD 77 F9                          LD      (IX-07h),A
3B2E: 03                                INC     BC
3B2F: 0A                                LD      A,(BC)
3B30: DD 77 FA                          LD      (IX-06h),A
3B33: 0B                                DEC     BC
3B34: C5                                PUSH    BC
3B35: 21 00 00                          LD      HL,0000h
3B38: E5                                PUSH    HL
3B39: 21 00 00                          LD      HL,0000h
3B3C: E5                                PUSH    HL
3B3D: C5                                PUSH    BC
3B3E: CD C2 42                          CALL    L42C2
3B41: F1                                POP     AF
3B42: F1                                POP     AF
3B43: F1                                POP     AF
3B44: C1                                POP     BC
3B45: 7D                                LD      A,L
3B46: B7                                OR      A
3B47: C2 F5 3B                          JP      NZ,L3BF5
3B4A: DD 71 FB                          LD      (IX-05h),C
3B4D: DD 70 FC                          LD      (IX-04h),B
3B50: DD 71 FD                          LD      (IX-03h),C
3B53: DD 70 FE                          LD      (IX-02h),B
3B56: DD 6E FD                   L3B56: LD      L,(IX-03h)
3B59: DD 66 FE                          LD      H,(IX-02h)
3B5C: 11 16 00                          LD      DE,0016h
3B5F: 19                                ADD     HL,DE
3B60: 4E                                LD      C,(HL)
3B61: 23                                INC     HL
3B62: 46                                LD      B,(HL)
3B63: 23                                INC     HL
3B64: 5E                                LD      E,(HL)
3B65: 23                                INC     HL
3B66: 56                                LD      D,(HL)
3B67: D5                                PUSH    DE
3B68: C5                                PUSH    BC
3B69: DD 6E F9                          LD      L,(IX-07h)
3B6C: DD 66 FA                          LD      H,(IX-06h)
3B6F: E5                                PUSH    HL
3B70: CD DD 22                          CALL    L22DD
3B73: F1                                POP     AF
3B74: F1                                POP     AF
3B75: F1                                POP     AF
3B76: DD 75 FF                          LD      (IX-01h),L
3B79: 7D                                LD      A,L
3B7A: B7                                OR      A
3B7B: 20 75                             JR      NZ,L3BF2
3B7D: DD 7E FB                          LD      A,(IX-05h)
3B80: C6 1A                             ADD     A,1Ah
3B82: 4F                                LD      C,A
3B83: DD 7E FC                          LD      A,(IX-04h)
3B86: CE 00                             ADC     A,00h
3B88: 47                                LD      B,A
3B89: 69                                LD      L,C
3B8A: 60                                LD      H,B
3B8B: 7E                                LD      A,(HL)
3B8C: 23                                INC     HL
3B8D: 66                                LD      H,(HL)
3B8E: 6F                                LD      L,A
3B8F: 7E                                LD      A,(HL)
3B90: B7                                OR      A
3B91: 20 06                             JR      NZ,L3B99
3B93: DD 36 FF 04                       LD      (IX-01h),04h
3B97: 18 59                             JR      L3BF2

3B99: DD 7E FB                   L3B99: LD      A,(IX-05h)
3B9C: C6 04                             ADD     A,04h
3B9E: 5F                                LD      E,A
3B9F: DD 7E FC                          LD      A,(IX-04h)
3BA2: CE 00                             ADC     A,00h
3BA4: 57                                LD      D,A
3BA5: C5                                PUSH    BC
3BA6: 01 0B 00                          LD      BC,000Bh
3BA9: 09                                ADD     HL,BC
3BAA: C1                                POP     BC
3BAB: 7E                                LD      A,(HL)
3BAC: E6 3F                             AND     3Fh     ; '?'
3BAE: 12                                LD      (DE),A
3BAF: 69                                LD      L,C
3BB0: 60                                LD      H,B
3BB1: 4E                                LD      C,(HL)
3BB2: 23                                INC     HL
3BB3: 46                                LD      B,(HL)
3BB4: 69                                LD      L,C
3BB5: 60                                LD      H,B
3BB6: 11 0B 00                          LD      DE,000Bh
3BB9: 19                                ADD     HL,DE
3BBA: CB 5E                             BIT     3,(HL)
3BBC: 20 1C                             JR      NZ,L3BDA
3BBE: DD 7E FB                          LD      A,(IX-05h)
3BC1: C6 1C                             ADD     A,1Ch
3BC3: 5F                                LD      E,A
3BC4: DD 7E FC                          LD      A,(IX-04h)
3BC7: CE 00                             ADC     A,00h
3BC9: 57                                LD      D,A
3BCA: 21 0B 00                          LD      HL,000Bh
3BCD: E5                                PUSH    HL
3BCE: D5                                PUSH    DE
3BCF: C5                                PUSH    BC
3BD0: CD 73 42                          CALL    L4273
3BD3: F1                                POP     AF
3BD4: F1                                POP     AF
3BD5: F1                                POP     AF
3BD6: 7C                                LD      A,H
3BD7: B5                                OR      L
3BD8: 28 18                             JR      Z,L3BF2
3BDA: 21 00 00                   L3BDA: LD      HL,0000h
3BDD: E5                                PUSH    HL
3BDE: DD 6E FB                          LD      L,(IX-05h)
3BE1: DD 66 FC                          LD      H,(IX-04h)
3BE4: E5                                PUSH    HL
3BE5: CD 50 3F                          CALL    L3F50
3BE8: F1                                POP     AF
3BE9: F1                                POP     AF
3BEA: DD 75 FF                          LD      (IX-01h),L
3BED: 7D                                LD      A,L
3BEE: B7                                OR      A
3BEF: CA 56 3B                          JP      Z,L3B56
3BF2: DD 6E FF                   L3BF2: LD      L,(IX-01h)
3BF5: DD F9                      L3BF5: LD      SP,IX
3BF7: DD E1                             POP     IX
3BF9: C9                                RET

                                        ; --- START PROC L3BFA ---
3BFA: CD CD 13                   L3BFA: CALL    L13CD
3BFD: DD 4E 04                          LD      C,(IX+04h)
3C00: DD 46 05                          LD      B,(IX+05h)
3C03: DD 7E 06                          LD      A,(IX+06h)
3C06: 02                                LD      (BC),A
3C07: 03                                INC     BC
3C08: DD 71 04                          LD      (IX+04h),C
3C0B: DD 70 05                          LD      (IX+05h),B
3C0E: DD 7E 07                          LD      A,(IX+07h)
3C11: DD 77 06                          LD      (IX+06h),A
3C14: DD 36 07 00                       LD      (IX+07h),00h
3C18: DD 4E 04                          LD      C,(IX+04h)
3C1B: DD 46 05                          LD      B,(IX+05h)
3C1E: DD 7E 06                          LD      A,(IX+06h)
3C21: 02                                LD      (BC),A
3C22: DD E1                             POP     IX
3C24: C9                                RET

                                        ; --- START PROC L3C25 ---
3C25: CD CD 13                   L3C25: CALL    L13CD
3C28: 21 F6 FF                          LD      HL,0FFF6h
3C2B: 39                                ADD     HL,SP
3C2C: F9                                LD      SP,HL
3C2D: 21 00 00                          LD      HL,0000h
3C30: 39                                ADD     HL,SP
3C31: DD 5E 04                          LD      E,(IX+04h)
3C34: DD 56 05                          LD      D,(IX+05h)
3C37: D5                                PUSH    DE
3C38: E5                                PUSH    HL
3C39: D5                                PUSH    DE
3C3A: CD ED 10                          CALL    L10ED
3C3D: F1                                POP     AF
3C3E: F1                                POP     AF
3C3F: 7D                                LD      A,L
3C40: D1                                POP     DE
3C41: 4F                                LD      C,A
3C42: B7                                OR      A
3C43: C2 A6 3D                          JP      NZ,L3DA6
3C46: 21 0E 00                          LD      HL,000Eh
3C49: 19                                ADD     HL,DE
3C4A: DD 75 F8                          LD      (IX-08h),L
3C4D: DD 74 F9                          LD      (IX-07h),H
3C50: 7E                                LD      A,(HL)
3C51: CB 77                             BIT     6,A
3C53: CA A6 3D                          JP      Z,L3DA6
3C56: 07                                RLCA
3C57: 30 66                             JR      NC,L3CBF
3C59: 6B                                LD      L,E
3C5A: 62                                LD      H,D
3C5B: 01 18 00                          LD      BC,0018h
3C5E: 09                                ADD     HL,BC
3C5F: 7E                                LD      A,(HL)
3C60: DD 77 FA                          LD      (IX-06h),A
3C63: 23                                INC     HL
3C64: 7E                                LD      A,(HL)
3C65: DD 77 FB                          LD      (IX-05h),A
3C68: 23                                INC     HL
3C69: 7E                                LD      A,(HL)
3C6A: DD 77 FC                          LD      (IX-04h),A
3C6D: 23                                INC     HL
3C6E: 7E                                LD      A,(HL)
3C6F: DD 77 FD                          LD      (IX-03h),A
3C72: 21 22 00                          LD      HL,0022h
3C75: 19                                ADD     HL,DE
3C76: DD 75 FE                          LD      (IX-02h),L
3C79: DD 74 FF                          LD      (IX-01h),H
3C7C: E1                                POP     HL
3C7D: E5                                PUSH    HL
3C7E: 23                                INC     HL
3C7F: 46                                LD      B,(HL)
3C80: D5                                PUSH    DE
3C81: 21 01 00                          LD      HL,0001h
3C84: E5                                PUSH    HL
3C85: DD 6E FC                          LD      L,(IX-04h)
3C88: DD 66 FD                          LD      H,(IX-03h)
3C8B: E5                                PUSH    HL
3C8C: DD 6E FA                          LD      L,(IX-06h)
3C8F: DD 66 FB                          LD      H,(IX-05h)
3C92: E5                                PUSH    HL
3C93: DD 6E FE                          LD      L,(IX-02h)
3C96: DD 66 FF                          LD      H,(IX-01h)
3C99: E5                                PUSH    HL
3C9A: C5                                PUSH    BC
3C9B: 33                                INC     SP
3C9C: CD 78 03                          CALL    L0378
3C9F: FD 21 09 00                       LD      IY,0009h
3CA3: FD 39                             ADD     IY,SP
3CA5: FD F9                             LD      SP,IY
3CA7: 7D                                LD      A,L
3CA8: D1                                POP     DE
3CA9: B7                                OR      A
3CAA: 28 05                             JR      Z,L3CB1
3CAC: 2E 01                             LD      L,01h
3CAE: C3 A7 3D                          JP      L3DA7

3CB1: DD 6E F8                   L3CB1: LD      L,(IX-08h)
3CB4: DD 66 F9                          LD      H,(IX-07h)
3CB7: 7E                                LD      A,(HL)
3CB8: CB BF                             RES     7,A
3CBA: C1                                POP     BC
3CBB: E1                                POP     HL
3CBC: E5                                PUSH    HL
3CBD: C5                                PUSH    BC
3CBE: 77                                LD      (HL),A
3CBF: 6B                         L3CBF: LD      L,E
3CC0: 62                                LD      H,D
3CC1: 01 1C 00                          LD      BC,001Ch
3CC4: 09                                ADD     HL,BC
3CC5: 4E                                LD      C,(HL)
3CC6: 23                                INC     HL
3CC7: 46                                LD      B,(HL)
3CC8: 23                                INC     HL
3CC9: 23                                INC     HL
3CCA: 7E                                LD      A,(HL)
3CCB: 2B                                DEC     HL
3CCC: 6E                                LD      L,(HL)
3CCD: 67                                LD      H,A
3CCE: D5                                PUSH    DE
3CCF: E5                                PUSH    HL
3CD0: C5                                PUSH    BC
3CD1: DD 6E F6                          LD      L,(IX-0Ah)
3CD4: DD 66 F7                          LD      H,(IX-09h)
3CD7: E5                                PUSH    HL
3CD8: CD DD 22                          CALL    L22DD
3CDB: F1                                POP     AF
3CDC: F1                                POP     AF
3CDD: F1                                POP     AF
3CDE: 7D                                LD      A,L
3CDF: D1                                POP     DE
3CE0: 4F                                LD      C,A
3CE1: B7                                OR      A
3CE2: C2 A6 3D                          JP      NZ,L3DA6
3CE5: 6B                                LD      L,E
3CE6: 62                                LD      H,D
3CE7: 01 20 00                          LD      BC,0020h
3CEA: 09                                ADD     HL,BC
3CEB: 4E                                LD      C,(HL)
3CEC: 23                                INC     HL
3CED: 46                                LD      B,(HL)
3CEE: 21 0B 00                          LD      HL,000Bh
3CF1: 09                                ADD     HL,BC
3CF2: CB EE                             SET     5,(HL)
3CF4: 6B                                LD      L,E
3CF5: 62                                LD      H,D
3CF6: C5                                PUSH    BC
3CF7: 01 06 00                          LD      BC,0006h
3CFA: 09                                ADD     HL,BC
3CFB: C1                                POP     BC
3CFC: 7E                                LD      A,(HL)
3CFD: DD 77 FA                          LD      (IX-06h),A
3D00: 23                                INC     HL
3D01: 7E                                LD      A,(HL)
3D02: DD 77 FB                          LD      (IX-05h),A
3D05: 23                                INC     HL
3D06: 7E                                LD      A,(HL)
3D07: DD 77 FC                          LD      (IX-04h),A
3D0A: 23                                INC     HL
3D0B: 7E                                LD      A,(HL)
3D0C: DD 77 FD                          LD      (IX-03h),A
3D0F: 1A                                LD      A,(DE)
3D10: DD 77 FE                          LD      (IX-02h),A
3D13: 13                                INC     DE
3D14: 1A                                LD      A,(DE)
3D15: DD 77 FF                          LD      (IX-01h),A
3D18: 1B                                DEC     DE
3D19: C5                                PUSH    BC
3D1A: D5                                PUSH    DE
3D1B: DD 6E FC                          LD      L,(IX-04h)
3D1E: DD 66 FD                          LD      H,(IX-03h)
3D21: E5                                PUSH    HL
3D22: DD 6E FA                          LD      L,(IX-06h)
3D25: DD 66 FB                          LD      H,(IX-05h)
3D28: E5                                PUSH    HL
3D29: C5                                PUSH    BC
3D2A: DD 6E FE                          LD      L,(IX-02h)
3D2D: DD 66 FF                          LD      H,(IX-01h)
3D30: E5                                PUSH    HL
3D31: CD 74 25                          CALL    L2574
3D34: F1                                POP     AF
3D35: F1                                POP     AF
3D36: F1                                POP     AF
3D37: F1                                POP     AF
3D38: D1                                POP     DE
3D39: C1                                POP     BC
3D3A: EB                                EX      DE,HL
3D3B: 11 0A 00                          LD      DE,000Ah
3D3E: 19                                ADD     HL,DE
3D3F: 5E                                LD      E,(HL)
3D40: 23                                INC     HL
3D41: 56                                LD      D,(HL)
3D42: 23                                INC     HL
3D43: 23                                INC     HL
3D44: 7E                                LD      A,(HL)
3D45: 2B                                DEC     HL
3D46: 6E                                LD      L,(HL)
3D47: 67                                LD      H,A
3D48: 79                                LD      A,C
3D49: C6 1C                             ADD     A,1Ch
3D4B: DD 77 FE                          LD      (IX-02h),A
3D4E: 78                                LD      A,B
3D4F: CE 00                             ADC     A,00h
3D51: DD 77 FF                          LD      (IX-01h),A
3D54: C5                                PUSH    BC
3D55: E5                                PUSH    HL
3D56: D5                                PUSH    DE
3D57: DD 6E FE                          LD      L,(IX-02h)
3D5A: DD 66 FF                          LD      H,(IX-01h)
3D5D: E5                                PUSH    HL
3D5E: CD 51 19                          CALL    L1951
3D61: F1                                POP     AF
3D62: F1                                POP     AF
3D63: F1                                POP     AF
3D64: C1                                POP     BC
3D65: 21 16 00                          LD      HL,0016h
3D68: 09                                ADD     HL,BC
3D69: EB                                EX      DE,HL
3D6A: C5                                PUSH    BC
3D6B: 21 21 50                          LD      HL,5021h
3D6E: E5                                PUSH    HL
3D6F: 21 00 00                          LD      HL,0000h
3D72: E5                                PUSH    HL
3D73: D5                                PUSH    DE
3D74: CD 51 19                          CALL    L1951
3D77: F1                                POP     AF
3D78: F1                                POP     AF
3D79: F1                                POP     AF
3D7A: C1                                POP     BC
3D7B: 21 12 00                          LD      HL,0012h
3D7E: 09                                ADD     HL,BC
3D7F: 01 00 00                          LD      BC,0000h
3D82: C5                                PUSH    BC
3D83: E5                                PUSH    HL
3D84: CD FA 3B                          CALL    L3BFA
3D87: F1                                POP     AF
3D88: F1                                POP     AF
3D89: E1                                POP     HL
3D8A: E5                                PUSH    HL
3D8B: 23                                INC     HL
3D8C: 23                                INC     HL
3D8D: 23                                INC     HL
3D8E: 36 01                             LD      (HL),01h
3D90: E1                                POP     HL
3D91: E5                                PUSH    HL
3D92: E5                                PUSH    HL
3D93: CD 63 47                          CALL    L4763
3D96: F1                                POP     AF
3D97: 4D                                LD      C,L
3D98: DD 6E F8                          LD      L,(IX-08h)
3D9B: DD 66 F9                          LD      H,(IX-07h)
3D9E: 7E                                LD      A,(HL)
3D9F: CB B7                             RES     6,A
3DA1: D1                                POP     DE
3DA2: E1                                POP     HL
3DA3: E5                                PUSH    HL
3DA4: D5                                PUSH    DE
3DA5: 77                                LD      (HL),A
3DA6: 69                         L3DA6: LD      L,C
3DA7: DD F9                      L3DA7: LD      SP,IX
3DA9: DD E1                             POP     IX
3DAB: C9                                RET

                                        ; --- START PROC L3DAC ---
3DAC: E9                         L3DAC: JP      (HL)

                                        ; --- START PROC L3DAD ---
3DAD: CD CD 13                   L3DAD: CALL    L13CD
3DB0: 21 FF 12                          LD      HL,12FFh
3DB3: DD 7E 04                          LD      A,(IX+04h)
3DB6: 96                                SUB     (HL)
3DB7: 38 39                             JR      C,L3DF2
3DB9: 3A 00 13                          LD      A,(L1300)
3DBC: DD 96 04                          SUB     (IX+04h)
3DBF: 38 05                             JR      C,L3DC6
3DC1: 21 01 00                          LD      HL,0001h
3DC4: 18 2F                             JR      L3DF5

3DC6: 21 01 13                   L3DC6: LD      HL,1301h
3DC9: DD 7E 04                          LD      A,(IX+04h)
3DCC: 96                                SUB     (HL)
3DCD: 38 0D                             JR      C,L3DDC
3DCF: 3A 02 13                          LD      A,(L1302)
3DD2: DD 96 04                          SUB     (IX+04h)
3DD5: 38 05                             JR      C,L3DDC
3DD7: 21 01 00                          LD      HL,0001h
3DDA: 18 19                             JR      L3DF5

3DDC: 21 03 13                   L3DDC: LD      HL,1303h
3DDF: DD 7E 04                          LD      A,(IX+04h)
3DE2: 96                                SUB     (HL)
3DE3: 38 0D                             JR      C,L3DF2
3DE5: 3A 04 13                          LD      A,(L1304)
3DE8: DD 96 04                          SUB     (IX+04h)
3DEB: 38 05                             JR      C,L3DF2
3DED: 21 01 00                          LD      HL,0001h
3DF0: 18 03                             JR      L3DF5

3DF2: 21 00 00                   L3DF2: LD      HL,0000h
3DF5: DD E1                      L3DF5: POP     IX
3DF7: C9                                RET

                                        ; --- START PROC L3DF8 ---
3DF8: D1                         L3DF8: POP     DE
3DF9: C1                                POP     BC
3DFA: C5                                PUSH    BC
3DFB: D5                                PUSH    DE
3DFC: 0A                         L3DFC: LD      A,(BC)
3DFD: 5F                                LD      E,A
3DFE: 16 00                             LD      D,00h
3E00: B7                                OR      A
3E01: 28 14                             JR      Z,L3E17
3E03: FD 21 04 00                       LD      IY,0004h
3E07: FD 39                             ADD     IY,SP
3E09: FD 6E 00                          LD      L,(IY+00h)
3E0C: FD 66 01                          LD      H,(IY+01h)
3E0F: BF                                CP      A
3E10: ED 52                             SBC     HL,DE
3E12: 28 03                             JR      Z,L3E17
3E14: 03                                INC     BC
3E15: 18 E5                             JR      L3DFC

3E17: EB                         L3E17: EX      DE,HL
3E18: C9                                RET

                                        ; --- START PROC L3E19 ---
3E19: CD CD 13                   L3E19: CALL    L13CD
3E1C: 21 E6 FF                          LD      HL,0FFE6h
3E1F: 39                                ADD     HL,SP
3E20: F9                                LD      SP,HL
3E21: 21 00 00                          LD      HL,0000h
3E24: E5                                PUSH    HL
3E25: 21 00 00                          LD      HL,0000h
3E28: E5                                PUSH    HL
3E29: DD 6E 04                          LD      L,(IX+04h)
3E2C: DD 66 05                          LD      H,(IX+05h)
3E2F: E5                                PUSH    HL
3E30: CD 36 49                          CALL    L4936
3E33: F1                                POP     AF
3E34: F1                                POP     AF
3E35: F1                                POP     AF
3E36: 7D                                LD      A,L
3E37: D6 02                             SUB     02h
3E39: B4                                OR      H
3E3A: 28 12                             JR      Z,L3E4E
3E3C: 7D                                LD      A,L
3E3D: D6 03                             SUB     03h
3E3F: 7C                                LD      A,H
3E40: DE 00                             SBC     A,00h
3E42: D2 4B 3F                          JP      NC,L3F4B
3E45: DD 7E 07                          LD      A,(IX+07h)
3E48: DD B6 06                          OR      (IX+06h)
3E4B: CA 4B 3F                          JP      Z,L3F4B
3E4E: 21 00 00                   L3E4E: LD      HL,0000h
3E51: 39                                ADD     HL,SP
3E52: 4D                                LD      C,L
3E53: 44                                LD      B,H
3E54: DD 7E 04                          LD      A,(IX+04h)
3E57: DD 77 F6                          LD      (IX-0Ah),A
3E5A: DD 7E 05                          LD      A,(IX+05h)
3E5D: DD 77 F7                          LD      (IX-09h),A
3E60: DD 7E F6                          LD      A,(IX-0Ah)
3E63: C6 33                             ADD     A,33h   ; '3'
3E65: DD 77 F8                          LD      (IX-08h),A
3E68: DD 7E F7                          LD      A,(IX-09h)
3E6B: CE 00                             ADC     A,00h
3E6D: DD 77 F9                          LD      (IX-07h),A
3E70: 11 00 00                          LD      DE,0000h
3E73: 6B                         L3E73: LD      L,E
3E74: 62                                LD      H,D
3E75: 29                                ADD     HL,HL
3E76: 29                                ADD     HL,HL
3E77: 09                                ADD     HL,BC
3E78: DD 75 FA                          LD      (IX-06h),L
3E7B: DD 74 FB                          LD      (IX-05h),H
3E7E: 6B                                LD      L,E
3E7F: 62                                LD      H,D
3E80: 29                                ADD     HL,HL
3E81: 29                                ADD     HL,HL
3E82: 29                                ADD     HL,HL
3E83: 29                                ADD     HL,HL
3E84: D5                                PUSH    DE
3E85: 11 C6 01                          LD      DE,01C6h
3E88: 19                                ADD     HL,DE
3E89: D1                                POP     DE
3E8A: 7D                                LD      A,L
3E8B: DD 86 F8                          ADD     A,(IX-08h)
3E8E: 6F                                LD      L,A
3E8F: 7C                                LD      A,H
3E90: DD 8E F9                          ADC     A,(IX-07h)
3E93: 67                                LD      H,A
3E94: C5                                PUSH    BC
3E95: D5                                PUSH    DE
3E96: E5                                PUSH    HL
3E97: CD 75 11                          CALL    L1175
3E9A: F1                                POP     AF
3E9B: DD 75 FC                          LD      (IX-04h),L
3E9E: DD 74 FD                          LD      (IX-03h),H
3EA1: DD 73 FE                          LD      (IX-02h),E
3EA4: DD 72 FF                          LD      (IX-01h),D
3EA7: D1                                POP     DE
3EA8: C1                                POP     BC
3EA9: D5                                PUSH    DE
3EAA: C5                                PUSH    BC
3EAB: DD 5E FA                          LD      E,(IX-06h)
3EAE: DD 56 FB                          LD      D,(IX-05h)
3EB1: 21 1A 00                          LD      HL,001Ah
3EB4: 39                                ADD     HL,SP
3EB5: 01 04 00                          LD      BC,0004h
3EB8: ED B0                             LDIR
3EBA: C1                                POP     BC
3EBB: D1                                POP     DE
3EBC: 13                                INC     DE
3EBD: 7B                                LD      A,E
3EBE: D6 04                             SUB     04h
3EC0: 7A                                LD      A,D
3EC1: DE 00                             SBC     A,00h
3EC3: 38 AE                             JR      C,L3E73
3EC5: DD 7E 07                          LD      A,(IX+07h)
3EC8: DD B6 06                          OR      (IX+06h)
3ECB: 28 09                             JR      Z,L3ED6
3ECD: DD 5E 06                          LD      E,(IX+06h)
3ED0: DD 56 07                          LD      D,(IX+07h)
3ED3: 1B                                DEC     DE
3ED4: 18 03                             JR      L3ED9

3ED6: 11 00 00                   L3ED6: LD      DE,0000h
3ED9: DD 73 FE                   L3ED9: LD      (IX-02h),E
3EDC: DD 72 FF                          LD      (IX-01h),D
3EDF: DD 6E FE                   L3EDF: LD      L,(IX-02h)
3EE2: DD 66 FF                          LD      H,(IX-01h)
3EE5: 29                                ADD     HL,HL
3EE6: 29                                ADD     HL,HL
3EE7: 09                                ADD     HL,BC
3EE8: EB                                EX      DE,HL
3EE9: C5                                PUSH    BC
3EEA: 21 16 00                          LD      HL,0016h
3EED: 39                                ADD     HL,SP
3EEE: EB                                EX      DE,HL
3EEF: 01 04 00                          LD      BC,0004h
3EF2: ED B0                             LDIR
3EF4: C1                                POP     BC
3EF5: DD 7E FD                          LD      A,(IX-03h)
3EF8: DD B6 FC                          OR      (IX-04h)
3EFB: DD B6 FB                          OR      (IX-05h)
3EFE: DD B6 FA                          OR      (IX-06h)
3F01: 28 20                             JR      Z,L3F23
3F03: C5                                PUSH    BC
3F04: DD 6E FC                          LD      L,(IX-04h)
3F07: DD 66 FD                          LD      H,(IX-03h)
3F0A: E5                                PUSH    HL
3F0B: DD 6E FA                          LD      L,(IX-06h)
3F0E: DD 66 FB                          LD      H,(IX-05h)
3F11: E5                                PUSH    HL
3F12: DD 6E F6                          LD      L,(IX-0Ah)
3F15: DD 66 F7                          LD      H,(IX-09h)
3F18: E5                                PUSH    HL
3F19: CD 36 49                          CALL    L4936
3F1C: F1                                POP     AF
3F1D: F1                                POP     AF
3F1E: F1                                POP     AF
3F1F: C1                                POP     BC
3F20: EB                                EX      DE,HL
3F21: 18 03                             JR      L3F26

3F23: 11 03 00                   L3F23: LD      DE,0003h
3F26: DD 7E 07                   L3F26: LD      A,(IX+07h)
3F29: DD B6 06                          OR      (IX+06h)
3F2C: 20 1C                             JR      NZ,L3F4A
3F2E: 7B                                LD      A,E
3F2F: D6 02                             SUB     02h
3F31: 7A                                LD      A,D
3F32: DE 00                             SBC     A,00h
3F34: 38 14                             JR      C,L3F4A
3F36: DD 34 FE                          INC     (IX-02h)
3F39: 20 03                             JR      NZ,L3F3E
3F3B: DD 34 FF                          INC     (IX-01h)
3F3E: DD 7E FE                   L3F3E: LD      A,(IX-02h)
3F41: D6 04                             SUB     04h
3F43: DD 7E FF                          LD      A,(IX-01h)
3F46: DE 00                             SBC     A,00h
3F48: 38 95                             JR      C,L3EDF
3F4A: EB                         L3F4A: EX      DE,HL
3F4B: DD F9                      L3F4B: LD      SP,IX
3F4D: DD E1                             POP     IX
3F4F: C9                                RET

                                        ; --- START PROC L3F50 ---
3F50: CD CD 13                   L3F50: CALL    L13CD
3F53: 21 E6 FF                          LD      HL,0FFE6h
3F56: 39                                ADD     HL,SP
3F57: F9                                LD      SP,HL
3F58: DD 7E 04                          LD      A,(IX+04h)
3F5B: DD 77 E6                          LD      (IX-1Ah),A
3F5E: DD 7E 05                          LD      A,(IX+05h)
3F61: DD 77 E7                          LD      (IX-19h),A
3F64: E1                                POP     HL
3F65: E5                                PUSH    HL
3F66: 7E                                LD      A,(HL)
3F67: DD 77 E8                          LD      (IX-18h),A
3F6A: 23                                INC     HL
3F6B: 7E                                LD      A,(HL)
3F6C: DD 77 E9                          LD      (IX-17h),A
3F6F: DD 7E E6                          LD      A,(IX-1Ah)
3F72: C6 0E                             ADD     A,0Eh
3F74: DD 77 EA                          LD      (IX-16h),A
3F77: DD 7E E7                          LD      A,(IX-19h)
3F7A: CE 00                             ADC     A,00h
3F7C: DD 77 EB                          LD      (IX-15h),A
3F7F: DD 6E EA                          LD      L,(IX-16h)
3F82: DD 66 EB                          LD      H,(IX-15h)
3F85: 5E                                LD      E,(HL)
3F86: 23                                INC     HL
3F87: 56                                LD      D,(HL)
3F88: 23                                INC     HL
3F89: 23                                INC     HL
3F8A: 7E                                LD      A,(HL)
3F8B: 2B                                DEC     HL
3F8C: 6E                                LD      L,(HL)
3F8D: 67                                LD      H,A
3F8E: 7B                                LD      A,E
3F8F: C6 20                             ADD     A,20h   ; ' '
3F91: DD 77 EC                          LD      (IX-14h),A
3F94: 7A                                LD      A,D
3F95: CE 00                             ADC     A,00h
3F97: DD 77 ED                          LD      (IX-13h),A
3F9A: 7D                                LD      A,L
3F9B: CE 00                             ADC     A,00h
3F9D: DD 77 EE                          LD      (IX-12h),A
3FA0: 7C                                LD      A,H
3FA1: CE 00                             ADC     A,00h
3FA3: DD 77 EF                          LD      (IX-11h),A
3FA6: DD 7E E6                          LD      A,(IX-1Ah)
3FA9: C6 16                             ADD     A,16h
3FAB: DD 77 F0                          LD      (IX-10h),A
3FAE: DD 7E E7                          LD      A,(IX-19h)
3FB1: CE 00                             ADC     A,00h
3FB3: DD 77 F1                          LD      (IX-0Fh),A
3FB6: DD 7E EE                          LD      A,(IX-12h)
3FB9: D6 20                             SUB     20h     ; ' '
3FBB: DD 7E EF                          LD      A,(IX-11h)
3FBE: DE 00                             SBC     A,00h
3FC0: 38 0E                             JR      C,L3FD0
3FC2: DD 6E F0                          LD      L,(IX-10h)
3FC5: DD 66 F1                          LD      H,(IX-0Fh)
3FC8: AF                                XOR     A
3FC9: 77                                LD      (HL),A
3FCA: 23                                INC     HL
3FCB: 77                                LD      (HL),A
3FCC: 23                                INC     HL
3FCD: 77                                LD      (HL),A
3FCE: 23                                INC     HL
3FCF: 77                                LD      (HL),A
3FD0: DD 5E F0                   L3FD0: LD      E,(IX-10h)
3FD3: DD 56 F1                          LD      D,(IX-0Fh)
3FD6: 21 16 00                          LD      HL,0016h
3FD9: 39                                ADD     HL,SP
3FDA: EB                                EX      DE,HL
3FDB: 01 04 00                          LD      BC,0004h
3FDE: ED B0                             LDIR
3FE0: DD 7E FF                          LD      A,(IX-01h)
3FE3: DD B6 FE                          OR      (IX-02h)
3FE6: DD B6 FD                          OR      (IX-03h)
3FE9: DD B6 FC                          OR      (IX-04h)
3FEC: 20 05                             JR      NZ,L3FF3
3FEE: 2E 04                             LD      L,04h
3FF0: C3 6E 42                          JP      L426E

3FF3: DD 7E EC                   L3FF3: LD      A,(IX-14h)
3FF6: DD 77 F2                          LD      (IX-0Eh),A
3FF9: DD 7E ED                          LD      A,(IX-13h)
3FFC: E6 01                             AND     01h
3FFE: DD 77 F3                          LD      (IX-0Dh),A
4001: DD 36 F4 00                       LD      (IX-0Ch),00h
4005: DD 36 F5 00                       LD      (IX-0Bh),00h
4009: 3E 00                             LD      A,00h
400B: DD B6 F4                          OR      (IX-0Ch)
400E: DD B6 F3                          OR      (IX-0Dh)
4011: DD B6 F2                          OR      (IX-0Eh)
4014: C2 1C 42                          JP      NZ,L421C
4017: DD 7E FC                          LD      A,(IX-04h)
401A: C6 01                             ADD     A,01h
401C: 4F                                LD      C,A
401D: DD 7E FD                          LD      A,(IX-03h)
4020: CE 00                             ADC     A,00h
4022: 47                                LD      B,A
4023: DD 7E FE                          LD      A,(IX-02h)
4026: CE 00                             ADC     A,00h
4028: 5F                                LD      E,A
4029: DD 7E FF                          LD      A,(IX-01h)
402C: CE 00                             ADC     A,00h
402E: 57                                LD      D,A
402F: DD 6E F0                          LD      L,(IX-10h)
4032: DD 66 F1                          LD      H,(IX-0Fh)
4035: 71                                LD      (HL),C
4036: 23                                INC     HL
4037: 70                                LD      (HL),B
4038: 23                                INC     HL
4039: 73                                LD      (HL),E
403A: 23                                INC     HL
403B: 72                                LD      (HL),D
403C: DD 7E E6                          LD      A,(IX-1Ah)
403F: C6 12                             ADD     A,12h
4041: DD 77 F6                          LD      (IX-0Ah),A
4044: DD 7E E7                          LD      A,(IX-19h)
4047: CE 00                             ADC     A,00h
4049: DD 77 F7                          LD      (IX-09h),A
404C: DD 5E F6                          LD      E,(IX-0Ah)
404F: DD 56 F7                          LD      D,(IX-09h)
4052: 21 12 00                          LD      HL,0012h
4055: 39                                ADD     HL,SP
4056: EB                                EX      DE,HL
4057: 01 04 00                          LD      BC,0004h
405A: ED B0                             LDIR
405C: DD 7E FB                          LD      A,(IX-05h)
405F: DD B6 FA                          OR      (IX-06h)
4062: DD B6 F9                          OR      (IX-07h)
4065: DD B6 F8                          OR      (IX-08h)
4068: 20 5B                             JR      NZ,L40C5
406A: DD 4E EC                          LD      C,(IX-14h)
406D: DD 46 ED                          LD      B,(IX-13h)
4070: DD 5E EE                          LD      E,(IX-12h)
4073: DD 56 EF                          LD      D,(IX-11h)
4076: 3E 05                             LD      A,05h
4078: CB 3A                      L4078: SRL     D
407A: CB 1B                             RR      E
407C: CB 18                             RR      B
407E: CB 19                             RR      C
4080: 3D                                DEC     A
4081: 20 F5                             JR      NZ,L4078
4083: DD 6E E8                          LD      L,(IX-18h)
4086: DD 66 E9                          LD      H,(IX-17h)
4089: C5                                PUSH    BC
408A: 01 07 00                          LD      BC,0007h
408D: 09                                ADD     HL,BC
408E: C1                                POP     BC
408F: 7E                                LD      A,(HL)
4090: 23                                INC     HL
4091: 66                                LD      H,(HL)
4092: DD 77 FC                          LD      (IX-04h),A
4095: DD 74 FD                          LD      (IX-03h),H
4098: AF                                XOR     A
4099: DD 77 FE                          LD      (IX-02h),A
409C: DD 77 FF                          LD      (IX-01h),A
409F: 79                                LD      A,C
40A0: DD 96 FC                          SUB     (IX-04h)
40A3: 78                                LD      A,B
40A4: DD 9E FD                          SBC     A,(IX-03h)
40A7: 7B                                LD      A,E
40A8: DD 9E FE                          SBC     A,(IX-02h)
40AB: 7A                                LD      A,D
40AC: DD 9E FF                          SBC     A,(IX-01h)
40AF: DA 1C 42                          JP      C,L421C
40B2: DD 6E F0                          LD      L,(IX-10h)
40B5: DD 66 F1                          LD      H,(IX-0Fh)
40B8: AF                                XOR     A
40B9: 77                                LD      (HL),A
40BA: 23                                INC     HL
40BB: 77                                LD      (HL),A
40BC: 23                                INC     HL
40BD: 77                                LD      (HL),A
40BE: 23                                INC     HL
40BF: 77                                LD      (HL),A
40C0: 2E 04                             LD      L,04h
40C2: C3 6E 42                          JP      L426E

40C5: DD 4E ED                   L40C5: LD      C,(IX-13h)
40C8: DD 46 EE                          LD      B,(IX-12h)
40CB: DD 5E EF                          LD      E,(IX-11h)
40CE: 16 00                             LD      D,00h
40D0: CB 3B                             SRL     E
40D2: CB 18                             RR      B
40D4: CB 19                             RR      C
40D6: DD 6E E8                          LD      L,(IX-18h)
40D9: DD 66 E9                          LD      H,(IX-17h)
40DC: C5                                PUSH    BC
40DD: 01 0A 00                          LD      BC,000Ah
40E0: 09                                ADD     HL,BC
40E1: C1                                POP     BC
40E2: 7E                                LD      A,(HL)
40E3: 2B                                DEC     HL
40E4: 6E                                LD      L,(HL)
40E5: 67                                LD      H,A
40E6: 2B                                DEC     HL
40E7: DD 75 FC                          LD      (IX-04h),L
40EA: DD 74 FD                          LD      (IX-03h),H
40ED: AF                                XOR     A
40EE: DD 77 FE                          LD      (IX-02h),A
40F1: DD 77 FF                          LD      (IX-01h),A
40F4: 79                                LD      A,C
40F5: DD A6 FC                          AND     (IX-04h)
40F8: 4F                                LD      C,A
40F9: 78                                LD      A,B
40FA: DD A6 FD                          AND     (IX-03h)
40FD: 47                                LD      B,A
40FE: 7B                                LD      A,E
40FF: DD A6 FE                          AND     (IX-02h)
4102: 5F                                LD      E,A
4103: 7A                                LD      A,D
4104: DD A6 FF                          AND     (IX-01h)
4107: B3                                OR      E
4108: B0                                OR      B
4109: B1                                OR      C
410A: C2 1C 42                          JP      NZ,L421C
410D: DD 6E FA                          LD      L,(IX-06h)
4110: DD 66 FB                          LD      H,(IX-05h)
4113: E5                                PUSH    HL
4114: DD 6E F8                          LD      L,(IX-08h)
4117: DD 66 F9                          LD      H,(IX-07h)
411A: E5                                PUSH    HL
411B: DD 6E E6                          LD      L,(IX-1Ah)
411E: DD 66 E7                          LD      H,(IX-19h)
4121: E5                                PUSH    HL
4122: CD 46 14                          CALL    L1446
4125: F1                                POP     AF
4126: F1                                POP     AF
4127: F1                                POP     AF
4128: 4D                                LD      C,L
4129: 44                                LD      B,H
412A: 3E 01                             LD      A,01h
412C: B9                                CP      C
412D: 3E 00                             LD      A,00h
412F: 98                                SBC     A,B
4130: 21 00 00                          LD      HL,0000h
4133: ED 52                             SBC     HL,DE
4135: 38 05                             JR      C,L413C
4137: 2E 02                             LD      L,02h
4139: C3 6E 42                          JP      L426E

413C: 79                         L413C: LD      A,C
413D: A0                                AND     B
413E: A3                                AND     E
413F: A2                                AND     D
4140: 3C                                INC     A
4141: 20 05                             JR      NZ,L4148
4143: 2E 01                             LD      L,01h
4145: C3 6E 42                          JP      L426E

4148: DD 6E E8                   L4148: LD      L,(IX-18h)
414B: DD 66 E9                          LD      H,(IX-17h)
414E: C5                                PUSH    BC
414F: 01 17 00                          LD      BC,0017h
4152: 09                                ADD     HL,BC
4153: C1                                POP     BC
4154: 7E                                LD      A,(HL)
4155: DD 77 FC                          LD      (IX-04h),A
4158: 23                                INC     HL
4159: 7E                                LD      A,(HL)
415A: DD 77 FD                          LD      (IX-03h),A
415D: 23                                INC     HL
415E: 7E                                LD      A,(HL)
415F: DD 77 FE                          LD      (IX-02h),A
4162: 23                                INC     HL
4163: 7E                                LD      A,(HL)
4164: DD 77 FF                          LD      (IX-01h),A
4167: 79                                LD      A,C
4168: DD 96 FC                          SUB     (IX-04h)
416B: 78                                LD      A,B
416C: DD 9E FD                          SBC     A,(IX-03h)
416F: 7B                                LD      A,E
4170: DD 9E FE                          SBC     A,(IX-02h)
4173: 7A                                LD      A,D
4174: DD 9E FF                          SBC     A,(IX-01h)
4177: 38 78                             JR      C,L41F1
4179: DD 7E 07                          LD      A,(IX+07h)
417C: DD B6 06                          OR      (IX+06h)
417F: 20 13                             JR      NZ,L4194
4181: DD 6E F0                          LD      L,(IX-10h)
4184: DD 66 F1                          LD      H,(IX-0Fh)
4187: AF                                XOR     A
4188: 77                                LD      (HL),A
4189: 23                                INC     HL
418A: 77                                LD      (HL),A
418B: 23                                INC     HL
418C: 77                                LD      (HL),A
418D: 23                                INC     HL
418E: 77                                LD      (HL),A
418F: 2E 04                             LD      L,04h
4191: C3 6E 42                          JP      L426E

4194: DD 6E F6                   L4194: LD      L,(IX-0Ah)
4197: DD 66 F7                          LD      H,(IX-09h)
419A: 4E                                LD      C,(HL)
419B: 23                                INC     HL
419C: 46                                LD      B,(HL)
419D: 23                                INC     HL
419E: 5E                                LD      E,(HL)
419F: 23                                INC     HL
41A0: 56                                LD      D,(HL)
41A1: D5                                PUSH    DE
41A2: C5                                PUSH    BC
41A3: DD 6E E6                          LD      L,(IX-1Ah)
41A6: DD 66 E7                          LD      H,(IX-19h)
41A9: E5                                PUSH    HL
41AA: CD FC 49                          CALL    L49FC
41AD: F1                                POP     AF
41AE: F1                                POP     AF
41AF: F1                                POP     AF
41B0: 4D                                LD      C,L
41B1: 44                                LD      B,H
41B2: 7A                                LD      A,D
41B3: B3                                OR      E
41B4: B0                                OR      B
41B5: B1                                OR      C
41B6: 20 05                             JR      NZ,L41BD
41B8: 2E 07                             LD      L,07h
41BA: C3 6E 42                          JP      L426E

41BD: 79                         L41BD: LD      A,C
41BE: 3D                                DEC     A
41BF: B0                                OR      B
41C0: B3                                OR      E
41C1: B2                                OR      D
41C2: 20 05                             JR      NZ,L41C9
41C4: 2E 02                             LD      L,02h
41C6: C3 6E 42                          JP      L426E

41C9: 79                         L41C9: LD      A,C
41CA: A0                                AND     B
41CB: A3                                AND     E
41CC: A2                                AND     D
41CD: 3C                                INC     A
41CE: 20 05                             JR      NZ,L41D5
41D0: 2E 01                             LD      L,01h
41D2: C3 6E 42                          JP      L426E

41D5: C5                         L41D5: PUSH    BC
41D6: D5                                PUSH    DE
41D7: D5                                PUSH    DE
41D8: C5                                PUSH    BC
41D9: DD 6E E8                          LD      L,(IX-18h)
41DC: DD 66 E9                          LD      H,(IX-17h)
41DF: E5                                PUSH    HL
41E0: CD 26 46                          CALL    L4626
41E3: F1                                POP     AF
41E4: F1                                POP     AF
41E5: F1                                POP     AF
41E6: 7D                                LD      A,L
41E7: D1                                POP     DE
41E8: C1                                POP     BC
41E9: B7                                OR      A
41EA: 28 05                             JR      Z,L41F1
41EC: 2E 01                             LD      L,01h
41EE: C3 6E 42                          JP      L426E

41F1: DD 6E F6                   L41F1: LD      L,(IX-0Ah)
41F4: DD 66 F7                          LD      H,(IX-09h)
41F7: 71                                LD      (HL),C
41F8: 23                                INC     HL
41F9: 70                                LD      (HL),B
41FA: 23                                INC     HL
41FB: 73                                LD      (HL),E
41FC: 23                                INC     HL
41FD: 72                                LD      (HL),D
41FE: D5                                PUSH    DE
41FF: C5                                PUSH    BC
4200: DD 6E E8                          LD      L,(IX-18h)
4203: DD 66 E9                          LD      H,(IX-17h)
4206: E5                                PUSH    HL
4207: CD 06 13                          CALL    L1306
420A: F1                                POP     AF
420B: F1                                POP     AF
420C: F1                                POP     AF
420D: 4D                                LD      C,L
420E: 44                                LD      B,H
420F: DD 6E F0                          LD      L,(IX-10h)
4212: DD 66 F1                          LD      H,(IX-0Fh)
4215: 71                                LD      (HL),C
4216: 23                                INC     HL
4217: 70                                LD      (HL),B
4218: 23                                INC     HL
4219: 73                                LD      (HL),E
421A: 23                                INC     HL
421B: 72                                LD      (HL),D
421C: DD 5E EA                   L421C: LD      E,(IX-16h)
421F: DD 56 EB                          LD      D,(IX-15h)
4222: 21 06 00                          LD      HL,0006h
4225: 39                                ADD     HL,SP
4226: 01 04 00                          LD      BC,0004h
4229: ED B0                             LDIR
422B: DD 7E E6                          LD      A,(IX-1Ah)
422E: C6 1A                             ADD     A,1Ah
4230: DD 77 FE                          LD      (IX-02h),A
4233: DD 7E E7                          LD      A,(IX-19h)
4236: CE 00                             ADC     A,00h
4238: DD 77 FF                          LD      (IX-01h),A
423B: DD 7E E8                          LD      A,(IX-18h)
423E: C6 33                             ADD     A,33h   ; '3'
4240: DD 77 FC                          LD      (IX-04h),A
4243: DD 7E E9                          LD      A,(IX-17h)
4246: CE 00                             ADC     A,00h
4248: DD 77 FD                          LD      (IX-03h),A
424B: DD 7E FC                          LD      A,(IX-04h)
424E: DD 86 F2                          ADD     A,(IX-0Eh)
4251: DD 77 FA                          LD      (IX-06h),A
4254: DD 7E FD                          LD      A,(IX-03h)
4257: DD 8E F3                          ADC     A,(IX-0Dh)
425A: DD 77 FB                          LD      (IX-05h),A
425D: DD 6E FE                          LD      L,(IX-02h)
4260: DD 66 FF                          LD      H,(IX-01h)
4263: DD 7E FA                          LD      A,(IX-06h)
4266: 77                                LD      (HL),A
4267: 23                                INC     HL
4268: DD 7E FB                          LD      A,(IX-05h)
426B: 77                                LD      (HL),A
426C: 2E 00                             LD      L,00h
426E: DD F9                      L426E: LD      SP,IX
4270: DD E1                             POP     IX
4272: C9                                RET

                                        ; --- START PROC L4273 ---
4273: CD CD 13                   L4273: CALL    L13CD
4276: F5                                PUSH    AF
4277: F5                                PUSH    AF
4278: DD 4E 04                          LD      C,(IX+04h)
427B: DD 46 05                          LD      B,(IX+05h)
427E: DD 7E 06                          LD      A,(IX+06h)
4281: DD 77 FE                          LD      (IX-02h),A
4284: DD 7E 07                          LD      A,(IX+07h)
4287: DD 77 FF                          LD      (IX-01h),A
428A: DD 5E 08                          LD      E,(IX+08h)
428D: DD 56 09                          LD      D,(IX+09h)
4290: 0A                         L4290: LD      A,(BC)
4291: 03                                INC     BC
4292: DD 77 FC                          LD      (IX-04h),A
4295: AF                                XOR     A
4296: DD 77 FD                          LD      (IX-03h),A
4299: DD 6E FE                          LD      L,(IX-02h)
429C: DD 66 FF                          LD      H,(IX-01h)
429F: 6E                                LD      L,(HL)
42A0: DD 34 FE                          INC     (IX-02h)
42A3: 20 03                             JR      NZ,L42A8
42A5: DD 34 FF                          INC     (IX-01h)
42A8: 26 00                      L42A8: LD      H,00h
42AA: DD 7E FC                          LD      A,(IX-04h)
42AD: 95                                SUB     L
42AE: 6F                                LD      L,A
42AF: DD 7E FD                          LD      A,(IX-03h)
42B2: 9C                                SBC     A,H
42B3: 67                                LD      H,A
42B4: 1B                                DEC     DE
42B5: 7A                                LD      A,D
42B6: B3                                OR      E
42B7: 28 04                             JR      Z,L42BD
42B9: 7C                                LD      A,H
42BA: B5                                OR      L
42BB: 28 D3                             JR      Z,L4290
42BD: DD F9                      L42BD: LD      SP,IX
42BF: DD E1                             POP     IX
42C1: C9                                RET

                                        ; --- START PROC L42C2 ---
42C2: CD CD 13                   L42C2: CALL    L13CD
42C5: 21 EE FF                          LD      HL,0FFEEh
42C8: 39                                ADD     HL,SP
42C9: F9                                LD      SP,HL
42CA: DD 7E 04                          LD      A,(IX+04h)
42CD: DD 77 EE                          LD      (IX-12h),A
42D0: DD 7E 05                          LD      A,(IX+05h)
42D3: DD 77 EF                          LD      (IX-11h),A
42D6: DD 7E EE                          LD      A,(IX-12h)
42D9: DD 77 F0                          LD      (IX-10h),A
42DC: DD 7E EF                          LD      A,(IX-11h)
42DF: DD 77 F1                          LD      (IX-0Fh),A
42E2: E1                                POP     HL
42E3: E5                                PUSH    HL
42E4: 7E                                LD      A,(HL)
42E5: DD 77 F2                          LD      (IX-0Eh),A
42E8: 23                                INC     HL
42E9: 7E                                LD      A,(HL)
42EA: DD 77 F3                          LD      (IX-0Dh),A
42ED: DD 7E 08                          LD      A,(IX+08h)
42F0: D6 20                             SUB     20h     ; ' '
42F2: DD 7E 09                          LD      A,(IX+09h)
42F5: DE 00                             SBC     A,00h
42F7: 30 07                             JR      NC,L4300
42F9: DD 7E 06                          LD      A,(IX+06h)
42FC: E6 1F                             AND     1Fh
42FE: 28 05                             JR      Z,L4305
4300: 2E 02                      L4300: LD      L,02h
4302: C3 E5 45                          JP      L45E5

4305: DD 7E EE                   L4305: LD      A,(IX-12h)
4308: C6 0E                             ADD     A,0Eh
430A: 5F                                LD      E,A
430B: DD 7E EF                          LD      A,(IX-11h)
430E: CE 00                             ADC     A,00h
4310: 57                                LD      D,A
4311: 21 18 00                          LD      HL,0018h
4314: 39                                ADD     HL,SP
4315: 01 04 00                          LD      BC,0004h
4318: ED B0                             LDIR
431A: DD 7E EE                          LD      A,(IX-12h)
431D: DD 77 FE                          LD      (IX-02h),A
4320: DD 7E EF                          LD      A,(IX-11h)
4323: DD 77 FF                          LD      (IX-01h),A
4326: DD 6E FE                          LD      L,(IX-02h)
4329: DD 66 FF                          LD      H,(IX-01h)
432C: 11 06 00                          LD      DE,0006h
432F: 19                                ADD     HL,DE
4330: 7E                                LD      A,(HL)
4331: DD 77 F4                          LD      (IX-0Ch),A
4334: 23                                INC     HL
4335: 7E                                LD      A,(HL)
4336: DD 77 F5                          LD      (IX-0Bh),A
4339: 23                                INC     HL
433A: 7E                                LD      A,(HL)
433B: DD 77 F6                          LD      (IX-0Ah),A
433E: 23                                INC     HL
433F: 7E                                LD      A,(HL)
4340: DD 77 F7                          LD      (IX-09h),A
4343: DD 7E F2                          LD      A,(IX-0Eh)
4346: C6 27                             ADD     A,27h   ; '''
4348: DD 77 FE                          LD      (IX-02h),A
434B: DD 7E F3                          LD      A,(IX-0Dh)
434E: CE 00                             ADC     A,00h
4350: DD 77 FF                          LD      (IX-01h),A
4353: DD 7E F7                          LD      A,(IX-09h)
4356: DD B6 F6                          OR      (IX-0Ah)
4359: DD B6 F5                          OR      (IX-0Bh)
435C: DD B6 F4                          OR      (IX-0Ch)
435F: 20 1B                             JR      NZ,L437C
4361: DD 6E F2                          LD      L,(IX-0Eh)
4364: DD 66 F3                          LD      H,(IX-0Dh)
4367: 7E                                LD      A,(HL)
4368: D6 03                             SUB     03h
436A: 38 10                             JR      C,L437C
436C: DD 5E FE                          LD      E,(IX-02h)
436F: DD 56 FF                          LD      D,(IX-01h)
4372: 21 06 00                          LD      HL,0006h
4375: 39                                ADD     HL,SP
4376: EB                                EX      DE,HL
4377: 01 04 00                          LD      BC,0004h
437A: ED B0                             LDIR
437C: DD 7E EE                   L437C: LD      A,(IX-12h)
437F: C6 16                             ADD     A,16h
4381: DD 77 F8                          LD      (IX-08h),A
4384: DD 7E EF                          LD      A,(IX-11h)
4387: CE 00                             ADC     A,00h
4389: DD 77 F9                          LD      (IX-07h),A
438C: DD 7E F7                          LD      A,(IX-09h)
438F: DD B6 F6                          OR      (IX-0Ah)
4392: DD B6 F5                          OR      (IX-0Bh)
4395: DD B6 F4                          OR      (IX-0Ch)
4398: 20 69                             JR      NZ,L4403
439A: DD 4E 06                          LD      C,(IX+06h)
439D: DD 46 07                          LD      B,(IX+07h)
43A0: DD 5E 08                          LD      E,(IX+08h)
43A3: DD 56 09                          LD      D,(IX+09h)
43A6: 3E 05                             LD      A,05h
43A8: CB 3A                      L43A8: SRL     D
43AA: CB 1B                             RR      E
43AC: CB 18                             RR      B
43AE: CB 19                             RR      C
43B0: 3D                                DEC     A
43B1: 20 F5                             JR      NZ,L43A8
43B3: DD 6E F2                          LD      L,(IX-0Eh)
43B6: DD 66 F3                          LD      H,(IX-0Dh)
43B9: C5                                PUSH    BC
43BA: 01 07 00                          LD      BC,0007h
43BD: 09                                ADD     HL,BC
43BE: C1                                POP     BC
43BF: 7E                                LD      A,(HL)
43C0: 23                                INC     HL
43C1: 66                                LD      H,(HL)
43C2: DD 77 FA                          LD      (IX-06h),A
43C5: DD 74 FB                          LD      (IX-05h),H
43C8: AF                                XOR     A
43C9: DD 77 FC                          LD      (IX-04h),A
43CC: DD 77 FD                          LD      (IX-03h),A
43CF: 79                                LD      A,C
43D0: DD 96 FA                          SUB     (IX-06h)
43D3: 78                                LD      A,B
43D4: DD 9E FB                          SBC     A,(IX-05h)
43D7: 7B                                LD      A,E
43D8: DD 9E FC                          SBC     A,(IX-04h)
43DB: 7A                                LD      A,D
43DC: DD 9E FD                          SBC     A,(IX-03h)
43DF: 38 05                             JR      C,L43E6
43E1: 2E 02                             LD      L,02h
43E3: C3 E5 45                          JP      L45E5

43E6: DD 6E FE                   L43E6: LD      L,(IX-02h)
43E9: DD 66 FF                          LD      H,(IX-01h)
43EC: 4E                                LD      C,(HL)
43ED: 23                                INC     HL
43EE: 46                                LD      B,(HL)
43EF: 23                                INC     HL
43F0: 5E                                LD      E,(HL)
43F1: 23                                INC     HL
43F2: 56                                LD      D,(HL)
43F3: DD 6E F8                          LD      L,(IX-08h)
43F6: DD 66 F9                          LD      H,(IX-07h)
43F9: 71                                LD      (HL),C
43FA: 23                                INC     HL
43FB: 70                                LD      (HL),B
43FC: 23                                INC     HL
43FD: 73                                LD      (HL),E
43FE: 23                                INC     HL
43FF: 72                                LD      (HL),D
4400: C3 1C 45                          JP      L451C

4403: DD 6E F2                   L4403: LD      L,(IX-0Eh)
4406: DD 66 F3                          LD      H,(IX-0Dh)
4409: 11 09 00                          LD      DE,0009h
440C: 19                                ADD     HL,DE
440D: 4E                                LD      C,(HL)
440E: 23                                INC     HL
440F: 46                                LD      B,(HL)
4410: 1E 00                             LD      E,00h
4412: DD 71 FB                          LD      (IX-05h),C
4415: DD 70 FC                          LD      (IX-04h),B
4418: DD 73 FD                          LD      (IX-03h),E
441B: AF                                XOR     A
441C: DD 77 FA                          LD      (IX-06h),A
441F: DD CB FB 26                       SLA     (IX-05h)
4423: DD CB FC 16                       RL      (IX-04h)
4427: DD CB FD 16                       RL      (IX-03h)
442B: DD 7E F2                          LD      A,(IX-0Eh)
442E: DD 77 FE                          LD      (IX-02h),A
4431: DD 7E F3                          LD      A,(IX-0Dh)
4434: DD 77 FF                          LD      (IX-01h),A
4437: DD 7E 06                   L4437: LD      A,(IX+06h)
443A: DD 96 FA                          SUB     (IX-06h)
443D: DD 7E 07                          LD      A,(IX+07h)
4440: DD 9E FB                          SBC     A,(IX-05h)
4443: DD 7E 08                          LD      A,(IX+08h)
4446: DD 9E FC                          SBC     A,(IX-04h)
4449: DD 7E 09                          LD      A,(IX+09h)
444C: DD 9E FD                          SBC     A,(IX-03h)
444F: DA F2 44                          JP      C,L44F2
4452: DD 6E F6                          LD      L,(IX-0Ah)
4455: DD 66 F7                          LD      H,(IX-09h)
4458: E5                                PUSH    HL
4459: DD 6E F4                          LD      L,(IX-0Ch)
445C: DD 66 F5                          LD      H,(IX-0Bh)
445F: E5                                PUSH    HL
4460: DD 6E F0                          LD      L,(IX-10h)
4463: DD 66 F1                          LD      H,(IX-0Fh)
4466: E5                                PUSH    HL
4467: CD 46 14                          CALL    L1446
446A: F1                                POP     AF
446B: F1                                POP     AF
446C: F1                                POP     AF
446D: DD 75 F4                          LD      (IX-0Ch),L
4470: DD 74 F5                          LD      (IX-0Bh),H
4473: DD 73 F6                          LD      (IX-0Ah),E
4476: DD 72 F7                          LD      (IX-09h),D
4479: DD 7E F4                          LD      A,(IX-0Ch)
447C: DD A6 F5                          AND     (IX-0Bh)
447F: DD A6 F6                          AND     (IX-0Ah)
4482: DD A6 F7                          AND     (IX-09h)
4485: 3C                                INC     A
4486: 20 05                             JR      NZ,L448D
4488: 2E 01                             LD      L,01h
448A: C3 E5 45                          JP      L45E5

448D: DD 7E F4                   L448D: LD      A,(IX-0Ch)
4490: D6 02                             SUB     02h
4492: DD 7E F5                          LD      A,(IX-0Bh)
4495: DE 00                             SBC     A,00h
4497: DD 7E F6                          LD      A,(IX-0Ah)
449A: DE 00                             SBC     A,00h
449C: DD 7E F7                          LD      A,(IX-09h)
449F: DE 00                             SBC     A,00h
44A1: 38 23                             JR      C,L44C6
44A3: DD 6E FE                          LD      L,(IX-02h)
44A6: DD 66 FF                          LD      H,(IX-01h)
44A9: 11 17 00                          LD      DE,0017h
44AC: 19                                ADD     HL,DE
44AD: 4E                                LD      C,(HL)
44AE: 23                                INC     HL
44AF: 46                                LD      B,(HL)
44B0: 23                                INC     HL
44B1: 5E                                LD      E,(HL)
44B2: 23                                INC     HL
44B3: 56                                LD      D,(HL)
44B4: DD 7E F4                          LD      A,(IX-0Ch)
44B7: 91                                SUB     C
44B8: DD 7E F5                          LD      A,(IX-0Bh)
44BB: 98                                SBC     A,B
44BC: DD 7E F6                          LD      A,(IX-0Ah)
44BF: 9B                                SBC     A,E
44C0: DD 7E F7                          LD      A,(IX-09h)
44C3: 9A                                SBC     A,D
44C4: 38 05                             JR      C,L44CB
44C6: 2E 02                      L44C6: LD      L,02h
44C8: C3 E5 45                          JP      L45E5

44CB: DD 7E 06                   L44CB: LD      A,(IX+06h)
44CE: DD 96 FA                          SUB     (IX-06h)
44D1: DD 77 06                          LD      (IX+06h),A
44D4: DD 7E 07                          LD      A,(IX+07h)
44D7: DD 9E FB                          SBC     A,(IX-05h)
44DA: DD 77 07                          LD      (IX+07h),A
44DD: DD 7E 08                          LD      A,(IX+08h)
44E0: DD 9E FC                          SBC     A,(IX-04h)
44E3: DD 77 08                          LD      (IX+08h),A
44E6: DD 7E 09                          LD      A,(IX+09h)
44E9: DD 9E FD                          SBC     A,(IX-03h)
44EC: DD 77 09                          LD      (IX+09h),A
44EF: C3 37 44                          JP      L4437

44F2: DD 6E F6                   L44F2: LD      L,(IX-0Ah)
44F5: DD 66 F7                          LD      H,(IX-09h)
44F8: E5                                PUSH    HL
44F9: DD 6E F4                          LD      L,(IX-0Ch)
44FC: DD 66 F5                          LD      H,(IX-0Bh)
44FF: E5                                PUSH    HL
4500: DD 6E F2                          LD      L,(IX-0Eh)
4503: DD 66 F3                          LD      H,(IX-0Dh)
4506: E5                                PUSH    HL
4507: CD 06 13                          CALL    L1306
450A: F1                                POP     AF
450B: F1                                POP     AF
450C: F1                                POP     AF
450D: 4D                                LD      C,L
450E: 44                                LD      B,H
450F: DD 6E F8                          LD      L,(IX-08h)
4512: DD 66 F9                          LD      H,(IX-07h)
4515: 71                                LD      (HL),C
4516: 23                                INC     HL
4517: 70                                LD      (HL),B
4518: 23                                INC     HL
4519: 73                                LD      (HL),E
451A: 23                                INC     HL
451B: 72                                LD      (HL),D
451C: DD 7E EE                   L451C: LD      A,(IX-12h)
451F: C6 12                             ADD     A,12h
4521: 5F                                LD      E,A
4522: DD 7E EF                          LD      A,(IX-11h)
4525: CE 00                             ADC     A,00h
4527: 57                                LD      D,A
4528: 21 06 00                          LD      HL,0006h
452B: 39                                ADD     HL,SP
452C: 01 04 00                          LD      BC,0004h
452F: ED B0                             LDIR
4531: DD 6E F8                          LD      L,(IX-08h)
4534: DD 66 F9                          LD      H,(IX-07h)
4537: 4E                                LD      C,(HL)
4538: 23                                INC     HL
4539: 46                                LD      B,(HL)
453A: 23                                INC     HL
453B: 5E                                LD      E,(HL)
453C: 23                                INC     HL
453D: 56                                LD      D,(HL)
453E: 7A                                LD      A,D
453F: B3                                OR      E
4540: B0                                OR      B
4541: B1                                OR      C
4542: 20 05                             JR      NZ,L4549
4544: 2E 02                             LD      L,02h
4546: C3 E5 45                          JP      L45E5

4549: DD 7E 07                   L4549: LD      A,(IX+07h)
454C: DD 77 FC                          LD      (IX-04h),A
454F: DD 7E 08                          LD      A,(IX+08h)
4552: DD 77 FD                          LD      (IX-03h),A
4555: DD 7E 09                          LD      A,(IX+09h)
4558: DD 77 FE                          LD      (IX-02h),A
455B: AF                                XOR     A
455C: DD 77 FF                          LD      (IX-01h),A
455F: DD CB FE 3E                       SRL     (IX-02h)
4563: DD CB FD 1E                       RR      (IX-03h)
4567: DD CB FC 1E                       RR      (IX-04h)
456B: 79                                LD      A,C
456C: DD 86 FC                          ADD     A,(IX-04h)
456F: 4F                                LD      C,A
4570: 78                                LD      A,B
4571: DD 8E FD                          ADC     A,(IX-03h)
4574: 47                                LD      B,A
4575: 7B                                LD      A,E
4576: DD 8E FE                          ADC     A,(IX-02h)
4579: 5F                                LD      E,A
457A: 7A                                LD      A,D
457B: DD 8E FF                          ADC     A,(IX-01h)
457E: 57                                LD      D,A
457F: DD 6E F8                          LD      L,(IX-08h)
4582: DD 66 F9                          LD      H,(IX-07h)
4585: 71                                LD      (HL),C
4586: 23                                INC     HL
4587: 70                                LD      (HL),B
4588: 23                                INC     HL
4589: 73                                LD      (HL),E
458A: 23                                INC     HL
458B: 72                                LD      (HL),D
458C: DD 7E EE                          LD      A,(IX-12h)
458F: C6 1A                             ADD     A,1Ah
4591: DD 77 FE                          LD      (IX-02h),A
4594: DD 7E EF                          LD      A,(IX-11h)
4597: CE 00                             ADC     A,00h
4599: DD 77 FF                          LD      (IX-01h),A
459C: DD 7E F2                          LD      A,(IX-0Eh)
459F: C6 33                             ADD     A,33h   ; '3'
45A1: DD 77 FC                          LD      (IX-04h),A
45A4: DD 7E F3                          LD      A,(IX-0Dh)
45A7: CE 00                             ADC     A,00h
45A9: DD 77 FD                          LD      (IX-03h),A
45AC: DD 7E 06                          LD      A,(IX+06h)
45AF: DD 77 F6                          LD      (IX-0Ah),A
45B2: DD 7E 07                          LD      A,(IX+07h)
45B5: E6 01                             AND     01h
45B7: DD 77 F7                          LD      (IX-09h),A
45BA: DD 36 F8 00                       LD      (IX-08h),00h
45BE: DD 36 F9 00                       LD      (IX-07h),00h
45C2: DD 7E FC                          LD      A,(IX-04h)
45C5: DD 86 F6                          ADD     A,(IX-0Ah)
45C8: DD 77 FA                          LD      (IX-06h),A
45CB: DD 7E FD                          LD      A,(IX-03h)
45CE: DD 8E F7                          ADC     A,(IX-09h)
45D1: DD 77 FB                          LD      (IX-05h),A
45D4: DD 6E FE                          LD      L,(IX-02h)
45D7: DD 66 FF                          LD      H,(IX-01h)
45DA: DD 7E FA                          LD      A,(IX-06h)
45DD: 77                                LD      (HL),A
45DE: 23                                INC     HL
45DF: DD 7E FB                          LD      A,(IX-05h)
45E2: 77                                LD      (HL),A
45E3: 2E 00                             LD      L,00h
45E5: DD F9                      L45E5: LD      SP,IX
45E7: DD E1                             POP     IX
45E9: C9                                RET

                                        ; --- START PROC L45EA ---
45EA: 21 FB 12                   L45EA: LD      HL,12FBh
45ED: 4E                                LD      C,(HL)
45EE: FD 21 02 00                       LD      IY,0002h
45F2: FD 39                             ADD     IY,SP
45F4: FD 7E 00                          LD      A,(IY+00h)
45F7: 91                                SUB     C
45F8: 38 28                             JR      C,L4622
45FA: 3A FC 12                          LD      A,(L12FC)
45FD: FD 96 00                          SUB     (IY+00h)
4600: 38 04                             JR      C,L4606
4602: 21 01 00                          LD      HL,0001h
4605: C9                                RET

4606: 21 FD 12                   L4606: LD      HL,12FDh
4609: 4E                                LD      C,(HL)
460A: FD 21 02 00                       LD      IY,0002h
460E: FD 39                             ADD     IY,SP
4610: FD 7E 00                          LD      A,(IY+00h)
4613: 91                                SUB     C
4614: 38 0C                             JR      C,L4622
4616: 3A FE 12                          LD      A,(L12FE)
4619: FD 96 00                          SUB     (IY+00h)
461C: 38 04                             JR      C,L4622
461E: 21 01 00                          LD      HL,0001h
4621: C9                                RET

4622: 21 00 00                   L4622: LD      HL,0000h
4625: C9                                RET

                                        ; --- START PROC L4626 ---
4626: CD CD 13                   L4626: CALL    L13CD
4629: 21 ED FF                          LD      HL,0FFEDh
462C: 39                                ADD     HL,SP
462D: F9                                LD      SP,HL
462E: DD 6E 04                          LD      L,(IX+04h)
4631: DD 66 05                          LD      H,(IX+05h)
4634: E5                                PUSH    HL
4635: CD 4B 29                          CALL    L294B
4638: F1                                POP     AF
4639: 7D                                LD      A,L
463A: B7                                OR      A
463B: 28 05                             JR      Z,L4642
463D: 2E 01                             LD      L,01h
463F: C3 5E 47                          JP      L475E

4642: DD 6E 08                   L4642: LD      L,(IX+08h)
4645: DD 66 09                          LD      H,(IX+09h)
4648: E5                                PUSH    HL
4649: DD 6E 06                          LD      L,(IX+06h)
464C: DD 66 07                          LD      H,(IX+07h)
464F: E5                                PUSH    HL
4650: DD 6E 04                          LD      L,(IX+04h)
4653: DD 66 05                          LD      H,(IX+05h)
4656: E5                                PUSH    HL
4657: CD 06 13                          CALL    L1306
465A: F1                                POP     AF
465B: F1                                POP     AF
465C: F1                                POP     AF
465D: DD 75 F1                          LD      (IX-0Fh),L
4660: DD 74 F2                          LD      (IX-0Eh),H
4663: DD 73 F3                          LD      (IX-0Dh),E
4666: DD 72 F4                          LD      (IX-0Ch),D
4669: DD 4E 04                          LD      C,(IX+04h)
466C: DD 46 05                          LD      B,(IX+05h)
466F: 21 2F 00                          LD      HL,002Fh
4672: 09                                ADD     HL,BC
4673: EB                                EX      DE,HL
4674: C5                                PUSH    BC
4675: 21 06 00                          LD      HL,0006h
4678: 39                                ADD     HL,SP
4679: 01 04 00                          LD      BC,0004h
467C: ED B0                             LDIR
467E: C1                                POP     BC
467F: 21 33 00                          LD      HL,0033h
4682: 09                                ADD     HL,BC
4683: DD 75 FE                          LD      (IX-02h),L
4686: DD 74 FF                          LD      (IX-01h),H
4689: E5                                PUSH    HL
468A: C5                                PUSH    BC
468B: 11 00 02                          LD      DE,0200h
468E: D5                                PUSH    DE
468F: 11 00 00                          LD      DE,0000h
4692: D5                                PUSH    DE
4693: DD 5E FE                          LD      E,(IX-02h)
4696: DD 56 FF                          LD      D,(IX-01h)
4699: D5                                PUSH    DE
469A: CD A6 22                          CALL    L22A6
469D: F1                                POP     AF
469E: F1                                POP     AF
469F: F1                                POP     AF
46A0: C1                                POP     BC
46A1: E1                                POP     HL
46A2: DD 75 F5                          LD      (IX-0Bh),L
46A5: DD 74 F6                          LD      (IX-0Ah),H
46A8: DD 71 F7                          LD      (IX-09h),C
46AB: DD 70 F8                          LD      (IX-08h),B
46AE: 21 09 00                          LD      HL,0009h
46B1: 09                                ADD     HL,BC
46B2: EB                                EX      DE,HL
46B3: AF                                XOR     A
46B4: DD 77 FE                          LD      (IX-02h),A
46B7: DD 77 FF                          LD      (IX-01h),A
46BA: 6B                         L46BA: LD      L,E
46BB: 62                                LD      H,D
46BC: 7E                                LD      A,(HL)
46BD: 23                                INC     HL
46BE: 66                                LD      H,(HL)
46BF: 6F                                LD      L,A
46C0: DD 4E FE                          LD      C,(IX-02h)
46C3: DD 46 FF                          LD      B,(IX-01h)
46C6: 79                                LD      A,C
46C7: 95                                SUB     L
46C8: 78                                LD      A,B
46C9: 9C                                SBC     A,H
46CA: D2 4C 47                          JP      NC,L474C
46CD: DD 7E FE                          LD      A,(IX-02h)
46D0: DD 77 ED                          LD      (IX-13h),A
46D3: DD 7E FF                          LD      A,(IX-01h)
46D6: DD 77 EE                          LD      (IX-12h),A
46D9: AF                                XOR     A
46DA: DD 77 EF                          LD      (IX-11h),A
46DD: DD 77 F0                          LD      (IX-10h),A
46E0: DD 7E ED                          LD      A,(IX-13h)
46E3: DD 86 F1                          ADD     A,(IX-0Fh)
46E6: DD 77 F9                          LD      (IX-07h),A
46E9: DD 7E EE                          LD      A,(IX-12h)
46EC: DD 8E F2                          ADC     A,(IX-0Eh)
46EF: DD 77 FA                          LD      (IX-06h),A
46F2: DD 7E EF                          LD      A,(IX-11h)
46F5: DD 8E F3                          ADC     A,(IX-0Dh)
46F8: DD 77 FB                          LD      (IX-05h),A
46FB: DD 7E F0                          LD      A,(IX-10h)
46FE: DD 8E F4                          ADC     A,(IX-0Ch)
4701: DD 77 FC                          LD      (IX-04h),A
4704: DD 6E F7                          LD      L,(IX-09h)
4707: DD 66 F8                          LD      H,(IX-08h)
470A: 23                                INC     HL
470B: 7E                                LD      A,(HL)
470C: DD 77 FD                          LD      (IX-03h),A
470F: C5                                PUSH    BC
4710: D5                                PUSH    DE
4711: 21 01 00                          LD      HL,0001h
4714: E5                                PUSH    HL
4715: DD 6E FB                          LD      L,(IX-05h)
4718: DD 66 FC                          LD      H,(IX-04h)
471B: E5                                PUSH    HL
471C: DD 6E F9                          LD      L,(IX-07h)
471F: DD 66 FA                          LD      H,(IX-06h)
4722: E5                                PUSH    HL
4723: DD 6E F5                          LD      L,(IX-0Bh)
4726: DD 66 F6                          LD      H,(IX-0Ah)
4729: E5                                PUSH    HL
472A: DD 7E FD                          LD      A,(IX-03h)
472D: F5                                PUSH    AF
472E: 33                                INC     SP
472F: CD 78 03                          CALL    L0378
4732: FD 21 09 00                       LD      IY,0009h
4736: FD 39                             ADD     IY,SP
4738: FD F9                             LD      SP,IY
473A: 7D                                LD      A,L
473B: D1                                POP     DE
473C: C1                                POP     BC
473D: B7                                OR      A
473E: 20 0C                             JR      NZ,L474C
4740: DD 34 FE                          INC     (IX-02h)
4743: C2 BA 46                          JP      NZ,L46BA
4746: DD 34 FF                          INC     (IX-01h)
4749: C3 BA 46                          JP      L46BA

474C: EB                         L474C: EX      DE,HL
474D: 5E                                LD      E,(HL)
474E: 23                                INC     HL
474F: 56                                LD      D,(HL)
4750: EB                                EX      DE,HL
4751: BF                                CP      A
4752: ED 42                             SBC     HL,BC
4754: 20 05                             JR      NZ,L475B
4756: 21 00 00                          LD      HL,0000h
4759: 18 03                             JR      L475E

475B: 21 01 00                   L475B: LD      HL,0001h
475E: DD F9                      L475E: LD      SP,IX
4760: DD E1                             POP     IX
4762: C9                                RET

                                        ; --- START PROC L4763 ---
4763: CD CD 13                   L4763: CALL    L13CD
4766: 21 F5 FF                          LD      HL,0FFF5h
4769: 39                                ADD     HL,SP
476A: F9                                LD      SP,HL
476B: DD 6E 04                          LD      L,(IX+04h)
476E: DD 66 05                          LD      H,(IX+05h)
4771: E5                                PUSH    HL
4772: CD 4B 29                          CALL    L294B
4775: F1                                POP     AF
4776: 7D                                LD      A,L
4777: DD 77 F5                          LD      (IX-0Bh),A
477A: B7                                OR      A
477B: C2 2E 49                          JP      NZ,L492E
477E: DD 4E 04                          LD      C,(IX+04h)
4781: DD 46 05                          LD      B,(IX+05h)
4784: 0A                                LD      A,(BC)
4785: 5F                                LD      E,A
4786: 21 01 00                          LD      HL,0001h
4789: 09                                ADD     HL,BC
478A: DD 75 F6                          LD      (IX-0Ah),L
478D: DD 74 F7                          LD      (IX-09h),H
4790: 7B                                LD      A,E
4791: D6 03                             SUB     03h
4793: C2 11 49                          JP      NZ,L4911
4796: 21 04 00                          LD      HL,0004h
4799: 09                                ADD     HL,BC
479A: DD 75 F8                          LD      (IX-08h),L
479D: DD 74 F9                          LD      (IX-07h),H
47A0: 7E                                LD      A,(HL)
47A1: 3D                                DEC     A
47A2: C2 11 49                          JP      NZ,L4911
47A5: 21 33 00                          LD      HL,0033h
47A8: 09                                ADD     HL,BC
47A9: EB                                EX      DE,HL
47AA: DD 73 FE                          LD      (IX-02h),E
47AD: DD 72 FF                          LD      (IX-01h),D
47B0: C5                                PUSH    BC
47B1: D5                                PUSH    DE
47B2: 21 00 02                          LD      HL,0200h
47B5: E5                                PUSH    HL
47B6: 26 00                             LD      H,00h
47B8: E5                                PUSH    HL
47B9: DD 6E FE                          LD      L,(IX-02h)
47BC: DD 66 FF                          LD      H,(IX-01h)
47BF: E5                                PUSH    HL
47C0: CD A6 22                          CALL    L22A6
47C3: F1                                POP     AF
47C4: F1                                POP     AF
47C5: F1                                POP     AF
47C6: D1                                POP     DE
47C7: C1                                POP     BC
47C8: 21 31 02                          LD      HL,0231h
47CB: 09                                ADD     HL,BC
47CC: DD 75 FE                          LD      (IX-02h),L
47CF: DD 74 FF                          LD      (IX-01h),H
47D2: C5                                PUSH    BC
47D3: D5                                PUSH    DE
47D4: 21 55 AA                          LD      HL,0AA55h
47D7: E5                                PUSH    HL
47D8: DD 6E FE                          LD      L,(IX-02h)
47DB: DD 66 FF                          LD      H,(IX-01h)
47DE: E5                                PUSH    HL
47DF: CD FA 3B                          CALL    L3BFA
47E2: F1                                POP     AF
47E3: F1                                POP     AF
47E4: D1                                POP     DE
47E5: D5                                PUSH    DE
47E6: 21 61 41                          LD      HL,4161h
47E9: E5                                PUSH    HL
47EA: 21 52 52                          LD      HL,5252h
47ED: E5                                PUSH    HL
47EE: D5                                PUSH    DE
47EF: CD 51 19                          CALL    L1951
47F2: F1                                POP     AF
47F3: F1                                POP     AF
47F4: F1                                POP     AF
47F5: D1                                POP     DE
47F6: C1                                POP     BC
47F7: 21 17 02                          LD      HL,0217h
47FA: 09                                ADD     HL,BC
47FB: DD 75 FE                          LD      (IX-02h),L
47FE: DD 74 FF                          LD      (IX-01h),H
4801: C5                                PUSH    BC
4802: D5                                PUSH    DE
4803: 21 41 61                          LD      HL,6141h
4806: E5                                PUSH    HL
4807: 21 72 72                          LD      HL,7272h
480A: E5                                PUSH    HL
480B: DD 6E FE                          LD      L,(IX-02h)
480E: DD 66 FF                          LD      H,(IX-01h)
4811: E5                                PUSH    HL
4812: CD 51 19                          CALL    L1951
4815: F1                                POP     AF
4816: F1                                POP     AF
4817: F1                                POP     AF
4818: D1                                POP     DE
4819: C1                                POP     BC
481A: 69                                LD      L,C
481B: 60                                LD      H,B
481C: C5                                PUSH    BC
481D: 01 0F 00                          LD      BC,000Fh
4820: 09                                ADD     HL,BC
4821: C1                                POP     BC
4822: 7E                                LD      A,(HL)
4823: DD 77 FA                          LD      (IX-06h),A
4826: 23                                INC     HL
4827: 7E                                LD      A,(HL)
4828: DD 77 FB                          LD      (IX-05h),A
482B: 23                                INC     HL
482C: 7E                                LD      A,(HL)
482D: DD 77 FC                          LD      (IX-04h),A
4830: 23                                INC     HL
4831: 7E                                LD      A,(HL)
4832: DD 77 FD                          LD      (IX-03h),A
4835: 21 1B 02                          LD      HL,021Bh
4838: 09                                ADD     HL,BC
4839: DD 75 FE                          LD      (IX-02h),L
483C: DD 74 FF                          LD      (IX-01h),H
483F: C5                                PUSH    BC
4840: D5                                PUSH    DE
4841: DD 6E FC                          LD      L,(IX-04h)
4844: DD 66 FD                          LD      H,(IX-03h)
4847: E5                                PUSH    HL
4848: DD 6E FA                          LD      L,(IX-06h)
484B: DD 66 FB                          LD      H,(IX-05h)
484E: E5                                PUSH    HL
484F: DD 6E FE                          LD      L,(IX-02h)
4852: DD 66 FF                          LD      H,(IX-01h)
4855: E5                                PUSH    HL
4856: CD 51 19                          CALL    L1951
4859: F1                                POP     AF
485A: F1                                POP     AF
485B: F1                                POP     AF
485C: D1                                POP     DE
485D: C1                                POP     BC
485E: 69                                LD      L,C
485F: 60                                LD      H,B
4860: C5                                PUSH    BC
4861: 01 0B 00                          LD      BC,000Bh
4864: 09                                ADD     HL,BC
4865: C1                                POP     BC
4866: 7E                                LD      A,(HL)
4867: DD 77 FA                          LD      (IX-06h),A
486A: 23                                INC     HL
486B: 7E                                LD      A,(HL)
486C: DD 77 FB                          LD      (IX-05h),A
486F: 23                                INC     HL
4870: 7E                                LD      A,(HL)
4871: DD 77 FC                          LD      (IX-04h),A
4874: 23                                INC     HL
4875: 7E                                LD      A,(HL)
4876: DD 77 FD                          LD      (IX-03h),A
4879: 21 1F 02                          LD      HL,021Fh
487C: 09                                ADD     HL,BC
487D: DD 75 FE                          LD      (IX-02h),L
4880: DD 74 FF                          LD      (IX-01h),H
4883: C5                                PUSH    BC
4884: D5                                PUSH    DE
4885: DD 6E FC                          LD      L,(IX-04h)
4888: DD 66 FD                          LD      H,(IX-03h)
488B: E5                                PUSH    HL
488C: DD 6E FA                          LD      L,(IX-06h)
488F: DD 66 FB                          LD      H,(IX-05h)
4892: E5                                PUSH    HL
4893: DD 6E FE                          LD      L,(IX-02h)
4896: DD 66 FF                          LD      H,(IX-01h)
4899: E5                                PUSH    HL
489A: CD 51 19                          CALL    L1951
489D: F1                                POP     AF
489E: F1                                POP     AF
489F: F1                                POP     AF
48A0: D1                                POP     DE
48A1: C1                                POP     BC
48A2: 21 2F 00                          LD      HL,002Fh
48A5: 09                                ADD     HL,BC
48A6: DD 75 FA                          LD      (IX-06h),L
48A9: DD 74 FB                          LD      (IX-05h),H
48AC: 69                                LD      L,C
48AD: 60                                LD      H,B
48AE: 01 1F 00                          LD      BC,001Fh
48B1: 09                                ADD     HL,BC
48B2: 4E                                LD      C,(HL)
48B3: 23                                INC     HL
48B4: 46                                LD      B,(HL)
48B5: 23                                INC     HL
48B6: 23                                INC     HL
48B7: 7E                                LD      A,(HL)
48B8: 2B                                DEC     HL
48B9: 6E                                LD      L,(HL)
48BA: 67                                LD      H,A
48BB: 79                                LD      A,C
48BC: C6 01                             ADD     A,01h
48BE: DD 77 FC                          LD      (IX-04h),A
48C1: 78                                LD      A,B
48C2: CE 00                             ADC     A,00h
48C4: DD 77 FD                          LD      (IX-03h),A
48C7: 7D                                LD      A,L
48C8: CE 00                             ADC     A,00h
48CA: DD 77 FE                          LD      (IX-02h),A
48CD: 7C                                LD      A,H
48CE: CE 00                             ADC     A,00h
48D0: DD 77 FF                          LD      (IX-01h),A
48D3: D5                                PUSH    DE
48D4: DD 5E FA                          LD      E,(IX-06h)
48D7: DD 56 FB                          LD      D,(IX-05h)
48DA: 21 09 00                          LD      HL,0009h
48DD: 39                                ADD     HL,SP
48DE: 01 04 00                          LD      BC,0004h
48E1: ED B0                             LDIR
48E3: D1                                POP     DE
48E4: DD 6E F6                          LD      L,(IX-0Ah)
48E7: DD 66 F7                          LD      H,(IX-09h)
48EA: 4E                                LD      C,(HL)
48EB: 21 01 00                          LD      HL,0001h
48EE: E5                                PUSH    HL
48EF: DD 6E FE                          LD      L,(IX-02h)
48F2: DD 66 FF                          LD      H,(IX-01h)
48F5: E5                                PUSH    HL
48F6: DD 6E FC                          LD      L,(IX-04h)
48F9: DD 66 FD                          LD      H,(IX-03h)
48FC: E5                                PUSH    HL
48FD: D5                                PUSH    DE
48FE: 79                                LD      A,C
48FF: F5                                PUSH    AF
4900: 33                                INC     SP
4901: CD 78 03                          CALL    L0378
4904: 21 09 00                          LD      HL,0009h
4907: 39                                ADD     HL,SP
4908: F9                                LD      SP,HL
4909: DD 6E F8                          LD      L,(IX-08h)
490C: DD 66 F9                          LD      H,(IX-07h)
490F: 36 00                             LD      (HL),00h
4911: DD 6E F6                   L4911: LD      L,(IX-0Ah)
4914: DD 66 F7                          LD      H,(IX-09h)
4917: 46                                LD      B,(HL)
4918: 21 00 00                          LD      HL,0000h
491B: E5                                PUSH    HL
491C: AF                                XOR     A
491D: F5                                PUSH    AF
491E: 33                                INC     SP
491F: C5                                PUSH    BC
4920: 33                                INC     SP
4921: CD 7B 03                          CALL    L037B
4924: F1                                POP     AF
4925: F1                                POP     AF
4926: 7D                                LD      A,L
4927: B7                                OR      A
4928: 28 04                             JR      Z,L492E
492A: DD 36 F5 01                       LD      (IX-0Bh),01h
492E: DD 6E F5                   L492E: LD      L,(IX-0Bh)
4931: DD F9                             LD      SP,IX
4933: DD E1                             POP     IX
4935: C9                                RET

                                        ; --- START PROC L4936 ---
4936: CD CD 13                   L4936: CALL    L13CD
4939: DD 4E 04                          LD      C,(IX+04h)
493C: DD 46 05                          LD      B,(IX+05h)
493F: 59                                LD      E,C
4940: 50                                LD      D,B
4941: 13                                INC     DE
4942: 13                                INC     DE
4943: 13                                INC     DE
4944: AF                                XOR     A
4945: 12                                LD      (DE),A
4946: 21 2F 00                          LD      HL,002Fh
4949: 09                                ADD     HL,BC
494A: 36 FF                             LD      (HL),0FFh
494C: 23                                INC     HL
494D: 36 FF                             LD      (HL),0FFh
494F: 23                                INC     HL
4950: 36 FF                             LD      (HL),0FFh
4952: 23                                INC     HL
4953: 36 FF                             LD      (HL),0FFh
4955: C5                                PUSH    BC
4956: DD 6E 08                          LD      L,(IX+08h)
4959: DD 66 09                          LD      H,(IX+09h)
495C: E5                                PUSH    HL
495D: DD 6E 06                          LD      L,(IX+06h)
4960: DD 66 07                          LD      H,(IX+07h)
4963: E5                                PUSH    HL
4964: C5                                PUSH    BC
4965: CD DD 22                          CALL    L22DD
4968: F1                                POP     AF
4969: F1                                POP     AF
496A: F1                                POP     AF
496B: 5D                                LD      E,L
496C: C1                                POP     BC
496D: 7B                                LD      A,E
496E: B7                                OR      A
496F: 28 05                             JR      Z,L4976
4971: 21 04 00                          LD      HL,0004h
4974: 18 6D                             JR      L49E3

4976: 59                         L4976: LD      E,C
4977: 50                                LD      D,B
4978: 21 31 02                          LD      HL,0231h
497B: 09                                ADD     HL,BC
497C: C5                                PUSH    BC
497D: D5                                PUSH    DE
497E: E5                                PUSH    HL
497F: CD BE 22                          CALL    L22BE
4982: F1                                POP     AF
4983: D1                                POP     DE
4984: C1                                POP     BC
4985: 7D                                LD      A,L
4986: D6 55                             SUB     55h     ; 'U'
4988: 20 05                             JR      NZ,L498F
498A: 7C                                LD      A,H
498B: D6 AA                             SUB     0AAh
498D: 28 05                             JR      Z,L4994
498F: 21 03 00                   L498F: LD      HL,0003h
4992: 18 4F                             JR      L49E3

4994: EB                         L4994: EX      DE,HL
4995: 11 33 00                          LD      DE,0033h
4998: 19                                ADD     HL,DE
4999: 7E                                LD      A,(HL)
499A: FE E9                             CP      0E9h
499C: 28 08                             JR      Z,L49A6
499E: FE EB                             CP      0EBh
49A0: 28 04                             JR      Z,L49A6
49A2: D6 E8                             SUB     0E8h
49A4: 20 3A                             JR      NZ,L49E0
49A6: 21 69 00                   L49A6: LD      HL,0069h
49A9: 09                                ADD     HL,BC
49AA: C5                                PUSH    BC
49AB: 11 03 00                          LD      DE,0003h
49AE: D5                                PUSH    DE
49AF: 11 F2 49                          LD      DE,49F2h
49B2: D5                                PUSH    DE
49B3: E5                                PUSH    HL
49B4: CD 73 42                          CALL    L4273
49B7: F1                                POP     AF
49B8: F1                                POP     AF
49B9: F1                                POP     AF
49BA: C1                                POP     BC
49BB: 7C                                LD      A,H
49BC: B5                                OR      L
49BD: 20 05                             JR      NZ,L49C4
49BF: 21 00 00                          LD      HL,0000h
49C2: 18 1F                             JR      L49E3

49C4: 21 85 00                   L49C4: LD      HL,0085h
49C7: 09                                ADD     HL,BC
49C8: 01 05 00                          LD      BC,0005h
49CB: C5                                PUSH    BC
49CC: 01 F6 49                          LD      BC,49F6h
49CF: C5                                PUSH    BC
49D0: E5                                PUSH    HL
49D1: CD 73 42                          CALL    L4273
49D4: F1                                POP     AF
49D5: F1                                POP     AF
49D6: F1                                POP     AF
49D7: 7C                                LD      A,H
49D8: B5                                OR      L
49D9: 20 05                             JR      NZ,L49E0
49DB: 21 00 00                          LD      HL,0000h
49DE: 18 03                             JR      L49E3

49E0: 21 02 00                   L49E0: LD      HL,0002h
49E3: DD E1                      L49E3: POP     IX
49E5: C9                                RET

49E6: EB                         L49E6: DB      0EBh
49E7: 76                                DB      76h     ; 'v'
49E8: 90                                DB      90h
49E9: 45 58 46 41 54 20 20 20           DB      "EXFAT   "
49F1: 00                                DB      00h
49F2: 46                                DB      46h     ; 'F'
49F3: 41                                DB      41h     ; 'A'
49F4: 54                                DB      54h     ; 'T'
49F5: 00                                DB      00h
49F6: 46 41 54 33 32                    DB      "FAT32"
49FB: 00                                DB      00h

                                        ; --- START PROC L49FC ---
49FC: CD CD 13                   L49FC: CALL    L13CD
49FF: 21 E9 FF                          LD      HL,0FFE9h
4A02: 39                                ADD     HL,SP
4A03: F9                                LD      SP,HL
4A04: DD 7E 04                          LD      A,(IX+04h)
4A07: DD 77 FE                          LD      (IX-02h),A
4A0A: DD 7E 05                          LD      A,(IX+05h)
4A0D: DD 77 FF                          LD      (IX-01h),A
4A10: DD 6E FE                          LD      L,(IX-02h)
4A13: DD 66 FF                          LD      H,(IX-01h)
4A16: 7E                                LD      A,(HL)
4A17: DD 77 ED                          LD      (IX-13h),A
4A1A: 23                                INC     HL
4A1B: 7E                                LD      A,(HL)
4A1C: DD 77 EE                          LD      (IX-12h),A
4A1F: DD 7E ED                          LD      A,(IX-13h)
4A22: C6 0B                             ADD     A,0Bh
4A24: DD 77 EF                          LD      (IX-11h),A
4A27: DD 7E EE                          LD      A,(IX-12h)
4A2A: CE 00                             ADC     A,00h
4A2C: DD 77 F0                          LD      (IX-10h),A
4A2F: DD 7E ED                          LD      A,(IX-13h)
4A32: C6 17                             ADD     A,17h
4A34: DD 77 F1                          LD      (IX-0Fh),A
4A37: DD 7E EE                          LD      A,(IX-12h)
4A3A: CE 00                             ADC     A,00h
4A3C: DD 77 F2                          LD      (IX-0Eh),A
4A3F: DD 7E 09                          LD      A,(IX+09h)
4A42: DD B6 08                          OR      (IX+08h)
4A45: DD B6 07                          OR      (IX+07h)
4A48: DD B6 06                          OR      (IX+06h)
4A4B: 20 5A                             JR      NZ,L4AA7
4A4D: DD 5E EF                          LD      E,(IX-11h)
4A50: DD 56 F0                          LD      D,(IX-10h)
4A53: 21 0A 00                          LD      HL,000Ah
4A56: 39                                ADD     HL,SP
4A57: EB                                EX      DE,HL
4A58: 01 04 00                          LD      BC,0004h
4A5B: ED B0                             LDIR
4A5D: DD 7E F6                          LD      A,(IX-0Ah)
4A60: DD B6 F5                          OR      (IX-0Bh)
4A63: DD B6 F4                          OR      (IX-0Ch)
4A66: DD B6 F3                          OR      (IX-0Dh)
4A69: 28 2B                             JR      Z,L4A96
4A6B: DD 5E F1                          LD      E,(IX-0Fh)
4A6E: DD 56 F2                          LD      D,(IX-0Eh)
4A71: 21 13 00                          LD      HL,0013h
4A74: 39                                ADD     HL,SP
4A75: EB                                EX      DE,HL
4A76: 01 04 00                          LD      BC,0004h
4A79: ED B0                             LDIR
4A7B: DD 7E F3                          LD      A,(IX-0Dh)
4A7E: DD 96 FC                          SUB     (IX-04h)
4A81: DD 7E F4                          LD      A,(IX-0Ch)
4A84: DD 9E FD                          SBC     A,(IX-03h)
4A87: DD 7E F5                          LD      A,(IX-0Bh)
4A8A: DD 9E FE                          SBC     A,(IX-02h)
4A8D: DD 7E F6                          LD      A,(IX-0Ah)
4A90: DD 9E FF                          SBC     A,(IX-01h)
4A93: DA 60 4B                          JP      C,L4B60
4A96: DD 36 F3 01                L4A96: LD      (IX-0Dh),01h
4A9A: AF                                XOR     A
4A9B: DD 77 F4                          LD      (IX-0Ch),A
4A9E: DD 77 F5                          LD      (IX-0Bh),A
4AA1: DD 77 F6                          LD      (IX-0Ah),A
4AA4: C3 60 4B                          JP      L4B60

4AA7: DD 6E 08                   L4AA7: LD      L,(IX+08h)
4AAA: DD 66 09                          LD      H,(IX+09h)
4AAD: E5                                PUSH    HL
4AAE: DD 6E 06                          LD      L,(IX+06h)
4AB1: DD 66 07                          LD      H,(IX+07h)
4AB4: E5                                PUSH    HL
4AB5: DD 6E FE                          LD      L,(IX-02h)
4AB8: DD 66 FF                          LD      H,(IX-01h)
4ABB: E5                                PUSH    HL
4ABC: CD 46 14                          CALL    L1446
4ABF: F1                                POP     AF
4AC0: F1                                POP     AF
4AC1: F1                                POP     AF
4AC2: DD 75 FC                          LD      (IX-04h),L
4AC5: DD 74 FD                          LD      (IX-03h),H
4AC8: DD 73 FE                          LD      (IX-02h),E
4ACB: DD 72 FF                          LD      (IX-01h),D
4ACE: 21 0F 00                          LD      HL,000Fh
4AD1: 39                                ADD     HL,SP
4AD2: EB                                EX      DE,HL
4AD3: 21 13 00                          LD      HL,0013h
4AD6: 39                                ADD     HL,SP
4AD7: 01 04 00                          LD      BC,0004h
4ADA: ED B0                             LDIR
4ADC: DD 7E F8                          LD      A,(IX-08h)
4ADF: D6 02                             SUB     02h
4AE1: DD 7E F9                          LD      A,(IX-07h)
4AE4: DE 00                             SBC     A,00h
4AE6: DD 7E FA                          LD      A,(IX-06h)
4AE9: DE 00                             SBC     A,00h
4AEB: DD 7E FB                          LD      A,(IX-05h)
4AEE: DE 00                             SBC     A,00h
4AF0: 30 09                             JR      NC,L4AFB
4AF2: 21 01 00                          LD      HL,0001h
4AF5: 11 00 00                          LD      DE,0000h
4AF8: C3 DD 4E                          JP      L4EDD

4AFB: DD 7E F8                   L4AFB: LD      A,(IX-08h)
4AFE: DD A6 F9                          AND     (IX-07h)
4B01: DD A6 FA                          AND     (IX-06h)
4B04: DD A6 FB                          AND     (IX-05h)
4B07: 3C                                INC     A
4B08: 20 0F                             JR      NZ,L4B19
4B0A: DD 6E F8                          LD      L,(IX-08h)
4B0D: DD 66 F9                          LD      H,(IX-07h)
4B10: DD 5E FA                          LD      E,(IX-06h)
4B13: DD 56 FB                          LD      D,(IX-05h)
4B16: C3 DD 4E                          JP      L4EDD

4B19: DD 5E F1                   L4B19: LD      E,(IX-0Fh)
4B1C: DD 56 F2                          LD      D,(IX-0Eh)
4B1F: 21 13 00                          LD      HL,0013h
4B22: 39                                ADD     HL,SP
4B23: EB                                EX      DE,HL
4B24: 01 04 00                          LD      BC,0004h
4B27: ED B0                             LDIR
4B29: DD 7E F8                          LD      A,(IX-08h)
4B2C: DD 96 FC                          SUB     (IX-04h)
4B2F: DD 7E F9                          LD      A,(IX-07h)
4B32: DD 9E FD                          SBC     A,(IX-03h)
4B35: DD 7E FA                          LD      A,(IX-06h)
4B38: DD 9E FE                          SBC     A,(IX-02h)
4B3B: DD 7E FB                          LD      A,(IX-05h)
4B3E: DD 9E FF                          SBC     A,(IX-01h)
4B41: 30 0F                             JR      NC,L4B52
4B43: DD 6E F8                          LD      L,(IX-08h)
4B46: DD 66 F9                          LD      H,(IX-07h)
4B49: DD 5E FA                          LD      E,(IX-06h)
4B4C: DD 56 FB                          LD      D,(IX-05h)
4B4F: C3 DD 4E                          JP      L4EDD

4B52: 21 0A 00                   L4B52: LD      HL,000Ah
4B55: 39                                ADD     HL,SP
4B56: EB                                EX      DE,HL
4B57: 21 1D 00                          LD      HL,001Dh
4B5A: 39                                ADD     HL,SP
4B5B: 01 04 00                          LD      BC,0004h
4B5E: ED B0                             LDIR
4B60: DD 7E ED                   L4B60: LD      A,(IX-13h)
4B63: C6 0F                             ADD     A,0Fh
4B65: DD 77 F7                          LD      (IX-09h),A
4B68: DD 7E EE                          LD      A,(IX-12h)
4B6B: CE 00                             ADC     A,00h
4B6D: DD 77 F8                          LD      (IX-08h),A
4B70: DD 6E F7                          LD      L,(IX-09h)
4B73: DD 66 F8                          LD      H,(IX-08h)
4B76: 4E                                LD      C,(HL)
4B77: 23                                INC     HL
4B78: 46                                LD      B,(HL)
4B79: 23                                INC     HL
4B7A: 5E                                LD      E,(HL)
4B7B: 23                                INC     HL
4B7C: 56                                LD      D,(HL)
4B7D: 7A                                LD      A,D
4B7E: B3                                OR      E
4B7F: B0                                OR      B
4B80: B1                                OR      C
4B81: 20 08                             JR      NZ,L4B8B
4B83: 21 00 00                          LD      HL,0000h
4B86: 5D                                LD      E,L
4B87: 54                                LD      D,H
4B88: C3 DD 4E                          JP      L4EDD

4B8B: AF                         L4B8B: XOR     A
4B8C: DD 77 FC                          LD      (IX-04h),A
4B8F: DD 77 FD                          LD      (IX-03h),A
4B92: DD 77 FE                          LD      (IX-02h),A
4B95: DD 77 FF                          LD      (IX-01h),A
4B98: DD 7E 06                          LD      A,(IX+06h)
4B9B: DD 96 F3                          SUB     (IX-0Dh)
4B9E: C2 9F 4C                          JP      NZ,L4C9F
4BA1: DD 7E 07                          LD      A,(IX+07h)
4BA4: DD 96 F4                          SUB     (IX-0Ch)
4BA7: C2 9F 4C                          JP      NZ,L4C9F
4BAA: DD 7E 08                          LD      A,(IX+08h)
4BAD: DD 96 F5                          SUB     (IX-0Bh)
4BB0: C2 9F 4C                          JP      NZ,L4C9F
4BB3: DD 7E 09                          LD      A,(IX+09h)
4BB6: DD 96 F6                          SUB     (IX-0Ah)
4BB9: C2 9F 4C                          JP      NZ,L4C9F
4BBC: DD 7E F3                          LD      A,(IX-0Dh)
4BBF: C6 01                             ADD     A,01h
4BC1: DD 77 FC                          LD      (IX-04h),A
4BC4: DD 7E F4                          LD      A,(IX-0Ch)
4BC7: CE 00                             ADC     A,00h
4BC9: DD 77 FD                          LD      (IX-03h),A
4BCC: DD 7E F5                          LD      A,(IX-0Bh)
4BCF: CE 00                             ADC     A,00h
4BD1: DD 77 FE                          LD      (IX-02h),A
4BD4: DD 7E F6                          LD      A,(IX-0Ah)
4BD7: CE 00                             ADC     A,00h
4BD9: DD 77 FF                          LD      (IX-01h),A
4BDC: DD 6E F1                          LD      L,(IX-0Fh)
4BDF: DD 66 F2                          LD      H,(IX-0Eh)
4BE2: 4E                                LD      C,(HL)
4BE3: 23                                INC     HL
4BE4: 46                                LD      B,(HL)
4BE5: 23                                INC     HL
4BE6: 5E                                LD      E,(HL)
4BE7: 23                                INC     HL
4BE8: 56                                LD      D,(HL)
4BE9: DD 7E FC                          LD      A,(IX-04h)
4BEC: 91                                SUB     C
4BED: DD 7E FD                          LD      A,(IX-03h)
4BF0: 98                                SBC     A,B
4BF1: DD 7E FE                          LD      A,(IX-02h)
4BF4: 9B                                SBC     A,E
4BF5: DD 7E FF                          LD      A,(IX-01h)
4BF8: 9A                                SBC     A,D
4BF9: 38 0E                             JR      C,L4C09
4BFB: DD 36 FC 02                       LD      (IX-04h),02h
4BFF: AF                                XOR     A
4C00: DD 77 FD                          LD      (IX-03h),A
4C03: DD 77 FE                          LD      (IX-02h),A
4C06: DD 77 FF                          LD      (IX-01h),A
4C09: DD 6E FE                   L4C09: LD      L,(IX-02h)
4C0C: DD 66 FF                          LD      H,(IX-01h)
4C0F: E5                                PUSH    HL
4C10: DD 6E FC                          LD      L,(IX-04h)
4C13: DD 66 FD                          LD      H,(IX-03h)
4C16: E5                                PUSH    HL
4C17: DD 6E 04                          LD      L,(IX+04h)
4C1A: DD 66 05                          LD      H,(IX+05h)
4C1D: E5                                PUSH    HL
4C1E: CD 46 14                          CALL    L1446
4C21: F1                                POP     AF
4C22: F1                                POP     AF
4C23: F1                                POP     AF
4C24: 4D                                LD      C,L
4C25: 44                                LD      B,H
4C26: 79                                LD      A,C
4C27: 3D                                DEC     A
4C28: B0                                OR      B
4C29: B3                                OR      E
4C2A: B2                                OR      D
4C2B: 28 07                             JR      Z,L4C34
4C2D: 79                                LD      A,C
4C2E: A0                                AND     B
4C2F: A3                                AND     E
4C30: A2                                AND     D
4C31: 3C                                INC     A
4C32: 20 05                             JR      NZ,L4C39
4C34: 69                         L4C34: LD      L,C
4C35: 60                                LD      H,B
4C36: C3 DD 4E                          JP      L4EDD

4C39: 7A                         L4C39: LD      A,D
4C3A: B3                                OR      E
4C3B: B0                                OR      B
4C3C: B1                                OR      C
4C3D: 28 60                             JR      Z,L4C9F
4C3F: DD 5E EF                          LD      E,(IX-11h)
4C42: DD 56 F0                          LD      D,(IX-10h)
4C45: 21 13 00                          LD      HL,0013h
4C48: 39                                ADD     HL,SP
4C49: EB                                EX      DE,HL
4C4A: 01 04 00                          LD      BC,0004h
4C4D: ED B0                             LDIR
4C4F: DD 7E FC                          LD      A,(IX-04h)
4C52: D6 02                             SUB     02h
4C54: DD 7E FD                          LD      A,(IX-03h)
4C57: DE 00                             SBC     A,00h
4C59: DD 7E FE                          LD      A,(IX-02h)
4C5C: DE 00                             SBC     A,00h
4C5E: DD 7E FF                          LD      A,(IX-01h)
4C61: DE 00                             SBC     A,00h
4C63: 38 2D                             JR      C,L4C92
4C65: DD 6E F1                          LD      L,(IX-0Fh)
4C68: DD 66 F2                          LD      H,(IX-0Eh)
4C6B: 4E                                LD      C,(HL)
4C6C: 23                                INC     HL
4C6D: 46                                LD      B,(HL)
4C6E: 23                                INC     HL
4C6F: 5E                                LD      E,(HL)
4C70: 23                                INC     HL
4C71: 56                                LD      D,(HL)
4C72: DD 7E FC                          LD      A,(IX-04h)
4C75: 91                                SUB     C
4C76: DD 7E FD                          LD      A,(IX-03h)
4C79: 98                                SBC     A,B
4C7A: DD 7E FE                          LD      A,(IX-02h)
4C7D: 9B                                SBC     A,E
4C7E: DD 7E FF                          LD      A,(IX-01h)
4C81: 9A                                SBC     A,D
4C82: 30 0E                             JR      NC,L4C92
4C84: 21 0A 00                          LD      HL,000Ah
4C87: 39                                ADD     HL,SP
4C88: EB                                EX      DE,HL
4C89: 21 13 00                          LD      HL,0013h
4C8C: 39                                ADD     HL,SP
4C8D: 01 04 00                          LD      BC,0004h
4C90: ED B0                             LDIR
4C92: AF                         L4C92: XOR     A
4C93: DD 77 FC                          LD      (IX-04h),A
4C96: DD 77 FD                          LD      (IX-03h),A
4C99: DD 77 FE                          LD      (IX-02h),A
4C9C: DD 77 FF                          LD      (IX-01h),A
4C9F: DD 7E FF                   L4C9F: LD      A,(IX-01h)
4CA2: DD B6 FE                          OR      (IX-02h)
4CA5: DD B6 FD                          OR      (IX-03h)
4CA8: DD B6 FC                          OR      (IX-04h)
4CAB: C2 8C 4D                          JP      NZ,L4D8C
4CAE: 21 13 00                          LD      HL,0013h
4CB1: 39                                ADD     HL,SP
4CB2: EB                                EX      DE,HL
4CB3: 21 0A 00                          LD      HL,000Ah
4CB6: 39                                ADD     HL,SP
4CB7: 01 04 00                          LD      BC,0004h
4CBA: ED B0                             LDIR
4CBC: DD 7E F3                          LD      A,(IX-0Dh)
4CBF: D6 02                             SUB     02h
4CC1: DD 7E F4                          LD      A,(IX-0Ch)
4CC4: DE 00                             SBC     A,00h
4CC6: DD 7E F5                          LD      A,(IX-0Bh)
4CC9: DE 00                             SBC     A,00h
4CCB: DD 7E F6                          LD      A,(IX-0Ah)
4CCE: DE 00                             SBC     A,00h
4CD0: 3E 00                             LD      A,00h
4CD2: 17                                RLA
4CD3: DD 77 F9                          LD      (IX-07h),A
4CD6: DD 7E F1                          LD      A,(IX-0Fh)
4CD9: DD 77 FA                          LD      (IX-06h),A
4CDC: DD 7E F2                          LD      A,(IX-0Eh)
4CDF: DD 77 FB                          LD      (IX-05h),A
4CE2: DD 34 FC                   L4CE2: INC     (IX-04h)
4CE5: 20 0D                             JR      NZ,L4CF4
4CE7: DD 34 FD                          INC     (IX-03h)
4CEA: 20 08                             JR      NZ,L4CF4
4CEC: DD 34 FE                          INC     (IX-02h)
4CEF: 20 03                             JR      NZ,L4CF4
4CF1: DD 34 FF                          INC     (IX-01h)
4CF4: DD 6E FA                   L4CF4: LD      L,(IX-06h)
4CF7: DD 66 FB                          LD      H,(IX-05h)
4CFA: 4E                                LD      C,(HL)
4CFB: 23                                INC     HL
4CFC: 46                                LD      B,(HL)
4CFD: 23                                INC     HL
4CFE: 5E                                LD      E,(HL)
4CFF: 23                                INC     HL
4D00: 56                                LD      D,(HL)
4D01: DD 7E FC                          LD      A,(IX-04h)
4D04: 91                                SUB     C
4D05: DD 7E FD                          LD      A,(IX-03h)
4D08: 98                                SBC     A,B
4D09: DD 7E FE                          LD      A,(IX-02h)
4D0C: 9B                                SBC     A,E
4D0D: DD 7E FF                          LD      A,(IX-01h)
4D10: 9A                                SBC     A,D
4D11: 38 1C                             JR      C,L4D2F
4D13: DD 36 FC 02                       LD      (IX-04h),02h
4D17: AF                                XOR     A
4D18: DD 77 FD                          LD      (IX-03h),A
4D1B: DD 77 FE                          LD      (IX-02h),A
4D1E: DD 77 FF                          LD      (IX-01h),A
4D21: DD 7E F9                          LD      A,(IX-07h)
4D24: B7                                OR      A
4D25: 28 08                             JR      Z,L4D2F
4D27: 21 00 00                          LD      HL,0000h
4D2A: 5D                                LD      E,L
4D2B: 54                                LD      D,H
4D2C: C3 DD 4E                          JP      L4EDD

4D2F: DD 6E FE                   L4D2F: LD      L,(IX-02h)
4D32: DD 66 FF                          LD      H,(IX-01h)
4D35: E5                                PUSH    HL
4D36: DD 6E FC                          LD      L,(IX-04h)
4D39: DD 66 FD                          LD      H,(IX-03h)
4D3C: E5                                PUSH    HL
4D3D: DD 6E 04                          LD      L,(IX+04h)
4D40: DD 66 05                          LD      H,(IX+05h)
4D43: E5                                PUSH    HL
4D44: CD 46 14                          CALL    L1446
4D47: F1                                POP     AF
4D48: F1                                POP     AF
4D49: F1                                POP     AF
4D4A: 7A                                LD      A,D
4D4B: B3                                OR      E
4D4C: B4                                OR      H
4D4D: B5                                OR      L
4D4E: 28 3C                             JR      Z,L4D8C
4D50: 7D                                LD      A,L
4D51: 3D                                DEC     A
4D52: B4                                OR      H
4D53: B3                                OR      E
4D54: B2                                OR      D
4D55: CA DD 4E                          JP      Z,L4EDD
4D58: 7D                                LD      A,L
4D59: A4                                AND     H
4D5A: A3                                AND     E
4D5B: A2                                AND     D
4D5C: 3C                                INC     A
4D5D: CA DD 4E                          JP      Z,L4EDD
4D60: DD 7E FC                          LD      A,(IX-04h)
4D63: DD 96 F3                          SUB     (IX-0Dh)
4D66: C2 E2 4C                          JP      NZ,L4CE2
4D69: DD 7E FD                          LD      A,(IX-03h)
4D6C: DD 96 F4                          SUB     (IX-0Ch)
4D6F: C2 E2 4C                          JP      NZ,L4CE2
4D72: DD 7E FE                          LD      A,(IX-02h)
4D75: DD 96 F5                          SUB     (IX-0Bh)
4D78: C2 E2 4C                          JP      NZ,L4CE2
4D7B: DD 7E FF                          LD      A,(IX-01h)
4D7E: DD 96 F6                          SUB     (IX-0Ah)
4D81: C2 E2 4C                          JP      NZ,L4CE2
4D84: 21 00 00                          LD      HL,0000h
4D87: 5D                                LD      E,L
4D88: 54                                LD      D,H
4D89: C3 DD 4E                          JP      L4EDD

4D8C: 21 FF FF                   L4D8C: LD      HL,0FFFFh
4D8F: E5                                PUSH    HL
4D90: 21 FF FF                          LD      HL,0FFFFh
4D93: E5                                PUSH    HL
4D94: DD 6E FE                          LD      L,(IX-02h)
4D97: DD 66 FF                          LD      H,(IX-01h)
4D9A: E5                                PUSH    HL
4D9B: DD 6E FC                          LD      L,(IX-04h)
4D9E: DD 66 FD                          LD      H,(IX-03h)
4DA1: E5                                PUSH    HL
4DA2: DD 6E ED                          LD      L,(IX-13h)
4DA5: DD 66 EE                          LD      H,(IX-12h)
4DA8: E5                                PUSH    HL
4DA9: CD B7 25                          CALL    L25B7
4DAC: FD 21 0A 00                       LD      IY,000Ah
4DB0: FD 39                             ADD     IY,SP
4DB2: FD F9                             LD      SP,IY
4DB4: DD 75 FB                          LD      (IX-05h),L
4DB7: 7D                                LD      A,L
4DB8: B7                                OR      A
4DB9: 20 3F                             JR      NZ,L4DFA
4DBB: DD 7E 09                          LD      A,(IX+09h)
4DBE: DD B6 08                          OR      (IX+08h)
4DC1: DD B6 07                          OR      (IX+07h)
4DC4: DD B6 06                          OR      (IX+06h)
4DC7: 28 31                             JR      Z,L4DFA
4DC9: DD 6E FE                          LD      L,(IX-02h)
4DCC: DD 66 FF                          LD      H,(IX-01h)
4DCF: E5                                PUSH    HL
4DD0: DD 6E FC                          LD      L,(IX-04h)
4DD3: DD 66 FD                          LD      H,(IX-03h)
4DD6: E5                                PUSH    HL
4DD7: DD 6E 08                          LD      L,(IX+08h)
4DDA: DD 66 09                          LD      H,(IX+09h)
4DDD: E5                                PUSH    HL
4DDE: DD 6E 06                          LD      L,(IX+06h)
4DE1: DD 66 07                          LD      H,(IX+07h)
4DE4: E5                                PUSH    HL
4DE5: DD 6E ED                          LD      L,(IX-13h)
4DE8: DD 66 EE                          LD      H,(IX-12h)
4DEB: E5                                PUSH    HL
4DEC: CD B7 25                          CALL    L25B7
4DEF: FD 21 0A 00                       LD      IY,000Ah
4DF3: FD 39                             ADD     IY,SP
4DF5: FD F9                             LD      SP,IY
4DF7: DD 75 FB                          LD      (IX-05h),L
4DFA: DD 7E FB                   L4DFA: LD      A,(IX-05h)
4DFD: B7                                OR      A
4DFE: C2 AB 4E                          JP      NZ,L4EAB
4E01: DD 5E EF                          LD      E,(IX-11h)
4E04: DD 56 F0                          LD      D,(IX-10h)
4E07: 21 13 00                          LD      HL,0013h
4E0A: 39                                ADD     HL,SP
4E0B: 01 04 00                          LD      BC,0004h
4E0E: ED B0                             LDIR
4E10: DD 5E F7                          LD      E,(IX-09h)
4E13: DD 56 F8                          LD      D,(IX-08h)
4E16: 21 00 00                          LD      HL,0000h
4E19: 39                                ADD     HL,SP
4E1A: EB                                EX      DE,HL
4E1B: 01 04 00                          LD      BC,0004h
4E1E: ED B0                             LDIR
4E20: DD 5E F1                          LD      E,(IX-0Fh)
4E23: DD 56 F2                          LD      D,(IX-0Eh)
4E26: 21 0A 00                          LD      HL,000Ah
4E29: 39                                ADD     HL,SP
4E2A: EB                                EX      DE,HL
4E2B: 01 04 00                          LD      BC,0004h
4E2E: ED B0                             LDIR
4E30: DD 7E F3                          LD      A,(IX-0Dh)
4E33: C6 FE                             ADD     A,0FEh
4E35: DD 77 EF                          LD      (IX-11h),A
4E38: DD 7E F4                          LD      A,(IX-0Ch)
4E3B: CE FF                             ADC     A,0FFh
4E3D: DD 77 F0                          LD      (IX-10h),A
4E40: DD 7E F5                          LD      A,(IX-0Bh)
4E43: CE FF                             ADC     A,0FFh
4E45: DD 77 F1                          LD      (IX-0Fh),A
4E48: DD 7E F6                          LD      A,(IX-0Ah)
4E4B: CE FF                             ADC     A,0FFh
4E4D: DD 77 F2                          LD      (IX-0Eh),A
4E50: DD 7E EF                          LD      A,(IX-11h)
4E53: DD 96 E9                          SUB     (IX-17h)
4E56: DD 7E F0                          LD      A,(IX-10h)
4E59: DD 9E EA                          SBC     A,(IX-16h)
4E5C: DD 7E F1                          LD      A,(IX-0Fh)
4E5F: DD 9E EB                          SBC     A,(IX-15h)
4E62: DD 7E F2                          LD      A,(IX-0Eh)
4E65: DD 9E EC                          SBC     A,(IX-14h)
4E68: 38 2F                             JR      C,L4E99
4E6A: DD 7E E9                          LD      A,(IX-17h)
4E6D: C6 FF                             ADD     A,0FFh
4E6F: DD 77 F3                          LD      (IX-0Dh),A
4E72: DD 7E EA                          LD      A,(IX-16h)
4E75: CE FF                             ADC     A,0FFh
4E77: DD 77 F4                          LD      (IX-0Ch),A
4E7A: DD 7E EB                          LD      A,(IX-15h)
4E7D: CE FF                             ADC     A,0FFh
4E7F: DD 77 F5                          LD      (IX-0Bh),A
4E82: DD 7E EC                          LD      A,(IX-14h)
4E85: CE FF                             ADC     A,0FFh
4E87: DD 77 F6                          LD      (IX-0Ah),A
4E8A: DD 5E F7                          LD      E,(IX-09h)
4E8D: DD 56 F8                          LD      D,(IX-08h)
4E90: 21 0A 00                          LD      HL,000Ah
4E93: 39                                ADD     HL,SP
4E94: 01 04 00                          LD      BC,0004h
4E97: ED B0                             LDIR
4E99: DD 7E ED                   L4E99: LD      A,(IX-13h)
4E9C: C6 04                             ADD     A,04h
4E9E: 4F                                LD      C,A
4E9F: DD 7E EE                          LD      A,(IX-12h)
4EA2: CE 00                             ADC     A,00h
4EA4: 47                                LD      B,A
4EA5: 0A                                LD      A,(BC)
4EA6: CB C7                             SET     0,A
4EA8: 02                                LD      (BC),A
4EA9: 18 26                             JR      L4ED1

4EAB: DD 7E FB                   L4EAB: LD      A,(IX-05h)
4EAE: 3D                                DEC     A
4EAF: 20 12                             JR      NZ,L4EC3
4EB1: DD 36 FC FF                       LD      (IX-04h),0FFh
4EB5: DD 36 FD FF                       LD      (IX-03h),0FFh
4EB9: DD 36 FE FF                       LD      (IX-02h),0FFh
4EBD: DD 36 FF FF                       LD      (IX-01h),0FFh
4EC1: 18 0E                             JR      L4ED1

4EC3: DD 36 FC 01                L4EC3: LD      (IX-04h),01h
4EC7: AF                                XOR     A
4EC8: DD 77 FD                          LD      (IX-03h),A
4ECB: DD 77 FE                          LD      (IX-02h),A
4ECE: DD 77 FF                          LD      (IX-01h),A
4ED1: DD 6E FC                   L4ED1: LD      L,(IX-04h)
4ED4: DD 66 FD                          LD      H,(IX-03h)
4ED7: DD 5E FE                          LD      E,(IX-02h)
4EDA: DD 56 FF                          LD      D,(IX-01h)
4EDD: DD F9                      L4EDD: LD      SP,IX
4EDF: DD E1                             POP     IX
4EE1: C9                                RET

                                        ; --- START PROC L4EE2 ---
4EE2: DD E5                      L4EE2: PUSH    IX
4EE4: DD 21 00 00                       LD      IX,0000h
4EE8: DD 39                             ADD     IX,SP
4EEA: 21 F8 FF                          LD      HL,0FFF8h
4EED: 39                                ADD     HL,SP
4EEE: F9                                LD      SP,HL
4EEF: 21 0C 00                          LD      HL,000Ch
4EF2: 39                                ADD     HL,SP
4EF3: EB                                EX      DE,HL
4EF4: 4B                                LD      C,E
4EF5: 42                                LD      B,D
4EF6: 03                                INC     BC
4EF7: 03                                INC     BC
4EF8: DD 71 FE                          LD      (IX-02h),C
4EFB: DD 70 FF                          LD      (IX-01h),B
4EFE: 6B                                LD      L,E
4EFF: 62                                LD      H,D
4F00: 23                                INC     HL
4F01: 23                                INC     HL
4F02: 4E                                LD      C,(HL)
4F03: 23                                INC     HL
4F04: 46                                LD      B,(HL)
4F05: 21 10 00                          LD      HL,0010h
4F08: 39                                ADD     HL,SP
4F09: E3                                EX      (SP),HL
4F0A: E1                                POP     HL
4F0B: E5                                PUSH    HL
4F0C: 7E                                LD      A,(HL)
4F0D: 23                                INC     HL
4F0E: 66                                LD      H,(HL)
4F0F: 6F                                LD      L,A
4F10: D5                                PUSH    DE
4F11: E5                                PUSH    HL
4F12: C5                                PUSH    BC
4F13: CD 2E 3A                          CALL    L3A2E
4F16: F1                                POP     AF
4F17: F1                                POP     AF
4F18: 4D                                LD      C,L
4F19: 44                                LD      B,H
4F1A: D1                                POP     DE
4F1B: DD 6E FE                          LD      L,(IX-02h)
4F1E: DD 66 FF                          LD      H,(IX-01h)
4F21: 71                                LD      (HL),C
4F22: 23                                INC     HL
4F23: 70                                LD      (HL),B
4F24: 4B                                LD      C,E
4F25: 42                                LD      B,D
4F26: 03                                INC     BC
4F27: 03                                INC     BC
4F28: DD 71 FC                          LD      (IX-04h),C
4F2B: DD 70 FD                          LD      (IX-03h),B
4F2E: 6B                                LD      L,E
4F2F: 62                                LD      H,D
4F30: 23                                INC     HL
4F31: 23                                INC     HL
4F32: 7E                                LD      A,(HL)
4F33: DD 77 FE                          LD      (IX-02h),A
4F36: 23                                INC     HL
4F37: 7E                                LD      A,(HL)
4F38: DD 77 FF                          LD      (IX-01h),A
4F3B: E1                                POP     HL
4F3C: E5                                PUSH    HL
4F3D: 23                                INC     HL
4F3E: 23                                INC     HL
4F3F: 4E                                LD      C,(HL)
4F40: 23                                INC     HL
4F41: 46                                LD      B,(HL)
4F42: 6B                                LD      L,E
4F43: 62                                LD      H,D
4F44: 7E                                LD      A,(HL)
4F45: 23                                INC     HL
4F46: 66                                LD      H,(HL)
4F47: 6F                                LD      L,A
4F48: D5                                PUSH    DE
4F49: E5                                PUSH    HL
4F4A: C5                                PUSH    BC
4F4B: CD 2E 3A                          CALL    L3A2E
4F4E: F1                                POP     AF
4F4F: F1                                POP     AF
4F50: D1                                POP     DE
4F51: DD 7E FE                          LD      A,(IX-02h)
4F54: 85                                ADD     A,L
4F55: 4F                                LD      C,A
4F56: DD 7E FF                          LD      A,(IX-01h)
4F59: 8C                                ADC     A,H
4F5A: 47                                LD      B,A
4F5B: DD 6E FC                          LD      L,(IX-04h)
4F5E: DD 66 FD                          LD      H,(IX-03h)
4F61: 71                                LD      (HL),C
4F62: 23                                INC     HL
4F63: 70                                LD      (HL),B
4F64: 4B                                LD      C,E
4F65: 42                                LD      B,D
4F66: 03                                INC     BC
4F67: 03                                INC     BC
4F68: DD 71 FD                          LD      (IX-03h),C
4F6B: DD 70 FE                          LD      (IX-02h),B
4F6E: 6B                                LD      L,E
4F6F: 62                                LD      H,D
4F70: 23                                INC     HL
4F71: 23                                INC     HL
4F72: 4E                                LD      C,(HL)
4F73: 23                                INC     HL
4F74: 46                                LD      B,(HL)
4F75: 6B                                LD      L,E
4F76: 62                                LD      H,D
4F77: 23                                INC     HL
4F78: 7E                                LD      A,(HL)
4F79: DD 77 FF                          LD      (IX-01h),A
4F7C: E1                                POP     HL
4F7D: E5                                PUSH    HL
4F7E: 23                                INC     HL
4F7F: 66                                LD      H,(HL)
4F80: D5                                PUSH    DE
4F81: C5                                PUSH    BC
4F82: DD 5E FF                          LD      E,(IX-01h)
4F85: 2E 00                             LD      L,00h
4F87: 55                                LD      D,L
4F88: 06 08                             LD      B,08h
4F8A: 29                         L4F8A: ADD     HL,HL
4F8B: 30 01                             JR      NC,L4F8E
4F8D: 19                                ADD     HL,DE
4F8E: 10 FA                      L4F8E: DJNZ    L4F8A
4F90: C1                                POP     BC
4F91: D1                                POP     DE
4F92: 09                                ADD     HL,BC
4F93: 4D                                LD      C,L
4F94: 44                                LD      B,H
4F95: DD 6E FD                          LD      L,(IX-03h)
4F98: DD 66 FE                          LD      H,(IX-02h)
4F9B: 71                                LD      (HL),C
4F9C: 23                                INC     HL
4F9D: 70                                LD      (HL),B
4F9E: E1                                POP     HL
4F9F: E5                                PUSH    HL
4FA0: 4E                                LD      C,(HL)
4FA1: 6B                                LD      L,E
4FA2: 62                                LD      H,D
4FA3: 23                                INC     HL
4FA4: 66                                LD      H,(HL)
4FA5: D5                                PUSH    DE
4FA6: 59                                LD      E,C
4FA7: 2E 00                             LD      L,00h
4FA9: 55                                LD      D,L
4FAA: 06 08                             LD      B,08h
4FAC: 29                         L4FAC: ADD     HL,HL
4FAD: 30 01                             JR      NC,L4FB0
4FAF: 19                                ADD     HL,DE
4FB0: 10 FA                      L4FB0: DJNZ    L4FAC
4FB2: D1                                POP     DE
4FB3: DD 75 FA                          LD      (IX-06h),L
4FB6: DD 74 FB                          LD      (IX-05h),H
4FB9: C1                                POP     BC
4FBA: C5                                PUSH    BC
4FBB: 03                                INC     BC
4FBC: DD 71 FE                          LD      (IX-02h),C
4FBF: DD 70 FF                          LD      (IX-01h),B
4FC2: 6B                                LD      L,E
4FC3: 62                                LD      H,D
4FC4: 4E                                LD      C,(HL)
4FC5: E1                                POP     HL
4FC6: E5                                PUSH    HL
4FC7: 23                                INC     HL
4FC8: 66                                LD      H,(HL)
4FC9: D5                                PUSH    DE
4FCA: 59                                LD      E,C
4FCB: 2E 00                             LD      L,00h
4FCD: 55                                LD      D,L
4FCE: 06 08                             LD      B,08h
4FD0: 29                         L4FD0: ADD     HL,HL
4FD1: 30 01                             JR      NC,L4FD4
4FD3: 19                                ADD     HL,DE
4FD4: 10 FA                      L4FD4: DJNZ    L4FD0
4FD6: D1                                POP     DE
4FD7: 4D                                LD      C,L
4FD8: 44                                LD      B,H
4FD9: DD 6E FE                          LD      L,(IX-02h)
4FDC: DD 66 FF                          LD      H,(IX-01h)
4FDF: 71                                LD      (HL),C
4FE0: 23                                INC     HL
4FE1: 70                                LD      (HL),B
4FE2: C1                                POP     BC
4FE3: C5                                PUSH    BC
4FE4: 03                                INC     BC
4FE5: 03                                INC     BC
4FE6: 03                                INC     BC
4FE7: DD 71 FC                          LD      (IX-04h),C
4FEA: DD 70 FD                          LD      (IX-03h),B
4FED: C1                                POP     BC
4FEE: C5                                PUSH    BC
4FEF: 03                                INC     BC
4FF0: DD 71 FE                          LD      (IX-02h),C
4FF3: DD 70 FF                          LD      (IX-01h),B
4FF6: E1                                POP     HL
4FF7: E5                                PUSH    HL
4FF8: 23                                INC     HL
4FF9: 4E                                LD      C,(HL)
4FFA: 23                                INC     HL
4FFB: 46                                LD      B,(HL)
4FFC: 79                                LD      A,C
4FFD: DD 86 FA                          ADD     A,(IX-06h)
5000: 4F                                LD      C,A
5001: 78                                LD      A,B
5002: DD 8E FB                          ADC     A,(IX-05h)
5005: 47                                LD      B,A
5006: DD 6E FE                          LD      L,(IX-02h)
5009: DD 66 FF                          LD      H,(IX-01h)
500C: 71                                LD      (HL),C
500D: 23                                INC     HL
500E: 70                                LD      (HL),B
500F: 79                                LD      A,C
5010: DD 96 FA                          SUB     (IX-06h)
5013: 78                                LD      A,B
5014: DD 9E FB                          SBC     A,(IX-05h)
5017: 3E 00                             LD      A,00h
5019: 17                                RLA
501A: DD 6E FC                          LD      L,(IX-04h)
501D: DD 66 FD                          LD      H,(IX-03h)
5020: 77                                LD      (HL),A
5021: 4B                                LD      C,E
5022: 42                                LD      B,D
5023: 1A                                LD      A,(DE)
5024: 5F                                LD      E,A
5025: E1                                POP     HL
5026: E5                                PUSH    HL
5027: 66                                LD      H,(HL)
5028: C5                                PUSH    BC
5029: 2E 00                             LD      L,00h
502B: 55                                LD      D,L
502C: 06 08                             LD      B,08h
502E: 29                         L502E: ADD     HL,HL
502F: 30 01                             JR      NC,L5032
5031: 19                                ADD     HL,DE
5032: 10 FA                      L5032: DJNZ    L502E
5034: C1                                POP     BC
5035: EB                                EX      DE,HL
5036: 7B                                LD      A,E
5037: 02                                LD      (BC),A
5038: 03                                INC     BC
5039: 7A                                LD      A,D
503A: 02                                LD      (BC),A
503B: C1                                POP     BC
503C: C5                                PUSH    BC
503D: AF                                XOR     A
503E: 02                                LD      (BC),A
503F: DD 7E 04                          LD      A,(IX+04h)
5042: DD 86 08                          ADD     A,(IX+08h)
5045: 6F                                LD      L,A
5046: DD 7E 05                          LD      A,(IX+05h)
5049: DD 8E 09                          ADC     A,(IX+09h)
504C: 67                                LD      H,A
504D: DD 7E 06                          LD      A,(IX+06h)
5050: DD 8E 0A                          ADC     A,(IX+0Ah)
5053: 5F                                LD      E,A
5054: DD 7E 07                          LD      A,(IX+07h)
5057: DD 8E 0B                          ADC     A,(IX+0Bh)
505A: 57                                LD      D,A
505B: DD F9                             LD      SP,IX
505D: DD E1                             POP     IX
505F: C9                                RET

                                        ; --- START PROC L5060 ---
5060: DD E5                      L5060: PUSH    IX
5062: DD 21 00 00                       LD      IX,0000h
5066: DD 39                             ADD     IX,SP
5068: 3B                                DEC     SP
5069: 01 00 00                          LD      BC,0000h
506C: 11 00 00                          LD      DE,0000h
506F: DD 36 FF 20                       LD      (IX-01h),20h    ; ' '
5073: DD 7E 07                   L5073: LD      A,(IX+07h)
5076: CB 07                             RLC     A
5078: E6 01                             AND     01h
507A: 6F                                LD      L,A
507B: DD CB 04 26                       SLA     (IX+04h)
507F: DD CB 05 16                       RL      (IX+05h)
5083: DD CB 06 16                       RL      (IX+06h)
5087: DD CB 07 16                       RL      (IX+07h)
508B: CB 21                             SLA     C
508D: CB 10                             RL      B
508F: CB 13                             RL      E
5091: CB 12                             RL      D
5093: CB 45                             BIT     0,L
5095: 28 02                             JR      Z,L5099
5097: CB C1                             SET     0,C
5099: 79                         L5099: LD      A,C
509A: DD 96 08                          SUB     (IX+08h)
509D: 78                                LD      A,B
509E: DD 9E 09                          SBC     A,(IX+09h)
50A1: 7B                                LD      A,E
50A2: DD 9E 0A                          SBC     A,(IX+0Ah)
50A5: 7A                                LD      A,D
50A6: DD 9E 0B                          SBC     A,(IX+0Bh)
50A9: 38 2E                             JR      C,L50D9
50AB: 79                                LD      A,C
50AC: DD 96 08                          SUB     (IX+08h)
50AF: 4F                                LD      C,A
50B0: 78                                LD      A,B
50B1: DD 9E 09                          SBC     A,(IX+09h)
50B4: 47                                LD      B,A
50B5: 7B                                LD      A,E
50B6: DD 9E 0A                          SBC     A,(IX+0Ah)
50B9: 5F                                LD      E,A
50BA: 7A                                LD      A,D
50BB: DD 9E 0B                          SBC     A,(IX+0Bh)
50BE: 57                                LD      D,A
50BF: DD 7E 04                          LD      A,(IX+04h)
50C2: F6 01                             OR      01h
50C4: DD 77 04                          LD      (IX+04h),A
50C7: DD 7E 05                          LD      A,(IX+05h)
50CA: DD 77 05                          LD      (IX+05h),A
50CD: DD 7E 06                          LD      A,(IX+06h)
50D0: DD 77 06                          LD      (IX+06h),A
50D3: DD 7E 07                          LD      A,(IX+07h)
50D6: DD 77 07                          LD      (IX+07h),A
50D9: DD 35 FF                   L50D9: DEC     (IX-01h)
50DC: DD 7E FF                          LD      A,(IX-01h)
50DF: B7                                OR      A
50E0: 20 91                             JR      NZ,L5073
50E2: DD 6E 04                          LD      L,(IX+04h)
50E5: DD 66 05                          LD      H,(IX+05h)
50E8: DD 5E 06                          LD      E,(IX+06h)
50EB: DD 56 07                          LD      D,(IX+07h)
50EE: 33                                INC     SP
50EF: DD E1                             POP     IX
50F1: C9                                RET

50F2: 05                         L50F2: DB      05h
50F3: 13                                DB      13h

                                        ; --- START PROC L50F4 ---
50F4: 01 02 00                   L50F4: LD      BC,0002h
50F7: 78                                LD      A,B
50F8: B1                                OR      C
50F9: 28 08                             JR      Z,L5103
50FB: 11 B8 F2                          LD      DE,0F2B8h
50FE: 21 F2 50                          LD      HL,50F2h
5101: ED B0                             LDIR
                                        ; --- START PROC L5103 ---
5103: C9                         L5103: RET


references to external address 0F2B5h:
        2277 LD HL,(0F2B5h)
        227B LD (0F2B5h),HL
        227E LD IY,0F2B5h

references to external address 0F2B8h:
        1236 LD HL,(0F2B8h)
        12B1 LD HL,(0F2B8h)
        50FB LD DE,0F2B8h

possible references to internal address 0000:
        0114 LD IX,0000h
        0171 LD HL,0000h
        0221 LD HL,0000h
        02D8 LD HL,0000h
        02E6 LD HL,0000h
        02F0 LD IX,0000h
        08E1 LD HL,0000h
        0995 LD HL,0000h
        09A2 LD HL,0000h
        0A96 LD HL,0000h
        0AB9 LD HL,0000h
        0ABD LD HL,0000h
        0ADE LD HL,0000h
        0AE2 LD HL,0000h
        0B26 LD HL,0000h
        0B2A LD HL,0000h
        0F1E LD HL,0000h
        10BB LD IX,0000h
        1165 LD BC,0000h
        11A0 LD DE,0000h
        11CD LD DE,0000h
        11F9 LD DE,0000h
        1274 LD IY,0000h
        128A LD IX,0000h
        1362 LD HL,0000h
        138B LD DE,0000h
        13D0 LD IX,0000h
        1416 LD BC,0000h
        150D LD HL,0000h
        157E LD DE,0000h
        1765 LD HL,0000h
        182F LD HL,0000h
        1833 LD HL,0000h
        19F3 LD HL,0000h
        19F7 LD HL,0000h
        1B77 LD HL,0000h
        1BFE LD DE,0000h
        1D27 LD DE,0000h
        1E30 LD DE,0000h
        1E79 LD HL,0000h
        1E8E LD HL,0000h
        2086 LD HL,0000h
        248F LD HL,0000h
        2493 LD HL,0000h
        266D LD HL,0000h
        2737 LD HL,0000h
        28FA LD HL,0000h
        2D7D LD DE,0000h
        2DDA LD IX,0000h
        2E30 LD IX,0000h
        2EC0 LD IX,0000h
        3503 LD HL,0000h
        3603 LD HL,0000h
        3657 LD HL,0000h
        3B35 LD HL,0000h
        3B39 LD HL,0000h
        3BDA LD HL,0000h
        3C2D LD HL,0000h
        3D6F LD HL,0000h
        3D7F LD BC,0000h
        3DF2 LD HL,0000h
        3E21 LD HL,0000h
        3E25 LD HL,0000h
        3E4E LD HL,0000h
        3E70 LD DE,0000h
        3ED6 LD DE,0000h
        4130 LD HL,0000h
        4622 LD HL,0000h
        468F LD DE,0000h
        4756 LD HL,0000h
        4918 LD HL,0000h
        49BF LD HL,0000h
        49DB LD HL,0000h
        4AF5 LD DE,0000h
        4B83 LD HL,0000h
        4D27 LD HL,0000h
        4D84 LD HL,0000h
        4E16 LD HL,0000h
        4EE4 LD IX,0000h
        5062 LD IX,0000h
        5069 LD BC,0000h
        506C LD DE,0000h

possible references to internal address 0001:
        0676 LD HL,0001h
        07B6 LD HL,0001h
        07FC LD HL,0001h
        0ECF LD HL,0001h
        0FD2 LD HL,0001h
        1A82 LD HL,0001h
        2341 LD HL,0001h
        298F LD HL,0001h
        299F LD HL,0001h
        2A70 LD HL,0001h
        3C81 LD HL,0001h
        3DC1 LD HL,0001h
        3DD7 LD HL,0001h
        3DED LD HL,0001h
        4602 LD HL,0001h
        461E LD HL,0001h
        4711 LD HL,0001h
        475B LD HL,0001h
        4786 LD HL,0001h
        48EB LD HL,0001h
        4AF2 LD HL,0001h

possible references to internal address 0002:
        02DC LD HL,0002h
        02EA LD HL,0002h
        1215 LD IY,0002h
        123E LD HL,0002h
        124E LD IY,0002h
        12F1 LD HL,0002h
        2D98 LD IY,0002h
        45EE LD IY,0002h
        460A LD IY,0002h
        49E0 LD HL,0002h
        50F4 LD BC,0002h

possible references to internal address 0003:
        208A LD HL,0003h
        2EB0 LD HL,0003h
        3F23 LD DE,0003h
        498F LD HL,0003h
        49AB LD DE,0003h

possible references to internal address 0004:
        0304 LD BC,0004h
        03A8 LD HL,0004h
        0449 LD BC,0004h
        04E3 LD BC,0004h
        05DD LD BC,0004h
        0705 LD BC,0004h
        083D LD BC,0004h
        084D LD BC,0004h
        08DA LD BC,0004h
        0904 LD BC,0004h
        0D8E LD BC,0004h
        0D9E LD BC,0004h
        0E4F LD BC,0004h
        10C6 LD HL,0004h
        1501 LD BC,0004h
        1571 LD BC,0004h
        1645 LD BC,0004h
        16BA LD BC,0004h
        1755 LD HL,0004h
        176A LD HL,0004h
        17EB LD BC,0004h
        193F LD BC,0004h
        1DED LD BC,0004h
        1EE2 LD BC,0004h
        1F1E LD BC,0004h
        1F59 LD BC,0004h
        1FD1 LD BC,0004h
        2043 LD BC,0004h
        2053 LD BC,0004h
        20DC LD BC,0004h
        22B1 LD HL,0004h
        2304 LD BC,0004h
        2383 LD BC,0004h
        23CB LD BC,0004h
        24CD LD BC,0004h
        252F LD BC,0004h
        2535 LD HL,0004h
        2545 LD BC,0004h
        265F LD BC,0004h
        2729 LD BC,0004h
        27D5 LD BC,0004h
        285F LD BC,0004h
        297E LD BC,0004h
        29DD LD BC,0004h
        2D78 LD DE,0004h
        2E47 LD BC,0004h
        2E4D LD HL,0004h
        2EB4 LD BC,0004h
        341B LD BC,0004h
        342A LD BC,0004h
        34ED LD HL,0004h
        34F1 LD BC,0004h
        3508 LD BC,0004h
        3525 LD HL,0004h
        3529 LD BC,0004h
        3573 LD HL,0004h
        3578 LD BC,0004h
        3583 LD HL,0004h
        3587 LD BC,0004h
        35EE LD HL,0004h
        35F2 LD BC,0004h
        3608 LD BC,0004h
        3627 LD HL,0004h
        362B LD BC,0004h
        3641 LD HL,0004h
        3646 LD BC,0004h
        365C LD BC,0004h
        3686 LD HL,0004h
        368A LD BC,0004h
        3E03 LD IY,0004h
        3EB5 LD BC,0004h
        3EEF LD BC,0004h
        3FDB LD BC,0004h
        4057 LD BC,0004h
        4226 LD BC,0004h
        4315 LD BC,0004h
        4377 LD BC,0004h
        452C LD BC,0004h
        4679 LD BC,0004h
        4796 LD HL,0004h
        48DE LD BC,0004h
        4971 LD HL,0004h
        4A58 LD BC,0004h
        4A76 LD BC,0004h
        4AD7 LD BC,0004h
        4B24 LD BC,0004h
        4B5B LD BC,0004h
        4C4A LD BC,0004h
        4C8D LD BC,0004h
        4CB7 LD BC,0004h
        4E0B LD BC,0004h
        4E1B LD BC,0004h
        4E2B LD BC,0004h
        4E94 LD BC,0004h

possible references to internal address 0005:
        0CA9 LD DE,0005h
        22FF LD HL,0005h
        2E42 LD HL,0005h
        49C8 LD BC,0005h

possible references to internal address 0006:
        0152 LD HL,0006h
        019F LD HL,0006h
        0209 LD HL,0006h
        02FB LD HL,0006h
        0363 LD HL,0006h
        053D LD DE,0006h
        1267 LD HL,0006h
        180C LD HL,0006h
        1EDE LD HL,0006h
        22AA LD HL,0006h
        2541 LD HL,0006h
        2DB9 LD IY,0006h
        2E03 LD HL,0006h
        2E26 LD HL,0006h
        334C LD HL,0006h
        3374 LD HL,0006h
        3975 LD HL,0006h
        3CF7 LD BC,0006h
        4222 LD HL,0006h
        432C LD DE,0006h
        4372 LD HL,0006h
        4528 LD HL,0006h
        4675 LD HL,0006h

possible references to internal address 0007:
        29D8 LD HL,0007h
        408A LD BC,0007h
        43BA LD BC,0007h

possible references to internal address 0008:
        01E3 LD HL,0008h
        10C1 LD HL,0008h
        2ED2 LD HL,0008h
        2EE6 LD HL,0008h
        316E LD HL,0008h
        32DB LD HL,0008h
        33DA LD HL,0008h
        342F LD HL,0008h
        34A9 LD HL,0008h
        3537 LD HL,0008h
        358F LD HL,0008h
        3636 LD HL,0008h

possible references to internal address 0009:
        0694 LD DE,0009h
        06D4 LD IY,0009h
        07CB LD IY,0009h
        081A LD IY,0009h
        0D61 LD DE,0009h
        0EE4 LD IY,0009h
        1384 LD DE,0009h
        2359 LD IY,0009h
        29C0 LD IY,0009h
        2A85 LD HL,0009h
        332E LD HL,0009h
        3C9F LD IY,0009h
        4409 LD DE,0009h
        46AE LD HL,0009h
        4732 LD IY,0009h
        48DA LD HL,0009h
        4904 LD HL,0009h

possible references to internal address 000A:
        01CC LD BC,000Ah
        0421 LD DE,000Ah
        050C LD BC,000Ah
        0B46 LD IY,000Ah
        0F7C LD HL,000Ah
        241B LD IY,000Ah
        24A9 LD IY,000Ah
        2724 LD HL,000Ah
        3D3B LD DE,000Ah
        40DD LD BC,000Ah
        4A53 LD HL,000Ah
        4B52 LD HL,000Ah
        4C84 LD HL,000Ah
        4CB3 LD HL,000Ah
        4DAC LD IY,000Ah
        4DEF LD IY,000Ah
        4E26 LD HL,000Ah
        4E90 LD HL,000Ah

possible references to internal address 000B:
        0AAA LD HL,000Bh
        0B6F LD HL,000Bh
        1047 LD HL,000Bh
        2AC3 LD HL,000Bh
        3BA6 LD BC,000Bh
        3BB6 LD DE,000Bh
        3BCA LD HL,000Bh
        3CEE LD HL,000Bh
        4861 LD BC,000Bh

possible references to internal address 000C:
        0F92 LD HL,000Ch
        14FC LD HL,000Ch
        156C LD HL,000Ch
        1640 LD HL,000Ch
        16B5 LD HL,000Ch
        24C8 LD HL,000Ch
        265A LD HL,000Ch
        36A6 LD HL,000Ch
        4EEF LD HL,000Ch

possible references to internal address 000D:
        1CB1 LD DE,000Dh
        237F LD HL,000Dh

possible references to internal address 000E:
        0A8D LD HL,000Eh
        17E7 LD HL,000Eh
        18DA LD BC,000Eh
        193B LD HL,000Eh
        27D0 LD HL,000Eh
        285A LD HL,000Eh
        2979 LD HL,000Eh
        3C46 LD HL,000Eh

possible references to internal address 000F:
        24B7 LD HL,000Fh
        481D LD BC,000Fh
        4ACE LD HL,000Fh

possible references to internal address 0010:
        1C4E LD BC,0010h
        252B LD HL,0010h
        4F05 LD HL,0010h

possible references to internal address 0011:
        0300 LD HL,0011h

possible references to internal address 0012:
        23C6 LD HL,0012h
        2EDC LD HL,0012h
        3D7B LD HL,0012h
        4052 LD HL,0012h

possible references to internal address 0013:
        17C7 LD BC,0013h
        4A71 LD HL,0013h
        4AD3 LD HL,0013h
        4B1F LD HL,0013h
        4C45 LD HL,0013h
        4C89 LD HL,0013h
        4CAE LD HL,0013h
        4E07 LD HL,0013h

possible references to internal address 0014:
        0568 LD DE,0014h
        05E8 LD DE,0014h
        1844 LD HL,0014h

possible references to internal address 0016:
        0FE5 LD DE,0016h
        1A29 LD DE,0016h
        3B5C LD DE,0016h
        3D65 LD HL,0016h
        3EEA LD HL,0016h
        3FD6 LD HL,0016h

possible references to internal address 0017:
        1333 LD DE,0017h
        1475 LD DE,0017h
        23BF LD HL,0017h
        25E8 LD DE,0017h
        414F LD BC,0017h
        44A9 LD DE,0017h

possible references to internal address 0018:
        1FCD LD HL,0018h
        203F LD HL,0018h
        204E LD HL,0018h
        3C5B LD BC,0018h
        4311 LD HL,0018h

possible references to internal address 001A:
        1008 LD HL,001Ah
        1A50 LD DE,001Ah
        253C LD HL,001Ah
        3EB1 LD HL,001Ah

possible references to internal address 001B:
        2A10 LD DE,001Bh

possible references to internal address 001C:
        0AD9 LD HL,001Ch
        0C74 LD HL,001Ch
        1033 LD HL,001Ch
        1DE4 LD HL,001Ch
        2AB6 LD HL,001Ch
        3CC1 LD BC,001Ch

possible references to internal address 001D:
        4B57 LD HL,001Dh

possible references to internal address 001E:
        0839 LD HL,001Eh

possible references to internal address 001F:
        20D7 LD HL,001Fh
        48AE LD BC,001Fh

possible references to internal address 0020:
        101D LD HL,0020h
        2B9D LD DE,0020h
        3CE7 LD BC,0020h

possible references to internal address 0022:
        1F1A LD HL,0022h
        1F55 LD HL,0022h
        3C72 LD HL,0022h

possible references to internal address 0023:
        29E5 LD DE,0023h

possible references to internal address 0024:
        1DE9 LD HL,0024h
        2B98 LD DE,0024h

possible references to internal address 0026:
        04DE LD HL,0026h
        05D9 LD HL,0026h
        0848 LD HL,0026h
        08D5 LD HL,0026h
        0900 LD HL,0026h

possible references to internal address 0027:
        09C8 LD DE,0027h
        1829 LD HL,0027h
        1867 LD HL,0027h

possible references to internal address 0028:
        0700 LD HL,0028h

possible references to internal address 002A:
        0444 LD HL,002Ah
        0967 LD HL,002Ah

possible references to internal address 002B:
        136B LD DE,002Bh

possible references to internal address 002F:
        0B0D LD DE,002Fh
        0BE1 LD DE,002Fh
        1BA5 LD DE,002Fh
        22EE LD HL,002Fh
        2967 LD HL,002Fh
        3416 LD HL,002Fh
        3426 LD HL,002Fh
        466F LD HL,002Fh
        48A2 LD HL,002Fh
        4946 LD HL,002Fh

possible references to internal address 0033:
        2338 LD HL,0033h
        2985 LD HL,0033h
        467F LD HL,0033h
        47A5 LD HL,0033h
        4995 LD DE,0033h

possible references to internal address 0039:
        0D89 LD HL,0039h
        0E4B LD HL,0039h

possible references to internal address 003D:
        0D99 LD HL,003Dh

possible references to internal address 0047:
        096C LD HL,0047h

possible references to internal address 0069:
        49A6 LD HL,0069h

possible references to internal address 0085:
        49C4 LD HL,0085h

possible references to internal address 0092:
        1246 LD BC,0092h

possible references to internal address 01C6:
        3E85 LD DE,01C6h

possible references to internal address 0200:
        0762 LD DE,0200h
        0D25 LD HL,0200h
        468B LD DE,0200h
        47B2 LD HL,0200h

possible references to internal address 0217:
        47F7 LD HL,0217h

possible references to internal address 021B:
        4835 LD HL,021Bh

possible references to internal address 021F:
        4879 LD HL,021Fh

possible references to internal address 0222:
        01C1 LD HL,0222h

possible references to internal address 022A:
        0131 LD HL,022Ah

possible references to internal address 022C:
        011F LD HL,022Ch

possible references to internal address 0231:
        47C8 LD HL,0231h
        4978 LD HL,0231h

possible references to internal address 0245:
        0126 LD HL,0245h

possible references to internal address 0259:
        0147 LD HL,0259h
        0194 LD HL,0259h

possible references to internal address 0267:
        0162 LD HL,0267h
        01AE LD HL,0267h

possible references to internal address 026C:
        0169 LD HL,026Ch

possible references to internal address 0284:
        0181 LD HL,0284h

possible references to internal address 0294:
        01FE LD HL,0294h

possible references to internal address 02B4:
        0215 LD HL,02B4h

possible references to internal address 0490:
        12F5 LD BC,0490h

possible references to internal address 0FFF:
        1E64 LD HL,0FFFh

possible references to internal address 1067:
        10D3 LD HL,1067h

possible references to internal address 12FB:
        45EA LD HL,12FBh

possible references to internal address 12FD:
        4606 LD HL,12FDh

possible references to internal address 12FF:
        3DB0 LD HL,12FFh

possible references to internal address 1301:
        3DC6 LD HL,1301h

possible references to internal address 1303:
        3DDC LD HL,1303h

possible references to internal address 2D89:
        2CED LD HL,2D89h

possible references to internal address 4161:
        47E6 LD HL,4161h

possible references to internal address 49F2:
        49AF LD DE,49F2h

possible references to internal address 49F6:
        49CC LD BC,49F6h

possible references to internal address 5021:
        0A92 LD HL,5021h
        3D6B LD HL,5021h

possible references to internal address 50F2:
        50FE LD HL,50F2h

possible references to external address 5252h:
        47EA LD HL,5252h

possible references to external address 6141h:
        4803 LD HL,6141h

possible references to external address 7272h:
        4807 LD HL,7272h

possible references to external address 8000h:
        0104 LD SP,8000h
        01DB LD BC,8000h

possible references to external address 0AA55h:
        47D4 LD HL,0AA55h

possible references to external address 0F000h:
        014B LD HL,0F000h
        0157 LD HL,0F000h
        0198 LD HL,0F000h
        01A4 LD HL,0F000h
        0202 LD HL,0F000h
        020E LD HL,0F000h

possible references to external address 0F080h:
        0135 LD HL,0F080h

possible references to external address 0F2B3h:
        0F38 LD BC,0F2B3h
        1AE6 LD BC,0F2B3h

possible references to external address 0F2B5h:
        227E LD IY,0F2B5h
        ----------
        2277 LD HL,(0F2B5h)
        227B LD (0F2B5h),HL

possible references to external address 0F2B7h:
        3B0F LD IY,0F2B7h

possible references to external address 0F2B8h:
        50FB LD DE,0F2B8h
        ----------
        1236 LD HL,(0F2B8h)
        12B1 LD HL,(0F2B8h)

possible references to external address 0FDDAh:
        011A LD HL,0FDDAh

possible references to external address 0FFBFh:
        094D LD HL,0FFBFh

possible references to external address 0FFCDh:
        2EC6 LD HL,0FFCDh

possible references to external address 0FFD4h:
        0381 LD HL,0FFD4h

possible references to external address 0FFDCh:
        1AAF LD HL,0FFDCh

possible references to external address 0FFE6h:
        3E1C LD HL,0FFE6h
        3F53 LD HL,0FFE6h

possible references to external address 0FFE9h:
        49FF LD HL,0FFE9h

possible references to external address 0FFEDh:
        4629 LD HL,0FFEDh

possible references to external address 0FFEEh:
        2393 LD HL,0FFEEh
        42C5 LD HL,0FFEEh

possible references to external address 0FFEFh:
        294E LD HL,0FFEFh

possible references to external address 0FFF0h:
        1449 LD HL,0FFF0h
        25BA LD HL,0FFF0h

possible references to external address 0FFF2h:
        1789 LD HL,0FFF2h
        2A9B LD HL,0FFF2h

possible references to external address 0FFF5h:
        4766 LD HL,0FFF5h

possible references to external address 0FFF6h:
        02F6 LD HL,0FFF6h
        3A4B LD HL,0FFF6h
        3C28 LD HL,0FFF6h

possible references to external address 0FFF7h:
        19D3 LD HL,0FFF7h

possible references to external address 0FFF8h:
        4EEA LD HL,0FFF8h

possible references to external address 0FFF9h:
        2E36 LD HL,0FFF9h

possible references to external address 0FFFFh:
        13C7 LD HL,0FFFFh
        2401 LD HL,0FFFFh
        2405 LD HL,0FFFFh
        3A50 LD HL,0FFFFh
        3A79 LD HL,0FFFFh
        4D8C LD HL,0FFFFh
        4D90 LD HL,0FFFFh

references to port 1Ch
        021F OUT (1Ch),A

references to port 80h
        129C IN A,(80h)

references to port 91h
        02CD IN A,(91h)
        02D2 IN A,(91h)
        02E0 IN A,(91h)
        1232 IN A,(91h)
        1230 OUT (91h),A

references to port 0A1h
        01B8 OUT (0A1h),A
        01F5 OUT (0A1h),A

Procedures (65):
  Proc  Length  References Dependants
  L0000  010F            0          2
  L0112  0118            1          6
  L02CD  0013            2          0
  L02E0  000E            2          0
  L02EE  008A            4          1
  L0378  0003            6          0
  L037B  0003            1          0
  L037E  0595            1          7
  L0913  0037            3          1
  L094A  05C2            1         14
  L0F0C  00AF            1          3
  L0FBB  00AC            1          5
  L10B9  0034            3          1
  L10ED  0088            3          2
  L1175  00A0           11          1
  L1215  0029            1          2
  L123E  0010            1          0
  L124E  0026            1          2
  L1274  0014            1          0
  L1288  0052            1          2
  L12DA  0017            9          2
  L12F1  000A            1          0
  L1306  00B8            5          2
  L13BE  000F            2          0
  L13CD  000A           34          0
  L13D7  006F            3          2
  L1446  030E            8          4
  L1754  0032            1          2
  L1786  01CB            1          5
  L1951  007F            9          1
  L19D0  00DC            1          4
  L1AAC  07FA            2         10
  L22A6  0018            5          0
  L22BE  001F           12          1
  L22DD  00B3           15          3
  L2390  01E4            1          3
  L2574  0043            2          2
  L25B7  0394            4          5
  L294B  014D            3          2
  L2A98  02F1            1          5
  L2D98  0040            3          1
  L2DD8  0056            2          1
  L2E2E  0090            1          0
  L2EBE  0B65            1          5
  L3A2E  001A            2          0
  L3A48  00D5            2          1
  L3B1D  00DD            1          5
  L3BFA  002B            5          1
  L3C25  0187            1          8
  L3DAC  0001           19          0
  L3DAD  004B            1          1
  L3DF8  0021            1          0
  L3E19  0137            1          3
  L3F50  0323            2          5
  L4273  004F            3          1
  L42C2  0328            3          3
  L45EA  003C            1          0
  L4626  013D            1          5
  L4763  01D3            1          7
  L4936  00B0            2          4
  L49FC  04E6            1          3
  L4EE2  017E            3          1
  L5060  0092            1          0
  L50F4  0010            1          1
  L5103  0001            1          0

Call Graph:
L0000 - Entry Point
  L50F4
    L5103
  L0112
    L12DA
      L13BE
      L1288
        L3DAC
        L1274
    L0F0C
      L13CD
      L3A48
        L13CD
      L1AAC
        L13CD
        L3A48
          L13CD
        L02E0
        L02CD
        L3E19
          L13CD
          L4936
            L13CD
            L22DD
              L13CD
              L294B
                L13CD
                L0378
              L02EE
                L124E
                  L1215
                    L12F1
                    L3DAC
                  L123E
            L22BE
              L13CD
            L4273
              L13CD
          L1175
            L13CD
        L22BE
          L13CD
        L1175
          L13CD
        L4EE2
          L3A2E
        L5060
        L22DD
          L13CD
          L294B
            L13CD
            L0378
          L02EE
            L124E
              L1215
                L12F1
                L3DAC
              L123E
    L10B9
      L2EBE
        L3DAC
        L13BE
        L2DD8
          L2D98
            L3DAC
        L2E2E
        L2D98
          L3DAC
    L094A
      L13CD
      L1AAC
        L13CD
        L3A48
          L13CD
        L02E0
        L02CD
        L3E19
          L13CD
          L4936
            L13CD
            L22DD
              L13CD
              L294B
                L13CD
                L0378
              L02EE
                L124E
                  L1215
                    L12F1
                    L3DAC
                  L123E
            L22BE
              L13CD
            L4273
              L13CD
          L1175
            L13CD
        L22BE
          L13CD
        L1175
          L13CD
        L4EE2
          L3A2E
        L5060
        L22DD
          L13CD
          L294B
            L13CD
            L0378
          L02EE
            L124E
              L1215
                L12F1
                L3DAC
              L123E
      L1786
        L13CD
        L42C2
          L13CD
          L1446
            L13CD
            L22DD
              L13CD
              L294B
                L13CD
                L0378
              L02EE
                L124E
                  L1215
                    L12F1
                    L3DAC
                  L123E
            L22BE
              L13CD
            L1175
              L13CD
          L1306
            L13CD
            L4EE2
              L3A2E
        L2A98
          L13CD
          L22A6
          L45EA
          L3DAD
            L13CD
          L3DF8
        L3B1D
          L13CD
          L42C2
            L13CD
            L1446
              L13CD
              L22DD
                L13CD
                L294B
                  L13CD
                  L0378
                L02EE
                  L124E
                    L1215
                      L12F1
                      L3DAC
                    L123E
              L22BE
                L13CD
              L1175
                L13CD
            L1306
              L13CD
              L4EE2
                L3A2E
          L22DD
            L13CD
            L294B
              L13CD
              L0378
            L02EE
              L124E
                L1215
                  L12F1
                  L3DAC
                L123E
          L4273
            L13CD
          L3F50
            L13CD
            L1446
              L13CD
              L22DD
                L13CD
                L294B
                  L13CD
                  L0378
                L02EE
                  L124E
                    L1215
                      L12F1
                      L3DAC
                    L123E
              L22BE
                L13CD
              L1175
                L13CD
            L49FC
              L13CD
              L1446
                L13CD
                L22DD
                  L13CD
                  L294B
                    L13CD
                    L0378
                  L02EE
                    L124E
                      L1215
                        L12F1
                        L3DAC
                      L123E
                L22BE
                  L13CD
                L1175
                  L13CD
              L25B7
                L13CD
                L22DD
                  L13CD
                  L294B
                    L13CD
                    L0378
                  L02EE
                    L124E
                      L1215
                        L12F1
                        L3DAC
                      L123E
                L3BFA
                  L13CD
                L1175
                  L13CD
                L1951
                  L13CD
            L4626
              L13CD
              L294B
                L13CD
                L0378
              L1306
                L13CD
                L4EE2
                  L3A2E
              L22A6
              L0378
            L1306
              L13CD
              L4EE2
                L3A2E
        L13D7
          L13CD
          L22BE
            L13CD
      L0FBB
        L13CD
        L19D0
          L13CD
          L42C2
            L13CD
            L1446
              L13CD
              L22DD
                L13CD
                L294B
                  L13CD
                  L0378
                L02EE
                  L124E
                    L1215
                      L12F1
                      L3DAC
                    L123E
              L22BE
                L13CD
              L1175
                L13CD
            L1306
              L13CD
              L4EE2
                L3A2E
          L22DD
            L13CD
            L294B
              L13CD
              L0378
            L02EE
              L124E
                L1215
                  L12F1
                  L3DAC
                L123E
          L3F50
            L13CD
            L1446
              L13CD
              L22DD
                L13CD
                L294B
                  L13CD
                  L0378
                L02EE
                  L124E
                    L1215
                      L12F1
                      L3DAC
                    L123E
              L22BE
                L13CD
              L1175
                L13CD
            L49FC
              L13CD
              L1446
                L13CD
                L22DD
                  L13CD
                  L294B
                    L13CD
                    L0378
                  L02EE
                    L124E
                      L1215
                        L12F1
                        L3DAC
                      L123E
                L22BE
                  L13CD
                L1175
                  L13CD
              L25B7
                L13CD
                L22DD
                  L13CD
                  L294B
                    L13CD
                    L0378
                  L02EE
                    L124E
                      L1215
                        L12F1
                        L3DAC
                      L123E
                L3BFA
                  L13CD
                L1175
                  L13CD
                L1951
                  L13CD
            L4626
              L13CD
              L294B
                L13CD
                L0378
              L1306
                L13CD
                L4EE2
                  L3A2E
              L22A6
              L0378
            L1306
              L13CD
              L4EE2
                L3A2E
        L22DD
          L13CD
          L294B
            L13CD
            L0378
          L02EE
            L124E
              L1215
                L12F1
                L3DAC
              L123E
        L22A6
        L0913
          L13CD
      L13D7
        L13CD
        L22BE
          L13CD
      L1951
        L13CD
      L2574
        L13CD
        L3BFA
          L13CD
      L2390
        L13CD
        L25B7
          L13CD
          L22DD
            L13CD
            L294B
              L13CD
              L0378
            L02EE
              L124E
                L1215
                  L12F1
                  L3DAC
                L123E
          L3BFA
            L13CD
          L1175
            L13CD
          L1951
            L13CD
        L1446
          L13CD
          L22DD
            L13CD
            L294B
              L13CD
              L0378
            L02EE
              L124E
                L1215
                  L12F1
                  L3DAC
                L123E
          L22BE
            L13CD
          L1175
            L13CD
      L22DD
        L13CD
        L294B
          L13CD
          L0378
        L02EE
          L124E
            L1215
              L12F1
              L3DAC
            L123E
      L1175
        L13CD
      L22A6
      L1446
        L13CD
        L22DD
          L13CD
          L294B
            L13CD
            L0378
          L02EE
            L124E
              L1215
                L12F1
                L3DAC
              L123E
        L22BE
          L13CD
        L1175
          L13CD
      L1306
        L13CD
        L4EE2
          L3A2E
      L02EE
        L124E
          L1215
            L12F1
            L3DAC
          L123E
    L037E
      L13CD
      L10ED
        L13CD
        L02E0
      L1446
        L13CD
        L22DD
          L13CD
          L294B
            L13CD
            L0378
          L02EE
            L124E
              L1215
                L12F1
                L3DAC
              L123E
        L22BE
          L13CD
        L1175
          L13CD
      L1306
        L13CD
        L4EE2
          L3A2E
      L02EE
        L124E
          L1215
            L12F1
            L3DAC
          L123E
      L0913
        L13CD
      L0378
    L1754
      L3C25
        L13CD
        L10ED
          L13CD
          L02E0
        L0378
        L22DD
          L13CD
          L294B
            L13CD
            L0378
          L02EE
            L124E
              L1215
                L12F1
                L3DAC
              L123E
        L2574
          L13CD
          L3BFA
            L13CD
        L1951
          L13CD
        L3BFA
          L13CD
        L4763
          L13CD
          L294B
            L13CD
            L0378
          L22A6
          L3BFA
            L13CD
          L1951
            L13CD
          L0378
          L037B
      L10ED
        L13CD
        L02E0
