                                        ; Entry Point
                                        ; --- START PROC L0000 ---
0000: C3 00 01                   L0000: JP      L0100

0003: FF                         L0003: DB      0FFh
0004: FF                                DB      0FFh
0005: FF                                DB      0FFh
0006: FF                                DB      0FFh
0007: FF                                DB      0FFh
0008: ED                                DB      0EDh
0009: 4D                                DB      4Dh     ; 'M'
000A: FF                                DB      0FFh
000B: FF                                DB      0FFh
000C: FF                                DB      0FFh
000D: FF                                DB      0FFh
000E: FF                                DB      0FFh
000F: FF                                DB      0FFh
0010: ED                                DB      0EDh
0011: 4D                                DB      4Dh     ; 'M'
0012: FF                                DB      0FFh
0013: FF                                DB      0FFh
0014: FF                                DB      0FFh
0015: FF                                DB      0FFh
0016: FF                                DB      0FFh
0017: FF                                DB      0FFh
0018: ED                                DB      0EDh
0019: 4D                                DB      4Dh     ; 'M'
001A: FF                                DB      0FFh
001B: FF                                DB      0FFh
001C: FF                                DB      0FFh
001D: FF                                DB      0FFh
001E: FF                                DB      0FFh
001F: FF                                DB      0FFh
0020: ED                                DB      0EDh
0021: 4D                                DB      4Dh     ; 'M'
0022: FF                                DB      0FFh
0023: FF                                DB      0FFh
0024: FF                                DB      0FFh
0025: FF                                DB      0FFh
0026: FF                                DB      0FFh
0027: FF                                DB      0FFh
0028: ED                                DB      0EDh
0029: 4D                                DB      4Dh     ; 'M'
002A: FF                                DB      0FFh
002B: FF                                DB      0FFh
002C: FF                                DB      0FFh
002D: FF                                DB      0FFh
002E: FF                                DB      0FFh
002F: FF                                DB      0FFh
0030: ED                                DB      0EDh
0031: 4D                                DB      4Dh     ; 'M'
0032: FF                                DB      0FFh
0033: FF                                DB      0FFh
0034: FF                                DB      0FFh
0035: FF                                DB      0FFh
0036: FF                                DB      0FFh
0037: FF                                DB      0FFh
0038: ED                                DB      0EDh
0039: 4D                                DB      4Dh     ; 'M'
003A: FF                                DB      0FFh
003B: FF                                DB      0FFh
003C: FF                                DB      0FFh
003D: FF                                DB      0FFh
003E: FF                                DB      0FFh
003F: FF                                DB      0FFh
0040: FF                                DB      0FFh
0041: FF                                DB      0FFh
0042: FF                                DB      0FFh
0043: FF                                DB      0FFh
0044: FF                                DB      0FFh
0045: FF                                DB      0FFh
0046: FF                                DB      0FFh
0047: FF                                DB      0FFh
0048: FF                                DB      0FFh
0049: FF                                DB      0FFh
004A: FF                                DB      0FFh
004B: FF                                DB      0FFh
004C: FF                                DB      0FFh
004D: FF                                DB      0FFh
004E: FF                                DB      0FFh
004F: FF                                DB      0FFh
0050: FF                                DB      0FFh
0051: FF                                DB      0FFh
0052: FF                                DB      0FFh
0053: FF                                DB      0FFh
0054: FF                                DB      0FFh
0055: FF                                DB      0FFh
0056: FF                                DB      0FFh
0057: FF                                DB      0FFh
0058: FF                                DB      0FFh
0059: FF                                DB      0FFh
005A: FF                                DB      0FFh
005B: FF                                DB      0FFh
005C: FF                                DB      0FFh
005D: FF                                DB      0FFh
005E: FF                                DB      0FFh
005F: FF                                DB      0FFh
0060: FF                                DB      0FFh
0061: FF                                DB      0FFh
0062: FF                                DB      0FFh
0063: FF                                DB      0FFh
0064: FF                                DB      0FFh
0065: FF                                DB      0FFh
0066: C3                                DB      0C3h
0067: 10                                DB      10h
0068: 01                                DB      01h
0069: FF                                DB      0FFh
006A: FF                                DB      0FFh
006B: FF                                DB      0FFh
006C: FF                                DB      0FFh
006D: FF                                DB      0FFh
006E: FF                                DB      0FFh
006F: FF                                DB      0FFh
0070: FF                                DB      0FFh
0071: FF                                DB      0FFh
0072: FF                                DB      0FFh
0073: FF                                DB      0FFh
0074: FF                                DB      0FFh
0075: FF                                DB      0FFh
0076: FF                                DB      0FFh
0077: FF                                DB      0FFh
0078: FF                                DB      0FFh
0079: FF                                DB      0FFh
007A: FF                                DB      0FFh
007B: FF                                DB      0FFh
007C: FF                                DB      0FFh
007D: FF                                DB      0FFh
007E: FF                                DB      0FFh
007F: FF                                DB      0FFh
0080: FF                                DB      0FFh
0081: FF                                DB      0FFh
0082: FF                                DB      0FFh
0083: FF                                DB      0FFh
0084: FF                                DB      0FFh
0085: FF                                DB      0FFh
0086: FF                                DB      0FFh
0087: FF                                DB      0FFh
0088: FF                                DB      0FFh
0089: FF                                DB      0FFh
008A: FF                                DB      0FFh
008B: FF                                DB      0FFh
008C: FF                                DB      0FFh
008D: FF                                DB      0FFh
008E: FF                                DB      0FFh
008F: FF                                DB      0FFh
0090: FF                                DB      0FFh
0091: FF                                DB      0FFh
0092: FF                                DB      0FFh
0093: FF                                DB      0FFh
0094: FF                                DB      0FFh
0095: FF                                DB      0FFh
0096: FF                                DB      0FFh
0097: FF                                DB      0FFh
0098: FF                                DB      0FFh
0099: FF                                DB      0FFh
009A: FF                                DB      0FFh
009B: FF                                DB      0FFh
009C: FF                                DB      0FFh
009D: FF                                DB      0FFh
009E: FF                                DB      0FFh
009F: FF                                DB      0FFh
00A0: FF                                DB      0FFh
00A1: FF                                DB      0FFh
00A2: FF                                DB      0FFh
00A3: FF                                DB      0FFh
00A4: FF                                DB      0FFh
00A5: FF                                DB      0FFh
00A6: FF                                DB      0FFh
00A7: FF                                DB      0FFh
00A8: FF                                DB      0FFh
00A9: FF                                DB      0FFh
00AA: FF                                DB      0FFh
00AB: FF                                DB      0FFh
00AC: FF                                DB      0FFh
00AD: FF                                DB      0FFh
00AE: FF                                DB      0FFh
00AF: FF                                DB      0FFh
00B0: FF                                DB      0FFh
00B1: FF                                DB      0FFh
00B2: FF                                DB      0FFh
00B3: FF                                DB      0FFh
00B4: FF                                DB      0FFh
00B5: FF                                DB      0FFh
00B6: FF                                DB      0FFh
00B7: FF                                DB      0FFh
00B8: FF                                DB      0FFh
00B9: FF                                DB      0FFh
00BA: FF                                DB      0FFh
00BB: FF                                DB      0FFh
00BC: FF                                DB      0FFh
00BD: FF                                DB      0FFh
00BE: FF                                DB      0FFh
00BF: FF                                DB      0FFh
00C0: FF                                DB      0FFh
00C1: FF                                DB      0FFh
00C2: FF                                DB      0FFh
00C3: FF                                DB      0FFh
00C4: FF                                DB      0FFh
00C5: FF                                DB      0FFh
00C6: FF                                DB      0FFh
00C7: FF                                DB      0FFh
00C8: FF                                DB      0FFh
00C9: FF                                DB      0FFh
00CA: FF                                DB      0FFh
00CB: FF                                DB      0FFh
00CC: FF                                DB      0FFh
00CD: FF                                DB      0FFh
00CE: FF                                DB      0FFh
00CF: FF                                DB      0FFh
00D0: FF                                DB      0FFh
00D1: FF                                DB      0FFh
00D2: FF                                DB      0FFh
00D3: FF                                DB      0FFh
00D4: FF                                DB      0FFh
00D5: FF                                DB      0FFh
00D6: FF                                DB      0FFh
00D7: FF                                DB      0FFh
00D8: FF                                DB      0FFh
00D9: FF                                DB      0FFh
00DA: FF                                DB      0FFh
00DB: FF                                DB      0FFh
00DC: FF                                DB      0FFh
00DD: FF                                DB      0FFh
00DE: FF                                DB      0FFh
00DF: FF                                DB      0FFh
00E0: FF                                DB      0FFh
00E1: FF                                DB      0FFh
00E2: FF                                DB      0FFh
00E3: FF                                DB      0FFh
00E4: FF                                DB      0FFh
00E5: FF                                DB      0FFh
00E6: FF                                DB      0FFh
00E7: FF                                DB      0FFh
00E8: FF                                DB      0FFh
00E9: FF                                DB      0FFh
00EA: FF                                DB      0FFh
00EB: FF                                DB      0FFh
00EC: FF                                DB      0FFh
00ED: FF                                DB      0FFh
00EE: FF                                DB      0FFh
00EF: FF                                DB      0FFh
00F0: FF                                DB      0FFh
00F1: FF                                DB      0FFh
00F2: FF                                DB      0FFh
00F3: FF                                DB      0FFh
00F4: FF                                DB      0FFh
00F5: FF                                DB      0FFh
00F6: FF                                DB      0FFh
00F7: FF                                DB      0FFh
00F8: FF                                DB      0FFh
00F9: FF                                DB      0FFh
00FA: FF                                DB      0FFh
00FB: FF                                DB      0FFh
00FC: FF                                DB      0FFh
00FD: FF                                DB      0FFh
00FE: FF                                DB      0FFh
00FF: FF                                DB      0FFh

0100: 06 40                      L0100: LD      B,40h   ; '@'
0102: 10 FE                      L0102: DJNZ    L0102
0104: 31 00 80                          LD      SP,8000h
0107: CD F5 50                          CALL    L50F5
010A: CD 12 01                          CALL    L0112
010D: 18 FE                      L010D: JR      L010D

010F: FF                         L010F: DB      0FFh
0110: ED                                DB      0EDh
0111: 45                                DB      45h     ; 'E'

                                        ; --- START PROC L0112 ---
0112: DD E5                      L0112: PUSH    IX
0114: DD 21 00 00                       LD      IX,0000h
0118: DD 39                             ADD     IX,SP
011A: 21 DA FD                          LD      HL,0FDDAh
011D: 39                                ADD     HL,SP
011E: F9                                LD      SP,HL
011F: 21 2C 02                          LD      HL,022Ch
0122: E5                                PUSH    HL
0123: CD DB 12                          CALL    L12DB
0126: 21 45 02                          LD      HL,0245h
0129: E3                                EX      (SP),HL
012A: CD DB 12                          CALL    L12DB
012D: 26 01                             LD      H,01h
012F: E3                                EX      (SP),HL
0130: 33                                INC     SP
0131: 21 2A 02                          LD      HL,022Ah
0134: E5                                PUSH    HL
0135: 21 80 70                          LD      HL,7080h
0138: E5                                PUSH    HL
0139: CD 0D 0F                          CALL    L0F0D
013C: F1                                POP     AF
013D: F1                                POP     AF
013E: 33                                INC     SP
013F: 4D                                LD      C,L
0140: 79                                LD      A,C
0141: B7                                OR      A
0142: 28 1E                             JR      Z,L0162
0144: 06 00                             LD      B,00h
0146: C5                                PUSH    BC
0147: 21 59 02                          LD      HL,0259h
014A: E5                                PUSH    HL
014B: 21 00 70                          LD      HL,7000h
014E: E5                                PUSH    HL
014F: CD BA 10                          CALL    L10BA
0152: 21 06 00                          LD      HL,0006h
0155: 39                                ADD     HL,SP
0156: F9                                LD      SP,HL
0157: 21 00 70                          LD      HL,7000h
015A: E5                                PUSH    HL
015B: CD DB 12                          CALL    L12DB
015E: F1                                POP     AF
015F: C3 25 02                          JP      L0225

0162: 21 67 02                   L0162: LD      HL,0267h
0165: E5                                PUSH    HL
0166: CD DB 12                          CALL    L12DB
0169: 21 6C 02                          LD      HL,026Ch
016C: E3                                EX      (SP),HL
016D: CD DB 12                          CALL    L12DB
0170: F1                                POP     AF
0171: 21 00 00                          LD      HL,0000h
0174: 39                                ADD     HL,SP
0175: DD 75 FE                          LD      (IX-02h),L
0178: DD 74 FF                          LD      (IX-01h),H
017B: 4D                                LD      C,L
017C: 44                                LD      B,H
017D: 3E 01                             LD      A,01h
017F: F5                                PUSH    AF
0180: 33                                INC     SP
0181: 21 84 02                          LD      HL,0284h
0184: E5                                PUSH    HL
0185: C5                                PUSH    BC
0186: CD 4B 09                          CALL    L094B
0189: F1                                POP     AF
018A: F1                                POP     AF
018B: 33                                INC     SP
018C: 7D                                LD      A,L
018D: B7                                OR      A
018E: 28 1E                             JR      Z,L01AE
0190: 4F                                LD      C,A
0191: 06 00                             LD      B,00h
0193: C5                                PUSH    BC
0194: 21 59 02                          LD      HL,0259h
0197: E5                                PUSH    HL
0198: 21 00 70                          LD      HL,7000h
019B: E5                                PUSH    HL
019C: CD BA 10                          CALL    L10BA
019F: 21 06 00                          LD      HL,0006h
01A2: 39                                ADD     HL,SP
01A3: F9                                LD      SP,HL
01A4: 21 00 70                          LD      HL,7000h
01A7: E5                                PUSH    HL
01A8: CD DB 12                          CALL    L12DB
01AB: F1                                POP     AF
01AC: 18 77                             JR      L0225

01AE: 21 67 02                   L01AE: LD      HL,0267h
01B1: E5                                PUSH    HL
01B2: CD DB 12                          CALL    L12DB
01B5: F1                                POP     AF
01B6: 3E 00                             LD      A,00h
01B8: D3 A1                             OUT     (0A1h),A
01BA: AF                                XOR     A
01BB: DD 77 FC                          LD      (IX-04h),A
01BE: DD 77 FD                          LD      (IX-03h),A
01C1: 21 22 02                          LD      HL,0222h
01C4: 39                                ADD     HL,SP
01C5: EB                                EX      DE,HL
01C6: DD 6E FE                          LD      L,(IX-02h)
01C9: DD 66 FF                          LD      H,(IX-01h)
01CC: 01 0A 00                          LD      BC,000Ah
01CF: 09                                ADD     HL,BC
01D0: 4E                                LD      C,(HL)
01D1: 23                                INC     HL
01D2: 46                                LD      B,(HL)
01D3: DD 6E FE                          LD      L,(IX-02h)
01D6: DD 66 FF                          LD      H,(IX-01h)
01D9: D5                                PUSH    DE
01DA: C5                                PUSH    BC
01DB: 01 00 80                          LD      BC,8000h
01DE: C5                                PUSH    BC
01DF: E5                                PUSH    HL
01E0: CD 7F 03                          CALL    L037F
01E3: 21 08 00                          LD      HL,0008h
01E6: 39                                ADD     HL,SP
01E7: F9                                LD      SP,HL
01E8: DD 4E FE                          LD      C,(IX-02h)
01EB: DD 46 FF                          LD      B,(IX-01h)
01EE: C5                                PUSH    BC
01EF: CD 55 17                          CALL    L1755
01F2: F1                                POP     AF
01F3: 3E 03                             LD      A,03h
01F5: D3 A1                             OUT     (0A1h),A
01F7: DD 6E FC                          LD      L,(IX-04h)
01FA: DD 66 FD                          LD      H,(IX-03h)
01FD: E5                                PUSH    HL
01FE: 21 94 02                          LD      HL,0294h
0201: E5                                PUSH    HL
0202: 21 00 70                          LD      HL,7000h
0205: E5                                PUSH    HL
0206: CD BA 10                          CALL    L10BA
0209: 21 06 00                          LD      HL,0006h
020C: 39                                ADD     HL,SP
020D: F9                                LD      SP,HL
020E: 21 00 70                          LD      HL,7000h
0211: E5                                PUSH    HL
0212: CD DB 12                          CALL    L12DB
0215: 21 B5 02                          LD      HL,02B5h
0218: E3                                EX      (SP),HL
0219: CD DB 12                          CALL    L12DB
021C: F1                                POP     AF
021D: 3E 01                             LD      A,01h
021F: D3 1C                             OUT     (1Ch),A
0221: 21 00 00                          LD      HL,0000h
0224: E9                                JP      (HL)

0225: DD F9                      L0225: LD      SP,IX
0227: DD E1                             POP     IX
0229: C9                                RET

022A: 30                         L022A: DB      30h     ; '0'
022B: 00                                DB      00h
022C: 2E 2E 2E 6C 61 6E 64 65           DB      "...landed in big80.sys!"
0234: 64 20 69 6E 20 62 69 67
023C: 38 30 2E 73 79 73 21
0243: 0A                                DB      0Ah
0244: 00                                DB      00h
0245: 4D 6F 75 6E 74 69 6E 67           DB      "Mounting SD card..."
024D: 20 53 44 20 63 61 72 64
0255: 2E 2E 2E
0258: 00                                DB      00h
0259: 20 46 41 49 4C 45 44 20           DB      " FAILED (%i)"
0261: 28 25 69 29
0265: 0A                                DB      0Ah
0266: 00                                DB      00h
0267: 20                                DB      20h     ; ' '
0268: 4F                                DB      4Fh     ; 'O'
0269: 4B                                DB      4Bh     ; 'K'
026A: 0A                                DB      0Ah
026B: 00                                DB      00h
026C: 4F 70 65 6E 69 6E 67 20           DB      "Opening level2-a.rom..."
0274: 6C 65 76 65 6C 32 2D 61
027C: 2E 72 6F 6D 2E 2E 2E
0283: 00                                DB      00h
0284: 30 3A 2F 6C 65 76 65 6C           DB      "0:/level2-a.rom"
028C: 32 2D 61 2E 72 6F 6D
0293: 00                                DB      00h
0294: 6C 65 76 65 6C 32 2D 61           DB      "level2-a.rom loaded (%u bytes)."
029C: 2E 72 6F 6D 20 6C 6F 61
02A4: 64 65 64 20 28 25 75 20
02AC: 62 79 74 65 73 29 2E
02B3: 0A                                DB      0Ah
02B4: 00                                DB      00h
02B5: 4A 75 6D 70 69 6E 67 20           DB      "Jumping to TRS-80 ROM..."
02BD: 74 6F 20 54 52 53 2D 38
02C5: 30 20 52 4F 4D 2E 2E 2E
02CD: 00                                DB      00h

                                        ; --- START PROC L02CE ---
02CE: DB 91                      L02CE: IN      A,(91h)
02D0: 0F                                RRCA
02D1: 38 FB                             JR      C,L02CE
02D3: DB 91                             IN      A,(91h)
02D5: CB 77                             BIT     6,A
02D7: 28 04                             JR      Z,L02DD
02D9: 21 00 00                          LD      HL,0000h
02DC: C9                                RET

02DD: 21 02 00                   L02DD: LD      HL,0002h
02E0: C9                                RET

                                        ; --- START PROC L02E1 ---
02E1: DB 91                      L02E1: IN      A,(91h)
02E3: CB 77                             BIT     6,A
02E5: 28 04                             JR      Z,L02EB
02E7: 21 00 00                          LD      HL,0000h
02EA: C9                                RET

02EB: 21 02 00                   L02EB: LD      HL,0002h
02EE: C9                                RET

                                        ; --- START PROC L02EF ---
02EF: DD E5                      L02EF: PUSH    IX
02F1: DD 21 00 00                       LD      IX,0000h
02F5: DD 39                             ADD     IX,SP
02F7: 21 F6 FF                          LD      HL,0FFF6h
02FA: 39                                ADD     HL,SP
02FB: F9                                LD      SP,HL
02FC: 21 06 00                          LD      HL,0006h
02FF: 39                                ADD     HL,SP
0300: EB                                EX      DE,HL
0301: 21 11 00                          LD      HL,0011h
0304: 39                                ADD     HL,SP
0305: 01 04 00                          LD      BC,0004h
0308: ED B0                             LDIR
030A: DD 46 05                          LD      B,(IX+05h)
030D: DD 4E 06                          LD      C,(IX+06h)
0310: DD 5E 0B                          LD      E,(IX+0Bh)
0313: DD 56 0C                          LD      D,(IX+0Ch)
0316: 7A                         L0316: LD      A,D
0317: B3                                OR      E
0318: 28 58                             JR      Z,L0372
031A: DD 70 F6                          LD      (IX-0Ah),B
031D: DD 71 F7                          LD      (IX-09h),C
0320: DD 7E FC                          LD      A,(IX-04h)
0323: DD 77 F8                          LD      (IX-08h),A
0326: DD 7E FD                          LD      A,(IX-03h)
0329: DD 77 F9                          LD      (IX-07h),A
032C: DD 7E FE                          LD      A,(IX-02h)
032F: DD 77 FA                          LD      (IX-06h),A
0332: DD 7E FF                          LD      A,(IX-01h)
0335: DD 77 FB                          LD      (IX-05h),A
0338: DD 34 FC                          INC     (IX-04h)
033B: 20 0D                             JR      NZ,L034A
033D: DD 34 FD                          INC     (IX-03h)
0340: 20 08                             JR      NZ,L034A
0342: DD 34 FE                          INC     (IX-02h)
0345: 20 03                             JR      NZ,L034A
0347: DD 34 FF                          INC     (IX-01h)
034A: C5                         L034A: PUSH    BC
034B: D5                                PUSH    DE
034C: DD 6E F6                          LD      L,(IX-0Ah)
034F: DD 66 F7                          LD      H,(IX-09h)
0352: E5                                PUSH    HL
0353: DD 6E FA                          LD      L,(IX-06h)
0356: DD 66 FB                          LD      H,(IX-05h)
0359: E5                                PUSH    HL
035A: DD 6E F8                          LD      L,(IX-08h)
035D: DD 66 F9                          LD      H,(IX-07h)
0360: E5                                PUSH    HL
0361: CD 4F 12                          CALL    L124F
0364: 21 06 00                          LD      HL,0006h
0367: 39                                ADD     HL,SP
0368: F9                                LD      SP,HL
0369: D1                                POP     DE
036A: C1                                POP     BC
036B: 79                                LD      A,C
036C: C6 02                             ADD     A,02h
036E: 4F                                LD      C,A
036F: 1B                                DEC     DE
0370: 18 A4                             JR      L0316

0372: 2E 00                      L0372: LD      L,00h
0374: DD F9                             LD      SP,IX
0376: DD E1                             POP     IX
0378: C9                                RET

                                        ; --- START PROC L0379 ---
0379: 2E 04                      L0379: LD      L,04h
037B: C9                                RET

                                        ; --- START PROC L037C ---
037C: 2E 04                      L037C: LD      L,04h
037E: C9                                RET

                                        ; --- START PROC L037F ---
037F: CD CE 13                   L037F: CALL    L13CE
0382: 21 D4 FF                          LD      HL,0FFD4h
0385: 39                                ADD     HL,SP
0386: F9                                LD      SP,HL
0387: DD 7E 06                          LD      A,(IX+06h)
038A: DD 77 FE                          LD      (IX-02h),A
038D: DD 7E 07                          LD      A,(IX+07h)
0390: DD 77 FF                          LD      (IX-01h),A
0393: DD 7E 0A                          LD      A,(IX+0Ah)
0396: DD 77 DA                          LD      (IX-26h),A
0399: DD 7E 0B                          LD      A,(IX+0Bh)
039C: DD 77 DB                          LD      (IX-25h),A
039F: DD 6E DA                          LD      L,(IX-26h)
03A2: DD 66 DB                          LD      H,(IX-25h)
03A5: AF                                XOR     A
03A6: 77                                LD      (HL),A
03A7: 23                                INC     HL
03A8: 77                                LD      (HL),A
03A9: 21 04 00                          LD      HL,0004h
03AC: 39                                ADD     HL,SP
03AD: DD 7E 04                          LD      A,(IX+04h)
03B0: DD 77 DC                          LD      (IX-24h),A
03B3: DD 7E 05                          LD      A,(IX+05h)
03B6: DD 77 DD                          LD      (IX-23h),A
03B9: E5                                PUSH    HL
03BA: DD 6E DC                          LD      L,(IX-24h)
03BD: DD 66 DD                          LD      H,(IX-23h)
03C0: E5                                PUSH    HL
03C1: CD EE 10                          CALL    L10EE
03C4: F1                                POP     AF
03C5: F1                                POP     AF
03C6: 4D                                LD      C,L
03C7: DD 71 FD                          LD      (IX-03h),C
03CA: 79                                LD      A,C
03CB: B7                                OR      A
03CC: 20 1D                             JR      NZ,L03EB
03CE: DD 7E DC                          LD      A,(IX-24h)
03D1: C6 0F                             ADD     A,0Fh
03D3: DD 77 DE                          LD      (IX-22h),A
03D6: DD 7E DD                          LD      A,(IX-23h)
03D9: CE 00                             ADC     A,00h
03DB: DD 77 DF                          LD      (IX-21h),A
03DE: DD 6E DE                          LD      L,(IX-22h)
03E1: DD 66 DF                          LD      H,(IX-21h)
03E4: 7E                                LD      A,(HL)
03E5: DD 77 FD                          LD      (IX-03h),A
03E8: B7                                OR      A
03E9: 28 06                             JR      Z,L03F1
03EB: DD 6E FD                   L03EB: LD      L,(IX-03h)
03EE: C3 0F 09                          JP      L090F

03F1: DD 7E DC                   L03F1: LD      A,(IX-24h)
03F4: DD 77 E0                          LD      (IX-20h),A
03F7: DD 7E DD                          LD      A,(IX-23h)
03FA: DD 77 E1                          LD      (IX-1Fh),A
03FD: DD 7E DC                          LD      A,(IX-24h)
0400: C6 0E                             ADD     A,0Eh
0402: DD 77 E2                          LD      (IX-1Eh),A
0405: DD 7E DD                          LD      A,(IX-23h)
0408: CE 00                             ADC     A,00h
040A: DD 77 E3                          LD      (IX-1Dh),A
040D: DD 6E E2                          LD      L,(IX-1Eh)
0410: DD 66 E3                          LD      H,(IX-1Dh)
0413: 7E                                LD      A,(HL)
0414: 0F                                RRCA
0415: 38 05                             JR      C,L041C
0417: 2E 07                             LD      L,07h
0419: C3 0F 09                          JP      L090F

041C: DD 6E DC                   L041C: LD      L,(IX-24h)
041F: DD 66 DD                          LD      H,(IX-23h)
0422: 11 0A 00                          LD      DE,000Ah
0425: 19                                ADD     HL,DE
0426: 4E                                LD      C,(HL)
0427: 23                                INC     HL
0428: 46                                LD      B,(HL)
0429: 23                                INC     HL
042A: 5E                                LD      E,(HL)
042B: 23                                INC     HL
042C: 56                                LD      D,(HL)
042D: DD 7E DC                          LD      A,(IX-24h)
0430: C6 10                             ADD     A,10h
0432: DD 77 E4                          LD      (IX-1Ch),A
0435: DD 7E DD                          LD      A,(IX-23h)
0438: CE 00                             ADC     A,00h
043A: DD 77 E5                          LD      (IX-1Bh),A
043D: D5                                PUSH    DE
043E: C5                                PUSH    BC
043F: DD 5E E4                          LD      E,(IX-1Ch)
0442: DD 56 E5                          LD      D,(IX-1Bh)
0445: 21 2A 00                          LD      HL,002Ah
0448: 39                                ADD     HL,SP
0449: EB                                EX      DE,HL
044A: 01 04 00                          LD      BC,0004h
044D: ED B0                             LDIR
044F: C1                                POP     BC
0450: D1                                POP     DE
0451: 79                                LD      A,C
0452: DD 96 FA                          SUB     (IX-06h)
0455: 4F                                LD      C,A
0456: 78                                LD      A,B
0457: DD 9E FB                          SBC     A,(IX-05h)
045A: 47                                LD      B,A
045B: 7B                                LD      A,E
045C: DD 9E FC                          SBC     A,(IX-04h)
045F: 5F                                LD      E,A
0460: 7A                                LD      A,D
0461: DD 9E FD                          SBC     A,(IX-03h)
0464: 57                                LD      D,A
0465: DD 7E 08                          LD      A,(IX+08h)
0468: DD 77 FA                          LD      (IX-06h),A
046B: DD 7E 09                          LD      A,(IX+09h)
046E: DD 77 FB                          LD      (IX-05h),A
0471: AF                                XOR     A
0472: DD 77 FC                          LD      (IX-04h),A
0475: DD 77 FD                          LD      (IX-03h),A
0478: 79                                LD      A,C
0479: DD 96 FA                          SUB     (IX-06h)
047C: 78                                LD      A,B
047D: DD 9E FB                          SBC     A,(IX-05h)
0480: 7B                                LD      A,E
0481: DD 9E FC                          SBC     A,(IX-04h)
0484: 7A                                LD      A,D
0485: DD 9E FD                          SBC     A,(IX-03h)
0488: 30 06                             JR      NC,L0490
048A: DD 71 08                          LD      (IX+08h),C
048D: DD 70 09                          LD      (IX+09h),B
0490: DD 7E DC                   L0490: LD      A,(IX-24h)
0493: DD 77 E6                          LD      (IX-1Ah),A
0496: DD 7E DD                          LD      A,(IX-23h)
0499: DD 77 E7                          LD      (IX-19h),A
049C: DD 7E DC                          LD      A,(IX-24h)
049F: DD 77 E8                          LD      (IX-18h),A
04A2: DD 7E DD                          LD      A,(IX-23h)
04A5: DD 77 E9                          LD      (IX-17h),A
04A8: DD 7E E4                          LD      A,(IX-1Ch)
04AB: DD 77 EA                          LD      (IX-16h),A
04AE: DD 7E E5                          LD      A,(IX-1Bh)
04B1: DD 77 EB                          LD      (IX-15h),A
04B4: DD 7E DC                          LD      A,(IX-24h)
04B7: C6 22                             ADD     A,22h   ; '"'
04B9: DD 77 EC                          LD      (IX-14h),A
04BC: DD 7E DD                          LD      A,(IX-23h)
04BF: CE 00                             ADC     A,00h
04C1: DD 77 ED                          LD      (IX-13h),A
04C4: DD 7E DC                          LD      A,(IX-24h)
04C7: DD 77 EE                          LD      (IX-12h),A
04CA: DD 7E DD                          LD      A,(IX-23h)
04CD: DD 77 EF                          LD      (IX-11h),A
04D0: DD 7E 09                   L04D0: LD      A,(IX+09h)
04D3: DD B6 08                          OR      (IX+08h)
04D6: CA 0D 09                          JP      Z,L090D
04D9: DD 5E E4                          LD      E,(IX-1Ch)
04DC: DD 56 E5                          LD      D,(IX-1Bh)
04DF: 21 26 00                          LD      HL,0026h
04E2: 39                                ADD     HL,SP
04E3: EB                                EX      DE,HL
04E4: 01 04 00                          LD      BC,0004h
04E7: ED B0                             LDIR
04E9: DD 7E FA                          LD      A,(IX-06h)
04EC: B7                                OR      A
04ED: C2 43 08                          JP      NZ,L0843
04F0: DD CB FB 46                       BIT     0,(IX-05h)
04F4: C2 43 08                          JP      NZ,L0843
04F7: DD 4E FB                          LD      C,(IX-05h)
04FA: DD 46 FC                          LD      B,(IX-04h)
04FD: DD 5E FD                          LD      E,(IX-03h)
0500: CB 3B                             SRL     E
0502: CB 18                             RR      B
0504: CB 19                             RR      C
0506: DD 6E D8                          LD      L,(IX-28h)
0509: DD 66 D9                          LD      H,(IX-27h)
050C: C5                                PUSH    BC
050D: 01 0A 00                          LD      BC,000Ah
0510: 09                                ADD     HL,BC
0511: C1                                POP     BC
0512: 7E                                LD      A,(HL)
0513: 2B                                DEC     HL
0514: 6E                                LD      L,(HL)
0515: 67                                LD      H,A
0516: 2B                                DEC     HL
0517: 7D                                LD      A,L
0518: A1                                AND     C
0519: 4F                                LD      C,A
051A: 7C                                LD      A,H
051B: A0                                AND     B
051C: 47                                LD      B,A
051D: DD 71 F0                          LD      (IX-10h),C
0520: DD 70 F1                          LD      (IX-0Fh),B
0523: 78                                LD      A,B
0524: DD B6 F0                          OR      (IX-10h)
0527: C2 E3 05                          JP      NZ,L05E3
052A: DD 7E FD                          LD      A,(IX-03h)
052D: DD B6 FC                          OR      (IX-04h)
0530: DD B6 FB                          OR      (IX-05h)
0533: DD B6 FA                          OR      (IX-06h)
0536: 20 1F                             JR      NZ,L0557
0538: DD 6E E6                          LD      L,(IX-1Ah)
053B: DD 66 E7                          LD      H,(IX-19h)
053E: 11 06 00                          LD      DE,0006h
0541: 19                                ADD     HL,DE
0542: 7E                                LD      A,(HL)
0543: DD 77 FA                          LD      (IX-06h),A
0546: 23                                INC     HL
0547: 7E                                LD      A,(HL)
0548: DD 77 FB                          LD      (IX-05h),A
054B: 23                                INC     HL
054C: 7E                                LD      A,(HL)
054D: DD 77 FC                          LD      (IX-04h),A
0550: 23                                INC     HL
0551: 7E                                LD      A,(HL)
0552: DD 77 FD                          LD      (IX-03h),A
0555: 18 38                             JR      L058F

0557: DD 7E E0                   L0557: LD      A,(IX-20h)
055A: DD 77 FC                          LD      (IX-04h),A
055D: DD 7E E1                          LD      A,(IX-1Fh)
0560: DD 77 FD                          LD      (IX-03h),A
0563: DD 6E FC                          LD      L,(IX-04h)
0566: DD 66 FD                          LD      H,(IX-03h)
0569: 11 14 00                          LD      DE,0014h
056C: 19                                ADD     HL,DE
056D: 4E                                LD      C,(HL)
056E: 23                                INC     HL
056F: 46                                LD      B,(HL)
0570: 23                                INC     HL
0571: 5E                                LD      E,(HL)
0572: 23                                INC     HL
0573: 56                                LD      D,(HL)
0574: D5                                PUSH    DE
0575: C5                                PUSH    BC
0576: DD 6E E0                          LD      L,(IX-20h)
0579: DD 66 E1                          LD      H,(IX-1Fh)
057C: E5                                PUSH    HL
057D: CD 47 14                          CALL    L1447
0580: F1                                POP     AF
0581: F1                                POP     AF
0582: F1                                POP     AF
0583: DD 75 FA                          LD      (IX-06h),L
0586: DD 74 FB                          LD      (IX-05h),H
0589: DD 73 FC                          LD      (IX-04h),E
058C: DD 72 FD                          LD      (IX-03h),D
058F: DD 7E FA                   L058F: LD      A,(IX-06h)
0592: D6 02                             SUB     02h
0594: DD 7E FB                          LD      A,(IX-05h)
0597: DE 00                             SBC     A,00h
0599: DD 7E FC                          LD      A,(IX-04h)
059C: DE 00                             SBC     A,00h
059E: DD 7E FD                          LD      A,(IX-03h)
05A1: DE 00                             SBC     A,00h
05A3: 30 0D                             JR      NC,L05B2
05A5: DD 6E DE                          LD      L,(IX-22h)
05A8: DD 66 DF                          LD      H,(IX-21h)
05AB: 36 02                             LD      (HL),02h
05AD: 2E 02                             LD      L,02h
05AF: C3 0F 09                          JP      L090F

05B2: DD 7E FA                   L05B2: LD      A,(IX-06h)
05B5: DD A6 FB                          AND     (IX-05h)
05B8: DD A6 FC                          AND     (IX-04h)
05BB: DD A6 FD                          AND     (IX-03h)
05BE: 3C                                INC     A
05BF: 20 0D                             JR      NZ,L05CE
05C1: DD 6E DE                          LD      L,(IX-22h)
05C4: DD 66 DF                          LD      H,(IX-21h)
05C7: 36 01                             LD      (HL),01h
05C9: 2E 01                             LD      L,01h
05CB: C3 0F 09                          JP      L090F

05CE: DD 7E E8                   L05CE: LD      A,(IX-18h)
05D1: C6 14                             ADD     A,14h
05D3: 5F                                LD      E,A
05D4: DD 7E E9                          LD      A,(IX-17h)
05D7: CE 00                             ADC     A,00h
05D9: 57                                LD      D,A
05DA: 21 26 00                          LD      HL,0026h
05DD: 39                                ADD     HL,SP
05DE: 01 04 00                          LD      BC,0004h
05E1: ED B0                             LDIR
05E3: DD 6E DC                   L05E3: LD      L,(IX-24h)
05E6: DD 66 DD                          LD      H,(IX-23h)
05E9: 11 14 00                          LD      DE,0014h
05EC: 19                                ADD     HL,DE
05ED: 4E                                LD      C,(HL)
05EE: 23                                INC     HL
05EF: 46                                LD      B,(HL)
05F0: 23                                INC     HL
05F1: 5E                                LD      E,(HL)
05F2: 23                                INC     HL
05F3: 56                                LD      D,(HL)
05F4: D5                                PUSH    DE
05F5: C5                                PUSH    BC
05F6: DD 6E D8                          LD      L,(IX-28h)
05F9: DD 66 D9                          LD      H,(IX-27h)
05FC: E5                                PUSH    HL
05FD: CD 07 13                          CALL    L1307
0600: F1                                POP     AF
0601: F1                                POP     AF
0602: F1                                POP     AF
0603: 7A                                LD      A,D
0604: B3                                OR      E
0605: B4                                OR      H
0606: B5                                OR      L
0607: 20 0D                             JR      NZ,L0616
0609: DD 6E DE                          LD      L,(IX-22h)
060C: DD 66 DF                          LD      H,(IX-21h)
060F: 36 02                             LD      (HL),02h
0611: 2E 02                             LD      L,02h
0613: C3 0F 09                          JP      L090F

0616: DD 7E F0                   L0616: LD      A,(IX-10h)
0619: DD 77 FA                          LD      (IX-06h),A
061C: DD 7E F1                          LD      A,(IX-0Fh)
061F: DD 77 FB                          LD      (IX-05h),A
0622: AF                                XOR     A
0623: DD 77 FC                          LD      (IX-04h),A
0626: DD 77 FD                          LD      (IX-03h),A
0629: 7D                                LD      A,L
062A: DD 86 FA                          ADD     A,(IX-06h)
062D: 4F                                LD      C,A
062E: 7C                                LD      A,H
062F: DD 8E FB                          ADC     A,(IX-05h)
0632: 47                                LD      B,A
0633: 7B                                LD      A,E
0634: DD 8E FC                          ADC     A,(IX-04h)
0637: 5F                                LD      E,A
0638: 7A                                LD      A,D
0639: DD 8E FD                          ADC     A,(IX-03h)
063C: 57                                LD      D,A
063D: DD 71 F2                          LD      (IX-0Eh),C
0640: DD 70 F3                          LD      (IX-0Dh),B
0643: DD 73 F4                          LD      (IX-0Ch),E
0646: DD 72 F5                          LD      (IX-0Bh),D
0649: DD 7E 09                          LD      A,(IX+09h)
064C: CB 3F                             SRL     A
064E: 4F                                LD      C,A
064F: 06 00                             LD      B,00h
0651: DD 5E D8                          LD      E,(IX-28h)
0654: DD 56 D9                          LD      D,(IX-27h)
0657: DD 7E DC                          LD      A,(IX-24h)
065A: C6 18                             ADD     A,18h
065C: DD 77 F6                          LD      (IX-0Ah),A
065F: DD 7E DD                          LD      A,(IX-23h)
0662: CE 00                             ADC     A,00h
0664: DD 77 F7                          LD      (IX-09h),A
0667: DD 7E DC                          LD      A,(IX-24h)
066A: C6 22                             ADD     A,22h   ; '"'
066C: DD 77 F8                          LD      (IX-08h),A
066F: DD 7E DD                          LD      A,(IX-23h)
0672: CE 00                             ADC     A,00h
0674: DD 77 F9                          LD      (IX-07h),A
0677: 21 01 00                          LD      HL,0001h
067A: 19                                ADD     HL,DE
067B: DD 75 FA                          LD      (IX-06h),L
067E: DD 74 FB                          LD      (IX-05h),H
0681: 78                                LD      A,B
0682: B1                                OR      C
0683: CA 7E 07                          JP      Z,L077E
0686: DD 7E F0                          LD      A,(IX-10h)
0689: 81                                ADD     A,C
068A: DD 77 FC                          LD      (IX-04h),A
068D: DD 7E F1                          LD      A,(IX-0Fh)
0690: 88                                ADC     A,B
0691: DD 77 FD                          LD      (IX-03h),A
0694: EB                                EX      DE,HL
0695: 11 09 00                          LD      DE,0009h
0698: 19                                ADD     HL,DE
0699: 5E                                LD      E,(HL)
069A: 23                                INC     HL
069B: 56                                LD      D,(HL)
069C: DD 6E FC                          LD      L,(IX-04h)
069F: DD 66 FD                          LD      H,(IX-03h)
06A2: 7B                                LD      A,E
06A3: 95                                SUB     L
06A4: 7A                                LD      A,D
06A5: 9C                                SBC     A,H
06A6: 30 0A                             JR      NC,L06B2
06A8: 7B                                LD      A,E
06A9: DD 96 F0                          SUB     (IX-10h)
06AC: 4F                                LD      C,A
06AD: 7A                                LD      A,D
06AE: DD 9E F1                          SBC     A,(IX-0Fh)
06B1: 47                                LD      B,A
06B2: DD 6E FA                   L06B2: LD      L,(IX-06h)
06B5: DD 66 FB                          LD      H,(IX-05h)
06B8: 56                                LD      D,(HL)
06B9: C5                                PUSH    BC
06BA: C5                                PUSH    BC
06BB: DD 6E F4                          LD      L,(IX-0Ch)
06BE: DD 66 F5                          LD      H,(IX-0Bh)
06C1: E5                                PUSH    HL
06C2: DD 6E F2                          LD      L,(IX-0Eh)
06C5: DD 66 F3                          LD      H,(IX-0Dh)
06C8: E5                                PUSH    HL
06C9: DD 6E FE                          LD      L,(IX-02h)
06CC: DD 66 FF                          LD      H,(IX-01h)
06CF: E5                                PUSH    HL
06D0: D5                                PUSH    DE
06D1: 33                                INC     SP
06D2: CD EF 02                          CALL    L02EF
06D5: FD 21 09 00                       LD      IY,0009h
06D9: FD 39                             ADD     IY,SP
06DB: FD F9                             LD      SP,IY
06DD: 7D                                LD      A,L
06DE: C1                                POP     BC
06DF: B7                                OR      A
06E0: 28 0D                             JR      Z,L06EF
06E2: DD 6E DE                          LD      L,(IX-22h)
06E5: DD 66 DF                          LD      H,(IX-21h)
06E8: 36 01                             LD      (HL),01h
06EA: 2E 01                             LD      L,01h
06EC: C3 0F 09                          JP      L090F

06EF: DD 6E E2                   L06EF: LD      L,(IX-1Eh)
06F2: DD 66 E3                          LD      H,(IX-1Dh)
06F5: 7E                                LD      A,(HL)
06F6: 07                                RLCA
06F7: D2 76 07                          JP      NC,L0776
06FA: C5                                PUSH    BC
06FB: DD 5E F6                          LD      E,(IX-0Ah)
06FE: DD 56 F7                          LD      D,(IX-09h)
0701: 21 28 00                          LD      HL,0028h
0704: 39                                ADD     HL,SP
0705: EB                                EX      DE,HL
0706: 01 04 00                          LD      BC,0004h
0709: ED B0                             LDIR
070B: C1                                POP     BC
070C: DD 7E FA                          LD      A,(IX-06h)
070F: DD 96 F2                          SUB     (IX-0Eh)
0712: 5F                                LD      E,A
0713: DD 7E FB                          LD      A,(IX-05h)
0716: DD 9E F3                          SBC     A,(IX-0Dh)
0719: 57                                LD      D,A
071A: DD 7E FC                          LD      A,(IX-04h)
071D: DD 9E F4                          SBC     A,(IX-0Ch)
0720: 6F                                LD      L,A
0721: DD 7E FD                          LD      A,(IX-03h)
0724: DD 9E F5                          SBC     A,(IX-0Bh)
0727: 67                                LD      H,A
0728: DD 71 D4                          LD      (IX-2Ch),C
072B: DD 70 D5                          LD      (IX-2Bh),B
072E: AF                                XOR     A
072F: DD 77 D6                          LD      (IX-2Ah),A
0732: DD 77 D7                          LD      (IX-29h),A
0735: 7B                                LD      A,E
0736: DD 96 D4                          SUB     (IX-2Ch)
0739: 7A                                LD      A,D
073A: DD 9E D5                          SBC     A,(IX-2Bh)
073D: 7D                                LD      A,L
073E: DD 9E D6                          SBC     A,(IX-2Ah)
0741: 7C                                LD      A,H
0742: DD 9E D7                          SBC     A,(IX-29h)
0745: 30 2F                             JR      NC,L0776
0747: DD 6E FA                          LD      L,(IX-06h)
074A: DD 66 FB                          LD      H,(IX-05h)
074D: DD 5E F2                          LD      E,(IX-0Eh)
0750: DD 56 F3                          LD      D,(IX-0Dh)
0753: BF                                CP      A
0754: ED 52                             SBC     HL,DE
0756: 7D                                LD      A,L
0757: 87                                ADD     A,A
0758: 57                                LD      D,A
0759: 1E 00                             LD      E,00h
075B: DD 6E FE                          LD      L,(IX-02h)
075E: DD 66 FF                          LD      H,(IX-01h)
0761: 19                                ADD     HL,DE
0762: C5                                PUSH    BC
0763: 11 00 02                          LD      DE,0200h
0766: D5                                PUSH    DE
0767: DD 5E F8                          LD      E,(IX-08h)
076A: DD 56 F9                          LD      D,(IX-07h)
076D: D5                                PUSH    DE
076E: E5                                PUSH    HL
076F: CD 14 09                          CALL    L0914
0772: F1                                POP     AF
0773: F1                                POP     AF
0774: F1                                POP     AF
0775: C1                                POP     BC
0776: 79                         L0776: LD      A,C
0777: 87                                ADD     A,A
0778: 47                                LD      B,A
0779: 0E 00                             LD      C,00h
077B: C3 97 08                          JP      L0897

077E: DD 6E F6                   L077E: LD      L,(IX-0Ah)
0781: DD 66 F7                          LD      H,(IX-09h)
0784: 4E                                LD      C,(HL)
0785: 23                                INC     HL
0786: 46                                LD      B,(HL)
0787: 23                                INC     HL
0788: 5E                                LD      E,(HL)
0789: 23                                INC     HL
078A: 56                                LD      D,(HL)
078B: DD 7E F2                          LD      A,(IX-0Eh)
078E: 91                                SUB     C
078F: 20 12                             JR      NZ,L07A3
0791: DD 7E F3                          LD      A,(IX-0Dh)
0794: 90                                SUB     B
0795: 20 0C                             JR      NZ,L07A3
0797: DD 6E F4                          LD      L,(IX-0Ch)
079A: DD 66 F5                          LD      H,(IX-0Bh)
079D: BF                                CP      A
079E: ED 52                             SBC     HL,DE
07A0: CA 34 08                          JP      Z,L0834
07A3: DD 6E E2                   L07A3: LD      L,(IX-1Eh)
07A6: DD 66 E3                          LD      H,(IX-1Dh)
07A9: 7E                                LD      A,(HL)
07AA: 07                                RLCA
07AB: 30 48                             JR      NC,L07F5
07AD: DD 6E FA                          LD      L,(IX-06h)
07B0: DD 66 FB                          LD      H,(IX-05h)
07B3: 7E                                LD      A,(HL)
07B4: DD 77 FD                          LD      (IX-03h),A
07B7: 21 01 00                          LD      HL,0001h
07BA: E5                                PUSH    HL
07BB: D5                                PUSH    DE
07BC: C5                                PUSH    BC
07BD: DD 6E F8                          LD      L,(IX-08h)
07C0: DD 66 F9                          LD      H,(IX-07h)
07C3: E5                                PUSH    HL
07C4: DD 7E FD                          LD      A,(IX-03h)
07C7: F5                                PUSH    AF
07C8: 33                                INC     SP
07C9: CD 79 03                          CALL    L0379
07CC: FD 21 09 00                       LD      IY,0009h
07D0: FD 39                             ADD     IY,SP
07D2: FD F9                             LD      SP,IY
07D4: 7D                                LD      A,L
07D5: B7                                OR      A
07D6: 28 0D                             JR      Z,L07E5
07D8: DD 6E DE                          LD      L,(IX-22h)
07DB: DD 66 DF                          LD      H,(IX-21h)
07DE: 36 01                             LD      (HL),01h
07E0: 2E 01                             LD      L,01h
07E2: C3 0F 09                          JP      L090F

07E5: DD 6E E2                   L07E5: LD      L,(IX-1Eh)
07E8: DD 66 E3                          LD      H,(IX-1Dh)
07EB: 7E                                LD      A,(HL)
07EC: CB BF                             RES     7,A
07EE: DD 6E E2                          LD      L,(IX-1Eh)
07F1: DD 66 E3                          LD      H,(IX-1Dh)
07F4: 77                                LD      (HL),A
07F5: DD 6E D8                   L07F5: LD      L,(IX-28h)
07F8: DD 66 D9                          LD      H,(IX-27h)
07FB: 23                                INC     HL
07FC: 46                                LD      B,(HL)
07FD: 21 01 00                          LD      HL,0001h
0800: E5                                PUSH    HL
0801: DD 6E F4                          LD      L,(IX-0Ch)
0804: DD 66 F5                          LD      H,(IX-0Bh)
0807: E5                                PUSH    HL
0808: DD 6E F2                          LD      L,(IX-0Eh)
080B: DD 66 F3                          LD      H,(IX-0Dh)
080E: E5                                PUSH    HL
080F: DD 6E F8                          LD      L,(IX-08h)
0812: DD 66 F9                          LD      H,(IX-07h)
0815: E5                                PUSH    HL
0816: C5                                PUSH    BC
0817: 33                                INC     SP
0818: CD EF 02                          CALL    L02EF
081B: FD 21 09 00                       LD      IY,0009h
081F: FD 39                             ADD     IY,SP
0821: FD F9                             LD      SP,IY
0823: 7D                                LD      A,L
0824: B7                                OR      A
0825: 28 0D                             JR      Z,L0834
0827: DD 6E DE                          LD      L,(IX-22h)
082A: DD 66 DF                          LD      H,(IX-21h)
082D: 36 01                             LD      (HL),01h
082F: 2E 01                             LD      L,01h
0831: C3 0F 09                          JP      L090F

0834: DD 5E F6                   L0834: LD      E,(IX-0Ah)
0837: DD 56 F7                          LD      D,(IX-09h)
083A: 21 1E 00                          LD      HL,001Eh
083D: 39                                ADD     HL,SP
083E: 01 04 00                          LD      BC,0004h
0841: ED B0                             LDIR
0843: DD 5E EA                   L0843: LD      E,(IX-16h)
0846: DD 56 EB                          LD      D,(IX-15h)
0849: 21 26 00                          LD      HL,0026h
084C: 39                                ADD     HL,SP
084D: EB                                EX      DE,HL
084E: 01 04 00                          LD      BC,0004h
0851: ED B0                             LDIR
0853: DD 4E FA                          LD      C,(IX-06h)
0856: DD 7E FB                          LD      A,(IX-05h)
0859: E6 01                             AND     01h
085B: 47                                LD      B,A
085C: AF                                XOR     A
085D: 91                                SUB     C
085E: 4F                                LD      C,A
085F: 3E 02                             LD      A,02h
0861: 98                                SBC     A,B
0862: 47                                LD      B,A
0863: DD 7E 08                          LD      A,(IX+08h)
0866: 91                                SUB     C
0867: DD 7E 09                          LD      A,(IX+09h)
086A: 98                                SBC     A,B
086B: 30 06                             JR      NC,L0873
086D: DD 4E 08                          LD      C,(IX+08h)
0870: DD 46 09                          LD      B,(IX+09h)
0873: DD 5E FA                   L0873: LD      E,(IX-06h)
0876: DD 7E FB                          LD      A,(IX-05h)
0879: E6 01                             AND     01h
087B: 57                                LD      D,A
087C: 7B                                LD      A,E
087D: DD 86 EC                          ADD     A,(IX-14h)
0880: 5F                                LD      E,A
0881: 7A                                LD      A,D
0882: DD 8E ED                          ADC     A,(IX-13h)
0885: 57                                LD      D,A
0886: DD 6E FE                          LD      L,(IX-02h)
0889: DD 66 FF                          LD      H,(IX-01h)
088C: C5                                PUSH    BC
088D: C5                                PUSH    BC
088E: D5                                PUSH    DE
088F: E5                                PUSH    HL
0890: CD 14 09                          CALL    L0914
0893: F1                                POP     AF
0894: F1                                POP     AF
0895: F1                                POP     AF
0896: C1                                POP     BC
0897: DD 7E 08                   L0897: LD      A,(IX+08h)
089A: 91                                SUB     C
089B: DD 77 08                          LD      (IX+08h),A
089E: DD 7E 09                          LD      A,(IX+09h)
08A1: 98                                SBC     A,B
08A2: DD 77 09                          LD      (IX+09h),A
08A5: DD 6E DA                          LD      L,(IX-26h)
08A8: DD 66 DB                          LD      H,(IX-25h)
08AB: 7E                                LD      A,(HL)
08AC: 23                                INC     HL
08AD: 66                                LD      H,(HL)
08AE: 6F                                LD      L,A
08AF: 09                                ADD     HL,BC
08B0: EB                                EX      DE,HL
08B1: DD 6E DA                          LD      L,(IX-26h)
08B4: DD 66 DB                          LD      H,(IX-25h)
08B7: 73                                LD      (HL),E
08B8: 23                                INC     HL
08B9: 72                                LD      (HL),D
08BA: DD 7E FE                          LD      A,(IX-02h)
08BD: 81                                ADD     A,C
08BE: DD 77 FE                          LD      (IX-02h),A
08C1: DD 7E FF                          LD      A,(IX-01h)
08C4: 88                                ADC     A,B
08C5: DD 77 FF                          LD      (IX-01h),A
08C8: DD 7E EE                          LD      A,(IX-12h)
08CB: C6 10                             ADD     A,10h
08CD: 5F                                LD      E,A
08CE: DD 7E EF                          LD      A,(IX-11h)
08D1: CE 00                             ADC     A,00h
08D3: 57                                LD      D,A
08D4: D5                                PUSH    DE
08D5: C5                                PUSH    BC
08D6: 21 26 00                          LD      HL,0026h
08D9: 39                                ADD     HL,SP
08DA: EB                                EX      DE,HL
08DB: 01 04 00                          LD      BC,0004h
08DE: ED B0                             LDIR
08E0: C1                                POP     BC
08E1: D1                                POP     DE
08E2: 21 00 00                          LD      HL,0000h
08E5: 79                                LD      A,C
08E6: DD 86 F6                          ADD     A,(IX-0Ah)
08E9: DD 77 FA                          LD      (IX-06h),A
08EC: 78                                LD      A,B
08ED: DD 8E F7                          ADC     A,(IX-09h)
08F0: DD 77 FB                          LD      (IX-05h),A
08F3: 7D                                LD      A,L
08F4: DD 8E F8                          ADC     A,(IX-08h)
08F7: DD 77 FC                          LD      (IX-04h),A
08FA: 7C                                LD      A,H
08FB: DD 8E F9                          ADC     A,(IX-07h)
08FE: DD 77 FD                          LD      (IX-03h),A
0901: 21 26 00                          LD      HL,0026h
0904: 39                                ADD     HL,SP
0905: 01 04 00                          LD      BC,0004h
0908: ED B0                             LDIR
090A: C3 D0 04                          JP      L04D0

090D: 2E 00                      L090D: LD      L,00h
090F: DD F9                      L090F: LD      SP,IX
0911: DD E1                             POP     IX
0913: C9                                RET

                                        ; --- START PROC L0914 ---
0914: CD CE 13                   L0914: CALL    L13CE
0917: F5                                PUSH    AF
0918: DD 4E 04                          LD      C,(IX+04h)
091B: DD 46 05                          LD      B,(IX+05h)
091E: DD 5E 06                          LD      E,(IX+06h)
0921: DD 56 07                          LD      D,(IX+07h)
0924: DD 7E 09                          LD      A,(IX+09h)
0927: DD B6 08                          OR      (IX+08h)
092A: 28 1B                             JR      Z,L0947
092C: 33                                INC     SP
092D: 33                                INC     SP
092E: C5                                PUSH    BC
092F: DD 4E 08                          LD      C,(IX+08h)
0932: DD 46 09                          LD      B,(IX+09h)
0935: 1A                         L0935: LD      A,(DE)
0936: 13                                INC     DE
0937: E1                                POP     HL
0938: E5                                PUSH    HL
0939: 77                                LD      (HL),A
093A: DD 34 FE                          INC     (IX-02h)
093D: 20 03                             JR      NZ,L0942
093F: DD 34 FF                          INC     (IX-01h)
0942: 0B                         L0942: DEC     BC
0943: 78                                LD      A,B
0944: B1                                OR      C
0945: 20 EE                             JR      NZ,L0935
0947: F1                         L0947: POP     AF
0948: DD E1                             POP     IX
094A: C9                                RET

                                        ; --- START PROC L094B ---
094B: CD CE 13                   L094B: CALL    L13CE
094E: 21 BF FF                          LD      HL,0FFBFh
0951: 39                                ADD     HL,SP
0952: F9                                LD      SP,HL
0953: DD 7E 05                          LD      A,(IX+05h)
0956: DD B6 04                          OR      (IX+04h)
0959: 20 05                             JR      NZ,L0960
095B: 2E 09                             LD      L,09h
095D: C3 08 0F                          JP      L0F08

0960: DD 7E 08                   L0960: LD      A,(IX+08h)
0963: E6 3F                             AND     3Fh     ; '?'
0965: DD 77 08                          LD      (IX+08h),A
0968: 21 2A 00                          LD      HL,002Ah
096B: 39                                ADD     HL,SP
096C: EB                                EX      DE,HL
096D: 21 47 00                          LD      HL,0047h
0970: 39                                ADD     HL,SP
0971: 4D                                LD      C,L
0972: 44                                LD      B,H
0973: DD 7E 08                          LD      A,(IX+08h)
0976: F5                                PUSH    AF
0977: 33                                INC     SP
0978: D5                                PUSH    DE
0979: C5                                PUSH    BC
097A: CD AD 1A                          CALL    L1AAD
097D: F1                                POP     AF
097E: F1                                POP     AF
097F: 33                                INC     SP
0980: DD 75 EB                          LD      (IX-15h),L
0983: DD 7E 04                          LD      A,(IX+04h)
0986: DD 77 EC                          LD      (IX-14h),A
0989: DD 7E 05                          LD      A,(IX+05h)
098C: DD 77 ED                          LD      (IX-13h),A
098F: DD 7E EB                          LD      A,(IX-15h)
0992: B7                                OR      A
0993: C2 F5 0E                          JP      NZ,L0EF5
0996: 21 00 00                          LD      HL,0000h
0999: 39                                ADD     HL,SP
099A: DD 7E E9                          LD      A,(IX-17h)
099D: 77                                LD      (HL),A
099E: 23                                INC     HL
099F: DD 7E EA                          LD      A,(IX-16h)
09A2: 77                                LD      (HL),A
09A3: 21 00 00                          LD      HL,0000h
09A6: 39                                ADD     HL,SP
09A7: DD 75 F7                          LD      (IX-09h),L
09AA: DD 74 F8                          LD      (IX-08h),H
09AD: 4D                                LD      C,L
09AE: 44                                LD      B,H
09AF: DD 6E 06                          LD      L,(IX+06h)
09B2: DD 66 07                          LD      H,(IX+07h)
09B5: E5                                PUSH    HL
09B6: C5                                PUSH    BC
09B7: CD 87 17                          CALL    L1787
09BA: F1                                POP     AF
09BB: F1                                POP     AF
09BC: DD 75 EB                          LD      (IX-15h),L
09BF: 7D                                LD      A,L
09C0: B7                                OR      A
09C1: 20 12                             JR      NZ,L09D5
09C3: DD 6E F7                          LD      L,(IX-09h)
09C6: DD 66 F8                          LD      H,(IX-08h)
09C9: 11 27 00                          LD      DE,0027h
09CC: 19                                ADD     HL,DE
09CD: 7E                                LD      A,(HL)
09CE: 07                                RLCA
09CF: 30 04                             JR      NC,L09D5
09D1: DD 36 EB 06                       LD      (IX-15h),06h
09D5: DD 7E 08                   L09D5: LD      A,(IX+08h)
09D8: DD 77 F9                          LD      (IX-07h),A
09DB: DD 7E F7                          LD      A,(IX-09h)
09DE: C6 04                             ADD     A,04h
09E0: DD 77 FE                          LD      (IX-02h),A
09E3: DD 7E F8                          LD      A,(IX-08h)
09E6: CE 00                             ADC     A,00h
09E8: DD 77 FF                          LD      (IX-01h),A
09EB: DD 7E F7                          LD      A,(IX-09h)
09EE: C6 1A                             ADD     A,1Ah
09F0: DD 77 FA                          LD      (IX-06h),A
09F3: DD 7E F8                          LD      A,(IX-08h)
09F6: CE 00                             ADC     A,00h
09F8: DD 77 FB                          LD      (IX-05h),A
09FB: DD 7E 08                          LD      A,(IX+08h)
09FE: E6 1C                             AND     1Ch
0A00: CA 94 0B                          JP      Z,L0B94
0A03: DD 7E EB                          LD      A,(IX-15h)
0A06: B7                                OR      A
0A07: 28 2B                             JR      Z,L0A34
0A09: DD 7E EB                          LD      A,(IX-15h)
0A0C: D6 04                             SUB     04h
0A0E: 20 1A                             JR      NZ,L0A2A
0A10: DD 7E F7                          LD      A,(IX-09h)
0A13: DD 77 FE                          LD      (IX-02h),A
0A16: DD 7E F8                          LD      A,(IX-08h)
0A19: DD 77 FF                          LD      (IX-01h),A
0A1C: DD 6E FE                          LD      L,(IX-02h)
0A1F: DD 66 FF                          LD      H,(IX-01h)
0A22: E5                                PUSH    HL
0A23: CD BC 0F                          CALL    L0FBC
0A26: F1                                POP     AF
0A27: DD 75 EB                          LD      (IX-15h),L
0A2A: DD 7E F9                   L0A2A: LD      A,(IX-07h)
0A2D: F6 08                             OR      08h
0A2F: DD 77 08                          LD      (IX+08h),A
0A32: 18 1B                             JR      L0A4F

0A34: DD 6E FE                   L0A34: LD      L,(IX-02h)
0A37: DD 66 FF                          LD      H,(IX-01h)
0A3A: 7E                                LD      A,(HL)
0A3B: E6 11                             AND     11h
0A3D: 28 06                             JR      Z,L0A45
0A3F: DD 36 EB 07                       LD      (IX-15h),07h
0A43: 18 0A                             JR      L0A4F

0A45: DD CB F9 56                L0A45: BIT     2,(IX-07h)
0A49: 28 04                             JR      Z,L0A4F
0A4B: DD 36 EB 08                       LD      (IX-15h),08h
0A4F: DD 7E 08                   L0A4F: LD      A,(IX+08h)
0A52: DD 77 F9                          LD      (IX-07h),A
0A55: DD 7E EB                          LD      A,(IX-15h)
0A58: B7                                OR      A
0A59: C2 B8 0B                          JP      NZ,L0BB8
0A5C: DD CB F9 5E                       BIT     3,(IX-07h)
0A60: CA B8 0B                          JP      Z,L0BB8
0A63: DD 6E FA                          LD      L,(IX-06h)
0A66: DD 66 FB                          LD      H,(IX-05h)
0A69: 4E                                LD      C,(HL)
0A6A: 23                                INC     HL
0A6B: 46                                LD      B,(HL)
0A6C: C5                                PUSH    BC
0A6D: DD 6E E9                          LD      L,(IX-17h)
0A70: DD 66 EA                          LD      H,(IX-16h)
0A73: E5                                PUSH    HL
0A74: CD D8 13                          CALL    L13D8
0A77: F1                                POP     AF
0A78: F1                                POP     AF
0A79: DD 75 FC                          LD      (IX-04h),L
0A7C: DD 74 FD                          LD      (IX-03h),H
0A7F: DD 73 FE                          LD      (IX-02h),E
0A82: DD 72 FF                          LD      (IX-01h),D
0A85: DD 6E FA                          LD      L,(IX-06h)
0A88: DD 66 FB                          LD      H,(IX-05h)
0A8B: 4E                                LD      C,(HL)
0A8C: 23                                INC     HL
0A8D: 46                                LD      B,(HL)
0A8E: 21 0E 00                          LD      HL,000Eh
0A91: 09                                ADD     HL,BC
0A92: EB                                EX      DE,HL
0A93: 21 21 50                          LD      HL,5021h
0A96: E5                                PUSH    HL
0A97: 21 00 00                          LD      HL,0000h
0A9A: E5                                PUSH    HL
0A9B: D5                                PUSH    DE
0A9C: CD 52 19                          CALL    L1952
0A9F: F1                                POP     AF
0AA0: F1                                POP     AF
0AA1: F1                                POP     AF
0AA2: DD 6E FA                          LD      L,(IX-06h)
0AA5: DD 66 FB                          LD      H,(IX-05h)
0AA8: 4E                                LD      C,(HL)
0AA9: 23                                INC     HL
0AAA: 46                                LD      B,(HL)
0AAB: 21 0B 00                          LD      HL,000Bh
0AAE: 09                                ADD     HL,BC
0AAF: 36 20                             LD      (HL),20h        ; ' '
0AB1: DD 6E FA                          LD      L,(IX-06h)
0AB4: DD 66 FB                          LD      H,(IX-05h)
0AB7: 4E                                LD      C,(HL)
0AB8: 23                                INC     HL
0AB9: 46                                LD      B,(HL)
0ABA: 21 00 00                          LD      HL,0000h
0ABD: E5                                PUSH    HL
0ABE: 21 00 00                          LD      HL,0000h
0AC1: E5                                PUSH    HL
0AC2: C5                                PUSH    BC
0AC3: DD 6E E9                          LD      L,(IX-17h)
0AC6: DD 66 EA                          LD      H,(IX-16h)
0AC9: E5                                PUSH    HL
0ACA: CD 75 25                          CALL    L2575
0ACD: F1                                POP     AF
0ACE: F1                                POP     AF
0ACF: F1                                POP     AF
0AD0: F1                                POP     AF
0AD1: DD 6E FA                          LD      L,(IX-06h)
0AD4: DD 66 FB                          LD      H,(IX-05h)
0AD7: 4E                                LD      C,(HL)
0AD8: 23                                INC     HL
0AD9: 46                                LD      B,(HL)
0ADA: 21 1C 00                          LD      HL,001Ch
0ADD: 09                                ADD     HL,BC
0ADE: EB                                EX      DE,HL
0ADF: 21 00 00                          LD      HL,0000h
0AE2: E5                                PUSH    HL
0AE3: 21 00 00                          LD      HL,0000h
0AE6: E5                                PUSH    HL
0AE7: D5                                PUSH    DE
0AE8: CD 52 19                          CALL    L1952
0AEB: F1                                POP     AF
0AEC: F1                                POP     AF
0AED: F1                                POP     AF
0AEE: DD 6E E9                          LD      L,(IX-17h)
0AF1: DD 66 EA                          LD      H,(IX-16h)
0AF4: 23                                INC     HL
0AF5: 23                                INC     HL
0AF6: 23                                INC     HL
0AF7: 36 01                             LD      (HL),01h
0AF9: DD 7E FF                          LD      A,(IX-01h)
0AFC: DD B6 FE                          OR      (IX-02h)
0AFF: DD B6 FD                          OR      (IX-03h)
0B02: DD B6 FC                          OR      (IX-04h)
0B05: CA B8 0B                          JP      Z,L0BB8
0B08: DD 6E E9                          LD      L,(IX-17h)
0B0B: DD 66 EA                          LD      H,(IX-16h)
0B0E: 11 2F 00                          LD      DE,002Fh
0B11: 19                                ADD     HL,DE
0B12: 4E                                LD      C,(HL)
0B13: 23                                INC     HL
0B14: 46                                LD      B,(HL)
0B15: 23                                INC     HL
0B16: 5E                                LD      E,(HL)
0B17: 23                                INC     HL
0B18: 56                                LD      D,(HL)
0B19: DD 6E F7                          LD      L,(IX-09h)
0B1C: DD 66 F8                          LD      H,(IX-08h)
0B1F: DD 75 F7                          LD      (IX-09h),L
0B22: DD 74 F8                          LD      (IX-08h),H
0B25: C5                                PUSH    BC
0B26: D5                                PUSH    DE
0B27: 21 00 00                          LD      HL,0000h
0B2A: E5                                PUSH    HL
0B2B: 21 00 00                          LD      HL,0000h
0B2E: E5                                PUSH    HL
0B2F: DD 6E FE                          LD      L,(IX-02h)
0B32: DD 66 FF                          LD      H,(IX-01h)
0B35: E5                                PUSH    HL
0B36: DD 6E FC                          LD      L,(IX-04h)
0B39: DD 66 FD                          LD      H,(IX-03h)
0B3C: E5                                PUSH    HL
0B3D: DD 6E F7                          LD      L,(IX-09h)
0B40: DD 66 F8                          LD      H,(IX-08h)
0B43: E5                                PUSH    HL
0B44: CD 91 23                          CALL    L2391
0B47: FD 21 0A 00                       LD      IY,000Ah
0B4B: FD 39                             ADD     IY,SP
0B4D: FD F9                             LD      SP,IY
0B4F: D1                                POP     DE
0B50: C1                                POP     BC
0B51: DD 75 EB                          LD      (IX-15h),L
0B54: 7D                                LD      A,L
0B55: B7                                OR      A
0B56: 20 60                             JR      NZ,L0BB8
0B58: D5                                PUSH    DE
0B59: C5                                PUSH    BC
0B5A: DD 6E E9                          LD      L,(IX-17h)
0B5D: DD 66 EA                          LD      H,(IX-16h)
0B60: E5                                PUSH    HL
0B61: CD DE 22                          CALL    L22DE
0B64: F1                                POP     AF
0B65: F1                                POP     AF
0B66: F1                                POP     AF
0B67: DD 75 EB                          LD      (IX-15h),L
0B6A: DD 4E E9                          LD      C,(IX-17h)
0B6D: DD 46 EA                          LD      B,(IX-16h)
0B70: 21 0B 00                          LD      HL,000Bh
0B73: 09                                ADD     HL,BC
0B74: DD 7E FC                          LD      A,(IX-04h)
0B77: C6 FF                             ADD     A,0FFh
0B79: 4F                                LD      C,A
0B7A: DD 7E FD                          LD      A,(IX-03h)
0B7D: CE FF                             ADC     A,0FFh
0B7F: 47                                LD      B,A
0B80: DD 7E FE                          LD      A,(IX-02h)
0B83: CE FF                             ADC     A,0FFh
0B85: 5F                                LD      E,A
0B86: DD 7E FF                          LD      A,(IX-01h)
0B89: CE FF                             ADC     A,0FFh
0B8B: 71                                LD      (HL),C
0B8C: 23                                INC     HL
0B8D: 70                                LD      (HL),B
0B8E: 23                                INC     HL
0B8F: 73                                LD      (HL),E
0B90: 23                                INC     HL
0B91: 77                                LD      (HL),A
0B92: 18 24                             JR      L0BB8

0B94: DD 7E EB                   L0B94: LD      A,(IX-15h)
0B97: B7                                OR      A
0B98: 20 1E                             JR      NZ,L0BB8
0B9A: DD 6E FE                          LD      L,(IX-02h)
0B9D: DD 66 FF                          LD      H,(IX-01h)
0BA0: 7E                                LD      A,(HL)
0BA1: CB 67                             BIT     4,A
0BA3: 28 06                             JR      Z,L0BAB
0BA5: DD 36 EB 04                       LD      (IX-15h),04h
0BA9: 18 0D                             JR      L0BB8

0BAB: DD CB F9 4E                L0BAB: BIT     1,(IX-07h)
0BAF: 28 07                             JR      Z,L0BB8
0BB1: 0F                                RRCA
0BB2: 30 04                             JR      NC,L0BB8
0BB4: DD 36 EB 07                       LD      (IX-15h),07h
0BB8: DD 7E EB                   L0BB8: LD      A,(IX-15h)
0BBB: B7                                OR      A
0BBC: 20 56                             JR      NZ,L0C14
0BBE: DD CB F9 5E                       BIT     3,(IX-07h)
0BC2: 28 08                             JR      Z,L0BCC
0BC4: DD 7E F9                          LD      A,(IX-07h)
0BC7: F6 40                             OR      40h     ; '@'
0BC9: DD 77 08                          LD      (IX+08h),A
0BCC: DD 7E EC                   L0BCC: LD      A,(IX-14h)
0BCF: C6 1C                             ADD     A,1Ch
0BD1: DD 77 FE                          LD      (IX-02h),A
0BD4: DD 7E ED                          LD      A,(IX-13h)
0BD7: CE 00                             ADC     A,00h
0BD9: DD 77 FF                          LD      (IX-01h),A
0BDC: DD 6E E9                          LD      L,(IX-17h)
0BDF: DD 66 EA                          LD      H,(IX-16h)
0BE2: 11 2F 00                          LD      DE,002Fh
0BE5: 19                                ADD     HL,DE
0BE6: 4E                                LD      C,(HL)
0BE7: 23                                INC     HL
0BE8: 46                                LD      B,(HL)
0BE9: 23                                INC     HL
0BEA: 5E                                LD      E,(HL)
0BEB: 23                                INC     HL
0BEC: 56                                LD      D,(HL)
0BED: DD 6E FE                          LD      L,(IX-02h)
0BF0: DD 66 FF                          LD      H,(IX-01h)
0BF3: 71                                LD      (HL),C
0BF4: 23                                INC     HL
0BF5: 70                                LD      (HL),B
0BF6: 23                                INC     HL
0BF7: 73                                LD      (HL),E
0BF8: 23                                INC     HL
0BF9: 72                                LD      (HL),D
0BFA: DD 7E EC                          LD      A,(IX-14h)
0BFD: C6 20                             ADD     A,20h   ; ' '
0BFF: 4F                                LD      C,A
0C00: DD 7E ED                          LD      A,(IX-13h)
0C03: CE 00                             ADC     A,00h
0C05: 47                                LD      B,A
0C06: DD 6E FA                          LD      L,(IX-06h)
0C09: DD 66 FB                          LD      H,(IX-05h)
0C0C: 5E                                LD      E,(HL)
0C0D: 23                                INC     HL
0C0E: 56                                LD      D,(HL)
0C0F: 7B                                LD      A,E
0C10: 02                                LD      (BC),A
0C11: 03                                INC     BC
0C12: 7A                                LD      A,D
0C13: 02                                LD      (BC),A
0C14: DD 7E EB                   L0C14: LD      A,(IX-15h)
0C17: B7                                OR      A
0C18: C2 F5 0E                          JP      NZ,L0EF5
0C1B: DD 7E EC                          LD      A,(IX-14h)
0C1E: DD 77 EE                          LD      (IX-12h),A
0C21: DD 7E ED                          LD      A,(IX-13h)
0C24: DD 77 EF                          LD      (IX-11h),A
0C27: DD 7E EC                          LD      A,(IX-14h)
0C2A: C6 06                             ADD     A,06h
0C2C: DD 77 FC                          LD      (IX-04h),A
0C2F: DD 7E ED                          LD      A,(IX-13h)
0C32: CE 00                             ADC     A,00h
0C34: DD 77 FD                          LD      (IX-03h),A
0C37: DD 6E FA                          LD      L,(IX-06h)
0C3A: DD 66 FB                          LD      H,(IX-05h)
0C3D: 4E                                LD      C,(HL)
0C3E: 23                                INC     HL
0C3F: 46                                LD      B,(HL)
0C40: C5                                PUSH    BC
0C41: DD 6E E9                          LD      L,(IX-17h)
0C44: DD 66 EA                          LD      H,(IX-16h)
0C47: E5                                PUSH    HL
0C48: CD D8 13                          CALL    L13D8
0C4B: F1                                POP     AF
0C4C: F1                                POP     AF
0C4D: 4D                                LD      C,L
0C4E: 44                                LD      B,H
0C4F: DD 6E FC                          LD      L,(IX-04h)
0C52: DD 66 FD                          LD      H,(IX-03h)
0C55: 71                                LD      (HL),C
0C56: 23                                INC     HL
0C57: 70                                LD      (HL),B
0C58: 23                                INC     HL
0C59: 73                                LD      (HL),E
0C5A: 23                                INC     HL
0C5B: 72                                LD      (HL),D
0C5C: DD 7E EC                          LD      A,(IX-14h)
0C5F: C6 0A                             ADD     A,0Ah
0C61: DD 77 FE                          LD      (IX-02h),A
0C64: DD 7E ED                          LD      A,(IX-13h)
0C67: CE 00                             ADC     A,00h
0C69: DD 77 FF                          LD      (IX-01h),A
0C6C: DD 6E FA                          LD      L,(IX-06h)
0C6F: DD 66 FB                          LD      H,(IX-05h)
0C72: 4E                                LD      C,(HL)
0C73: 23                                INC     HL
0C74: 46                                LD      B,(HL)
0C75: 21 1C 00                          LD      HL,001Ch
0C78: 09                                ADD     HL,BC
0C79: E5                                PUSH    HL
0C7A: CD 76 11                          CALL    L1176
0C7D: F1                                POP     AF
0C7E: 4D                                LD      C,L
0C7F: 44                                LD      B,H
0C80: DD 6E FE                          LD      L,(IX-02h)
0C83: DD 66 FF                          LD      H,(IX-01h)
0C86: 71                                LD      (HL),C
0C87: 23                                INC     HL
0C88: 70                                LD      (HL),B
0C89: 23                                INC     HL
0C8A: 73                                LD      (HL),E
0C8B: 23                                INC     HL
0C8C: 72                                LD      (HL),D
0C8D: DD 6E EC                          LD      L,(IX-14h)
0C90: DD 66 ED                          LD      H,(IX-13h)
0C93: DD 7E E9                          LD      A,(IX-17h)
0C96: 77                                LD      (HL),A
0C97: 23                                INC     HL
0C98: DD 7E EA                          LD      A,(IX-16h)
0C9B: 77                                LD      (HL),A
0C9C: DD 4E EC                          LD      C,(IX-14h)
0C9F: DD 46 ED                          LD      B,(IX-13h)
0CA2: 03                                INC     BC
0CA3: 03                                INC     BC
0CA4: DD 6E E9                          LD      L,(IX-17h)
0CA7: DD 66 EA                          LD      H,(IX-16h)
0CAA: 11 05 00                          LD      DE,0005h
0CAD: 19                                ADD     HL,DE
0CAE: 5E                                LD      E,(HL)
0CAF: 23                                INC     HL
0CB0: 56                                LD      D,(HL)
0CB1: 7B                                LD      A,E
0CB2: 02                                LD      (BC),A
0CB3: 03                                INC     BC
0CB4: 7A                                LD      A,D
0CB5: 02                                LD      (BC),A
0CB6: DD 7E EC                          LD      A,(IX-14h)
0CB9: C6 0E                             ADD     A,0Eh
0CBB: 4F                                LD      C,A
0CBC: DD 7E ED                          LD      A,(IX-13h)
0CBF: CE 00                             ADC     A,00h
0CC1: 47                                LD      B,A
0CC2: DD 7E 08                          LD      A,(IX+08h)
0CC5: 02                                LD      (BC),A
0CC6: DD 7E EC                          LD      A,(IX-14h)
0CC9: C6 0F                             ADD     A,0Fh
0CCB: 4F                                LD      C,A
0CCC: DD 7E ED                          LD      A,(IX-13h)
0CCF: CE 00                             ADC     A,00h
0CD1: 47                                LD      B,A
0CD2: AF                                XOR     A
0CD3: 02                                LD      (BC),A
0CD4: DD 7E EC                          LD      A,(IX-14h)
0CD7: C6 18                             ADD     A,18h
0CD9: DD 77 F0                          LD      (IX-10h),A
0CDC: DD 7E ED                          LD      A,(IX-13h)
0CDF: CE 00                             ADC     A,00h
0CE1: DD 77 F1                          LD      (IX-0Fh),A
0CE4: DD 6E F0                          LD      L,(IX-10h)
0CE7: DD 66 F1                          LD      H,(IX-0Fh)
0CEA: AF                                XOR     A
0CEB: 77                                LD      (HL),A
0CEC: 23                                INC     HL
0CED: 77                                LD      (HL),A
0CEE: 23                                INC     HL
0CEF: 77                                LD      (HL),A
0CF0: 23                                INC     HL
0CF1: 77                                LD      (HL),A
0CF2: DD 7E EC                          LD      A,(IX-14h)
0CF5: C6 10                             ADD     A,10h
0CF7: DD 77 FA                          LD      (IX-06h),A
0CFA: DD 7E ED                          LD      A,(IX-13h)
0CFD: CE 00                             ADC     A,00h
0CFF: DD 77 FB                          LD      (IX-05h),A
0D02: DD 6E FA                          LD      L,(IX-06h)
0D05: DD 66 FB                          LD      H,(IX-05h)
0D08: AF                                XOR     A
0D09: 77                                LD      (HL),A
0D0A: 23                                INC     HL
0D0B: 77                                LD      (HL),A
0D0C: 23                                INC     HL
0D0D: 77                                LD      (HL),A
0D0E: 23                                INC     HL
0D0F: 77                                LD      (HL),A
0D10: DD 7E EC                          LD      A,(IX-14h)
0D13: C6 22                             ADD     A,22h   ; '"'
0D15: DD 77 F2                          LD      (IX-0Eh),A
0D18: DD 7E ED                          LD      A,(IX-13h)
0D1B: CE 00                             ADC     A,00h
0D1D: DD 77 F3                          LD      (IX-0Dh),A
0D20: DD 4E F2                          LD      C,(IX-0Eh)
0D23: DD 46 F3                          LD      B,(IX-0Dh)
0D26: 21 00 02                          LD      HL,0200h
0D29: E5                                PUSH    HL
0D2A: 26 00                             LD      H,00h
0D2C: E5                                PUSH    HL
0D2D: C5                                PUSH    BC
0D2E: CD A7 22                          CALL    L22A7
0D31: F1                                POP     AF
0D32: F1                                POP     AF
0D33: F1                                POP     AF
0D34: DD CB 08 6E                       BIT     5,(IX+08h)
0D38: CA F5 0E                          JP      Z,L0EF5
0D3B: DD 6E FE                          LD      L,(IX-02h)
0D3E: DD 66 FF                          LD      H,(IX-01h)
0D41: 4E                                LD      C,(HL)
0D42: 23                                INC     HL
0D43: 46                                LD      B,(HL)
0D44: 23                                INC     HL
0D45: 5E                                LD      E,(HL)
0D46: 23                                INC     HL
0D47: 56                                LD      D,(HL)
0D48: 7A                                LD      A,D
0D49: B3                                OR      E
0D4A: B0                                OR      B
0D4B: B1                                OR      C
0D4C: CA F5 0E                          JP      Z,L0EF5
0D4F: DD 6E FA                          LD      L,(IX-06h)
0D52: DD 66 FB                          LD      H,(IX-05h)
0D55: 71                                LD      (HL),C
0D56: 23                                INC     HL
0D57: 70                                LD      (HL),B
0D58: 23                                INC     HL
0D59: 73                                LD      (HL),E
0D5A: 23                                INC     HL
0D5B: 72                                LD      (HL),D
0D5C: DD 6E E9                          LD      L,(IX-17h)
0D5F: DD 66 EA                          LD      H,(IX-16h)
0D62: 11 09 00                          LD      DE,0009h
0D65: 19                                ADD     HL,DE
0D66: 4E                                LD      C,(HL)
0D67: 23                                INC     HL
0D68: 46                                LD      B,(HL)
0D69: 1E 00                             LD      E,00h
0D6B: DD 71 F5                          LD      (IX-0Bh),C
0D6E: DD 70 F6                          LD      (IX-0Ah),B
0D71: DD 73 F7                          LD      (IX-09h),E
0D74: AF                                XOR     A
0D75: DD 77 F4                          LD      (IX-0Ch),A
0D78: DD CB F5 26                       SLA     (IX-0Bh)
0D7C: DD CB F6 16                       RL      (IX-0Ah)
0D80: DD CB F7 16                       RL      (IX-09h)
0D84: DD 5E FC                          LD      E,(IX-04h)
0D87: DD 56 FD                          LD      D,(IX-03h)
0D8A: 21 39 00                          LD      HL,0039h
0D8D: 39                                ADD     HL,SP
0D8E: EB                                EX      DE,HL
0D8F: 01 04 00                          LD      BC,0004h
0D92: ED B0                             LDIR
0D94: DD 5E FE                          LD      E,(IX-02h)
0D97: DD 56 FF                          LD      D,(IX-01h)
0D9A: 21 3D 00                          LD      HL,003Dh
0D9D: 39                                ADD     HL,SP
0D9E: EB                                EX      DE,HL
0D9F: 01 04 00                          LD      BC,0004h
0DA2: ED B0                             LDIR
0DA4: DD 7E EB                   L0DA4: LD      A,(IX-15h)
0DA7: B7                                OR      A
0DA8: C2 40 0E                          JP      NZ,L0E40
0DAB: DD 7E F4                          LD      A,(IX-0Ch)
0DAE: DD 96 FC                          SUB     (IX-04h)
0DB1: DD 7E F5                          LD      A,(IX-0Bh)
0DB4: DD 9E FD                          SBC     A,(IX-03h)
0DB7: DD 7E F6                          LD      A,(IX-0Ah)
0DBA: DD 9E FE                          SBC     A,(IX-02h)
0DBD: DD 7E F7                          LD      A,(IX-09h)
0DC0: DD 9E FF                          SBC     A,(IX-01h)
0DC3: 30 7B                             JR      NC,L0E40
0DC5: DD 6E FA                          LD      L,(IX-06h)
0DC8: DD 66 FB                          LD      H,(IX-05h)
0DCB: E5                                PUSH    HL
0DCC: DD 6E F8                          LD      L,(IX-08h)
0DCF: DD 66 F9                          LD      H,(IX-07h)
0DD2: E5                                PUSH    HL
0DD3: DD 6E EE                          LD      L,(IX-12h)
0DD6: DD 66 EF                          LD      H,(IX-11h)
0DD9: E5                                PUSH    HL
0DDA: CD 47 14                          CALL    L1447
0DDD: F1                                POP     AF
0DDE: F1                                POP     AF
0DDF: F1                                POP     AF
0DE0: DD 75 F8                          LD      (IX-08h),L
0DE3: DD 74 F9                          LD      (IX-07h),H
0DE6: DD 73 FA                          LD      (IX-06h),E
0DE9: DD 72 FB                          LD      (IX-05h),D
0DEC: 3E 01                             LD      A,01h
0DEE: DD BE F8                          CP      (IX-08h)
0DF1: 3E 00                             LD      A,00h
0DF3: DD 9E F9                          SBC     A,(IX-07h)
0DF6: 3E 00                             LD      A,00h
0DF8: DD 9E FA                          SBC     A,(IX-06h)
0DFB: 3E 00                             LD      A,00h
0DFD: DD 9E FB                          SBC     A,(IX-05h)
0E00: 38 04                             JR      C,L0E06
0E02: DD 36 EB 02                       LD      (IX-15h),02h
0E06: DD 7E F8                   L0E06: LD      A,(IX-08h)
0E09: DD A6 F9                          AND     (IX-07h)
0E0C: DD A6 FA                          AND     (IX-06h)
0E0F: DD A6 FB                          AND     (IX-05h)
0E12: 3C                                INC     A
0E13: 20 04                             JR      NZ,L0E19
0E15: DD 36 EB 01                       LD      (IX-15h),01h
0E19: DD 7E FC                   L0E19: LD      A,(IX-04h)
0E1C: DD 96 F4                          SUB     (IX-0Ch)
0E1F: DD 77 FC                          LD      (IX-04h),A
0E22: DD 7E FD                          LD      A,(IX-03h)
0E25: DD 9E F5                          SBC     A,(IX-0Bh)
0E28: DD 77 FD                          LD      (IX-03h),A
0E2B: DD 7E FE                          LD      A,(IX-02h)
0E2E: DD 9E F6                          SBC     A,(IX-0Ah)
0E31: DD 77 FE                          LD      (IX-02h),A
0E34: DD 7E FF                          LD      A,(IX-01h)
0E37: DD 9E F7                          SBC     A,(IX-09h)
0E3A: DD 77 FF                          LD      (IX-01h),A
0E3D: C3 A4 0D                          JP      L0DA4

0E40: DD 7E EC                   L0E40: LD      A,(IX-14h)
0E43: C6 14                             ADD     A,14h
0E45: 5F                                LD      E,A
0E46: DD 7E ED                          LD      A,(IX-13h)
0E49: CE 00                             ADC     A,00h
0E4B: 57                                LD      D,A
0E4C: 21 39 00                          LD      HL,0039h
0E4F: 39                                ADD     HL,SP
0E50: 01 04 00                          LD      BC,0004h
0E53: ED B0                             LDIR
0E55: DD 7E EB                          LD      A,(IX-15h)
0E58: B7                                OR      A
0E59: C2 F5 0E                          JP      NZ,L0EF5
0E5C: DD 7E FC                          LD      A,(IX-04h)
0E5F: B7                                OR      A
0E60: 20 07                             JR      NZ,L0E69
0E62: DD CB FD 46                       BIT     0,(IX-03h)
0E66: CA F5 0E                          JP      Z,L0EF5
0E69: DD 6E FA                   L0E69: LD      L,(IX-06h)
0E6C: DD 66 FB                          LD      H,(IX-05h)
0E6F: E5                                PUSH    HL
0E70: DD 6E F8                          LD      L,(IX-08h)
0E73: DD 66 F9                          LD      H,(IX-07h)
0E76: E5                                PUSH    HL
0E77: DD 6E E9                          LD      L,(IX-17h)
0E7A: DD 66 EA                          LD      H,(IX-16h)
0E7D: E5                                PUSH    HL
0E7E: CD 07 13                          CALL    L1307
0E81: F1                                POP     AF
0E82: F1                                POP     AF
0E83: F1                                POP     AF
0E84: 7A                                LD      A,D
0E85: B3                                OR      E
0E86: B4                                OR      H
0E87: B5                                OR      L
0E88: 20 06                             JR      NZ,L0E90
0E8A: DD 36 EB 02                       LD      (IX-15h),02h
0E8E: 18 65                             JR      L0EF5

0E90: 06 09                      L0E90: LD      B,09h
0E92: DD CB FF 3E                L0E92: SRL     (IX-01h)
0E96: DD CB FE 1E                       RR      (IX-02h)
0E9A: DD CB FD 1E                       RR      (IX-03h)
0E9E: DD CB FC 1E                       RR      (IX-04h)
0EA2: 10 EE                             DJNZ    L0E92
0EA4: 7D                                LD      A,L
0EA5: DD 86 FC                          ADD     A,(IX-04h)
0EA8: 4F                                LD      C,A
0EA9: 7C                                LD      A,H
0EAA: DD 8E FD                          ADC     A,(IX-03h)
0EAD: 47                                LD      B,A
0EAE: 7B                                LD      A,E
0EAF: DD 8E FE                          ADC     A,(IX-02h)
0EB2: 5F                                LD      E,A
0EB3: 7A                                LD      A,D
0EB4: DD 8E FF                          ADC     A,(IX-01h)
0EB7: 57                                LD      D,A
0EB8: DD 6E F0                          LD      L,(IX-10h)
0EBB: DD 66 F1                          LD      H,(IX-0Fh)
0EBE: 71                                LD      (HL),C
0EBF: 23                                INC     HL
0EC0: 70                                LD      (HL),B
0EC1: 23                                INC     HL
0EC2: 73                                LD      (HL),E
0EC3: 23                                INC     HL
0EC4: 72                                LD      (HL),D
0EC5: DD 6E E9                          LD      L,(IX-17h)
0EC8: DD 66 EA                          LD      H,(IX-16h)
0ECB: 23                                INC     HL
0ECC: 7E                                LD      A,(HL)
0ECD: DD 77 FF                          LD      (IX-01h),A
0ED0: 21 01 00                          LD      HL,0001h
0ED3: E5                                PUSH    HL
0ED4: D5                                PUSH    DE
0ED5: C5                                PUSH    BC
0ED6: DD 6E F2                          LD      L,(IX-0Eh)
0ED9: DD 66 F3                          LD      H,(IX-0Dh)
0EDC: E5                                PUSH    HL
0EDD: DD 7E FF                          LD      A,(IX-01h)
0EE0: F5                                PUSH    AF
0EE1: 33                                INC     SP
0EE2: CD EF 02                          CALL    L02EF
0EE5: FD 21 09 00                       LD      IY,0009h
0EE9: FD 39                             ADD     IY,SP
0EEB: FD F9                             LD      SP,IY
0EED: 7D                                LD      A,L
0EEE: B7                                OR      A
0EEF: 28 04                             JR      Z,L0EF5
0EF1: DD 36 EB 01                       LD      (IX-15h),01h
0EF5: DD 7E EB                   L0EF5: LD      A,(IX-15h)
0EF8: B7                                OR      A
0EF9: 28 0A                             JR      Z,L0F05
0EFB: DD 6E EC                          LD      L,(IX-14h)
0EFE: DD 66 ED                          LD      H,(IX-13h)
0F01: AF                                XOR     A
0F02: 77                                LD      (HL),A
0F03: 23                                INC     HL
0F04: 77                                LD      (HL),A
0F05: DD 6E EB                   L0F05: LD      L,(IX-15h)
0F08: DD F9                      L0F08: LD      SP,IX
0F0A: DD E1                             POP     IX
0F0C: C9                                RET

                                        ; --- START PROC L0F0D ---
0F0D: CD CE 13                   L0F0D: CALL    L13CE
0F10: F5                                PUSH    AF
0F11: F5                                PUSH    AF
0F12: F5                                PUSH    AF
0F13: DD 7E 06                          LD      A,(IX+06h)
0F16: DD 77 FA                          LD      (IX-06h),A
0F19: DD 7E 07                          LD      A,(IX+07h)
0F1C: DD 77 FB                          LD      (IX-05h),A
0F1F: 21 00 00                          LD      HL,0000h
0F22: 39                                ADD     HL,SP
0F23: E5                                PUSH    HL
0F24: CD 49 3A                          CALL    L3A49
0F27: F1                                POP     AF
0F28: DD 75 FE                          LD      (IX-02h),L
0F2B: DD 74 FF                          LD      (IX-01h),H
0F2E: DD CB FF 7E                       BIT     7,(IX-01h)
0F32: 28 05                             JR      Z,L0F39
0F34: 2E 0B                             LD      L,0Bh
0F36: C3 B7 0F                          JP      L0FB7

0F39: 01 B3 72                   L0F39: LD      BC,72B3h
0F3C: DD 6E FE                          LD      L,(IX-02h)
0F3F: DD 66 FF                          LD      H,(IX-01h)
0F42: 29                                ADD     HL,HL
0F43: 09                                ADD     HL,BC
0F44: DD 75 FE                          LD      (IX-02h),L
0F47: DD 74 FF                          LD      (IX-01h),H
0F4A: 4E                                LD      C,(HL)
0F4B: 23                                INC     HL
0F4C: 46                                LD      B,(HL)
0F4D: 59                                LD      E,C
0F4E: 78                                LD      A,B
0F4F: 57                                LD      D,A
0F50: B1                                OR      C
0F51: 28 02                             JR      Z,L0F55
0F53: AF                                XOR     A
0F54: 12                                LD      (DE),A
0F55: DD 7E 05                   L0F55: LD      A,(IX+05h)
0F58: DD B6 04                          OR      (IX+04h)
0F5B: 28 08                             JR      Z,L0F65
0F5D: DD 4E 04                          LD      C,(IX+04h)
0F60: DD 46 05                          LD      B,(IX+05h)
0F63: AF                                XOR     A
0F64: 02                                LD      (BC),A
0F65: DD 6E FE                   L0F65: LD      L,(IX-02h)
0F68: DD 66 FF                          LD      H,(IX-01h)
0F6B: DD 7E 04                          LD      A,(IX+04h)
0F6E: 77                                LD      (HL),A
0F6F: 23                                INC     HL
0F70: DD 7E 05                          LD      A,(IX+05h)
0F73: 77                                LD      (HL),A
0F74: DD 7E 08                          LD      A,(IX+08h)
0F77: B7                                OR      A
0F78: 20 03                             JR      NZ,L0F7D
0F7A: 6F                                LD      L,A
0F7B: 18 3A                             JR      L0FB7

0F7D: 21 0A 00                   L0F7D: LD      HL,000Ah
0F80: 39                                ADD     HL,SP
0F81: DD 75 FE                          LD      (IX-02h),L
0F84: DD 74 FF                          LD      (IX-01h),H
0F87: DD 7E FE                          LD      A,(IX-02h)
0F8A: DD 77 FC                          LD      (IX-04h),A
0F8D: DD 7E FF                          LD      A,(IX-01h)
0F90: DD 77 FD                          LD      (IX-03h),A
0F93: 21 0C 00                          LD      HL,000Ch
0F96: 39                                ADD     HL,SP
0F97: DD 75 FE                          LD      (IX-02h),L
0F9A: DD 74 FF                          LD      (IX-01h),H
0F9D: AF                                XOR     A
0F9E: F5                                PUSH    AF
0F9F: 33                                INC     SP
0FA0: DD 6E FC                          LD      L,(IX-04h)
0FA3: DD 66 FD                          LD      H,(IX-03h)
0FA6: E5                                PUSH    HL
0FA7: DD 6E FE                          LD      L,(IX-02h)
0FAA: DD 66 FF                          LD      H,(IX-01h)
0FAD: E5                                PUSH    HL
0FAE: CD AD 1A                          CALL    L1AAD
0FB1: F1                                POP     AF
0FB2: F1                                POP     AF
0FB3: 33                                INC     SP
0FB4: DD 75 FF                          LD      (IX-01h),L
0FB7: DD F9                      L0FB7: LD      SP,IX
0FB9: DD E1                             POP     IX
0FBB: C9                                RET

                                        ; --- START PROC L0FBC ---
0FBC: CD CE 13                   L0FBC: CALL    L13CE
0FBF: F5                                PUSH    AF
0FC0: F5                                PUSH    AF
0FC1: F5                                PUSH    AF
0FC2: DD 4E 04                          LD      C,(IX+04h)
0FC5: DD 46 05                          LD      B,(IX+05h)
0FC8: 0A                                LD      A,(BC)
0FC9: DD 77 FA                          LD      (IX-06h),A
0FCC: 03                                INC     BC
0FCD: 0A                                LD      A,(BC)
0FCE: DD 77 FB                          LD      (IX-05h),A
0FD1: 0B                                DEC     BC
0FD2: C5                                PUSH    BC
0FD3: 21 01 00                          LD      HL,0001h
0FD6: E5                                PUSH    HL
0FD7: C5                                PUSH    BC
0FD8: CD D1 19                          CALL    L19D1
0FDB: F1                                POP     AF
0FDC: F1                                POP     AF
0FDD: 7D                                LD      A,L
0FDE: C1                                POP     BC
0FDF: 5F                                LD      E,A
0FE0: B7                                OR      A
0FE1: C2 62 10                          JP      NZ,L1062
0FE4: 69                                LD      L,C
0FE5: 60                                LD      H,B
0FE6: 11 16 00                          LD      DE,0016h
0FE9: 19                                ADD     HL,DE
0FEA: 5E                                LD      E,(HL)
0FEB: 23                                INC     HL
0FEC: 56                                LD      D,(HL)
0FED: 23                                INC     HL
0FEE: 23                                INC     HL
0FEF: 7E                                LD      A,(HL)
0FF0: 2B                                DEC     HL
0FF1: 6E                                LD      L,(HL)
0FF2: 67                                LD      H,A
0FF3: C5                                PUSH    BC
0FF4: E5                                PUSH    HL
0FF5: D5                                PUSH    DE
0FF6: DD 6E FA                          LD      L,(IX-06h)
0FF9: DD 66 FB                          LD      H,(IX-05h)
0FFC: E5                                PUSH    HL
0FFD: CD DE 22                          CALL    L22DE
1000: F1                                POP     AF
1001: F1                                POP     AF
1002: F1                                POP     AF
1003: 7D                                LD      A,L
1004: C1                                POP     BC
1005: 5F                                LD      E,A
1006: B7                                OR      A
1007: 20 59                             JR      NZ,L1062
1009: 21 1A 00                          LD      HL,001Ah
100C: 09                                ADD     HL,BC
100D: DD 75 FC                          LD      (IX-04h),L
1010: DD 74 FD                          LD      (IX-03h),H
1013: 56                                LD      D,(HL)
1014: 23                                INC     HL
1015: 6E                                LD      L,(HL)
1016: DD 72 FE                          LD      (IX-02h),D
1019: DD 75 FF                          LD      (IX-01h),L
101C: C5                                PUSH    BC
101D: D5                                PUSH    DE
101E: 21 20 00                          LD      HL,0020h
1021: E5                                PUSH    HL
1022: 2E 00                             LD      L,00h
1024: E5                                PUSH    HL
1025: DD 6E FE                          LD      L,(IX-02h)
1028: DD 66 FF                          LD      H,(IX-01h)
102B: E5                                PUSH    HL
102C: CD A7 22                          CALL    L22A7
102F: F1                                POP     AF
1030: F1                                POP     AF
1031: F1                                POP     AF
1032: D1                                POP     DE
1033: C1                                POP     BC
1034: 21 1C 00                          LD      HL,001Ch
1037: 09                                ADD     HL,BC
1038: DD 75 FE                          LD      (IX-02h),L
103B: DD 74 FF                          LD      (IX-01h),H
103E: DD 6E FC                          LD      L,(IX-04h)
1041: DD 66 FD                          LD      H,(IX-03h)
1044: 4E                                LD      C,(HL)
1045: 23                                INC     HL
1046: 46                                LD      B,(HL)
1047: D5                                PUSH    DE
1048: 21 0B 00                          LD      HL,000Bh
104B: E5                                PUSH    HL
104C: DD 6E FE                          LD      L,(IX-02h)
104F: DD 66 FF                          LD      H,(IX-01h)
1052: E5                                PUSH    HL
1053: C5                                PUSH    BC
1054: CD 14 09                          CALL    L0914
1057: F1                                POP     AF
1058: F1                                POP     AF
1059: F1                                POP     AF
105A: D1                                POP     DE
105B: E1                                POP     HL
105C: E5                                PUSH    HL
105D: 23                                INC     HL
105E: 23                                INC     HL
105F: 23                                INC     HL
1060: 36 01                             LD      (HL),01h
1062: 6B                         L1062: LD      L,E
1063: DD F9                             LD      SP,IX
1065: DD E1                             POP     IX
1067: C9                                RET

1068: DD                         L1068: DB      0DDh
1069: E5                                DB      0E5h
106A: DD                                DB      0DDh
106B: 21                                DB      21h     ; '!'
106C: 00                                DB      00h
106D: 00                                DB      00h
106E: DD                                DB      0DDh
106F: 39                                DB      39h     ; '9'
1070: DD                                DB      0DDh
1071: 6E                                DB      6Eh     ; 'n'
1072: 05                                DB      05h
1073: DD                                DB      0DDh
1074: 66                                DB      66h     ; 'f'
1075: 06                                DB      06h
1076: 4E 23 46 2B 59 50                 DB      "N#F+YP"
107C: 13                                DB      13h
107D: 73                                DB      73h     ; 's'
107E: 23                                DB      23h     ; '#'
107F: 72                                DB      72h     ; 'r'
1080: DD                                DB      0DDh
1081: 7E                                DB      7Eh     ; '~'
1082: 04                                DB      04h
1083: 02                                DB      02h
1084: DD                                DB      0DDh
1085: E1                                DB      0E1h
1086: C9                                DB      0C9h
1087: 21                                DB      21h     ; '!'
1088: 02                                DB      02h
1089: 00                                DB      00h
108A: 39                                DB      39h     ; '9'
108B: FD                                DB      0FDh
108C: 21                                DB      21h     ; '!'
108D: 06                                DB      06h
108E: 00                                DB      00h
108F: FD                                DB      0FDh
1090: 39                                DB      39h     ; '9'
1091: FD                                DB      0FDh
1092: 4E                                DB      4Eh     ; 'N'
1093: 00                                DB      00h
1094: FD                                DB      0FDh
1095: 46                                DB      46h     ; 'F'
1096: 01                                DB      01h
1097: C5                                DB      0C5h
1098: FD                                DB      0FDh
1099: 2B                                DB      2Bh     ; '+'
109A: FD                                DB      0FDh
109B: 2B                                DB      2Bh     ; '+'
109C: FD                                DB      0FDh
109D: 4E                                DB      4Eh     ; 'N'
109E: 00                                DB      00h
109F: FD                                DB      0FDh
10A0: 46                                DB      46h     ; 'F'
10A1: 01                                DB      01h
10A2: C5                                DB      0C5h
10A3: E5                                DB      0E5h
10A4: 21                                DB      21h     ; '!'
10A5: 68                                DB      68h     ; 'h'
10A6: 10                                DB      10h
10A7: E5                                DB      0E5h
10A8: CD                                DB      0CDh
10A9: BF                                DB      0BFh
10AA: 2E                                DB      2Eh     ; '.'
10AB: F1                                DB      0F1h
10AC: F1                                DB      0F1h
10AD: F1                                DB      0F1h
10AE: F1                                DB      0F1h
10AF: 4D                                DB      4Dh     ; 'M'
10B0: 44                                DB      44h     ; 'D'
10B1: D1                                DB      0D1h
10B2: E1                                DB      0E1h
10B3: E5                                DB      0E5h
10B4: D5                                DB      0D5h
10B5: 36                                DB      36h     ; '6'
10B6: 00                                DB      00h
10B7: 69                                DB      69h     ; 'i'
10B8: 60                                DB      60h     ; '`'
10B9: C9                                DB      0C9h

                                        ; --- START PROC L10BA ---
10BA: DD E5                      L10BA: PUSH    IX
10BC: DD 21 00 00                       LD      IX,0000h
10C0: DD 39                             ADD     IX,SP
10C2: 21 08 00                          LD      HL,0008h
10C5: 39                                ADD     HL,SP
10C6: EB                                EX      DE,HL
10C7: 21 04 00                          LD      HL,0004h
10CA: 39                                ADD     HL,SP
10CB: D5                                PUSH    DE
10CC: DD 4E 06                          LD      C,(IX+06h)
10CF: DD 46 07                          LD      B,(IX+07h)
10D2: C5                                PUSH    BC
10D3: E5                                PUSH    HL
10D4: 21 68 10                          LD      HL,1068h
10D7: E5                                PUSH    HL
10D8: CD BF 2E                          CALL    L2EBF
10DB: F1                                POP     AF
10DC: F1                                POP     AF
10DD: F1                                POP     AF
10DE: F1                                POP     AF
10DF: 4D                                LD      C,L
10E0: 44                                LD      B,H
10E1: DD 5E 04                          LD      E,(IX+04h)
10E4: DD 56 05                          LD      D,(IX+05h)
10E7: AF                                XOR     A
10E8: 12                                LD      (DE),A
10E9: 69                                LD      L,C
10EA: 60                                LD      H,B
10EB: DD E1                             POP     IX
10ED: C9                                RET

                                        ; --- START PROC L10EE ---
10EE: CD CE 13                   L10EE: CALL    L13CE
10F1: F5                                PUSH    AF
10F2: F5                                PUSH    AF
10F3: 3B                                DEC     SP
10F4: DD 36 FB 09                       LD      (IX-05h),09h
10F8: DD 4E 04                          LD      C,(IX+04h)
10FB: DD 46 05                          LD      B,(IX+05h)
10FE: DD 7E 05                          LD      A,(IX+05h)
1101: DD B6 04                          OR      (IX+04h)
1104: 28 4D                             JR      Z,L1153
1106: 69                                LD      L,C
1107: 60                                LD      H,B
1108: 5E                                LD      E,(HL)
1109: 23                                INC     HL
110A: 56                                LD      D,(HL)
110B: 7A                                LD      A,D
110C: B3                                OR      E
110D: 28 44                             JR      Z,L1153
110F: 1A                                LD      A,(DE)
1110: B7                                OR      A
1111: 28 40                             JR      Z,L1153
1113: 69                                LD      L,C
1114: 60                                LD      H,B
1115: 23                                INC     HL
1116: 23                                INC     HL
1117: 7E                                LD      A,(HL)
1118: DD 77 FC                          LD      (IX-04h),A
111B: 23                                INC     HL
111C: 7E                                LD      A,(HL)
111D: DD 77 FD                          LD      (IX-03h),A
1120: 6B                                LD      L,E
1121: 62                                LD      H,D
1122: 23                                INC     HL
1123: 23                                INC     HL
1124: 23                                INC     HL
1125: 23                                INC     HL
1126: 23                                INC     HL
1127: 7E                                LD      A,(HL)
1128: DD 77 FE                          LD      (IX-02h),A
112B: 23                                INC     HL
112C: 7E                                LD      A,(HL)
112D: DD 77 FF                          LD      (IX-01h),A
1130: DD 7E FC                          LD      A,(IX-04h)
1133: DD 96 FE                          SUB     (IX-02h)
1136: 20 1B                             JR      NZ,L1153
1138: DD 7E FD                          LD      A,(IX-03h)
113B: DD 96 FF                          SUB     (IX-01h)
113E: 20 13                             JR      NZ,L1153
1140: EB                                EX      DE,HL
1141: 23                                INC     HL
1142: 7E                                LD      A,(HL)
1143: C5                                PUSH    BC
1144: F5                                PUSH    AF
1145: 33                                INC     SP
1146: CD E1 02                          CALL    L02E1
1149: 33                                INC     SP
114A: 7D                                LD      A,L
114B: C1                                POP     BC
114C: 0F                                RRCA
114D: 38 04                             JR      C,L1153
114F: AF                                XOR     A
1150: DD 77 FB                          LD      (IX-05h),A
1153: DD 5E 06                   L1153: LD      E,(IX+06h)
1156: DD 56 07                          LD      D,(IX+07h)
1159: DD 7E FB                          LD      A,(IX-05h)
115C: B7                                OR      A
115D: 20 07                             JR      NZ,L1166
115F: 69                                LD      L,C
1160: 60                                LD      H,B
1161: 4E                                LD      C,(HL)
1162: 23                                INC     HL
1163: 46                                LD      B,(HL)
1164: 18 03                             JR      L1169

1166: 01 00 00                   L1166: LD      BC,0000h
1169: 79                         L1169: LD      A,C
116A: 12                                LD      (DE),A
116B: 13                                INC     DE
116C: 78                                LD      A,B
116D: 12                                LD      (DE),A
116E: DD 6E FB                          LD      L,(IX-05h)
1171: DD F9                             LD      SP,IX
1173: DD E1                             POP     IX
1175: C9                                RET

                                        ; --- START PROC L1176 ---
1176: CD CE 13                   L1176: CALL    L13CE
1179: F5                                PUSH    AF
117A: F5                                PUSH    AF
117B: DD 6E 04                          LD      L,(IX+04h)
117E: DD 66 05                          LD      H,(IX+05h)
1181: 23                                INC     HL
1182: 23                                INC     HL
1183: 23                                INC     HL
1184: 4E                                LD      C,(HL)
1185: 06 00                             LD      B,00h
1187: 1E 00                             LD      E,00h
1189: DD 71 FD                          LD      (IX-03h),C
118C: DD 70 FE                          LD      (IX-02h),B
118F: DD 73 FF                          LD      (IX-01h),E
1192: AF                                XOR     A
1193: DD 77 FC                          LD      (IX-04h),A
1196: DD 6E 04                          LD      L,(IX+04h)
1199: DD 66 05                          LD      H,(IX+05h)
119C: 23                                INC     HL
119D: 23                                INC     HL
119E: 4E                                LD      C,(HL)
119F: 06 00                             LD      B,00h
11A1: 11 00 00                          LD      DE,0000h
11A4: 79                                LD      A,C
11A5: DD B6 FC                          OR      (IX-04h)
11A8: 4F                                LD      C,A
11A9: 78                                LD      A,B
11AA: DD B6 FD                          OR      (IX-03h)
11AD: 47                                LD      B,A
11AE: 7B                                LD      A,E
11AF: DD B6 FE                          OR      (IX-02h)
11B2: 5F                                LD      E,A
11B3: 7A                                LD      A,D
11B4: DD B6 FF                          OR      (IX-01h)
11B7: DD 71 FD                          LD      (IX-03h),C
11BA: DD 70 FE                          LD      (IX-02h),B
11BD: DD 73 FF                          LD      (IX-01h),E
11C0: AF                                XOR     A
11C1: DD 77 FC                          LD      (IX-04h),A
11C4: DD 6E 04                          LD      L,(IX+04h)
11C7: DD 66 05                          LD      H,(IX+05h)
11CA: 23                                INC     HL
11CB: 4E                                LD      C,(HL)
11CC: 06 00                             LD      B,00h
11CE: 11 00 00                          LD      DE,0000h
11D1: 79                                LD      A,C
11D2: DD B6 FC                          OR      (IX-04h)
11D5: 4F                                LD      C,A
11D6: 78                                LD      A,B
11D7: DD B6 FD                          OR      (IX-03h)
11DA: 47                                LD      B,A
11DB: 7B                                LD      A,E
11DC: DD B6 FE                          OR      (IX-02h)
11DF: 5F                                LD      E,A
11E0: 7A                                LD      A,D
11E1: DD B6 FF                          OR      (IX-01h)
11E4: DD 71 FD                          LD      (IX-03h),C
11E7: DD 70 FE                          LD      (IX-02h),B
11EA: DD 73 FF                          LD      (IX-01h),E
11ED: AF                                XOR     A
11EE: DD 77 FC                          LD      (IX-04h),A
11F1: DD 6E 04                          LD      L,(IX+04h)
11F4: DD 66 05                          LD      H,(IX+05h)
11F7: 4E                                LD      C,(HL)
11F8: 06 00                             LD      B,00h
11FA: 11 00 00                          LD      DE,0000h
11FD: DD 7E FC                          LD      A,(IX-04h)
1200: B1                                OR      C
1201: 6F                                LD      L,A
1202: DD 7E FD                          LD      A,(IX-03h)
1205: B0                                OR      B
1206: 67                                LD      H,A
1207: DD 7E FE                          LD      A,(IX-02h)
120A: B3                                OR      E
120B: 5F                                LD      E,A
120C: DD 7E FF                          LD      A,(IX-01h)
120F: B2                                OR      D
1210: 57                                LD      D,A
1211: DD F9                             LD      SP,IX
1213: DD E1                             POP     IX
1215: C9                                RET

                                        ; --- START PROC L1216 ---
1216: FD 21 02 00                L1216: LD      IY,0002h
121A: FD 39                             ADD     IY,SP
121C: FD 6E 02                          LD      L,(IY+02h)
121F: FD 66 03                          LD      H,(IY+03h)
1222: E5                                PUSH    HL
1223: FD 6E 00                          LD      L,(IY+00h)
1226: FD 66 01                          LD      H,(IY+01h)
1229: E5                                PUSH    HL
122A: CD F2 12                          CALL    L12F2
122D: F1                                POP     AF
122E: F1                                POP     AF
122F: 3E 01                             LD      A,01h
1231: D3 91                             OUT     (91h),A
1233: DB 91                      L1233: IN      A,(91h)
1235: 0F                                RRCA
1236: D0                                RET     NC
1237: 2A B8 72                          LD      HL,(72B8h)
123A: CD AD 3D                          CALL    L3DAD
123D: 18 F4                             JR      L1233

                                        ; --- START PROC L123F ---
123F: 21 02 00                   L123F: LD      HL,0002h
1242: 39                                ADD     HL,SP
1243: 7E                                LD      A,(HL)
1244: 23                                INC     HL
1245: 66                                LD      H,(HL)
1246: 6F                                LD      L,A
1247: 01 92 00                          LD      BC,0092h
124A: ED B2                             INIR
124C: ED B2                             INIR
124E: C9                                RET

                                        ; --- START PROC L124F ---
124F: FD 21 02 00                L124F: LD      IY,0002h
1253: FD 39                             ADD     IY,SP
1255: FD 6E 02                          LD      L,(IY+02h)
1258: FD 66 03                          LD      H,(IY+03h)
125B: E5                                PUSH    HL
125C: FD 6E 00                          LD      L,(IY+00h)
125F: FD 66 01                          LD      H,(IY+01h)
1262: E5                                PUSH    HL
1263: CD 16 12                          CALL    L1216
1266: F1                                POP     AF
1267: F1                                POP     AF
1268: 21 06 00                          LD      HL,0006h
126B: 39                                ADD     HL,SP
126C: 4E                                LD      C,(HL)
126D: 23                                INC     HL
126E: 46                                LD      B,(HL)
126F: C5                                PUSH    BC
1270: CD 3F 12                          CALL    L123F
1273: F1                                POP     AF
1274: C9                                RET

                                        ; --- START PROC L1275 ---
1275: FD 21 00 00                L1275: LD      IY,0000h
1279: FD 39                             ADD     IY,SP
127B: FD 6E 02                          LD      L,(IY+02h)
127E: FD 66 03                          LD      H,(IY+03h)
1281: FD 46 04                          LD      B,(IY+04h)
1284: 0E 80                             LD      C,80h
1286: ED B3                             OTIR
1288: C9                                RET

                                        ; --- START PROC L1289 ---
1289: DD E5                      L1289: PUSH    IX
128B: DD 21 00 00                       LD      IX,0000h
128F: DD 39                             ADD     IX,SP
1291: DD 4E 04                          LD      C,(IX+04h)
1294: DD 46 05                          LD      B,(IX+05h)
1297: DD 7E 06                   L1297: LD      A,(IX+06h)
129A: B7                                OR      A
129B: 28 3B                             JR      Z,L12D8
129D: DB 80                             IN      A,(80h)
129F: 5F                                LD      E,A
12A0: 3E FF                             LD      A,0FFh
12A2: 93                                SUB     E
12A3: 67                                LD      H,A
12A4: DD 7E 06                          LD      A,(IX+06h)
12A7: 94                                SUB     H
12A8: 30 03                             JR      NC,L12AD
12AA: DD 66 06                          LD      H,(IX+06h)
12AD: 7C                         L12AD: LD      A,H
12AE: B7                                OR      A
12AF: 20 0A                             JR      NZ,L12BB
12B1: C5                                PUSH    BC
12B2: 2A B8 72                          LD      HL,(72B8h)
12B5: CD AD 3D                          CALL    L3DAD
12B8: C1                                POP     BC
12B9: 18 DC                             JR      L1297

12BB: 59                         L12BB: LD      E,C
12BC: 50                                LD      D,B
12BD: E5                                PUSH    HL
12BE: C5                                PUSH    BC
12BF: E5                                PUSH    HL
12C0: 33                                INC     SP
12C1: D5                                PUSH    DE
12C2: CD 75 12                          CALL    L1275
12C5: F1                                POP     AF
12C6: 33                                INC     SP
12C7: C1                                POP     BC
12C8: E1                                POP     HL
12C9: 79                                LD      A,C
12CA: 84                                ADD     A,H
12CB: 4F                                LD      C,A
12CC: 30 01                             JR      NC,L12CF
12CE: 04                                INC     B
12CF: DD 7E 06                   L12CF: LD      A,(IX+06h)
12D2: 94                                SUB     H
12D3: DD 77 06                          LD      (IX+06h),A
12D6: 18 BF                             JR      L1297

12D8: DD E1                      L12D8: POP     IX
12DA: C9                                RET

                                        ; --- START PROC L12DB ---
12DB: C1                         L12DB: POP     BC
12DC: E1                                POP     HL
12DD: E5                                PUSH    HL
12DE: C5                                PUSH    BC
12DF: E5                                PUSH    HL
12E0: CD BF 13                          CALL    L13BF
12E3: F1                                POP     AF
12E4: 65                                LD      H,L
12E5: D1                                POP     DE
12E6: C1                                POP     BC
12E7: C5                                PUSH    BC
12E8: D5                                PUSH    DE
12E9: E5                                PUSH    HL
12EA: 33                                INC     SP
12EB: C5                                PUSH    BC
12EC: CD 89 12                          CALL    L1289
12EF: F1                                POP     AF
12F0: 33                                INC     SP
12F1: C9                                RET

                                        ; --- START PROC L12F2 ---
12F2: 21 02 00                   L12F2: LD      HL,0002h
12F5: 39                                ADD     HL,SP
12F6: 01 90 04                          LD      BC,0490h
12F9: ED B3                             OTIR
12FB: C9                                RET

12FC: 81                         L12FC: DB      81h
12FD: 9F                         L12FD: DB      9Fh
12FE: E0                                DB      0E0h
12FF: FC                         L12FF: DB      0FCh
1300: 40                                DB      40h     ; '@'
1301: 7E                         L1301: DB      7Eh     ; '~'
1302: 80                                DB      80h
1303: FC                         L1303: DB      0FCh
1304: 00                                DB      00h
1305: 00                         L1305: DB      00h
1306: C9                                DB      0C9h

                                        ; --- START PROC L1307 ---
1307: CD CE 13                   L1307: CALL    L13CE
130A: F5                                PUSH    AF
130B: F5                                PUSH    AF
130C: DD 7E 06                          LD      A,(IX+06h)
130F: C6 FE                             ADD     A,0FEh
1311: DD 77 06                          LD      (IX+06h),A
1314: DD 7E 07                          LD      A,(IX+07h)
1317: CE FF                             ADC     A,0FFh
1319: DD 77 07                          LD      (IX+07h),A
131C: DD 7E 08                          LD      A,(IX+08h)
131F: CE FF                             ADC     A,0FFh
1321: DD 77 08                          LD      (IX+08h),A
1324: DD 7E 09                          LD      A,(IX+09h)
1327: CE FF                             ADC     A,0FFh
1329: DD 77 09                          LD      (IX+09h),A
132C: DD 4E 04                          LD      C,(IX+04h)
132F: DD 46 05                          LD      B,(IX+05h)
1332: 69                                LD      L,C
1333: 60                                LD      H,B
1334: 11 17 00                          LD      DE,0017h
1337: 19                                ADD     HL,DE
1338: 5E                                LD      E,(HL)
1339: 23                                INC     HL
133A: 56                                LD      D,(HL)
133B: 23                                INC     HL
133C: 23                                INC     HL
133D: 7E                                LD      A,(HL)
133E: 2B                                DEC     HL
133F: 6E                                LD      L,(HL)
1340: 67                                LD      H,A
1341: 7B                                LD      A,E
1342: C6 FE                             ADD     A,0FEh
1344: 5F                                LD      E,A
1345: 7A                                LD      A,D
1346: CE FF                             ADC     A,0FFh
1348: 57                                LD      D,A
1349: 7D                                LD      A,L
134A: CE FF                             ADC     A,0FFh
134C: 6F                                LD      L,A
134D: 7C                                LD      A,H
134E: CE FF                             ADC     A,0FFh
1350: 67                                LD      H,A
1351: DD 7E 06                          LD      A,(IX+06h)
1354: 93                                SUB     E
1355: DD 7E 07                          LD      A,(IX+07h)
1358: 9A                                SBC     A,D
1359: DD 7E 08                          LD      A,(IX+08h)
135C: 9D                                SBC     A,L
135D: DD 7E 09                          LD      A,(IX+09h)
1360: 9C                                SBC     A,H
1361: 38 07                             JR      C,L136A
1363: 21 00 00                          LD      HL,0000h
1366: 5D                                LD      E,L
1367: 54                                LD      D,H
1368: 18 50                             JR      L13BA

136A: 69                         L136A: LD      L,C
136B: 60                                LD      H,B
136C: 11 2B 00                          LD      DE,002Bh
136F: 19                                ADD     HL,DE
1370: 7E                                LD      A,(HL)
1371: DD 77 FC                          LD      (IX-04h),A
1374: 23                                INC     HL
1375: 7E                                LD      A,(HL)
1376: DD 77 FD                          LD      (IX-03h),A
1379: 23                                INC     HL
137A: 7E                                LD      A,(HL)
137B: DD 77 FE                          LD      (IX-02h),A
137E: 23                                INC     HL
137F: 7E                                LD      A,(HL)
1380: DD 77 FF                          LD      (IX-01h),A
1383: 69                                LD      L,C
1384: 60                                LD      H,B
1385: 11 09 00                          LD      DE,0009h
1388: 19                                ADD     HL,DE
1389: 4E                                LD      C,(HL)
138A: 23                                INC     HL
138B: 46                                LD      B,(HL)
138C: 11 00 00                          LD      DE,0000h
138F: DD 6E 08                          LD      L,(IX+08h)
1392: DD 66 09                          LD      H,(IX+09h)
1395: E5                                PUSH    HL
1396: DD 6E 06                          LD      L,(IX+06h)
1399: DD 66 07                          LD      H,(IX+07h)
139C: E5                                PUSH    HL
139D: D5                                PUSH    DE
139E: C5                                PUSH    BC
139F: CD E3 4E                          CALL    L4EE3
13A2: F1                                POP     AF
13A3: F1                                POP     AF
13A4: F1                                POP     AF
13A5: F1                                POP     AF
13A6: DD 7E FC                          LD      A,(IX-04h)
13A9: 85                                ADD     A,L
13AA: 6F                                LD      L,A
13AB: DD 7E FD                          LD      A,(IX-03h)
13AE: 8C                                ADC     A,H
13AF: 67                                LD      H,A
13B0: DD 7E FE                          LD      A,(IX-02h)
13B3: 8B                                ADC     A,E
13B4: 5F                                LD      E,A
13B5: DD 7E FF                          LD      A,(IX-01h)
13B8: 8A                                ADC     A,D
13B9: 57                                LD      D,A
13BA: DD F9                      L13BA: LD      SP,IX
13BC: DD E1                             POP     IX
13BE: C9                                RET

                                        ; --- START PROC L13BF ---
13BF: C1                         L13BF: POP     BC
13C0: E1                                POP     HL
13C1: E5                                PUSH    HL
13C2: C5                                PUSH    BC
13C3: AF                                XOR     A
13C4: 47                                LD      B,A
13C5: 4F                                LD      C,A
13C6: ED B1                             CPIR
13C8: 21 FF FF                          LD      HL,0FFFFh
13CB: ED 42                             SBC     HL,BC
13CD: C9                                RET

                                        ; --- START PROC L13CE ---
13CE: E1                         L13CE: POP     HL
13CF: DD E5                             PUSH    IX
13D1: DD 21 00 00                       LD      IX,0000h
13D5: DD 39                             ADD     IX,SP
13D7: E9                                JP      (HL)

                                        ; --- START PROC L13D8 ---
13D8: CD CE 13                   L13D8: CALL    L13CE
13DB: F5                                PUSH    AF
13DC: F5                                PUSH    AF
13DD: DD 7E 06                          LD      A,(IX+06h)
13E0: C6 1A                             ADD     A,1Ah
13E2: 4F                                LD      C,A
13E3: DD 7E 07                          LD      A,(IX+07h)
13E6: CE 00                             ADC     A,00h
13E8: 47                                LD      B,A
13E9: C5                                PUSH    BC
13EA: CD BF 22                          CALL    L22BF
13ED: F1                                POP     AF
13EE: DD 75 FC                          LD      (IX-04h),L
13F1: DD 74 FD                          LD      (IX-03h),H
13F4: AF                                XOR     A
13F5: DD 77 FE                          LD      (IX-02h),A
13F8: DD 77 FF                          LD      (IX-01h),A
13FB: DD 4E 04                          LD      C,(IX+04h)
13FE: DD 46 05                          LD      B,(IX+05h)
1401: 0A                                LD      A,(BC)
1402: D6 03                             SUB     03h
1404: 20 30                             JR      NZ,L1436
1406: DD 7E 06                          LD      A,(IX+06h)
1409: C6 14                             ADD     A,14h
140B: 4F                                LD      C,A
140C: DD 7E 07                          LD      A,(IX+07h)
140F: CE 00                             ADC     A,00h
1411: 47                                LD      B,A
1412: C5                                PUSH    BC
1413: CD BF 22                          CALL    L22BF
1416: F1                                POP     AF
1417: 01 00 00                          LD      BC,0000h
141A: DD 7E FC                          LD      A,(IX-04h)
141D: B1                                OR      C
141E: DD 77 FC                          LD      (IX-04h),A
1421: DD 7E FD                          LD      A,(IX-03h)
1424: B0                                OR      B
1425: DD 77 FD                          LD      (IX-03h),A
1428: DD 7E FE                          LD      A,(IX-02h)
142B: B5                                OR      L
142C: DD 77 FE                          LD      (IX-02h),A
142F: DD 7E FF                          LD      A,(IX-01h)
1432: B4                                OR      H
1433: DD 77 FF                          LD      (IX-01h),A
1436: DD 6E FC                   L1436: LD      L,(IX-04h)
1439: DD 66 FD                          LD      H,(IX-03h)
143C: DD 5E FE                          LD      E,(IX-02h)
143F: DD 56 FF                          LD      D,(IX-01h)
1442: DD F9                             LD      SP,IX
1444: DD E1                             POP     IX
1446: C9                                RET

                                        ; --- START PROC L1447 ---
1447: CD CE 13                   L1447: CALL    L13CE
144A: 21 F0 FF                          LD      HL,0FFF0h
144D: 39                                ADD     HL,SP
144E: F9                                LD      SP,HL
144F: DD 4E 04                          LD      C,(IX+04h)
1452: DD 46 05                          LD      B,(IX+05h)
1455: 0A                                LD      A,(BC)
1456: DD 77 F0                          LD      (IX-10h),A
1459: 03                                INC     BC
145A: 0A                                LD      A,(BC)
145B: DD 77 F1                          LD      (IX-0Fh),A
145E: DD 7E 06                          LD      A,(IX+06h)
1461: D6 02                             SUB     02h
1463: DD 7E 07                          LD      A,(IX+07h)
1466: DE 00                             SBC     A,00h
1468: DD 7E 08                          LD      A,(IX+08h)
146B: DE 00                             SBC     A,00h
146D: DD 7E 09                          LD      A,(IX+09h)
1470: DE 00                             SBC     A,00h
1472: 38 1F                             JR      C,L1493
1474: E1                                POP     HL
1475: E5                                PUSH    HL
1476: 11 17 00                          LD      DE,0017h
1479: 19                                ADD     HL,DE
147A: 4E                                LD      C,(HL)
147B: 23                                INC     HL
147C: 46                                LD      B,(HL)
147D: 23                                INC     HL
147E: 5E                                LD      E,(HL)
147F: 23                                INC     HL
1480: 56                                LD      D,(HL)
1481: DD 7E 06                          LD      A,(IX+06h)
1484: 91                                SUB     C
1485: DD 7E 07                          LD      A,(IX+07h)
1488: 98                                SBC     A,B
1489: DD 7E 08                          LD      A,(IX+08h)
148C: 9B                                SBC     A,E
148D: DD 7E 09                          LD      A,(IX+09h)
1490: 9A                                SBC     A,D
1491: 38 11                             JR      C,L14A4
1493: DD 36 F2 01                L1493: LD      (IX-0Eh),01h
1497: AF                                XOR     A
1498: DD 77 F3                          LD      (IX-0Dh),A
149B: DD 77 F4                          LD      (IX-0Ch),A
149E: DD 77 F5                          LD      (IX-0Bh),A
14A1: C3 44 17                          JP      L1744

14A4: DD 36 F2 FF                L14A4: LD      (IX-0Eh),0FFh
14A8: DD 36 F3 FF                       LD      (IX-0Dh),0FFh
14AC: DD 36 F4 FF                       LD      (IX-0Ch),0FFh
14B0: DD 36 F5 FF                       LD      (IX-0Bh),0FFh
14B4: E1                                POP     HL
14B5: E5                                PUSH    HL
14B6: 4E                                LD      C,(HL)
14B7: DD 7E F0                          LD      A,(IX-10h)
14BA: C6 23                             ADD     A,23h   ; '#'
14BC: DD 77 FE                          LD      (IX-02h),A
14BF: DD 7E F1                          LD      A,(IX-0Fh)
14C2: CE 00                             ADC     A,00h
14C4: DD 77 FF                          LD      (IX-01h),A
14C7: DD 7E F0                          LD      A,(IX-10h)
14CA: C6 33                             ADD     A,33h   ; '3'
14CC: DD 77 F6                          LD      (IX-0Ah),A
14CF: DD 7E F1                          LD      A,(IX-0Fh)
14D2: CE 00                             ADC     A,00h
14D4: DD 77 F7                          LD      (IX-09h),A
14D7: 79                                LD      A,C
14D8: 3D                                DEC     A
14D9: 28 0E                             JR      Z,L14E9
14DB: 79                                LD      A,C
14DC: FE 02                             CP      02h
14DE: CA 3B 16                          JP      Z,L163B
14E1: D6 03                             SUB     03h
14E3: CA B0 16                          JP      Z,L16B0
14E6: C3 36 17                          JP      L1736

14E9: DD 4E 06                   L14E9: LD      C,(IX+06h)
14EC: DD 46 07                          LD      B,(IX+07h)
14EF: 69                                LD      L,C
14F0: 60                                LD      H,B
14F1: CB 3C                             SRL     H
14F3: CB 1D                             RR      L
14F5: 09                                ADD     HL,BC
14F6: E5                                PUSH    HL
14F7: DD 5E FE                          LD      E,(IX-02h)
14FA: DD 56 FF                          LD      D,(IX-01h)
14FD: 21 0C 00                          LD      HL,000Ch
1500: 39                                ADD     HL,SP
1501: EB                                EX      DE,HL
1502: 01 04 00                          LD      BC,0004h
1505: ED B0                             LDIR
1507: D1                                POP     DE
1508: 7A                                LD      A,D
1509: CB 3F                             SRL     A
150B: 4F                                LD      C,A
150C: 06 00                             LD      B,00h
150E: 21 00 00                          LD      HL,0000h
1511: DD 7E FA                          LD      A,(IX-06h)
1514: 81                                ADD     A,C
1515: 4F                                LD      C,A
1516: DD 7E FB                          LD      A,(IX-05h)
1519: 88                                ADC     A,B
151A: 47                                LD      B,A
151B: DD 7E FC                          LD      A,(IX-04h)
151E: 8D                                ADC     A,L
151F: 6F                                LD      L,A
1520: DD 7E FD                          LD      A,(IX-03h)
1523: 8C                                ADC     A,H
1524: 67                                LD      H,A
1525: D5                                PUSH    DE
1526: E5                                PUSH    HL
1527: C5                                PUSH    BC
1528: DD 6E F0                          LD      L,(IX-10h)
152B: DD 66 F1                          LD      H,(IX-0Fh)
152E: E5                                PUSH    HL
152F: CD DE 22                          CALL    L22DE
1532: F1                                POP     AF
1533: F1                                POP     AF
1534: F1                                POP     AF
1535: 7D                                LD      A,L
1536: D1                                POP     DE
1537: B7                                OR      A
1538: C2 44 17                          JP      NZ,L1744
153B: 4B                                LD      C,E
153C: 42                                LD      B,D
153D: 13                                INC     DE
153E: DD 73 F8                          LD      (IX-08h),E
1541: DD 72 F9                          LD      (IX-07h),D
1544: 78                                LD      A,B
1545: E6 01                             AND     01h
1547: 47                                LD      B,A
1548: 79                                LD      A,C
1549: DD 86 F6                          ADD     A,(IX-0Ah)
154C: DD 77 FC                          LD      (IX-04h),A
154F: 78                                LD      A,B
1550: DD 8E F7                          ADC     A,(IX-09h)
1553: DD 77 FD                          LD      (IX-03h),A
1556: DD 6E FC                          LD      L,(IX-04h)
1559: DD 66 FD                          LD      H,(IX-03h)
155C: 7E                                LD      A,(HL)
155D: DD 77 FD                          LD      (IX-03h),A
1560: DD 77 FA                          LD      (IX-06h),A
1563: AF                                XOR     A
1564: DD 77 FB                          LD      (IX-05h),A
1567: DD 5E FE                          LD      E,(IX-02h)
156A: DD 56 FF                          LD      D,(IX-01h)
156D: 21 0C 00                          LD      HL,000Ch
1570: 39                                ADD     HL,SP
1571: EB                                EX      DE,HL
1572: 01 04 00                          LD      BC,0004h
1575: ED B0                             LDIR
1577: DD 7E F9                          LD      A,(IX-07h)
157A: CB 3F                             SRL     A
157C: 4F                                LD      C,A
157D: 06 00                             LD      B,00h
157F: 11 00 00                          LD      DE,0000h
1582: DD 7E FC                          LD      A,(IX-04h)
1585: 81                                ADD     A,C
1586: 4F                                LD      C,A
1587: DD 7E FD                          LD      A,(IX-03h)
158A: 88                                ADC     A,B
158B: 47                                LD      B,A
158C: DD 7E FE                          LD      A,(IX-02h)
158F: 8B                                ADC     A,E
1590: 5F                                LD      E,A
1591: DD 7E FF                          LD      A,(IX-01h)
1594: 8A                                ADC     A,D
1595: 57                                LD      D,A
1596: D5                                PUSH    DE
1597: C5                                PUSH    BC
1598: DD 6E F0                          LD      L,(IX-10h)
159B: DD 66 F1                          LD      H,(IX-0Fh)
159E: E5                                PUSH    HL
159F: CD DE 22                          CALL    L22DE
15A2: F1                                POP     AF
15A3: F1                                POP     AF
15A4: F1                                POP     AF
15A5: 7D                                LD      A,L
15A6: B7                                OR      A
15A7: C2 44 17                          JP      NZ,L1744
15AA: DD 7E F8                          LD      A,(IX-08h)
15AD: DD 77 FE                          LD      (IX-02h),A
15B0: DD 7E F9                          LD      A,(IX-07h)
15B3: E6 01                             AND     01h
15B5: DD 77 FF                          LD      (IX-01h),A
15B8: DD 7E FE                          LD      A,(IX-02h)
15BB: DD 86 F6                          ADD     A,(IX-0Ah)
15BE: DD 77 FC                          LD      (IX-04h),A
15C1: DD 7E FF                          LD      A,(IX-01h)
15C4: DD 8E F7                          ADC     A,(IX-09h)
15C7: DD 77 FD                          LD      (IX-03h),A
15CA: DD 6E FC                          LD      L,(IX-04h)
15CD: DD 66 FD                          LD      H,(IX-03h)
15D0: 7E                                LD      A,(HL)
15D1: DD 77 FF                          LD      (IX-01h),A
15D4: DD 77 FE                          LD      (IX-02h),A
15D7: AF                                XOR     A
15D8: DD 77 FF                          LD      (IX-01h),A
15DB: DD 7E FE                          LD      A,(IX-02h)
15DE: DD 77 FF                          LD      (IX-01h),A
15E1: DD 36 FE 00                       LD      (IX-02h),00h
15E5: DD 7E FA                          LD      A,(IX-06h)
15E8: DD B6 FE                          OR      (IX-02h)
15EB: DD 77 FC                          LD      (IX-04h),A
15EE: DD 7E FB                          LD      A,(IX-05h)
15F1: DD B6 FF                          OR      (IX-01h)
15F4: DD 77 FD                          LD      (IX-03h),A
15F7: DD CB 06 46                       BIT     0,(IX+06h)
15FB: 28 1A                             JR      Z,L1617
15FD: DD 7E FC                          LD      A,(IX-04h)
1600: DD 77 FE                          LD      (IX-02h),A
1603: DD 7E FD                          LD      A,(IX-03h)
1606: DD 77 FF                          LD      (IX-01h),A
1609: 06 04                             LD      B,04h
160B: DD CB FF 3E                L160B: SRL     (IX-01h)
160F: DD CB FE 1E                       RR      (IX-02h)
1613: 10 F6                             DJNZ    L160B
1615: 18 0E                             JR      L1625

1617: DD 7E FC                   L1617: LD      A,(IX-04h)
161A: DD 77 FE                          LD      (IX-02h),A
161D: DD 7E FD                          LD      A,(IX-03h)
1620: E6 0F                             AND     0Fh
1622: DD 77 FF                          LD      (IX-01h),A
1625: DD 7E FE                   L1625: LD      A,(IX-02h)
1628: DD 77 F2                          LD      (IX-0Eh),A
162B: DD 7E FF                          LD      A,(IX-01h)
162E: DD 77 F3                          LD      (IX-0Dh),A
1631: AF                                XOR     A
1632: DD 77 F4                          LD      (IX-0Ch),A
1635: DD 77 F5                          LD      (IX-0Bh),A
1638: C3 44 17                          JP      L1744

163B: DD 5E FE                   L163B: LD      E,(IX-02h)
163E: DD 56 FF                          LD      D,(IX-01h)
1641: 21 0C 00                          LD      HL,000Ch
1644: 39                                ADD     HL,SP
1645: EB                                EX      DE,HL
1646: 01 04 00                          LD      BC,0004h
1649: ED B0                             LDIR
164B: DD 4E 07                          LD      C,(IX+07h)
164E: DD 46 08                          LD      B,(IX+08h)
1651: DD 5E 09                          LD      E,(IX+09h)
1654: 16 00                             LD      D,00h
1656: DD 7E FC                          LD      A,(IX-04h)
1659: 81                                ADD     A,C
165A: 4F                                LD      C,A
165B: DD 7E FD                          LD      A,(IX-03h)
165E: 88                                ADC     A,B
165F: 47                                LD      B,A
1660: DD 7E FE                          LD      A,(IX-02h)
1663: 8B                                ADC     A,E
1664: 5F                                LD      E,A
1665: DD 7E FF                          LD      A,(IX-01h)
1668: 8A                                ADC     A,D
1669: 57                                LD      D,A
166A: D5                                PUSH    DE
166B: C5                                PUSH    BC
166C: DD 6E F0                          LD      L,(IX-10h)
166F: DD 66 F1                          LD      H,(IX-0Fh)
1672: E5                                PUSH    HL
1673: CD DE 22                          CALL    L22DE
1676: F1                                POP     AF
1677: F1                                POP     AF
1678: F1                                POP     AF
1679: 7D                                LD      A,L
167A: B7                                OR      A
167B: C2 44 17                          JP      NZ,L1744
167E: DD 4E 06                          LD      C,(IX+06h)
1681: DD 46 07                          LD      B,(IX+07h)
1684: DD 6E 08                          LD      L,(IX+08h)
1687: DD 66 09                          LD      H,(IX+09h)
168A: CB 21                             SLA     C
168C: CB 10                             RL      B
168E: ED 6A                             ADC     HL,HL
1690: 78                                LD      A,B
1691: E6 01                             AND     01h
1693: 47                                LD      B,A
1694: DD 6E F6                          LD      L,(IX-0Ah)
1697: DD 66 F7                          LD      H,(IX-09h)
169A: 09                                ADD     HL,BC
169B: E5                                PUSH    HL
169C: CD BF 22                          CALL    L22BF
169F: F1                                POP     AF
16A0: DD 75 F2                          LD      (IX-0Eh),L
16A3: DD 74 F3                          LD      (IX-0Dh),H
16A6: AF                                XOR     A
16A7: DD 77 F4                          LD      (IX-0Ch),A
16AA: DD 77 F5                          LD      (IX-0Bh),A
16AD: C3 44 17                          JP      L1744

16B0: DD 5E FE                   L16B0: LD      E,(IX-02h)
16B3: DD 56 FF                          LD      D,(IX-01h)
16B6: 21 0C 00                          LD      HL,000Ch
16B9: 39                                ADD     HL,SP
16BA: EB                                EX      DE,HL
16BB: 01 04 00                          LD      BC,0004h
16BE: ED B0                             LDIR
16C0: DD 5E 06                          LD      E,(IX+06h)
16C3: DD 56 07                          LD      D,(IX+07h)
16C6: DD 6E 08                          LD      L,(IX+08h)
16C9: DD 66 09                          LD      H,(IX+09h)
16CC: 06 07                             LD      B,07h
16CE: CB 3C                      L16CE: SRL     H
16D0: CB 1D                             RR      L
16D2: CB 1A                             RR      D
16D4: CB 1B                             RR      E
16D6: 10 F6                             DJNZ    L16CE
16D8: DD 7E FC                          LD      A,(IX-04h)
16DB: 83                                ADD     A,E
16DC: 4F                                LD      C,A
16DD: DD 7E FD                          LD      A,(IX-03h)
16E0: 8A                                ADC     A,D
16E1: 47                                LD      B,A
16E2: DD 7E FE                          LD      A,(IX-02h)
16E5: 8D                                ADC     A,L
16E6: 5F                                LD      E,A
16E7: DD 7E FF                          LD      A,(IX-01h)
16EA: 8C                                ADC     A,H
16EB: 57                                LD      D,A
16EC: D5                                PUSH    DE
16ED: C5                                PUSH    BC
16EE: DD 6E F0                          LD      L,(IX-10h)
16F1: DD 66 F1                          LD      H,(IX-0Fh)
16F4: E5                                PUSH    HL
16F5: CD DE 22                          CALL    L22DE
16F8: F1                                POP     AF
16F9: F1                                POP     AF
16FA: F1                                POP     AF
16FB: 7D                                LD      A,L
16FC: B7                                OR      A
16FD: 20 45                             JR      NZ,L1744
16FF: DD 5E 06                          LD      E,(IX+06h)
1702: DD 56 07                          LD      D,(IX+07h)
1705: DD 6E 08                          LD      L,(IX+08h)
1708: DD 66 09                          LD      H,(IX+09h)
170B: 06 02                             LD      B,02h
170D: CB 23                      L170D: SLA     E
170F: CB 12                             RL      D
1711: ED 6A                             ADC     HL,HL
1713: 10 F8                             DJNZ    L170D
1715: 7A                                LD      A,D
1716: E6 01                             AND     01h
1718: 57                                LD      D,A
1719: DD 6E F6                          LD      L,(IX-0Ah)
171C: DD 66 F7                          LD      H,(IX-09h)
171F: 19                                ADD     HL,DE
1720: E5                                PUSH    HL
1721: CD 76 11                          CALL    L1176
1724: F1                                POP     AF
1725: DD 75 F2                          LD      (IX-0Eh),L
1728: DD 74 F3                          LD      (IX-0Dh),H
172B: DD 73 F4                          LD      (IX-0Ch),E
172E: 7A                                LD      A,D
172F: E6 0F                             AND     0Fh
1731: DD 77 F5                          LD      (IX-0Bh),A
1734: 18 0E                             JR      L1744

1736: DD 36 F2 01                L1736: LD      (IX-0Eh),01h
173A: AF                                XOR     A
173B: DD 77 F3                          LD      (IX-0Dh),A
173E: DD 77 F4                          LD      (IX-0Ch),A
1741: DD 77 F5                          LD      (IX-0Bh),A
1744: DD 6E F2                   L1744: LD      L,(IX-0Eh)
1747: DD 66 F3                          LD      H,(IX-0Dh)
174A: DD 5E F4                          LD      E,(IX-0Ch)
174D: DD 56 F5                          LD      D,(IX-0Bh)
1750: DD F9                             LD      SP,IX
1752: DD E1                             POP     IX
1754: C9                                RET

                                        ; --- START PROC L1755 ---
1755: F5                         L1755: PUSH    AF
1756: 21 04 00                          LD      HL,0004h
1759: 39                                ADD     HL,SP
175A: 4E                                LD      C,(HL)
175B: 23                                INC     HL
175C: 46                                LD      B,(HL)
175D: C5                                PUSH    BC
175E: CD 26 3C                          CALL    L3C26
1761: F1                                POP     AF
1762: 7D                                LD      A,L
1763: B7                                OR      A
1764: 20 1E                             JR      NZ,L1784
1766: 21 00 00                          LD      HL,0000h
1769: 39                                ADD     HL,SP
176A: EB                                EX      DE,HL
176B: 21 04 00                          LD      HL,0004h
176E: 39                                ADD     HL,SP
176F: 7E                                LD      A,(HL)
1770: 23                                INC     HL
1771: 66                                LD      H,(HL)
1772: 6F                                LD      L,A
1773: E5                                PUSH    HL
1774: D5                                PUSH    DE
1775: E5                                PUSH    HL
1776: CD EE 10                          CALL    L10EE
1779: F1                                POP     AF
177A: F1                                POP     AF
177B: 7D                                LD      A,L
177C: E1                                POP     HL
177D: B7                                OR      A
177E: 20 04                             JR      NZ,L1784
1780: 77                                LD      (HL),A
1781: 23                                INC     HL
1782: 36 00                             LD      (HL),00h
1784: 6F                         L1784: LD      L,A
1785: F1                                POP     AF
1786: C9                                RET

                                        ; --- START PROC L1787 ---
1787: CD CE 13                   L1787: CALL    L13CE
178A: 21 F2 FF                          LD      HL,0FFF2h
178D: 39                                ADD     HL,SP
178E: F9                                LD      SP,HL
178F: DD 4E 04                          LD      C,(IX+04h)
1792: DD 46 05                          LD      B,(IX+05h)
1795: 59                                LD      E,C
1796: 50                                LD      D,B
1797: 0A                                LD      A,(BC)
1798: DD 77 F2                          LD      (IX-0Eh),A
179B: 03                                INC     BC
179C: 0A                                LD      A,(BC)
179D: DD 77 F3                          LD      (IX-0Dh),A
17A0: 0B                                DEC     BC
17A1: DD 6E 06                          LD      L,(IX+06h)
17A4: DD 66 07                          LD      H,(IX+07h)
17A7: 7E                                LD      A,(HL)
17A8: DD 77 FF                          LD      (IX-01h),A
17AB: 79                                LD      A,C
17AC: C6 06                             ADD     A,06h
17AE: DD 77 F4                          LD      (IX-0Ch),A
17B1: 78                                LD      A,B
17B2: CE 00                             ADC     A,00h
17B4: DD 77 F5                          LD      (IX-0Bh),A
17B7: DD 7E FF                          LD      A,(IX-01h)
17BA: D6 2F                             SUB     2Fh     ; '/'
17BC: 28 37                             JR      Z,L17F5
17BE: DD 7E FF                          LD      A,(IX-01h)
17C1: D6 5C                             SUB     5Ch     ; '\'
17C3: 28 30                             JR      Z,L17F5
17C5: E1                                POP     HL
17C6: E5                                PUSH    HL
17C7: C5                                PUSH    BC
17C8: 01 13 00                          LD      BC,0013h
17CB: 09                                ADD     HL,BC
17CC: C1                                POP     BC
17CD: 7E                                LD      A,(HL)
17CE: DD 77 FC                          LD      (IX-04h),A
17D1: 23                                INC     HL
17D2: 7E                                LD      A,(HL)
17D3: DD 77 FD                          LD      (IX-03h),A
17D6: 23                                INC     HL
17D7: 7E                                LD      A,(HL)
17D8: DD 77 FE                          LD      (IX-02h),A
17DB: 23                                INC     HL
17DC: 7E                                LD      A,(HL)
17DD: DD 77 FF                          LD      (IX-01h),A
17E0: D5                                PUSH    DE
17E1: C5                                PUSH    BC
17E2: DD 5E F4                          LD      E,(IX-0Ch)
17E5: DD 56 F5                          LD      D,(IX-0Bh)
17E8: 21 0E 00                          LD      HL,000Eh
17EB: 39                                ADD     HL,SP
17EC: 01 04 00                          LD      BC,0004h
17EF: ED B0                             LDIR
17F1: C1                                POP     BC
17F2: D1                                POP     DE
17F3: 18 24                             JR      L1819

17F5: 7E                         L17F5: LD      A,(HL)
17F6: FE 2F                             CP      2Fh     ; '/'
17F8: 28 04                             JR      Z,L17FE
17FA: D6 5C                             SUB     5Ch     ; '\'
17FC: 20 09                             JR      NZ,L1807
17FE: 23                         L17FE: INC     HL
17FF: DD 75 06                          LD      (IX+06h),L
1802: DD 74 07                          LD      (IX+07h),H
1805: 18 EE                             JR      L17F5

1807: DD 75 06                   L1807: LD      (IX+06h),L
180A: DD 74 07                          LD      (IX+07h),H
180D: 21 06 00                          LD      HL,0006h
1810: 19                                ADD     HL,DE
1811: AF                                XOR     A
1812: 77                                LD      (HL),A
1813: 23                                INC     HL
1814: 77                                LD      (HL),A
1815: 23                                INC     HL
1816: 77                                LD      (HL),A
1817: 23                                INC     HL
1818: 77                                LD      (HL),A
1819: DD 6E 06                   L1819: LD      L,(IX+06h)
181C: DD 66 07                          LD      H,(IX+07h)
181F: 6E                                LD      L,(HL)
1820: 26 00                             LD      H,00h
1822: 7D                                LD      A,L
1823: D6 20                             SUB     20h     ; ' '
1825: 7C                                LD      A,H
1826: DE 00                             SBC     A,00h
1828: 30 1B                             JR      NC,L1845
182A: 21 27 00                          LD      HL,0027h
182D: 19                                ADD     HL,DE
182E: 36 80                             LD      (HL),80h
1830: 21 00 00                          LD      HL,0000h
1833: E5                                PUSH    HL
1834: 21 00 00                          LD      HL,0000h
1837: E5                                PUSH    HL
1838: D5                                PUSH    DE
1839: CD C3 42                          CALL    L42C3
183C: F1                                POP     AF
183D: F1                                POP     AF
183E: F1                                POP     AF
183F: DD 75 FC                          LD      (IX-04h),L
1842: C3 4A 19                          JP      L194A

1845: 21 14 00                   L1845: LD      HL,0014h
1848: 39                                ADD     HL,SP
1849: C5                                PUSH    BC
184A: D5                                PUSH    DE
184B: E5                                PUSH    HL
184C: D5                                PUSH    DE
184D: CD 99 2A                          CALL    L2A99
1850: F1                                POP     AF
1851: F1                                POP     AF
1852: D1                                POP     DE
1853: C1                                POP     BC
1854: DD 75 FC                          LD      (IX-04h),L
1857: 7D                                LD      A,L
1858: B7                                OR      A
1859: C2 4A 19                          JP      NZ,L194A
185C: C5                                PUSH    BC
185D: D5                                PUSH    DE
185E: D5                                PUSH    DE
185F: CD 1E 3B                          CALL    L3B1E
1862: F1                                POP     AF
1863: D1                                POP     DE
1864: C1                                POP     BC
1865: DD 75 FC                          LD      (IX-04h),L
1868: 21 27 00                          LD      HL,0027h
186B: 09                                ADD     HL,BC
186C: 7E                                LD      A,(HL)
186D: DD 77 FD                          LD      (IX-03h),A
1870: E6 04                             AND     04h
1872: DD 77 FE                          LD      (IX-02h),A
1875: DD 36 FF 00                       LD      (IX-01h),00h
1879: DD 7E FC                          LD      A,(IX-04h)
187C: B7                                OR      A
187D: 28 2F                             JR      Z,L18AE
187F: DD 7E FC                          LD      A,(IX-04h)
1882: D6 04                             SUB     04h
1884: C2 4A 19                          JP      NZ,L194A
1887: DD CB FD 6E                       BIT     5,(IX-03h)
188B: 28 11                             JR      Z,L189E
188D: DD 7E FF                          LD      A,(IX-01h)
1890: DD B6 FE                          OR      (IX-02h)
1893: 28 B0                             JR      Z,L1845
1895: 36 80                             LD      (HL),80h
1897: AF                                XOR     A
1898: DD 77 FC                          LD      (IX-04h),A
189B: C3 4A 19                          JP      L194A

189E: DD 7E FF                   L189E: LD      A,(IX-01h)
18A1: DD B6 FE                          OR      (IX-02h)
18A4: C2 4A 19                          JP      NZ,L194A
18A7: DD 36 FC 05                       LD      (IX-04h),05h
18AB: C3 4A 19                          JP      L194A

18AE: DD 7E FF                   L18AE: LD      A,(IX-01h)
18B1: DD B6 FE                          OR      (IX-02h)
18B4: C2 4A 19                          JP      NZ,L194A
18B7: 69                                LD      L,C
18B8: 60                                LD      H,B
18B9: 23                                INC     HL
18BA: 23                                INC     HL
18BB: 23                                INC     HL
18BC: 23                                INC     HL
18BD: CB 66                             BIT     4,(HL)
18BF: 20 07                             JR      NZ,L18C8
18C1: DD 36 FC 05                       LD      (IX-04h),05h
18C5: C3 4A 19                          JP      L194A

18C8: DD 7E F2                   L18C8: LD      A,(IX-0Eh)
18CB: C6 33                             ADD     A,33h   ; '3'
18CD: DD 77 F6                          LD      (IX-0Ah),A
18D0: DD 7E F3                          LD      A,(IX-0Dh)
18D3: CE 00                             ADC     A,00h
18D5: DD 77 F7                          LD      (IX-09h),A
18D8: 69                                LD      L,C
18D9: 60                                LD      H,B
18DA: C5                                PUSH    BC
18DB: 01 0E 00                          LD      BC,000Eh
18DE: 09                                ADD     HL,BC
18DF: C1                                POP     BC
18E0: 7E                                LD      A,(HL)
18E1: DD 77 F8                          LD      (IX-08h),A
18E4: 23                                INC     HL
18E5: 7E                                LD      A,(HL)
18E6: DD 77 F9                          LD      (IX-07h),A
18E9: 23                                INC     HL
18EA: 7E                                LD      A,(HL)
18EB: DD 77 FA                          LD      (IX-06h),A
18EE: 23                                INC     HL
18EF: 7E                                LD      A,(HL)
18F0: DD 77 FB                          LD      (IX-05h),A
18F3: DD 7E F8                          LD      A,(IX-08h)
18F6: DD 77 FC                          LD      (IX-04h),A
18F9: DD 7E F9                          LD      A,(IX-07h)
18FC: E6 01                             AND     01h
18FE: DD 77 FD                          LD      (IX-03h),A
1901: DD 36 FE 00                       LD      (IX-02h),00h
1905: DD 36 FF 00                       LD      (IX-01h),00h
1909: DD 7E FC                          LD      A,(IX-04h)
190C: DD 86 F6                          ADD     A,(IX-0Ah)
190F: 6F                                LD      L,A
1910: DD 7E FD                          LD      A,(IX-03h)
1913: DD 8E F7                          ADC     A,(IX-09h)
1916: 67                                LD      H,A
1917: C5                                PUSH    BC
1918: D5                                PUSH    DE
1919: E5                                PUSH    HL
191A: DD 6E F2                          LD      L,(IX-0Eh)
191D: DD 66 F3                          LD      H,(IX-0Dh)
1920: E5                                PUSH    HL
1921: CD D8 13                          CALL    L13D8
1924: F1                                POP     AF
1925: F1                                POP     AF
1926: DD 75 FC                          LD      (IX-04h),L
1929: DD 74 FD                          LD      (IX-03h),H
192C: DD 73 FE                          LD      (IX-02h),E
192F: DD 72 FF                          LD      (IX-01h),D
1932: D1                                POP     DE
1933: C1                                POP     BC
1934: D5                                PUSH    DE
1935: C5                                PUSH    BC
1936: DD 5E F4                          LD      E,(IX-0Ch)
1939: DD 56 F5                          LD      D,(IX-0Bh)
193C: 21 0E 00                          LD      HL,000Eh
193F: 39                                ADD     HL,SP
1940: 01 04 00                          LD      BC,0004h
1943: ED B0                             LDIR
1945: C1                                POP     BC
1946: D1                                POP     DE
1947: C3 45 18                          JP      L1845

194A: DD 6E FC                   L194A: LD      L,(IX-04h)
194D: DD F9                             LD      SP,IX
194F: DD E1                             POP     IX
1951: C9                                RET

                                        ; --- START PROC L1952 ---
1952: CD CE 13                   L1952: CALL    L13CE
1955: DD 4E 04                          LD      C,(IX+04h)
1958: DD 46 05                          LD      B,(IX+05h)
195B: DD 7E 06                          LD      A,(IX+06h)
195E: 02                                LD      (BC),A
195F: 03                                INC     BC
1960: DD 71 04                          LD      (IX+04h),C
1963: DD 70 05                          LD      (IX+05h),B
1966: 06 08                             LD      B,08h
1968: DD CB 09 3E                L1968: SRL     (IX+09h)
196C: DD CB 08 1E                       RR      (IX+08h)
1970: DD CB 07 1E                       RR      (IX+07h)
1974: DD CB 06 1E                       RR      (IX+06h)
1978: 10 EE                             DJNZ    L1968
197A: DD 4E 04                          LD      C,(IX+04h)
197D: DD 46 05                          LD      B,(IX+05h)
1980: DD 7E 06                          LD      A,(IX+06h)
1983: 02                                LD      (BC),A
1984: 03                                INC     BC
1985: DD 71 04                          LD      (IX+04h),C
1988: DD 70 05                          LD      (IX+05h),B
198B: 06 08                             LD      B,08h
198D: DD CB 09 3E                L198D: SRL     (IX+09h)
1991: DD CB 08 1E                       RR      (IX+08h)
1995: DD CB 07 1E                       RR      (IX+07h)
1999: DD CB 06 1E                       RR      (IX+06h)
199D: 10 EE                             DJNZ    L198D
199F: DD 4E 04                          LD      C,(IX+04h)
19A2: DD 46 05                          LD      B,(IX+05h)
19A5: DD 7E 06                          LD      A,(IX+06h)
19A8: 02                                LD      (BC),A
19A9: 03                                INC     BC
19AA: DD 71 04                          LD      (IX+04h),C
19AD: DD 70 05                          LD      (IX+05h),B
19B0: 06 08                             LD      B,08h
19B2: DD CB 09 3E                L19B2: SRL     (IX+09h)
19B6: DD CB 08 1E                       RR      (IX+08h)
19BA: DD CB 07 1E                       RR      (IX+07h)
19BE: DD CB 06 1E                       RR      (IX+06h)
19C2: 10 EE                             DJNZ    L19B2
19C4: DD 4E 04                          LD      C,(IX+04h)
19C7: DD 46 05                          LD      B,(IX+05h)
19CA: DD 7E 06                          LD      A,(IX+06h)
19CD: 02                                LD      (BC),A
19CE: DD E1                             POP     IX
19D0: C9                                RET

                                        ; --- START PROC L19D1 ---
19D1: CD CE 13                   L19D1: CALL    L13CE
19D4: 21 F7 FF                          LD      HL,0FFF7h
19D7: 39                                ADD     HL,SP
19D8: F9                                LD      SP,HL
19D9: DD 7E 04                          LD      A,(IX+04h)
19DC: DD 77 FC                          LD      (IX-04h),A
19DF: DD 7E 05                          LD      A,(IX+05h)
19E2: DD 77 FD                          LD      (IX-03h),A
19E5: DD 6E FC                          LD      L,(IX-04h)
19E8: DD 66 FD                          LD      H,(IX-03h)
19EB: 7E                                LD      A,(HL)
19EC: DD 77 F7                          LD      (IX-09h),A
19EF: 23                                INC     HL
19F0: 7E                                LD      A,(HL)
19F1: DD 77 F8                          LD      (IX-08h),A
19F4: 21 00 00                          LD      HL,0000h
19F7: E5                                PUSH    HL
19F8: 21 00 00                          LD      HL,0000h
19FB: E5                                PUSH    HL
19FC: DD 6E FC                          LD      L,(IX-04h)
19FF: DD 66 FD                          LD      H,(IX-03h)
1A02: E5                                PUSH    HL
1A03: CD C3 42                          CALL    L42C3
1A06: F1                                POP     AF
1A07: F1                                POP     AF
1A08: F1                                POP     AF
1A09: DD 75 F9                          LD      (IX-07h),L
1A0C: 7D                                LD      A,L
1A0D: B7                                OR      A
1A0E: C2 9A 1A                          JP      NZ,L1A9A
1A11: AF                                XOR     A
1A12: DD 77 FE                          LD      (IX-02h),A
1A15: DD 77 FF                          LD      (IX-01h),A
1A18: DD 7E FC                          LD      A,(IX-04h)
1A1B: DD 77 FA                          LD      (IX-06h),A
1A1E: DD 7E FD                          LD      A,(IX-03h)
1A21: DD 77 FB                          LD      (IX-05h),A
1A24: DD 6E FC                   L1A24: LD      L,(IX-04h)
1A27: DD 66 FD                          LD      H,(IX-03h)
1A2A: 11 16 00                          LD      DE,0016h
1A2D: 19                                ADD     HL,DE
1A2E: 4E                                LD      C,(HL)
1A2F: 23                                INC     HL
1A30: 46                                LD      B,(HL)
1A31: 23                                INC     HL
1A32: 5E                                LD      E,(HL)
1A33: 23                                INC     HL
1A34: 56                                LD      D,(HL)
1A35: D5                                PUSH    DE
1A36: C5                                PUSH    BC
1A37: DD 6E F7                          LD      L,(IX-09h)
1A3A: DD 66 F8                          LD      H,(IX-08h)
1A3D: E5                                PUSH    HL
1A3E: CD DE 22                          CALL    L22DE
1A41: F1                                POP     AF
1A42: F1                                POP     AF
1A43: F1                                POP     AF
1A44: DD 75 F9                          LD      (IX-07h),L
1A47: 7D                                LD      A,L
1A48: B7                                OR      A
1A49: 20 4F                             JR      NZ,L1A9A
1A4B: DD 6E FA                          LD      L,(IX-06h)
1A4E: DD 66 FB                          LD      H,(IX-05h)
1A51: 11 1A 00                          LD      DE,001Ah
1A54: 19                                ADD     HL,DE
1A55: 4E                                LD      C,(HL)
1A56: 23                                INC     HL
1A57: 46                                LD      B,(HL)
1A58: 0A                                LD      A,(BC)
1A59: FE E5                             CP      0E5h
1A5B: 28 03                             JR      Z,L1A60
1A5D: B7                                OR      A
1A5E: 20 1C                             JR      NZ,L1A7C
1A60: DD 34 FE                   L1A60: INC     (IX-02h)
1A63: 20 03                             JR      NZ,L1A68
1A65: DD 34 FF                          INC     (IX-01h)
1A68: DD 7E FE                   L1A68: LD      A,(IX-02h)
1A6B: DD 96 06                          SUB     (IX+06h)
1A6E: 20 13                             JR      NZ,L1A83
1A70: DD 7E FF                          LD      A,(IX-01h)
1A73: DD 96 07                          SUB     (IX+07h)
1A76: 28 22                             JR      Z,L1A9A
1A78: 18 09                             JR      L1A83

1A7A: 18                         L1A7A: DB      18h
1A7B: 1E                                DB      1Eh

1A7C: AF                         L1A7C: XOR     A
1A7D: DD 77 FE                          LD      (IX-02h),A
1A80: DD 77 FF                          LD      (IX-01h),A
1A83: 21 01 00                   L1A83: LD      HL,0001h
1A86: E5                                PUSH    HL
1A87: DD 6E FA                          LD      L,(IX-06h)
1A8A: DD 66 FB                          LD      H,(IX-05h)
1A8D: E5                                PUSH    HL
1A8E: CD 51 3F                          CALL    L3F51
1A91: F1                                POP     AF
1A92: F1                                POP     AF
1A93: DD 75 F9                          LD      (IX-07h),L
1A96: 7D                                LD      A,L
1A97: B7                                OR      A
1A98: 28 8A                             JR      Z,L1A24
1A9A: DD 7E F9                   L1A9A: LD      A,(IX-07h)
1A9D: D6 04                             SUB     04h
1A9F: 20 04                             JR      NZ,L1AA5
1AA1: DD 36 F9 07                       LD      (IX-07h),07h
1AA5: DD 6E F9                   L1AA5: LD      L,(IX-07h)
1AA8: DD F9                             LD      SP,IX
1AAA: DD E1                             POP     IX
1AAC: C9                                RET

                                        ; --- START PROC L1AAD ---
1AAD: CD CE 13                   L1AAD: CALL    L13CE
1AB0: 21 DC FF                          LD      HL,0FFDCh
1AB3: 39                                ADD     HL,SP
1AB4: F9                                LD      SP,HL
1AB5: DD 7E 06                          LD      A,(IX+06h)
1AB8: DD 77 FC                          LD      (IX-04h),A
1ABB: DD 7E 07                          LD      A,(IX+07h)
1ABE: DD 77 FD                          LD      (IX-03h),A
1AC1: DD 6E FC                          LD      L,(IX-04h)
1AC4: DD 66 FD                          LD      H,(IX-03h)
1AC7: AF                                XOR     A
1AC8: 77                                LD      (HL),A
1AC9: 23                                INC     HL
1ACA: 77                                LD      (HL),A
1ACB: DD 6E 04                          LD      L,(IX+04h)
1ACE: DD 66 05                          LD      H,(IX+05h)
1AD1: E5                                PUSH    HL
1AD2: CD 49 3A                          CALL    L3A49
1AD5: F1                                POP     AF
1AD6: DD 75 FE                          LD      (IX-02h),L
1AD9: DD 74 FF                          LD      (IX-01h),H
1ADC: DD CB FF 7E                       BIT     7,(IX-01h)
1AE0: 28 05                             JR      Z,L1AE7
1AE2: 2E 0B                             LD      L,0Bh
1AE4: C3 A2 22                          JP      L22A2

1AE7: 01 B3 72                   L1AE7: LD      BC,72B3h
1AEA: DD 6E FE                          LD      L,(IX-02h)
1AED: DD 66 FF                          LD      H,(IX-01h)
1AF0: 29                                ADD     HL,HL
1AF1: 09                                ADD     HL,BC
1AF2: 7E                                LD      A,(HL)
1AF3: DD 77 E0                          LD      (IX-20h),A
1AF6: 23                                INC     HL
1AF7: 7E                                LD      A,(HL)
1AF8: DD 77 E1                          LD      (IX-1Fh),A
1AFB: DD B6 E0                          OR      (IX-20h)
1AFE: 20 05                             JR      NZ,L1B05
1B00: 2E 0C                             LD      L,0Ch
1B02: C3 A2 22                          JP      L22A2

1B05: DD 6E FC                   L1B05: LD      L,(IX-04h)
1B08: DD 66 FD                          LD      H,(IX-03h)
1B0B: DD 7E E0                          LD      A,(IX-20h)
1B0E: 77                                LD      (HL),A
1B0F: 23                                INC     HL
1B10: DD 7E E1                          LD      A,(IX-1Fh)
1B13: 77                                LD      (HL),A
1B14: DD 7E 08                          LD      A,(IX+08h)
1B17: E6 FE                             AND     0FEh
1B19: DD 77 08                          LD      (IX+08h),A
1B1C: DD 6E E0                          LD      L,(IX-20h)
1B1F: DD 66 E1                          LD      H,(IX-1Fh)
1B22: 7E                                LD      A,(HL)
1B23: DD 4E E0                          LD      C,(IX-20h)
1B26: DD 46 E1                          LD      B,(IX-1Fh)
1B29: 03                                INC     BC
1B2A: B7                                OR      A
1B2B: 28 21                             JR      Z,L1B4E
1B2D: 0A                                LD      A,(BC)
1B2E: C5                                PUSH    BC
1B2F: F5                                PUSH    AF
1B30: 33                                INC     SP
1B31: CD E1 02                          CALL    L02E1
1B34: 33                                INC     SP
1B35: C1                                POP     BC
1B36: CB 45                             BIT     0,L
1B38: 20 14                             JR      NZ,L1B4E
1B3A: DD 7E 08                          LD      A,(IX+08h)
1B3D: B7                                OR      A
1B3E: 28 09                             JR      Z,L1B49
1B40: CB 55                             BIT     2,L
1B42: 28 05                             JR      Z,L1B49
1B44: 2E 0A                             LD      L,0Ah
1B46: C3 A2 22                          JP      L22A2

1B49: 2E 00                      L1B49: LD      L,00h
1B4B: C3 A2 22                          JP      L22A2

1B4E: DD 6E E0                   L1B4E: LD      L,(IX-20h)
1B51: DD 66 E1                          LD      H,(IX-1Fh)
1B54: 36 00                             LD      (HL),00h
1B56: DD 7E FE                          LD      A,(IX-02h)
1B59: 02                                LD      (BC),A
1B5A: F5                                PUSH    AF
1B5B: 33                                INC     SP
1B5C: CD CE 02                          CALL    L02CE
1B5F: 33                                INC     SP
1B60: CB 45                             BIT     0,L
1B62: 28 05                             JR      Z,L1B69
1B64: 2E 03                             LD      L,03h
1B66: C3 A2 22                          JP      L22A2

1B69: DD 7E 08                   L1B69: LD      A,(IX+08h)
1B6C: B7                                OR      A
1B6D: 28 09                             JR      Z,L1B78
1B6F: CB 55                             BIT     2,L
1B71: 28 05                             JR      Z,L1B78
1B73: 2E 0A                             LD      L,0Ah
1B75: C3 A2 22                          JP      L22A2

1B78: 21 00 00                   L1B78: LD      HL,0000h
1B7B: E5                                PUSH    HL
1B7C: DD 6E E0                          LD      L,(IX-20h)
1B7F: DD 66 E1                          LD      H,(IX-1Fh)
1B82: E5                                PUSH    HL
1B83: CD 1A 3E                          CALL    L3E1A
1B86: F1                                POP     AF
1B87: F1                                POP     AF
1B88: 7D                                LD      A,L
1B89: D6 04                             SUB     04h
1B8B: B4                                OR      H
1B8C: 20 05                             JR      NZ,L1B93
1B8E: 2E 01                             LD      L,01h
1B90: C3 A2 22                          JP      L22A2

1B93: 7D                         L1B93: LD      A,L
1B94: D6 02                             SUB     02h
1B96: 7C                                LD      A,H
1B97: DE 00                             SBC     A,00h
1B99: 38 05                             JR      C,L1BA0
1B9B: 2E 0D                             LD      L,0Dh
1B9D: C3 A2 22                          JP      L22A2

1BA0: DD 6E E0                   L1BA0: LD      L,(IX-20h)
1BA3: DD 66 E1                          LD      H,(IX-1Fh)
1BA6: 11 2F 00                          LD      DE,002Fh
1BA9: 19                                ADD     HL,DE
1BAA: 7E                                LD      A,(HL)
1BAB: DD 77 E2                          LD      (IX-1Eh),A
1BAE: 23                                INC     HL
1BAF: 7E                                LD      A,(HL)
1BB0: DD 77 E3                          LD      (IX-1Dh),A
1BB3: 23                                INC     HL
1BB4: 7E                                LD      A,(HL)
1BB5: DD 77 E4                          LD      (IX-1Ch),A
1BB8: 23                                INC     HL
1BB9: 7E                                LD      A,(HL)
1BBA: DD 77 E5                          LD      (IX-1Bh),A
1BBD: DD 7E E0                          LD      A,(IX-20h)
1BC0: C6 33                             ADD     A,33h   ; '3'
1BC2: DD 77 E6                          LD      (IX-1Ah),A
1BC5: DD 7E E1                          LD      A,(IX-1Fh)
1BC8: CE 00                             ADC     A,00h
1BCA: DD 77 E7                          LD      (IX-19h),A
1BCD: DD 7E E6                          LD      A,(IX-1Ah)
1BD0: C6 0B                             ADD     A,0Bh
1BD2: 4F                                LD      C,A
1BD3: DD 7E E7                          LD      A,(IX-19h)
1BD6: CE 00                             ADC     A,00h
1BD8: 47                                LD      B,A
1BD9: C5                                PUSH    BC
1BDA: CD BF 22                          CALL    L22BF
1BDD: F1                                POP     AF
1BDE: 7D                                LD      A,L
1BDF: B7                                OR      A
1BE0: 20 05                             JR      NZ,L1BE7
1BE2: 7C                                LD      A,H
1BE3: D6 02                             SUB     02h
1BE5: 28 05                             JR      Z,L1BEC
1BE7: 2E 0D                      L1BE7: LD      L,0Dh
1BE9: C3 A2 22                          JP      L22A2

1BEC: DD 7E E6                   L1BEC: LD      A,(IX-1Ah)
1BEF: C6 16                             ADD     A,16h
1BF1: 4F                                LD      C,A
1BF2: DD 7E E7                          LD      A,(IX-19h)
1BF5: CE 00                             ADC     A,00h
1BF7: 47                                LD      B,A
1BF8: C5                                PUSH    BC
1BF9: CD BF 22                          CALL    L22BF
1BFC: F1                                POP     AF
1BFD: 4D                                LD      C,L
1BFE: 44                                LD      B,H
1BFF: 11 00 00                          LD      DE,0000h
1C02: 7A                                LD      A,D
1C03: B3                                OR      E
1C04: B0                                OR      B
1C05: B1                                OR      C
1C06: 20 13                             JR      NZ,L1C1B
1C08: DD 7E E6                          LD      A,(IX-1Ah)
1C0B: C6 24                             ADD     A,24h   ; '$'
1C0D: 4F                                LD      C,A
1C0E: DD 7E E7                          LD      A,(IX-19h)
1C11: CE 00                             ADC     A,00h
1C13: 47                                LD      B,A
1C14: C5                                PUSH    BC
1C15: CD 76 11                          CALL    L1176
1C18: F1                                POP     AF
1C19: 4D                                LD      C,L
1C1A: 44                                LD      B,H
1C1B: DD 7E E0                   L1C1B: LD      A,(IX-20h)
1C1E: C6 1B                             ADD     A,1Bh
1C20: DD 77 E8                          LD      (IX-18h),A
1C23: DD 7E E1                          LD      A,(IX-1Fh)
1C26: CE 00                             ADC     A,00h
1C28: DD 77 E9                          LD      (IX-17h),A
1C2B: DD 6E E8                          LD      L,(IX-18h)
1C2E: DD 66 E9                          LD      H,(IX-17h)
1C31: 71                                LD      (HL),C
1C32: 23                                INC     HL
1C33: 70                                LD      (HL),B
1C34: 23                                INC     HL
1C35: 73                                LD      (HL),E
1C36: 23                                INC     HL
1C37: 72                                LD      (HL),D
1C38: DD 7E E0                          LD      A,(IX-20h)
1C3B: C6 02                             ADD     A,02h
1C3D: DD 77 FE                          LD      (IX-02h),A
1C40: DD 7E E1                          LD      A,(IX-1Fh)
1C43: CE 00                             ADC     A,00h
1C45: DD 77 FF                          LD      (IX-01h),A
1C48: DD 6E E6                          LD      L,(IX-1Ah)
1C4B: DD 66 E7                          LD      H,(IX-19h)
1C4E: C5                                PUSH    BC
1C4F: 01 10 00                          LD      BC,0010h
1C52: 09                                ADD     HL,BC
1C53: C1                                POP     BC
1C54: 7E                                LD      A,(HL)
1C55: DD 6E FE                          LD      L,(IX-02h)
1C58: DD 66 FF                          LD      H,(IX-01h)
1C5B: 77                                LD      (HL),A
1C5C: DD 6E FE                          LD      L,(IX-02h)
1C5F: DD 66 FF                          LD      H,(IX-01h)
1C62: 6E                                LD      L,(HL)
1C63: 3D                                DEC     A
1C64: 28 0A                             JR      Z,L1C70
1C66: 7D                                LD      A,L
1C67: D6 02                             SUB     02h
1C69: 28 05                             JR      Z,L1C70
1C6B: 2E 0D                             LD      L,0Dh
1C6D: C3 A2 22                          JP      L22A2

1C70: DD 75 FC                   L1C70: LD      (IX-04h),L
1C73: AF                                XOR     A
1C74: DD 77 FD                          LD      (IX-03h),A
1C77: DD 77 FE                          LD      (IX-02h),A
1C7A: DD 77 FF                          LD      (IX-01h),A
1C7D: 6F                                LD      L,A
1C7E: 67                                LD      H,A
1C7F: E5                                PUSH    HL
1C80: DD 6E FC                          LD      L,(IX-04h)
1C83: DD 66 FD                          LD      H,(IX-03h)
1C86: E5                                PUSH    HL
1C87: D5                                PUSH    DE
1C88: C5                                PUSH    BC
1C89: CD E3 4E                          CALL    L4EE3
1C8C: F1                                POP     AF
1C8D: F1                                POP     AF
1C8E: F1                                POP     AF
1C8F: F1                                POP     AF
1C90: DD 75 EA                          LD      (IX-16h),L
1C93: DD 74 EB                          LD      (IX-15h),H
1C96: DD 73 EC                          LD      (IX-14h),E
1C99: DD 72 ED                          LD      (IX-13h),D
1C9C: DD 7E E0                          LD      A,(IX-20h)
1C9F: C6 09                             ADD     A,09h
1CA1: DD 77 FA                          LD      (IX-06h),A
1CA4: DD 7E E1                          LD      A,(IX-1Fh)
1CA7: CE 00                             ADC     A,00h
1CA9: DD 77 FB                          LD      (IX-05h),A
1CAC: DD 6E E6                          LD      L,(IX-1Ah)
1CAF: DD 66 E7                          LD      H,(IX-19h)
1CB2: 11 0D 00                          LD      DE,000Dh
1CB5: 19                                ADD     HL,DE
1CB6: 5E                                LD      E,(HL)
1CB7: 16 00                             LD      D,00h
1CB9: DD 6E FA                          LD      L,(IX-06h)
1CBC: DD 66 FB                          LD      H,(IX-05h)
1CBF: 73                                LD      (HL),E
1CC0: 23                                INC     HL
1CC1: 72                                LD      (HL),D
1CC2: DD 6E FA                          LD      L,(IX-06h)
1CC5: DD 66 FB                          LD      H,(IX-05h)
1CC8: 4E                                LD      C,(HL)
1CC9: 23                                INC     HL
1CCA: 46                                LD      B,(HL)
1CCB: 7A                                LD      A,D
1CCC: B3                                OR      E
1CCD: 28 0B                             JR      Z,L1CDA
1CCF: 59                                LD      E,C
1CD0: 50                                LD      D,B
1CD1: 1B                                DEC     DE
1CD2: 79                                LD      A,C
1CD3: A3                                AND     E
1CD4: 4F                                LD      C,A
1CD5: 78                                LD      A,B
1CD6: A2                                AND     D
1CD7: B1                                OR      C
1CD8: 28 05                             JR      Z,L1CDF
1CDA: 2E 0D                      L1CDA: LD      L,0Dh
1CDC: C3 A2 22                          JP      L22A2

1CDF: DD 7E E0                   L1CDF: LD      A,(IX-20h)
1CE2: C6 07                             ADD     A,07h
1CE4: DD 77 EE                          LD      (IX-12h),A
1CE7: DD 7E E1                          LD      A,(IX-1Fh)
1CEA: CE 00                             ADC     A,00h
1CEC: DD 77 EF                          LD      (IX-11h),A
1CEF: DD 7E E6                          LD      A,(IX-1Ah)
1CF2: C6 11                             ADD     A,11h
1CF4: 4F                                LD      C,A
1CF5: DD 7E E7                          LD      A,(IX-19h)
1CF8: CE 00                             ADC     A,00h
1CFA: 47                                LD      B,A
1CFB: C5                                PUSH    BC
1CFC: CD BF 22                          CALL    L22BF
1CFF: F1                                POP     AF
1D00: 4D                                LD      C,L
1D01: 44                                LD      B,H
1D02: DD 6E EE                          LD      L,(IX-12h)
1D05: DD 66 EF                          LD      H,(IX-11h)
1D08: 71                                LD      (HL),C
1D09: 23                                INC     HL
1D0A: 70                                LD      (HL),B
1D0B: 79                                LD      A,C
1D0C: E6 0F                             AND     0Fh
1D0E: 28 05                             JR      Z,L1D15
1D10: 2E 0D                             LD      L,0Dh
1D12: C3 A2 22                          JP      L22A2

1D15: DD 7E E6                   L1D15: LD      A,(IX-1Ah)
1D18: C6 13                             ADD     A,13h
1D1A: 4F                                LD      C,A
1D1B: DD 7E E7                          LD      A,(IX-19h)
1D1E: CE 00                             ADC     A,00h
1D20: 47                                LD      B,A
1D21: C5                                PUSH    BC
1D22: CD BF 22                          CALL    L22BF
1D25: F1                                POP     AF
1D26: 4D                                LD      C,L
1D27: 44                                LD      B,H
1D28: 11 00 00                          LD      DE,0000h
1D2B: 7A                                LD      A,D
1D2C: B3                                OR      E
1D2D: B0                                OR      B
1D2E: B1                                OR      C
1D2F: 20 13                             JR      NZ,L1D44
1D31: DD 7E E6                          LD      A,(IX-1Ah)
1D34: C6 20                             ADD     A,20h   ; ' '
1D36: 4F                                LD      C,A
1D37: DD 7E E7                          LD      A,(IX-19h)
1D3A: CE 00                             ADC     A,00h
1D3C: 47                                LD      B,A
1D3D: C5                                PUSH    BC
1D3E: CD 76 11                          CALL    L1176
1D41: F1                                POP     AF
1D42: 4D                                LD      C,L
1D43: 44                                LD      B,H
1D44: DD 7E E6                   L1D44: LD      A,(IX-1Ah)
1D47: C6 0E                             ADD     A,0Eh
1D49: 6F                                LD      L,A
1D4A: DD 7E E7                          LD      A,(IX-19h)
1D4D: CE 00                             ADC     A,00h
1D4F: 67                                LD      H,A
1D50: C5                                PUSH    BC
1D51: D5                                PUSH    DE
1D52: E5                                PUSH    HL
1D53: CD BF 22                          CALL    L22BF
1D56: F1                                POP     AF
1D57: D1                                POP     DE
1D58: C1                                POP     BC
1D59: DD 75 FE                          LD      (IX-02h),L
1D5C: DD 74 FF                          LD      (IX-01h),H
1D5F: 7C                                LD      A,H
1D60: B5                                OR      L
1D61: 20 05                             JR      NZ,L1D68
1D63: 2E 0D                             LD      L,0Dh
1D65: C3 A2 22                          JP      L22A2

1D68: DD 7E FE                   L1D68: LD      A,(IX-02h)
1D6B: DD 77 F0                          LD      (IX-10h),A
1D6E: DD 7E FF                          LD      A,(IX-01h)
1D71: DD 77 F1                          LD      (IX-0Fh),A
1D74: AF                                XOR     A
1D75: DD 77 F2                          LD      (IX-0Eh),A
1D78: DD 77 F3                          LD      (IX-0Dh),A
1D7B: DD 7E F0                          LD      A,(IX-10h)
1D7E: DD 86 EA                          ADD     A,(IX-16h)
1D81: DD 77 DC                          LD      (IX-24h),A
1D84: DD 7E F1                          LD      A,(IX-0Fh)
1D87: DD 8E EB                          ADC     A,(IX-15h)
1D8A: DD 77 DD                          LD      (IX-23h),A
1D8D: DD 7E F2                          LD      A,(IX-0Eh)
1D90: DD 8E EC                          ADC     A,(IX-14h)
1D93: DD 77 DE                          LD      (IX-22h),A
1D96: DD 7E F3                          LD      A,(IX-0Dh)
1D99: DD 8E ED                          ADC     A,(IX-13h)
1D9C: DD 77 DF                          LD      (IX-21h),A
1D9F: DD 6E EE                          LD      L,(IX-12h)
1DA2: DD 66 EF                          LD      H,(IX-11h)
1DA5: 7E                                LD      A,(HL)
1DA6: 23                                INC     HL
1DA7: 66                                LD      H,(HL)
1DA8: 6F                                LD      L,A
1DA9: 3E 04                             LD      A,04h
1DAB: CB 3C                      L1DAB: SRL     H
1DAD: CB 1D                             RR      L
1DAF: 3D                                DEC     A
1DB0: 20 F9                             JR      NZ,L1DAB
1DB2: DD 75 F6                          LD      (IX-0Ah),L
1DB5: DD 74 F7                          LD      (IX-09h),H
1DB8: AF                                XOR     A
1DB9: DD 77 F8                          LD      (IX-08h),A
1DBC: DD 77 F9                          LD      (IX-07h),A
1DBF: DD 7E DC                          LD      A,(IX-24h)
1DC2: DD 86 F6                          ADD     A,(IX-0Ah)
1DC5: DD 77 FC                          LD      (IX-04h),A
1DC8: DD 7E DD                          LD      A,(IX-23h)
1DCB: DD 8E F7                          ADC     A,(IX-09h)
1DCE: DD 77 FD                          LD      (IX-03h),A
1DD1: DD 7E DE                          LD      A,(IX-22h)
1DD4: DD 8E F8                          ADC     A,(IX-08h)
1DD7: DD 77 FE                          LD      (IX-02h),A
1DDA: DD 7E DF                          LD      A,(IX-21h)
1DDD: DD 8E F9                          ADC     A,(IX-07h)
1DE0: DD 77 FF                          LD      (IX-01h),A
1DE3: D5                                PUSH    DE
1DE4: C5                                PUSH    BC
1DE5: 21 1C 00                          LD      HL,001Ch
1DE8: 39                                ADD     HL,SP
1DE9: EB                                EX      DE,HL
1DEA: 21 24 00                          LD      HL,0024h
1DED: 39                                ADD     HL,SP
1DEE: 01 04 00                          LD      BC,0004h
1DF1: ED B0                             LDIR
1DF3: C1                                POP     BC
1DF4: D1                                POP     DE
1DF5: 79                                LD      A,C
1DF6: DD 96 F4                          SUB     (IX-0Ch)
1DF9: 78                                LD      A,B
1DFA: DD 9E F5                          SBC     A,(IX-0Bh)
1DFD: 7B                                LD      A,E
1DFE: DD 9E F6                          SBC     A,(IX-0Ah)
1E01: 7A                                LD      A,D
1E02: DD 9E F7                          SBC     A,(IX-09h)
1E05: 30 05                             JR      NC,L1E0C
1E07: 2E 0D                             LD      L,0Dh
1E09: C3 A2 22                          JP      L22A2

1E0C: 79                         L1E0C: LD      A,C
1E0D: DD 96 F4                          SUB     (IX-0Ch)
1E10: DD 77 FC                          LD      (IX-04h),A
1E13: 78                                LD      A,B
1E14: DD 9E F5                          SBC     A,(IX-0Bh)
1E17: DD 77 FD                          LD      (IX-03h),A
1E1A: 7B                                LD      A,E
1E1B: DD 9E F6                          SBC     A,(IX-0Ah)
1E1E: DD 77 FE                          LD      (IX-02h),A
1E21: 7A                                LD      A,D
1E22: DD 9E F7                          SBC     A,(IX-09h)
1E25: DD 77 FF                          LD      (IX-01h),A
1E28: DD 6E FA                          LD      L,(IX-06h)
1E2B: DD 66 FB                          LD      H,(IX-05h)
1E2E: 4E                                LD      C,(HL)
1E2F: 23                                INC     HL
1E30: 46                                LD      B,(HL)
1E31: 11 00 00                          LD      DE,0000h
1E34: D5                                PUSH    DE
1E35: C5                                PUSH    BC
1E36: DD 6E FE                          LD      L,(IX-02h)
1E39: DD 66 FF                          LD      H,(IX-01h)
1E3C: E5                                PUSH    HL
1E3D: DD 6E FC                          LD      L,(IX-04h)
1E40: DD 66 FD                          LD      H,(IX-03h)
1E43: E5                                PUSH    HL
1E44: CD 61 50                          CALL    L5061
1E47: F1                                POP     AF
1E48: F1                                POP     AF
1E49: F1                                POP     AF
1E4A: F1                                POP     AF
1E4B: 4D                                LD      C,L
1E4C: 44                                LD      B,H
1E4D: 7A                                LD      A,D
1E4E: B3                                OR      E
1E4F: B0                                OR      B
1E50: B1                                OR      C
1E51: 20 05                             JR      NZ,L1E58
1E53: 2E 0D                             LD      L,0Dh
1E55: C3 A2 22                          JP      L22A2

1E58: AF                         L1E58: XOR     A
1E59: DD 77 F8                          LD      (IX-08h),A
1E5C: DD 77 F9                          LD      (IX-07h),A
1E5F: 3E F5                             LD      A,0F5h
1E61: B9                                CP      C
1E62: 3E FF                             LD      A,0FFh
1E64: 98                                SBC     A,B
1E65: 21 FF 0F                          LD      HL,0FFFh
1E68: ED 52                             SBC     HL,DE
1E6A: 38 08                             JR      C,L1E74
1E6C: DD 36 F8 03                       LD      (IX-08h),03h
1E70: AF                                XOR     A
1E71: DD 77 F9                          LD      (IX-07h),A
1E74: 3E F5                      L1E74: LD      A,0F5h
1E76: B9                                CP      C
1E77: 3E FF                             LD      A,0FFh
1E79: 98                                SBC     A,B
1E7A: 21 00 00                          LD      HL,0000h
1E7D: ED 52                             SBC     HL,DE
1E7F: 38 08                             JR      C,L1E89
1E81: DD 36 F8 02                       LD      (IX-08h),02h
1E85: AF                                XOR     A
1E86: DD 77 F9                          LD      (IX-07h),A
1E89: 3E F5                      L1E89: LD      A,0F5h
1E8B: B9                                CP      C
1E8C: 3E 0F                             LD      A,0Fh
1E8E: 98                                SBC     A,B
1E8F: 21 00 00                          LD      HL,0000h
1E92: ED 52                             SBC     HL,DE
1E94: 38 08                             JR      C,L1E9E
1E96: DD 36 F8 01                       LD      (IX-08h),01h
1E9A: AF                                XOR     A
1E9B: DD 77 F9                          LD      (IX-07h),A
1E9E: DD 7E F9                   L1E9E: LD      A,(IX-07h)
1EA1: DD B6 F8                          OR      (IX-08h)
1EA4: 20 05                             JR      NZ,L1EAB
1EA6: 2E 0D                             LD      L,0Dh
1EA8: C3 A2 22                          JP      L22A2

1EAB: DD 7E E0                   L1EAB: LD      A,(IX-20h)
1EAE: C6 17                             ADD     A,17h
1EB0: DD 77 FA                          LD      (IX-06h),A
1EB3: DD 7E E1                          LD      A,(IX-1Fh)
1EB6: CE 00                             ADC     A,00h
1EB8: DD 77 FB                          LD      (IX-05h),A
1EBB: 79                                LD      A,C
1EBC: C6 02                             ADD     A,02h
1EBE: 4F                                LD      C,A
1EBF: 78                                LD      A,B
1EC0: CE 00                             ADC     A,00h
1EC2: 47                                LD      B,A
1EC3: 30 01                             JR      NC,L1EC6
1EC5: 13                                INC     DE
1EC6: DD 6E FA                   L1EC6: LD      L,(IX-06h)
1EC9: DD 66 FB                          LD      H,(IX-05h)
1ECC: 71                                LD      (HL),C
1ECD: 23                                INC     HL
1ECE: 70                                LD      (HL),B
1ECF: 23                                INC     HL
1ED0: 73                                LD      (HL),E
1ED1: 23                                INC     HL
1ED2: 72                                LD      (HL),D
1ED3: DD 7E E0                          LD      A,(IX-20h)
1ED6: C6 1F                             ADD     A,1Fh
1ED8: 5F                                LD      E,A
1ED9: DD 7E E1                          LD      A,(IX-1Fh)
1EDC: CE 00                             ADC     A,00h
1EDE: 57                                LD      D,A
1EDF: 21 06 00                          LD      HL,0006h
1EE2: 39                                ADD     HL,SP
1EE3: 01 04 00                          LD      BC,0004h
1EE6: ED B0                             LDIR
1EE8: DD 7E E0                          LD      A,(IX-20h)
1EEB: C6 23                             ADD     A,23h   ; '#'
1EED: 4F                                LD      C,A
1EEE: DD 7E E1                          LD      A,(IX-1Fh)
1EF1: CE 00                             ADC     A,00h
1EF3: 47                                LD      B,A
1EF4: DD 7E F0                          LD      A,(IX-10h)
1EF7: DD 86 E2                          ADD     A,(IX-1Eh)
1EFA: DD 77 FC                          LD      (IX-04h),A
1EFD: DD 7E F1                          LD      A,(IX-0Fh)
1F00: DD 8E E3                          ADC     A,(IX-1Dh)
1F03: DD 77 FD                          LD      (IX-03h),A
1F06: DD 7E F2                          LD      A,(IX-0Eh)
1F09: DD 8E E4                          ADC     A,(IX-1Ch)
1F0C: DD 77 FE                          LD      (IX-02h),A
1F0F: DD 7E F3                          LD      A,(IX-0Dh)
1F12: DD 8E E5                          ADC     A,(IX-1Bh)
1F15: DD 77 FF                          LD      (IX-01h),A
1F18: C5                                PUSH    BC
1F19: 59                                LD      E,C
1F1A: 50                                LD      D,B
1F1B: 21 22 00                          LD      HL,0022h
1F1E: 39                                ADD     HL,SP
1F1F: 01 04 00                          LD      BC,0004h
1F22: ED B0                             LDIR
1F24: C1                                POP     BC
1F25: DD 7E E0                          LD      A,(IX-20h)
1F28: C6 2B                             ADD     A,2Bh   ; '+'
1F2A: 5F                                LD      E,A
1F2B: DD 7E E1                          LD      A,(IX-1Fh)
1F2E: CE 00                             ADC     A,00h
1F30: 57                                LD      D,A
1F31: DD 7E F4                          LD      A,(IX-0Ch)
1F34: DD 86 E2                          ADD     A,(IX-1Eh)
1F37: DD 77 FC                          LD      (IX-04h),A
1F3A: DD 7E F5                          LD      A,(IX-0Bh)
1F3D: DD 8E E3                          ADC     A,(IX-1Dh)
1F40: DD 77 FD                          LD      (IX-03h),A
1F43: DD 7E F6                          LD      A,(IX-0Ah)
1F46: DD 8E E4                          ADC     A,(IX-1Ch)
1F49: DD 77 FE                          LD      (IX-02h),A
1F4C: DD 7E F7                          LD      A,(IX-09h)
1F4F: DD 8E E5                          ADC     A,(IX-1Bh)
1F52: DD 77 FF                          LD      (IX-01h),A
1F55: C5                                PUSH    BC
1F56: 21 22 00                          LD      HL,0022h
1F59: 39                                ADD     HL,SP
1F5A: 01 04 00                          LD      BC,0004h
1F5D: ED B0                             LDIR
1F5F: C1                                POP     BC
1F60: DD 7E F8                          LD      A,(IX-08h)
1F63: D6 03                             SUB     03h
1F65: DD B6 F9                          OR      (IX-07h)
1F68: 3E 01                             LD      A,01h
1F6A: 28 01                             JR      Z,L1F6D
1F6C: AF                                XOR     A
1F6D: DD 77 FF                   L1F6D: LD      (IX-01h),A
1F70: DD 7E E0                          LD      A,(IX-20h)
1F73: C6 27                             ADD     A,27h   ; '''
1F75: 5F                                LD      E,A
1F76: DD 7E E1                          LD      A,(IX-1Fh)
1F79: CE 00                             ADC     A,00h
1F7B: 57                                LD      D,A
1F7C: DD 7E FF                          LD      A,(IX-01h)
1F7F: B7                                OR      A
1F80: CA 07 20                          JP      Z,L2007
1F83: DD 7E E6                          LD      A,(IX-1Ah)
1F86: C6 2A                             ADD     A,2Ah   ; '*'
1F88: 4F                                LD      C,A
1F89: DD 7E E7                          LD      A,(IX-19h)
1F8C: CE 00                             ADC     A,00h
1F8E: 47                                LD      B,A
1F8F: D5                                PUSH    DE
1F90: C5                                PUSH    BC
1F91: CD BF 22                          CALL    L22BF
1F94: F1                                POP     AF
1F95: D1                                POP     DE
1F96: 7C                                LD      A,H
1F97: B5                                OR      L
1F98: 28 05                             JR      Z,L1F9F
1F9A: 2E 0D                             LD      L,0Dh
1F9C: C3 A2 22                          JP      L22A2

1F9F: DD 6E EE                   L1F9F: LD      L,(IX-12h)
1FA2: DD 66 EF                          LD      H,(IX-11h)
1FA5: 7E                                LD      A,(HL)
1FA6: 23                                INC     HL
1FA7: B6                                OR      (HL)
1FA8: 28 05                             JR      Z,L1FAF
1FAA: 2E 0D                             LD      L,0Dh
1FAC: C3 A2 22                          JP      L22A2

1FAF: DD 7E E6                   L1FAF: LD      A,(IX-1Ah)
1FB2: C6 2C                             ADD     A,2Ch   ; ','
1FB4: 4F                                LD      C,A
1FB5: DD 7E E7                          LD      A,(IX-19h)
1FB8: CE 00                             ADC     A,00h
1FBA: 47                                LD      B,A
1FBB: D5                                PUSH    DE
1FBC: C5                                PUSH    BC
1FBD: CD 76 11                          CALL    L1176
1FC0: F1                                POP     AF
1FC1: DD 75 F4                          LD      (IX-0Ch),L
1FC4: DD 74 F5                          LD      (IX-0Bh),H
1FC7: DD 73 F6                          LD      (IX-0Ah),E
1FCA: DD 72 F7                          LD      (IX-09h),D
1FCD: D1                                POP     DE
1FCE: 21 18 00                          LD      HL,0018h
1FD1: 39                                ADD     HL,SP
1FD2: 01 04 00                          LD      BC,0004h
1FD5: ED B0                             LDIR
1FD7: DD 6E FA                          LD      L,(IX-06h)
1FDA: DD 66 FB                          LD      H,(IX-05h)
1FDD: 4E                                LD      C,(HL)
1FDE: 23                                INC     HL
1FDF: 46                                LD      B,(HL)
1FE0: 23                                INC     HL
1FE1: 5E                                LD      E,(HL)
1FE2: 23                                INC     HL
1FE3: 56                                LD      D,(HL)
1FE4: DD 71 F4                          LD      (IX-0Ch),C
1FE7: DD 70 F5                          LD      (IX-0Bh),B
1FEA: DD 73 F6                          LD      (IX-0Ah),E
1FED: DD 72 F7                          LD      (IX-09h),D
1FF0: 06 02                             LD      B,02h
1FF2: DD CB F4 26                L1FF2: SLA     (IX-0Ch)
1FF6: DD CB F5 16                       RL      (IX-0Bh)
1FFA: DD CB F6 16                       RL      (IX-0Ah)
1FFE: DD CB F7 16                       RL      (IX-09h)
2002: 10 EE                             DJNZ    L1FF2
2004: C3 D2 20                          JP      L20D2

2007: DD 6E EE                   L2007: LD      L,(IX-12h)
200A: DD 66 EF                          LD      H,(IX-11h)
200D: 23                                INC     HL
200E: 7E                                LD      A,(HL)
200F: 2B                                DEC     HL
2010: 6E                                LD      L,(HL)
2011: B5                                OR      L
2012: 20 05                             JR      NZ,L2019
2014: 2E 0D                             LD      L,0Dh
2016: C3 A2 22                          JP      L22A2

2019: 69                         L2019: LD      L,C
201A: 60                                LD      H,B
201B: 4E                                LD      C,(HL)
201C: 23                                INC     HL
201D: 46                                LD      B,(HL)
201E: 23                                INC     HL
201F: 23                                INC     HL
2020: 7E                                LD      A,(HL)
2021: 2B                                DEC     HL
2022: 6E                                LD      L,(HL)
2023: 67                                LD      H,A
2024: 79                                LD      A,C
2025: DD 86 EA                          ADD     A,(IX-16h)
2028: DD 77 F4                          LD      (IX-0Ch),A
202B: 78                                LD      A,B
202C: DD 8E EB                          ADC     A,(IX-15h)
202F: DD 77 F5                          LD      (IX-0Bh),A
2032: 7D                                LD      A,L
2033: DD 8E EC                          ADC     A,(IX-14h)
2036: DD 77 F6                          LD      (IX-0Ah),A
2039: 7C                                LD      A,H
203A: DD 8E ED                          ADC     A,(IX-13h)
203D: DD 77 F7                          LD      (IX-09h),A
2040: 21 18 00                          LD      HL,0018h
2043: 39                                ADD     HL,SP
2044: 01 04 00                          LD      BC,0004h
2047: ED B0                             LDIR
2049: DD 5E FA                          LD      E,(IX-06h)
204C: DD 56 FB                          LD      D,(IX-05h)
204F: 21 18 00                          LD      HL,0018h
2052: 39                                ADD     HL,SP
2053: EB                                EX      DE,HL
2054: 01 04 00                          LD      BC,0004h
2057: ED B0                             LDIR
2059: DD 7E F8                          LD      A,(IX-08h)
205C: D6 02                             SUB     02h
205E: DD B6 F9                          OR      (IX-07h)
2061: 20 16                             JR      NZ,L2079
2063: DD 4E F4                          LD      C,(IX-0Ch)
2066: DD 46 F5                          LD      B,(IX-0Bh)
2069: DD 5E F6                          LD      E,(IX-0Ah)
206C: DD 56 F7                          LD      D,(IX-09h)
206F: CB 21                             SLA     C
2071: CB 10                             RL      B
2073: CB 13                             RL      E
2075: CB 12                             RL      D
2077: 18 4D                             JR      L20C6

2079: DD 6E F6                   L2079: LD      L,(IX-0Ah)
207C: DD 66 F7                          LD      H,(IX-09h)
207F: E5                                PUSH    HL
2080: DD 6E F4                          LD      L,(IX-0Ch)
2083: DD 66 F5                          LD      H,(IX-0Bh)
2086: E5                                PUSH    HL
2087: 21 00 00                          LD      HL,0000h
208A: E5                                PUSH    HL
208B: 21 03 00                          LD      HL,0003h
208E: E5                                PUSH    HL
208F: CD E3 4E                          CALL    L4EE3
2092: F1                                POP     AF
2093: F1                                POP     AF
2094: F1                                POP     AF
2095: F1                                POP     AF
2096: CB 3A                             SRL     D
2098: CB 1B                             RR      E
209A: CB 1C                             RR      H
209C: CB 1D                             RR      L
209E: DD 7E F4                          LD      A,(IX-0Ch)
20A1: E6 01                             AND     01h
20A3: DD 77 FB                          LD      (IX-05h),A
20A6: DD 36 FC 00                       LD      (IX-04h),00h
20AA: DD 36 FD 00                       LD      (IX-03h),00h
20AE: DD 36 FE 00                       LD      (IX-02h),00h
20B2: 7D                                LD      A,L
20B3: DD 86 FB                          ADD     A,(IX-05h)
20B6: 4F                                LD      C,A
20B7: 7C                                LD      A,H
20B8: DD 8E FC                          ADC     A,(IX-04h)
20BB: 47                                LD      B,A
20BC: 7B                                LD      A,E
20BD: DD 8E FD                          ADC     A,(IX-03h)
20C0: 5F                                LD      E,A
20C1: 7A                                LD      A,D
20C2: DD 8E FE                          ADC     A,(IX-02h)
20C5: 57                                LD      D,A
20C6: DD 71 F4                   L20C6: LD      (IX-0Ch),C
20C9: DD 70 F5                          LD      (IX-0Bh),B
20CC: DD 73 F6                          LD      (IX-0Ah),E
20CF: DD 72 F7                          LD      (IX-09h),D
20D2: DD 5E E8                   L20D2: LD      E,(IX-18h)
20D5: DD 56 E9                          LD      D,(IX-17h)
20D8: 21 1F 00                          LD      HL,001Fh
20DB: 39                                ADD     HL,SP
20DC: EB                                EX      DE,HL
20DD: 01 04 00                          LD      BC,0004h
20E0: ED B0                             LDIR
20E2: DD 7E F4                          LD      A,(IX-0Ch)
20E5: C6 FF                             ADD     A,0FFh
20E7: DD 7E F5                          LD      A,(IX-0Bh)
20EA: CE 01                             ADC     A,01h
20EC: 47                                LD      B,A
20ED: DD 7E F6                          LD      A,(IX-0Ah)
20F0: CE 00                             ADC     A,00h
20F2: 5F                                LD      E,A
20F3: DD 7E F7                          LD      A,(IX-09h)
20F6: CE 00                             ADC     A,00h
20F8: 6F                                LD      L,A
20F9: 48                                LD      C,B
20FA: 43                                LD      B,E
20FB: 26 00                             LD      H,00h
20FD: CB 3D                             SRL     L
20FF: CB 18                             RR      B
2101: CB 19                             RR      C
2103: DD 7E FB                          LD      A,(IX-05h)
2106: 91                                SUB     C
2107: DD 7E FC                          LD      A,(IX-04h)
210A: 98                                SBC     A,B
210B: DD 7E FD                          LD      A,(IX-03h)
210E: 9D                                SBC     A,L
210F: DD 7E FE                          LD      A,(IX-02h)
2112: 9C                                SBC     A,H
2113: 30 05                             JR      NC,L211A
2115: 2E 0D                             LD      L,0Dh
2117: C3 A2 22                          JP      L22A2

211A: DD 7E E0                   L211A: LD      A,(IX-20h)
211D: C6 0B                             ADD     A,0Bh
211F: DD 77 FB                          LD      (IX-05h),A
2122: DD 7E E1                          LD      A,(IX-1Fh)
2125: CE 00                             ADC     A,00h
2127: DD 77 FC                          LD      (IX-04h),A
212A: DD 7E E0                          LD      A,(IX-20h)
212D: C6 0F                             ADD     A,0Fh
212F: DD 77 FD                          LD      (IX-03h),A
2132: DD 7E E1                          LD      A,(IX-1Fh)
2135: CE 00                             ADC     A,00h
2137: DD 77 FE                          LD      (IX-02h),A
213A: DD 6E FD                          LD      L,(IX-03h)
213D: DD 66 FE                          LD      H,(IX-02h)
2140: 36 FF                             LD      (HL),0FFh
2142: 23                                INC     HL
2143: 36 FF                             LD      (HL),0FFh
2145: 23                                INC     HL
2146: 36 FF                             LD      (HL),0FFh
2148: 23                                INC     HL
2149: 36 FF                             LD      (HL),0FFh
214B: DD 6E FB                          LD      L,(IX-05h)
214E: DD 66 FC                          LD      H,(IX-04h)
2151: 36 FF                             LD      (HL),0FFh
2153: 23                                INC     HL
2154: 36 FF                             LD      (HL),0FFh
2156: 23                                INC     HL
2157: 36 FF                             LD      (HL),0FFh
2159: 23                                INC     HL
215A: 36 FF                             LD      (HL),0FFh
215C: DD 7E E0                          LD      A,(IX-20h)
215F: C6 04                             ADD     A,04h
2161: 4F                                LD      C,A
2162: DD 7E E1                          LD      A,(IX-1Fh)
2165: CE 00                             ADC     A,00h
2167: 47                                LD      B,A
2168: 3E 80                             LD      A,80h
216A: 02                                LD      (BC),A
216B: DD 7E FF                          LD      A,(IX-01h)
216E: B7                                OR      A
216F: CA 62 22                          JP      Z,L2262
2172: DD 7E E6                          LD      A,(IX-1Ah)
2175: C6 30                             ADD     A,30h   ; '0'
2177: 5F                                LD      E,A
2178: DD 7E E7                          LD      A,(IX-19h)
217B: CE 00                             ADC     A,00h
217D: 57                                LD      D,A
217E: C5                                PUSH    BC
217F: D5                                PUSH    DE
2180: CD BF 22                          CALL    L22BF
2183: F1                                POP     AF
2184: C1                                POP     BC
2185: 7D                                LD      A,L
2186: 3D                                DEC     A
2187: B4                                OR      H
2188: C2 62 22                          JP      NZ,L2262
218B: DD 7E E2                          LD      A,(IX-1Eh)
218E: C6 01                             ADD     A,01h
2190: 5F                                LD      E,A
2191: DD 7E E3                          LD      A,(IX-1Dh)
2194: CE 00                             ADC     A,00h
2196: 57                                LD      D,A
2197: DD 7E E4                          LD      A,(IX-1Ch)
219A: CE 00                             ADC     A,00h
219C: 6F                                LD      L,A
219D: DD 7E E5                          LD      A,(IX-1Bh)
21A0: CE 00                             ADC     A,00h
21A2: 67                                LD      H,A
21A3: C5                                PUSH    BC
21A4: E5                                PUSH    HL
21A5: D5                                PUSH    DE
21A6: DD 6E E0                          LD      L,(IX-20h)
21A9: DD 66 E1                          LD      H,(IX-1Fh)
21AC: E5                                PUSH    HL
21AD: CD DE 22                          CALL    L22DE
21B0: F1                                POP     AF
21B1: F1                                POP     AF
21B2: F1                                POP     AF
21B3: 7D                                LD      A,L
21B4: C1                                POP     BC
21B5: B7                                OR      A
21B6: C2 62 22                          JP      NZ,L2262
21B9: AF                                XOR     A
21BA: 02                                LD      (BC),A
21BB: DD 7E E6                          LD      A,(IX-1Ah)
21BE: C6 FE                             ADD     A,0FEh
21C0: 4F                                LD      C,A
21C1: DD 7E E7                          LD      A,(IX-19h)
21C4: CE 01                             ADC     A,01h
21C6: 47                                LD      B,A
21C7: C5                                PUSH    BC
21C8: CD BF 22                          CALL    L22BF
21CB: F1                                POP     AF
21CC: 7D                                LD      A,L
21CD: D6 55                             SUB     55h     ; 'U'
21CF: C2 62 22                          JP      NZ,L2262
21D2: 7C                                LD      A,H
21D3: D6 AA                             SUB     0AAh
21D5: C2 62 22                          JP      NZ,L2262
21D8: DD 7E E0                          LD      A,(IX-20h)
21DB: C6 33                             ADD     A,33h   ; '3'
21DD: 4F                                LD      C,A
21DE: DD 7E E1                          LD      A,(IX-1Fh)
21E1: CE 00                             ADC     A,00h
21E3: 47                                LD      B,A
21E4: C5                                PUSH    BC
21E5: CD 76 11                          CALL    L1176
21E8: F1                                POP     AF
21E9: 7D                                LD      A,L
21EA: D6 52                             SUB     52h     ; 'R'
21EC: 20 74                             JR      NZ,L2262
21EE: 7C                                LD      A,H
21EF: D6 52                             SUB     52h     ; 'R'
21F1: 20 6F                             JR      NZ,L2262
21F3: 7B                                LD      A,E
21F4: D6 61                             SUB     61h     ; 'a'
21F6: 20 6A                             JR      NZ,L2262
21F8: 7A                                LD      A,D
21F9: D6 41                             SUB     41h     ; 'A'
21FB: 20 65                             JR      NZ,L2262
21FD: DD 7E E6                          LD      A,(IX-1Ah)
2200: C6 E4                             ADD     A,0E4h
2202: 4F                                LD      C,A
2203: DD 7E E7                          LD      A,(IX-19h)
2206: CE 01                             ADC     A,01h
2208: 47                                LD      B,A
2209: C5                                PUSH    BC
220A: CD 76 11                          CALL    L1176
220D: F1                                POP     AF
220E: 7D                                LD      A,L
220F: D6 72                             SUB     72h     ; 'r'
2211: 20 4F                             JR      NZ,L2262
2213: 7C                                LD      A,H
2214: D6 72                             SUB     72h     ; 'r'
2216: 20 4A                             JR      NZ,L2262
2218: 7B                                LD      A,E
2219: D6 41                             SUB     41h     ; 'A'
221B: 20 45                             JR      NZ,L2262
221D: 7A                                LD      A,D
221E: D6 61                             SUB     61h     ; 'a'
2220: 20 40                             JR      NZ,L2262
2222: DD 7E E6                          LD      A,(IX-1Ah)
2225: C6 E8                             ADD     A,0E8h
2227: 4F                                LD      C,A
2228: DD 7E E7                          LD      A,(IX-19h)
222B: CE 01                             ADC     A,01h
222D: 47                                LD      B,A
222E: C5                                PUSH    BC
222F: CD 76 11                          CALL    L1176
2232: F1                                POP     AF
2233: 4D                                LD      C,L
2234: 44                                LD      B,H
2235: DD 6E FD                          LD      L,(IX-03h)
2238: DD 66 FE                          LD      H,(IX-02h)
223B: 71                                LD      (HL),C
223C: 23                                INC     HL
223D: 70                                LD      (HL),B
223E: 23                                INC     HL
223F: 73                                LD      (HL),E
2240: 23                                INC     HL
2241: 72                                LD      (HL),D
2242: DD 7E E6                          LD      A,(IX-1Ah)
2245: C6 EC                             ADD     A,0ECh
2247: 4F                                LD      C,A
2248: DD 7E E7                          LD      A,(IX-19h)
224B: CE 01                             ADC     A,01h
224D: 47                                LD      B,A
224E: C5                                PUSH    BC
224F: CD 76 11                          CALL    L1176
2252: F1                                POP     AF
2253: 4D                                LD      C,L
2254: 44                                LD      B,H
2255: DD 6E FB                          LD      L,(IX-05h)
2258: DD 66 FC                          LD      H,(IX-04h)
225B: 71                                LD      (HL),C
225C: 23                                INC     HL
225D: 70                                LD      (HL),B
225E: 23                                INC     HL
225F: 73                                LD      (HL),E
2260: 23                                INC     HL
2261: 72                                LD      (HL),D
2262: DD 7E F8                   L2262: LD      A,(IX-08h)
2265: DD 6E E0                          LD      L,(IX-20h)
2268: DD 66 E1                          LD      H,(IX-1Fh)
226B: 77                                LD      (HL),A
226C: DD 7E E0                          LD      A,(IX-20h)
226F: C6 05                             ADD     A,05h
2271: 4F                                LD      C,A
2272: DD 7E E1                          LD      A,(IX-1Fh)
2275: CE 00                             ADC     A,00h
2277: 47                                LD      B,A
2278: 2A B5 72                          LD      HL,(72B5h)
227B: 23                                INC     HL
227C: 22 B5 72                          LD      (72B5h),HL
227F: FD 21 B5 72                       LD      IY,72B5h
2283: FD 7E 00                          LD      A,(IY+00h)
2286: 02                                LD      (BC),A
2287: 03                                INC     BC
2288: FD 7E 01                          LD      A,(IY+01h)
228B: 02                                LD      (BC),A
228C: DD 7E E0                          LD      A,(IX-20h)
228F: C6 13                             ADD     A,13h
2291: 4F                                LD      C,A
2292: DD 7E E1                          LD      A,(IX-1Fh)
2295: CE 00                             ADC     A,00h
2297: 47                                LD      B,A
2298: AF                                XOR     A
2299: 02                                LD      (BC),A
229A: 03                                INC     BC
229B: 02                                LD      (BC),A
229C: 03                                INC     BC
229D: 02                                LD      (BC),A
229E: 03                                INC     BC
229F: 02                                LD      (BC),A
22A0: 2E 00                             LD      L,00h
22A2: DD F9                      L22A2: LD      SP,IX
22A4: DD E1                             POP     IX
22A6: C9                                RET

                                        ; --- START PROC L22A7 ---
22A7: D1                         L22A7: POP     DE
22A8: C1                                POP     BC
22A9: C5                                PUSH    BC
22AA: D5                                PUSH    DE
22AB: 21 06 00                          LD      HL,0006h
22AE: 39                                ADD     HL,SP
22AF: 5E                                LD      E,(HL)
22B0: 23                                INC     HL
22B1: 56                                LD      D,(HL)
22B2: 21 04 00                   L22B2: LD      HL,0004h
22B5: 39                                ADD     HL,SP
22B6: 7E                                LD      A,(HL)
22B7: 02                                LD      (BC),A
22B8: 03                                INC     BC
22B9: 1B                                DEC     DE
22BA: 7A                                LD      A,D
22BB: B3                                OR      E
22BC: 20 F4                             JR      NZ,L22B2
22BE: C9                                RET

                                        ; --- START PROC L22BF ---
22BF: CD CE 13                   L22BF: CALL    L13CE
22C2: DD 6E 04                          LD      L,(IX+04h)
22C5: DD 66 05                          LD      H,(IX+05h)
22C8: 23                                INC     HL
22C9: 46                                LD      B,(HL)
22CA: 0E 00                             LD      C,00h
22CC: DD 6E 04                          LD      L,(IX+04h)
22CF: DD 66 05                          LD      H,(IX+05h)
22D2: 5E                                LD      E,(HL)
22D3: 16 00                             LD      D,00h
22D5: 79                                LD      A,C
22D6: B3                                OR      E
22D7: 6F                                LD      L,A
22D8: 78                                LD      A,B
22D9: B2                                OR      D
22DA: 67                                LD      H,A
22DB: DD E1                             POP     IX
22DD: C9                                RET

                                        ; --- START PROC L22DE ---
22DE: CD CE 13                   L22DE: CALL    L13CE
22E1: F5                                PUSH    AF
22E2: F5                                PUSH    AF
22E3: F5                                PUSH    AF
22E4: 3B                                DEC     SP
22E5: AF                                XOR     A
22E6: DD 77 F9                          LD      (IX-07h),A
22E9: DD 4E 04                          LD      C,(IX+04h)
22EC: DD 46 05                          LD      B,(IX+05h)
22EF: 21 2F 00                          LD      HL,002Fh
22F2: 09                                ADD     HL,BC
22F3: DD 75 FA                          LD      (IX-06h),L
22F6: DD 74 FB                          LD      (IX-05h),H
22F9: C5                                PUSH    BC
22FA: DD 5E FA                          LD      E,(IX-06h)
22FD: DD 56 FB                          LD      D,(IX-05h)
2300: 21 05 00                          LD      HL,0005h
2303: 39                                ADD     HL,SP
2304: EB                                EX      DE,HL
2305: 01 04 00                          LD      BC,0004h
2308: ED B0                             LDIR
230A: C1                                POP     BC
230B: DD 7E 06                          LD      A,(IX+06h)
230E: DD 96 FC                          SUB     (IX-04h)
2311: 20 18                             JR      NZ,L232B
2313: DD 7E 07                          LD      A,(IX+07h)
2316: DD 96 FD                          SUB     (IX-03h)
2319: 20 10                             JR      NZ,L232B
231B: DD 7E 08                          LD      A,(IX+08h)
231E: DD 96 FE                          SUB     (IX-02h)
2321: 20 08                             JR      NZ,L232B
2323: DD 7E 09                          LD      A,(IX+09h)
2326: DD 96 FF                          SUB     (IX-01h)
2329: 28 5E                             JR      Z,L2389
232B: C5                         L232B: PUSH    BC
232C: C5                                PUSH    BC
232D: CD 4C 29                          CALL    L294C
2330: F1                                POP     AF
2331: 7D                                LD      A,L
2332: C1                                POP     BC
2333: DD 77 F9                          LD      (IX-07h),A
2336: B7                                OR      A
2337: 20 50                             JR      NZ,L2389
2339: 21 33 00                          LD      HL,0033h
233C: 09                                ADD     HL,BC
233D: EB                                EX      DE,HL
233E: 69                                LD      L,C
233F: 60                                LD      H,B
2340: 23                                INC     HL
2341: 46                                LD      B,(HL)
2342: 21 01 00                          LD      HL,0001h
2345: E5                                PUSH    HL
2346: DD 6E 08                          LD      L,(IX+08h)
2349: DD 66 09                          LD      H,(IX+09h)
234C: E5                                PUSH    HL
234D: DD 6E 06                          LD      L,(IX+06h)
2350: DD 66 07                          LD      H,(IX+07h)
2353: E5                                PUSH    HL
2354: D5                                PUSH    DE
2355: C5                                PUSH    BC
2356: 33                                INC     SP
2357: CD EF 02                          CALL    L02EF
235A: FD 21 09 00                       LD      IY,0009h
235E: FD 39                             ADD     IY,SP
2360: FD F9                             LD      SP,IY
2362: 7D                                LD      A,L
2363: B7                                OR      A
2364: 28 14                             JR      Z,L237A
2366: DD 36 06 FF                       LD      (IX+06h),0FFh
236A: DD 36 07 FF                       LD      (IX+07h),0FFh
236E: DD 36 08 FF                       LD      (IX+08h),0FFh
2372: DD 36 09 FF                       LD      (IX+09h),0FFh
2376: DD 36 F9 01                       LD      (IX-07h),01h
237A: DD 5E FA                   L237A: LD      E,(IX-06h)
237D: DD 56 FB                          LD      D,(IX-05h)
2380: 21 0D 00                          LD      HL,000Dh
2383: 39                                ADD     HL,SP
2384: 01 04 00                          LD      BC,0004h
2387: ED B0                             LDIR
2389: DD 6E F9                   L2389: LD      L,(IX-07h)
238C: DD F9                             LD      SP,IX
238E: DD E1                             POP     IX
2390: C9                                RET

                                        ; --- START PROC L2391 ---
2391: CD CE 13                   L2391: CALL    L13CE
2394: 21 EE FF                          LD      HL,0FFEEh
2397: 39                                ADD     HL,SP
2398: F9                                LD      SP,HL
2399: DD 7E 04                          LD      A,(IX+04h)
239C: DD 77 EE                          LD      (IX-12h),A
239F: DD 7E 05                          LD      A,(IX+05h)
23A2: DD 77 EF                          LD      (IX-11h),A
23A5: E1                                POP     HL
23A6: E5                                PUSH    HL
23A7: 4E                                LD      C,(HL)
23A8: 23                                INC     HL
23A9: 46                                LD      B,(HL)
23AA: DD 7E 06                          LD      A,(IX+06h)
23AD: D6 02                             SUB     02h
23AF: DD 7E 07                          LD      A,(IX+07h)
23B2: DE 00                             SBC     A,00h
23B4: DD 7E 08                          LD      A,(IX+08h)
23B7: DE 00                             SBC     A,00h
23B9: DD 7E 09                          LD      A,(IX+09h)
23BC: DE 00                             SBC     A,00h
23BE: 38 2D                             JR      C,L23ED
23C0: 21 17 00                          LD      HL,0017h
23C3: 09                                ADD     HL,BC
23C4: EB                                EX      DE,HL
23C5: D5                                PUSH    DE
23C6: C5                                PUSH    BC
23C7: 21 12 00                          LD      HL,0012h
23CA: 39                                ADD     HL,SP
23CB: EB                                EX      DE,HL
23CC: 01 04 00                          LD      BC,0004h
23CF: ED B0                             LDIR
23D1: C1                                POP     BC
23D2: D1                                POP     DE
23D3: DD 7E 06                          LD      A,(IX+06h)
23D6: DD 96 FC                          SUB     (IX-04h)
23D9: DD 7E 07                          LD      A,(IX+07h)
23DC: DD 9E FD                          SBC     A,(IX-03h)
23DF: DD 7E 08                          LD      A,(IX+08h)
23E2: DD 9E FE                          SBC     A,(IX-02h)
23E5: DD 7E 09                          LD      A,(IX+09h)
23E8: DD 9E FF                          SBC     A,(IX-01h)
23EB: 38 05                             JR      C,L23F2
23ED: 2E 02                      L23ED: LD      L,02h
23EF: C3 70 25                          JP      L2570

23F2: DD 7E 0D                   L23F2: LD      A,(IX+0Dh)
23F5: DD B6 0C                          OR      (IX+0Ch)
23F8: DD B6 0B                          OR      (IX+0Bh)
23FB: DD B6 0A                          OR      (IX+0Ah)
23FE: 28 2B                             JR      Z,L242B
2400: C5                                PUSH    BC
2401: D5                                PUSH    DE
2402: 21 FF FF                          LD      HL,0FFFFh
2405: E5                                PUSH    HL
2406: 21 FF FF                          LD      HL,0FFFFh
2409: E5                                PUSH    HL
240A: DD 6E 0C                          LD      L,(IX+0Ch)
240D: DD 66 0D                          LD      H,(IX+0Dh)
2410: E5                                PUSH    HL
2411: DD 6E 0A                          LD      L,(IX+0Ah)
2414: DD 66 0B                          LD      H,(IX+0Bh)
2417: E5                                PUSH    HL
2418: C5                                PUSH    BC
2419: CD B8 25                          CALL    L25B8
241C: FD 21 0A 00                       LD      IY,000Ah
2420: FD 39                             ADD     IY,SP
2422: FD F9                             LD      SP,IY
2424: D1                                POP     DE
2425: C1                                POP     BC
2426: 7D                                LD      A,L
2427: B7                                OR      A
2428: C2 70 25                          JP      NZ,L2570
242B: DD 73 F0                   L242B: LD      (IX-10h),E
242E: DD 72 F1                          LD      (IX-0Fh),D
2431: C5                         L2431: PUSH    BC
2432: DD 6E 08                          LD      L,(IX+08h)
2435: DD 66 09                          LD      H,(IX+09h)
2438: E5                                PUSH    HL
2439: DD 6E 06                          LD      L,(IX+06h)
243C: DD 66 07                          LD      H,(IX+07h)
243F: E5                                PUSH    HL
2440: DD 6E EE                          LD      L,(IX-12h)
2443: DD 66 EF                          LD      H,(IX-11h)
2446: E5                                PUSH    HL
2447: CD 47 14                          CALL    L1447
244A: F1                                POP     AF
244B: F1                                POP     AF
244C: F1                                POP     AF
244D: C1                                POP     BC
244E: DD 75 F2                          LD      (IX-0Eh),L
2451: DD 74 F3                          LD      (IX-0Dh),H
2454: DD 73 F4                          LD      (IX-0Ch),E
2457: DD 72 F5                          LD      (IX-0Bh),D
245A: 7A                                LD      A,D
245B: DD B6 F4                          OR      (IX-0Ch)
245E: DD B6 F3                          OR      (IX-0Dh)
2461: DD B6 F2                          OR      (IX-0Eh)
2464: CA 6E 25                          JP      Z,L256E
2467: DD 7E F2                          LD      A,(IX-0Eh)
246A: 3D                                DEC     A
246B: DD B6 F3                          OR      (IX-0Dh)
246E: DD B6 F4                          OR      (IX-0Ch)
2471: DD B6 F5                          OR      (IX-0Bh)
2474: 20 05                             JR      NZ,L247B
2476: 2E 02                             LD      L,02h
2478: C3 70 25                          JP      L2570

247B: DD 7E F2                   L247B: LD      A,(IX-0Eh)
247E: DD A6 F3                          AND     (IX-0Dh)
2481: DD A6 F4                          AND     (IX-0Ch)
2484: DD A6 F5                          AND     (IX-0Bh)
2487: 3C                                INC     A
2488: 20 05                             JR      NZ,L248F
248A: 2E 01                             LD      L,01h
248C: C3 70 25                          JP      L2570

248F: C5                         L248F: PUSH    BC
2490: 21 00 00                          LD      HL,0000h
2493: E5                                PUSH    HL
2494: 21 00 00                          LD      HL,0000h
2497: E5                                PUSH    HL
2498: DD 6E 08                          LD      L,(IX+08h)
249B: DD 66 09                          LD      H,(IX+09h)
249E: E5                                PUSH    HL
249F: DD 6E 06                          LD      L,(IX+06h)
24A2: DD 66 07                          LD      H,(IX+07h)
24A5: E5                                PUSH    HL
24A6: C5                                PUSH    BC
24A7: CD B8 25                          CALL    L25B8
24AA: FD 21 0A 00                       LD      IY,000Ah
24AE: FD 39                             ADD     IY,SP
24B0: FD F9                             LD      SP,IY
24B2: C1                                POP     BC
24B3: 7D                                LD      A,L
24B4: B7                                OR      A
24B5: C2 70 25                          JP      NZ,L2570
24B8: 21 0F 00                          LD      HL,000Fh
24BB: 09                                ADD     HL,BC
24BC: DD 75 F6                          LD      (IX-0Ah),L
24BF: DD 74 F7                          LD      (IX-09h),H
24C2: C5                                PUSH    BC
24C3: DD 5E F6                          LD      E,(IX-0Ah)
24C6: DD 56 F7                          LD      D,(IX-09h)
24C9: 21 0C 00                          LD      HL,000Ch
24CC: 39                                ADD     HL,SP
24CD: EB                                EX      DE,HL
24CE: 01 04 00                          LD      BC,0004h
24D1: ED B0                             LDIR
24D3: C1                                POP     BC
24D4: DD 6E F0                          LD      L,(IX-10h)
24D7: DD 66 F1                          LD      H,(IX-0Fh)
24DA: 5E                                LD      E,(HL)
24DB: 23                                INC     HL
24DC: 56                                LD      D,(HL)
24DD: 23                                INC     HL
24DE: 23                                INC     HL
24DF: 7E                                LD      A,(HL)
24E0: 2B                                DEC     HL
24E1: 6E                                LD      L,(HL)
24E2: 67                                LD      H,A
24E3: 7B                                LD      A,E
24E4: C6 FE                             ADD     A,0FEh
24E6: 5F                                LD      E,A
24E7: 7A                                LD      A,D
24E8: CE FF                             ADC     A,0FFh
24EA: 57                                LD      D,A
24EB: 7D                                LD      A,L
24EC: CE FF                             ADC     A,0FFh
24EE: 6F                                LD      L,A
24EF: 7C                                LD      A,H
24F0: CE FF                             ADC     A,0FFh
24F2: 67                                LD      H,A
24F3: DD 7E F8                          LD      A,(IX-08h)
24F6: 93                                SUB     E
24F7: DD 7E F9                          LD      A,(IX-07h)
24FA: 9A                                SBC     A,D
24FB: DD 7E FA                          LD      A,(IX-06h)
24FE: 9D                                SBC     A,L
24FF: DD 7E FB                          LD      A,(IX-05h)
2502: 9C                                SBC     A,H
2503: 30 37                             JR      NC,L253C
2505: DD 7E F8                          LD      A,(IX-08h)
2508: C6 01                             ADD     A,01h
250A: DD 77 FC                          LD      (IX-04h),A
250D: DD 7E F9                          LD      A,(IX-07h)
2510: CE 00                             ADC     A,00h
2512: DD 77 FD                          LD      (IX-03h),A
2515: DD 7E FA                          LD      A,(IX-06h)
2518: CE 00                             ADC     A,00h
251A: DD 77 FE                          LD      (IX-02h),A
251D: DD 7E FB                          LD      A,(IX-05h)
2520: CE 00                             ADC     A,00h
2522: DD 77 FF                          LD      (IX-01h),A
2525: C5                                PUSH    BC
2526: DD 5E F6                          LD      E,(IX-0Ah)
2529: DD 56 F7                          LD      D,(IX-09h)
252C: 21 10 00                          LD      HL,0010h
252F: 39                                ADD     HL,SP
2530: 01 04 00                          LD      BC,0004h
2533: ED B0                             LDIR
2535: C1                                POP     BC
2536: 21 04 00                          LD      HL,0004h
2539: 09                                ADD     HL,BC
253A: CB C6                             SET     0,(HL)
253C: C5                         L253C: PUSH    BC
253D: 21 1A 00                          LD      HL,001Ah
2540: 39                                ADD     HL,SP
2541: EB                                EX      DE,HL
2542: 21 06 00                          LD      HL,0006h
2545: 39                                ADD     HL,SP
2546: 01 04 00                          LD      BC,0004h
2549: ED B0                             LDIR
254B: C1                                POP     BC
254C: DD 6E F0                          LD      L,(IX-10h)
254F: DD 66 F1                          LD      H,(IX-0Fh)
2552: 5E                                LD      E,(HL)
2553: 23                                INC     HL
2554: 56                                LD      D,(HL)
2555: 23                                INC     HL
2556: 23                                INC     HL
2557: 7E                                LD      A,(HL)
2558: 2B                                DEC     HL
2559: 6E                                LD      L,(HL)
255A: 67                                LD      H,A
255B: DD 7E F2                          LD      A,(IX-0Eh)
255E: 93                                SUB     E
255F: DD 7E F3                          LD      A,(IX-0Dh)
2562: 9A                                SBC     A,D
2563: DD 7E F4                          LD      A,(IX-0Ch)
2566: 9D                                SBC     A,L
2567: DD 7E F5                          LD      A,(IX-0Bh)
256A: 9C                                SBC     A,H
256B: DA 31 24                          JP      C,L2431
256E: 2E 00                      L256E: LD      L,00h
2570: DD F9                      L2570: LD      SP,IX
2572: DD E1                             POP     IX
2574: C9                                RET

                                        ; --- START PROC L2575 ---
2575: CD CE 13                   L2575: CALL    L13CE
2578: DD 5E 08                          LD      E,(IX+08h)
257B: DD 56 09                          LD      D,(IX+09h)
257E: DD 7E 06                          LD      A,(IX+06h)
2581: C6 1A                             ADD     A,1Ah
2583: 4F                                LD      C,A
2584: DD 7E 07                          LD      A,(IX+07h)
2587: CE 00                             ADC     A,00h
2589: 47                                LD      B,A
258A: D5                                PUSH    DE
258B: C5                                PUSH    BC
258C: CD FB 3B                          CALL    L3BFB
258F: F1                                POP     AF
2590: F1                                POP     AF
2591: DD 4E 04                          LD      C,(IX+04h)
2594: DD 46 05                          LD      B,(IX+05h)
2597: 0A                                LD      A,(BC)
2598: D6 03                             SUB     03h
259A: 20 19                             JR      NZ,L25B5
259C: DD 5E 0A                          LD      E,(IX+0Ah)
259F: DD 56 0B                          LD      D,(IX+0Bh)
25A2: DD 7E 06                          LD      A,(IX+06h)
25A5: C6 14                             ADD     A,14h
25A7: 4F                                LD      C,A
25A8: DD 7E 07                          LD      A,(IX+07h)
25AB: CE 00                             ADC     A,00h
25AD: 47                                LD      B,A
25AE: D5                                PUSH    DE
25AF: C5                                PUSH    BC
25B0: CD FB 3B                          CALL    L3BFB
25B3: F1                                POP     AF
25B4: F1                                POP     AF
25B5: DD E1                      L25B5: POP     IX
25B7: C9                                RET

                                        ; --- START PROC L25B8 ---
25B8: CD CE 13                   L25B8: CALL    L13CE
25BB: 21 F0 FF                          LD      HL,0FFF0h
25BE: 39                                ADD     HL,SP
25BF: F9                                LD      SP,HL
25C0: DD 36 FB 02                       LD      (IX-05h),02h
25C4: DD 7E 06                          LD      A,(IX+06h)
25C7: D6 02                             SUB     02h
25C9: DD 7E 07                          LD      A,(IX+07h)
25CC: DE 00                             SBC     A,00h
25CE: DD 7E 08                          LD      A,(IX+08h)
25D1: DE 00                             SBC     A,00h
25D3: DD 7E 09                          LD      A,(IX+09h)
25D6: DE 00                             SBC     A,00h
25D8: DA 44 29                          JP      C,L2944
25DB: DD 7E 04                          LD      A,(IX+04h)
25DE: DD 77 F0                          LD      (IX-10h),A
25E1: DD 7E 05                          LD      A,(IX+05h)
25E4: DD 77 F1                          LD      (IX-0Fh),A
25E7: E1                                POP     HL
25E8: E5                                PUSH    HL
25E9: 11 17 00                          LD      DE,0017h
25EC: 19                                ADD     HL,DE
25ED: 4E                                LD      C,(HL)
25EE: 23                                INC     HL
25EF: 46                                LD      B,(HL)
25F0: 23                                INC     HL
25F1: 5E                                LD      E,(HL)
25F2: 23                                INC     HL
25F3: 56                                LD      D,(HL)
25F4: DD 7E 06                          LD      A,(IX+06h)
25F7: 91                                SUB     C
25F8: DD 7E 07                          LD      A,(IX+07h)
25FB: 98                                SBC     A,B
25FC: DD 7E 08                          LD      A,(IX+08h)
25FF: 9B                                SBC     A,E
2600: DD 7E 09                          LD      A,(IX+09h)
2603: 9A                                SBC     A,D
2604: D2 44 29                          JP      NC,L2944
2607: E1                                POP     HL
2608: E5                                PUSH    HL
2609: 5E                                LD      E,(HL)
260A: DD 7E F0                          LD      A,(IX-10h)
260D: C6 23                             ADD     A,23h   ; '#'
260F: DD 77 F2                          LD      (IX-0Eh),A
2612: DD 7E F1                          LD      A,(IX-0Fh)
2615: CE 00                             ADC     A,00h
2617: DD 77 F3                          LD      (IX-0Dh),A
261A: DD 7E F0                          LD      A,(IX-10h)
261D: C6 33                             ADD     A,33h   ; '3'
261F: DD 77 F4                          LD      (IX-0Ch),A
2622: DD 7E F1                          LD      A,(IX-0Fh)
2625: CE 00                             ADC     A,00h
2627: DD 77 F5                          LD      (IX-0Bh),A
262A: C1                                POP     BC
262B: C5                                PUSH    BC
262C: 03                                INC     BC
262D: 03                                INC     BC
262E: 03                                INC     BC
262F: 7B                                LD      A,E
2630: 3D                                DEC     A
2631: 28 0E                             JR      Z,L2641
2633: 7B                                LD      A,E
2634: FE 02                             CP      02h
2636: CA CA 27                          JP      Z,L27CA
2639: D6 03                             SUB     03h
263B: CA 54 28                          JP      Z,L2854
263E: C3 44 29                          JP      L2944

2641: DD 5E 06                   L2641: LD      E,(IX+06h)
2644: DD 56 07                          LD      D,(IX+07h)
2647: 6B                                LD      L,E
2648: 62                                LD      H,D
2649: CB 3C                             SRL     H
264B: CB 1D                             RR      L
264D: 19                                ADD     HL,DE
264E: DD 75 FE                          LD      (IX-02h),L
2651: DD 74 FF                          LD      (IX-01h),H
2654: C5                                PUSH    BC
2655: DD 5E F2                          LD      E,(IX-0Eh)
2658: DD 56 F3                          LD      D,(IX-0Dh)
265B: 21 0C 00                          LD      HL,000Ch
265E: 39                                ADD     HL,SP
265F: EB                                EX      DE,HL
2660: 01 04 00                          LD      BC,0004h
2663: ED B0                             LDIR
2665: C1                                POP     BC
2666: DD 7E FF                          LD      A,(IX-01h)
2669: CB 3F                             SRL     A
266B: 5F                                LD      E,A
266C: 16 00                             LD      D,00h
266E: 21 00 00                          LD      HL,0000h
2671: DD 7E FA                          LD      A,(IX-06h)
2674: 83                                ADD     A,E
2675: 5F                                LD      E,A
2676: DD 7E FB                          LD      A,(IX-05h)
2679: 8A                                ADC     A,D
267A: 57                                LD      D,A
267B: DD 7E FC                          LD      A,(IX-04h)
267E: 8D                                ADC     A,L
267F: 6F                                LD      L,A
2680: DD 7E FD                          LD      A,(IX-03h)
2683: 8C                                ADC     A,H
2684: 67                                LD      H,A
2685: C5                                PUSH    BC
2686: E5                                PUSH    HL
2687: D5                                PUSH    DE
2688: DD 6E F0                          LD      L,(IX-10h)
268B: DD 66 F1                          LD      H,(IX-0Fh)
268E: E5                                PUSH    HL
268F: CD DE 22                          CALL    L22DE
2692: F1                                POP     AF
2693: F1                                POP     AF
2694: F1                                POP     AF
2695: C1                                POP     BC
2696: DD 75 FB                          LD      (IX-05h),L
2699: 7D                                LD      A,L
269A: B7                                OR      A
269B: C2 44 29                          JP      NZ,L2944
269E: DD 5E FE                          LD      E,(IX-02h)
26A1: DD 56 FF                          LD      D,(IX-01h)
26A4: DD 7E FE                          LD      A,(IX-02h)
26A7: C6 01                             ADD     A,01h
26A9: DD 77 F6                          LD      (IX-0Ah),A
26AC: DD 7E FF                          LD      A,(IX-01h)
26AF: CE 00                             ADC     A,00h
26B1: DD 77 F7                          LD      (IX-09h),A
26B4: 7A                                LD      A,D
26B5: E6 01                             AND     01h
26B7: 57                                LD      D,A
26B8: 7B                                LD      A,E
26B9: DD 86 F4                          ADD     A,(IX-0Ch)
26BC: DD 77 F8                          LD      (IX-08h),A
26BF: 7A                                LD      A,D
26C0: DD 8E F5                          ADC     A,(IX-0Bh)
26C3: DD 77 F9                          LD      (IX-07h),A
26C6: DD 7E F8                          LD      A,(IX-08h)
26C9: DD 77 FA                          LD      (IX-06h),A
26CC: DD 7E F9                          LD      A,(IX-07h)
26CF: DD 77 FB                          LD      (IX-05h),A
26D2: DD 7E 06                          LD      A,(IX+06h)
26D5: E6 01                             AND     01h
26D7: DD 77 FC                          LD      (IX-04h),A
26DA: DD 36 FD 00                       LD      (IX-03h),00h
26DE: DD 36 FE 00                       LD      (IX-02h),00h
26E2: DD 36 FF 00                       LD      (IX-01h),00h
26E6: DD 5E 0A                          LD      E,(IX+0Ah)
26E9: DD 7E FF                          LD      A,(IX-01h)
26EC: DD B6 FE                          OR      (IX-02h)
26EF: DD B6 FD                          OR      (IX-03h)
26F2: DD B6 FC                          OR      (IX-04h)
26F5: 28 1C                             JR      Z,L2713
26F7: DD 6E F8                          LD      L,(IX-08h)
26FA: DD 66 F9                          LD      H,(IX-07h)
26FD: 7E                                LD      A,(HL)
26FE: E6 0F                             AND     0Fh
2700: 6F                                LD      L,A
2701: 26 00                             LD      H,00h
2703: 7B                                LD      A,E
2704: 87                                ADD     A,A
2705: 87                                ADD     A,A
2706: 87                                ADD     A,A
2707: 87                                ADD     A,A
2708: 5F                                LD      E,A
2709: 17                                RLA
270A: 9F                                SBC     A,A
270B: 57                                LD      D,A
270C: 7D                                LD      A,L
270D: B3                                OR      E
270E: 5F                                LD      E,A
270F: 7C                                LD      A,H
2710: B2                                OR      D
2711: 18 01                             JR      L2714

2713: AF                         L2713: XOR     A
2714: DD 6E FA                   L2714: LD      L,(IX-06h)
2717: DD 66 FB                          LD      H,(IX-05h)
271A: 73                                LD      (HL),E
271B: 3E 01                             LD      A,01h
271D: 02                                LD      (BC),A
271E: C5                                PUSH    BC
271F: DD 5E F2                          LD      E,(IX-0Eh)
2722: DD 56 F3                          LD      D,(IX-0Dh)
2725: 21 0A 00                          LD      HL,000Ah
2728: 39                                ADD     HL,SP
2729: EB                                EX      DE,HL
272A: 01 04 00                          LD      BC,0004h
272D: ED B0                             LDIR
272F: C1                                POP     BC
2730: DD 7E F7                          LD      A,(IX-09h)
2733: CB 3F                             SRL     A
2735: 5F                                LD      E,A
2736: 16 00                             LD      D,00h
2738: 21 00 00                          LD      HL,0000h
273B: 7B                                LD      A,E
273C: DD 86 F8                          ADD     A,(IX-08h)
273F: 5F                                LD      E,A
2740: 7A                                LD      A,D
2741: DD 8E F9                          ADC     A,(IX-07h)
2744: 57                                LD      D,A
2745: 7D                                LD      A,L
2746: DD 8E FA                          ADC     A,(IX-06h)
2749: 6F                                LD      L,A
274A: 7C                                LD      A,H
274B: DD 8E FB                          ADC     A,(IX-05h)
274E: 67                                LD      H,A
274F: C5                                PUSH    BC
2750: E5                                PUSH    HL
2751: D5                                PUSH    DE
2752: DD 6E F0                          LD      L,(IX-10h)
2755: DD 66 F1                          LD      H,(IX-0Fh)
2758: E5                                PUSH    HL
2759: CD DE 22                          CALL    L22DE
275C: F1                                POP     AF
275D: F1                                POP     AF
275E: F1                                POP     AF
275F: C1                                POP     BC
2760: DD 75 FB                          LD      (IX-05h),L
2763: 7D                                LD      A,L
2764: B7                                OR      A
2765: C2 44 29                          JP      NZ,L2944
2768: DD 5E F6                          LD      E,(IX-0Ah)
276B: DD 7E F7                          LD      A,(IX-09h)
276E: E6 01                             AND     01h
2770: 57                                LD      D,A
2771: DD 6E F4                          LD      L,(IX-0Ch)
2774: DD 66 F5                          LD      H,(IX-0Bh)
2777: 19                                ADD     HL,DE
2778: EB                                EX      DE,HL
2779: DD 73 F7                          LD      (IX-09h),E
277C: DD 72 F8                          LD      (IX-08h),D
277F: DD 7E 0A                          LD      A,(IX+0Ah)
2782: DD 77 F9                          LD      (IX-07h),A
2785: DD 7E 0B                          LD      A,(IX+0Bh)
2788: DD 77 FA                          LD      (IX-06h),A
278B: DD 7E FF                          LD      A,(IX-01h)
278E: DD B6 FE                          OR      (IX-02h)
2791: DD B6 FD                          OR      (IX-03h)
2794: DD B6 FC                          OR      (IX-04h)
2797: 28 11                             JR      Z,L27AA
2799: DD 5E F9                          LD      E,(IX-07h)
279C: DD 56 FA                          LD      D,(IX-06h)
279F: 3E 04                             LD      A,04h
27A1: CB 3A                      L27A1: SRL     D
27A3: CB 1B                             RR      E
27A5: 3D                                DEC     A
27A6: 20 F9                             JR      NZ,L27A1
27A8: 18 13                             JR      L27BD

27AA: 1A                         L27AA: LD      A,(DE)
27AB: E6 F0                             AND     0F0h
27AD: 5F                                LD      E,A
27AE: 16 00                             LD      D,00h
27B0: DD 7E FA                          LD      A,(IX-06h)
27B3: E6 0F                             AND     0Fh
27B5: 6F                                LD      L,A
27B6: 26 00                             LD      H,00h
27B8: 7B                                LD      A,E
27B9: B5                                OR      L
27BA: 5F                                LD      E,A
27BB: 7A                                LD      A,D
27BC: B4                                OR      H
27BD: DD 6E F7                   L27BD: LD      L,(IX-09h)
27C0: DD 66 F8                          LD      H,(IX-08h)
27C3: 73                                LD      (HL),E
27C4: 3E 01                             LD      A,01h
27C6: 02                                LD      (BC),A
27C7: C3 44 29                          JP      L2944

27CA: C5                         L27CA: PUSH    BC
27CB: DD 5E F2                          LD      E,(IX-0Eh)
27CE: DD 56 F3                          LD      D,(IX-0Dh)
27D1: 21 0E 00                          LD      HL,000Eh
27D4: 39                                ADD     HL,SP
27D5: EB                                EX      DE,HL
27D6: 01 04 00                          LD      BC,0004h
27D9: ED B0                             LDIR
27DB: C1                                POP     BC
27DC: DD 5E 07                          LD      E,(IX+07h)
27DF: DD 56 08                          LD      D,(IX+08h)
27E2: DD 6E 09                          LD      L,(IX+09h)
27E5: 26 00                             LD      H,00h
27E7: 7B                                LD      A,E
27E8: DD 86 FC                          ADD     A,(IX-04h)
27EB: 5F                                LD      E,A
27EC: 7A                                LD      A,D
27ED: DD 8E FD                          ADC     A,(IX-03h)
27F0: 57                                LD      D,A
27F1: 7D                                LD      A,L
27F2: DD 8E FE                          ADC     A,(IX-02h)
27F5: 6F                                LD      L,A
27F6: 7C                                LD      A,H
27F7: DD 8E FF                          ADC     A,(IX-01h)
27FA: 67                                LD      H,A
27FB: C5                                PUSH    BC
27FC: E5                                PUSH    HL
27FD: D5                                PUSH    DE
27FE: DD 6E F0                          LD      L,(IX-10h)
2801: DD 66 F1                          LD      H,(IX-0Fh)
2804: E5                                PUSH    HL
2805: CD DE 22                          CALL    L22DE
2808: F1                                POP     AF
2809: F1                                POP     AF
280A: F1                                POP     AF
280B: C1                                POP     BC
280C: DD 75 FB                          LD      (IX-05h),L
280F: 7D                                LD      A,L
2810: B7                                OR      A
2811: C2 44 29                          JP      NZ,L2944
2814: DD 7E 0A                          LD      A,(IX+0Ah)
2817: DD 77 FE                          LD      (IX-02h),A
281A: DD 7E 0B                          LD      A,(IX+0Bh)
281D: DD 77 FF                          LD      (IX-01h),A
2820: DD 6E 06                          LD      L,(IX+06h)
2823: DD 66 07                          LD      H,(IX+07h)
2826: DD 5E 08                          LD      E,(IX+08h)
2829: DD 56 09                          LD      D,(IX+09h)
282C: 29                                ADD     HL,HL
282D: CB 13                             RL      E
282F: CB 12                             RL      D
2831: 7C                                LD      A,H
2832: E6 01                             AND     01h
2834: 67                                LD      H,A
2835: 7D                                LD      A,L
2836: DD 86 F4                          ADD     A,(IX-0Ch)
2839: 6F                                LD      L,A
283A: 7C                                LD      A,H
283B: DD 8E F5                          ADC     A,(IX-0Bh)
283E: 67                                LD      H,A
283F: C5                                PUSH    BC
2840: DD 5E FE                          LD      E,(IX-02h)
2843: DD 56 FF                          LD      D,(IX-01h)
2846: D5                                PUSH    DE
2847: E5                                PUSH    HL
2848: CD FB 3B                          CALL    L3BFB
284B: F1                                POP     AF
284C: F1                                POP     AF
284D: C1                                POP     BC
284E: 3E 01                             LD      A,01h
2850: 02                                LD      (BC),A
2851: C3 44 29                          JP      L2944

2854: C5                         L2854: PUSH    BC
2855: DD 5E F2                          LD      E,(IX-0Eh)
2858: DD 56 F3                          LD      D,(IX-0Dh)
285B: 21 0E 00                          LD      HL,000Eh
285E: 39                                ADD     HL,SP
285F: EB                                EX      DE,HL
2860: 01 04 00                          LD      BC,0004h
2863: ED B0                             LDIR
2865: C1                                POP     BC
2866: DD 5E 06                          LD      E,(IX+06h)
2869: DD 56 07                          LD      D,(IX+07h)
286C: DD 6E 08                          LD      L,(IX+08h)
286F: DD 66 09                          LD      H,(IX+09h)
2872: 3E 07                             LD      A,07h
2874: CB 3C                      L2874: SRL     H
2876: CB 1D                             RR      L
2878: CB 1A                             RR      D
287A: CB 1B                             RR      E
287C: 3D                                DEC     A
287D: 20 F5                             JR      NZ,L2874
287F: 7B                                LD      A,E
2880: DD 86 FC                          ADD     A,(IX-04h)
2883: 5F                                LD      E,A
2884: 7A                                LD      A,D
2885: DD 8E FD                          ADC     A,(IX-03h)
2888: 57                                LD      D,A
2889: 7D                                LD      A,L
288A: DD 8E FE                          ADC     A,(IX-02h)
288D: 6F                                LD      L,A
288E: 7C                                LD      A,H
288F: DD 8E FF                          ADC     A,(IX-01h)
2892: 67                                LD      H,A
2893: C5                                PUSH    BC
2894: E5                                PUSH    HL
2895: D5                                PUSH    DE
2896: DD 6E F0                          LD      L,(IX-10h)
2899: DD 66 F1                          LD      H,(IX-0Fh)
289C: E5                                PUSH    HL
289D: CD DE 22                          CALL    L22DE
28A0: F1                                POP     AF
28A1: F1                                POP     AF
28A2: F1                                POP     AF
28A3: C1                                POP     BC
28A4: DD 75 FB                          LD      (IX-05h),L
28A7: 7D                                LD      A,L
28A8: B7                                OR      A
28A9: C2 44 29                          JP      NZ,L2944
28AC: DD 7E 0A                          LD      A,(IX+0Ah)
28AF: DD 77 F7                          LD      (IX-09h),A
28B2: DD 7E 0B                          LD      A,(IX+0Bh)
28B5: DD 77 F8                          LD      (IX-08h),A
28B8: DD 7E 0C                          LD      A,(IX+0Ch)
28BB: DD 77 F9                          LD      (IX-07h),A
28BE: DD 7E 0D                          LD      A,(IX+0Dh)
28C1: E6 0F                             AND     0Fh
28C3: DD 77 FA                          LD      (IX-06h),A
28C6: DD 6E 06                          LD      L,(IX+06h)
28C9: DD 66 07                          LD      H,(IX+07h)
28CC: DD 5E 08                          LD      E,(IX+08h)
28CF: DD 56 09                          LD      D,(IX+09h)
28D2: 3E 02                             LD      A,02h
28D4: 29                         L28D4: ADD     HL,HL
28D5: CB 13                             RL      E
28D7: CB 12                             RL      D
28D9: 3D                                DEC     A
28DA: 20 F8                             JR      NZ,L28D4
28DC: 7C                                LD      A,H
28DD: E6 01                             AND     01h
28DF: 67                                LD      H,A
28E0: 7D                                LD      A,L
28E1: DD 86 F4                          ADD     A,(IX-0Ch)
28E4: DD 77 FE                          LD      (IX-02h),A
28E7: 7C                                LD      A,H
28E8: DD 8E F5                          ADC     A,(IX-0Bh)
28EB: DD 77 FF                          LD      (IX-01h),A
28EE: C5                                PUSH    BC
28EF: DD 6E FE                          LD      L,(IX-02h)
28F2: DD 66 FF                          LD      H,(IX-01h)
28F5: E5                                PUSH    HL
28F6: CD 76 11                          CALL    L1176
28F9: F1                                POP     AF
28FA: C1                                POP     BC
28FB: 21 00 00                          LD      HL,0000h
28FE: 1E 00                             LD      E,00h
2900: 7A                                LD      A,D
2901: E6 F0                             AND     0F0h
2903: F5                                PUSH    AF
2904: DD 7E F7                          LD      A,(IX-09h)
2907: B5                                OR      L
2908: 6F                                LD      L,A
2909: DD 7E F8                          LD      A,(IX-08h)
290C: B4                                OR      H
290D: 67                                LD      H,A
290E: DD 7E F9                          LD      A,(IX-07h)
2911: B3                                OR      E
2912: 5F                                LD      E,A
2913: F1                                POP     AF
2914: DD B6 FA                          OR      (IX-06h)
2917: 57                                LD      D,A
2918: DD 75 0A                          LD      (IX+0Ah),L
291B: DD 74 0B                          LD      (IX+0Bh),H
291E: DD 73 0C                          LD      (IX+0Ch),E
2921: DD 72 0D                          LD      (IX+0Dh),D
2924: C5                                PUSH    BC
2925: DD 6E 0C                          LD      L,(IX+0Ch)
2928: DD 66 0D                          LD      H,(IX+0Dh)
292B: E5                                PUSH    HL
292C: DD 6E 0A                          LD      L,(IX+0Ah)
292F: DD 66 0B                          LD      H,(IX+0Bh)
2932: E5                                PUSH    HL
2933: DD 6E FE                          LD      L,(IX-02h)
2936: DD 66 FF                          LD      H,(IX-01h)
2939: E5                                PUSH    HL
293A: CD 52 19                          CALL    L1952
293D: F1                                POP     AF
293E: F1                                POP     AF
293F: F1                                POP     AF
2940: C1                                POP     BC
2941: 3E 01                             LD      A,01h
2943: 02                                LD      (BC),A
2944: DD 6E FB                   L2944: LD      L,(IX-05h)
2947: DD F9                             LD      SP,IX
2949: DD E1                             POP     IX
294B: C9                                RET

                                        ; --- START PROC L294C ---
294C: CD CE 13                   L294C: CALL    L13CE
294F: 21 EF FF                          LD      HL,0FFEFh
2952: 39                                ADD     HL,SP
2953: F9                                LD      SP,HL
2954: AF                                XOR     A
2955: DD 77 EF                          LD      (IX-11h),A
2958: DD 4E 04                          LD      C,(IX+04h)
295B: DD 46 05                          LD      B,(IX+05h)
295E: 59                                LD      E,C
295F: 50                                LD      D,B
2960: 13                                INC     DE
2961: 13                                INC     DE
2962: 13                                INC     DE
2963: 1A                                LD      A,(DE)
2964: B7                                OR      A
2965: CA 91 2A                          JP      Z,L2A91
2968: 21 2F 00                          LD      HL,002Fh
296B: 09                                ADD     HL,BC
296C: DD 75 FE                          LD      (IX-02h),L
296F: DD 74 FF                          LD      (IX-01h),H
2972: D5                                PUSH    DE
2973: C5                                PUSH    BC
2974: DD 5E FE                          LD      E,(IX-02h)
2977: DD 56 FF                          LD      D,(IX-01h)
297A: 21 0E 00                          LD      HL,000Eh
297D: 39                                ADD     HL,SP
297E: EB                                EX      DE,HL
297F: 01 04 00                          LD      BC,0004h
2982: ED B0                             LDIR
2984: C1                                POP     BC
2985: D1                                POP     DE
2986: 21 33 00                          LD      HL,0033h
2989: 09                                ADD     HL,BC
298A: DD 75 F0                          LD      (IX-10h),L
298D: DD 74 F1                          LD      (IX-0Fh),H
2990: 21 01 00                          LD      HL,0001h
2993: 09                                ADD     HL,BC
2994: DD 75 F2                          LD      (IX-0Eh),L
2997: DD 74 F3                          LD      (IX-0Dh),H
299A: 7E                                LD      A,(HL)
299B: DD 77 FD                          LD      (IX-03h),A
299E: C5                                PUSH    BC
299F: D5                                PUSH    DE
29A0: 21 01 00                          LD      HL,0001h
29A3: E5                                PUSH    HL
29A4: DD 6E FB                          LD      L,(IX-05h)
29A7: DD 66 FC                          LD      H,(IX-04h)
29AA: E5                                PUSH    HL
29AB: DD 6E F9                          LD      L,(IX-07h)
29AE: DD 66 FA                          LD      H,(IX-06h)
29B1: E5                                PUSH    HL
29B2: DD 6E F0                          LD      L,(IX-10h)
29B5: DD 66 F1                          LD      H,(IX-0Fh)
29B8: E5                                PUSH    HL
29B9: DD 7E FD                          LD      A,(IX-03h)
29BC: F5                                PUSH    AF
29BD: 33                                INC     SP
29BE: CD 79 03                          CALL    L0379
29C1: FD 21 09 00                       LD      IY,0009h
29C5: FD 39                             ADD     IY,SP
29C7: FD F9                             LD      SP,IY
29C9: 7D                                LD      A,L
29CA: D1                                POP     DE
29CB: C1                                POP     BC
29CC: B7                                OR      A
29CD: C2 8D 2A                          JP      NZ,L2A8D
29D0: AF                                XOR     A
29D1: 12                                LD      (DE),A
29D2: C5                                PUSH    BC
29D3: DD 5E FE                          LD      E,(IX-02h)
29D6: DD 56 FF                          LD      D,(IX-01h)
29D9: 21 07 00                          LD      HL,0007h
29DC: 39                                ADD     HL,SP
29DD: EB                                EX      DE,HL
29DE: 01 04 00                          LD      BC,0004h
29E1: ED B0                             LDIR
29E3: C1                                POP     BC
29E4: 69                                LD      L,C
29E5: 60                                LD      H,B
29E6: 11 23 00                          LD      DE,0023h
29E9: 19                                ADD     HL,DE
29EA: 5E                                LD      E,(HL)
29EB: 23                                INC     HL
29EC: 56                                LD      D,(HL)
29ED: 23                                INC     HL
29EE: 23                                INC     HL
29EF: 7E                                LD      A,(HL)
29F0: 2B                                DEC     HL
29F1: 6E                                LD      L,(HL)
29F2: 67                                LD      H,A
29F3: DD 7E F4                          LD      A,(IX-0Ch)
29F6: 93                                SUB     E
29F7: DD 77 F8                          LD      (IX-08h),A
29FA: DD 7E F5                          LD      A,(IX-0Bh)
29FD: 9A                                SBC     A,D
29FE: DD 77 F9                          LD      (IX-07h),A
2A01: DD 7E F6                          LD      A,(IX-0Ah)
2A04: 9D                                SBC     A,L
2A05: DD 77 FA                          LD      (IX-06h),A
2A08: DD 7E F7                          LD      A,(IX-09h)
2A0B: 9C                                SBC     A,H
2A0C: DD 77 FB                          LD      (IX-05h),A
2A0F: 69                                LD      L,C
2A10: 60                                LD      H,B
2A11: 11 1B 00                          LD      DE,001Bh
2A14: 19                                ADD     HL,DE
2A15: 7E                                LD      A,(HL)
2A16: DD 77 FC                          LD      (IX-04h),A
2A19: 23                                INC     HL
2A1A: 7E                                LD      A,(HL)
2A1B: DD 77 FD                          LD      (IX-03h),A
2A1E: 23                                INC     HL
2A1F: 7E                                LD      A,(HL)
2A20: DD 77 FE                          LD      (IX-02h),A
2A23: 23                                INC     HL
2A24: 7E                                LD      A,(HL)
2A25: DD 77 FF                          LD      (IX-01h),A
2A28: DD 7E F8                          LD      A,(IX-08h)
2A2B: DD 96 FC                          SUB     (IX-04h)
2A2E: DD 7E F9                          LD      A,(IX-07h)
2A31: DD 9E FD                          SBC     A,(IX-03h)
2A34: DD 7E FA                          LD      A,(IX-06h)
2A37: DD 9E FE                          SBC     A,(IX-02h)
2A3A: DD 7E FB                          LD      A,(IX-05h)
2A3D: DD 9E FF                          SBC     A,(IX-01h)
2A40: 30 4F                             JR      NC,L2A91
2A42: 69                                LD      L,C
2A43: 60                                LD      H,B
2A44: 23                                INC     HL
2A45: 23                                INC     HL
2A46: 7E                                LD      A,(HL)
2A47: D6 02                             SUB     02h
2A49: 20 46                             JR      NZ,L2A91
2A4B: DD 7E F4                          LD      A,(IX-0Ch)
2A4E: DD 86 FC                          ADD     A,(IX-04h)
2A51: 4F                                LD      C,A
2A52: DD 7E F5                          LD      A,(IX-0Bh)
2A55: DD 8E FD                          ADC     A,(IX-03h)
2A58: 47                                LD      B,A
2A59: DD 7E F6                          LD      A,(IX-0Ah)
2A5C: DD 8E FE                          ADC     A,(IX-02h)
2A5F: 5F                                LD      E,A
2A60: DD 7E F7                          LD      A,(IX-09h)
2A63: DD 8E FF                          ADC     A,(IX-01h)
2A66: 57                                LD      D,A
2A67: DD 6E F2                          LD      L,(IX-0Eh)
2A6A: DD 66 F3                          LD      H,(IX-0Dh)
2A6D: 7E                                LD      A,(HL)
2A6E: DD 77 FF                          LD      (IX-01h),A
2A71: 21 01 00                          LD      HL,0001h
2A74: E5                                PUSH    HL
2A75: D5                                PUSH    DE
2A76: C5                                PUSH    BC
2A77: DD 6E F0                          LD      L,(IX-10h)
2A7A: DD 66 F1                          LD      H,(IX-0Fh)
2A7D: E5                                PUSH    HL
2A7E: DD 7E FF                          LD      A,(IX-01h)
2A81: F5                                PUSH    AF
2A82: 33                                INC     SP
2A83: CD 79 03                          CALL    L0379
2A86: 21 09 00                          LD      HL,0009h
2A89: 39                                ADD     HL,SP
2A8A: F9                                LD      SP,HL
2A8B: 18 04                             JR      L2A91

2A8D: DD 36 EF 01                L2A8D: LD      (IX-11h),01h
2A91: DD 6E EF                   L2A91: LD      L,(IX-11h)
2A94: DD F9                             LD      SP,IX
2A96: DD E1                             POP     IX
2A98: C9                                RET

                                        ; --- START PROC L2A99 ---
2A99: CD CE 13                   L2A99: CALL    L13CE
2A9C: 21 F2 FF                          LD      HL,0FFF2h
2A9F: 39                                ADD     HL,SP
2AA0: F9                                LD      SP,HL
2AA1: DD 5E 06                          LD      E,(IX+06h)
2AA4: DD 56 07                          LD      D,(IX+07h)
2AA7: 1A                                LD      A,(DE)
2AA8: DD 77 F2                          LD      (IX-0Eh),A
2AAB: 13                                INC     DE
2AAC: 1A                                LD      A,(DE)
2AAD: DD 77 F3                          LD      (IX-0Dh),A
2AB0: 1B                                DEC     DE
2AB1: DD 4E 04                          LD      C,(IX+04h)
2AB4: DD 46 05                          LD      B,(IX+05h)
2AB7: 21 1C 00                          LD      HL,001Ch
2ABA: 09                                ADD     HL,BC
2ABB: DD 75 F4                          LD      (IX-0Ch),L
2ABE: DD 74 F5                          LD      (IX-0Bh),H
2AC1: 4D                                LD      C,L
2AC2: 44                                LD      B,H
2AC3: D5                                PUSH    DE
2AC4: 21 0B 00                          LD      HL,000Bh
2AC7: E5                                PUSH    HL
2AC8: 2E 20                             LD      L,20h   ; ' '
2ACA: E5                                PUSH    HL
2ACB: C5                                PUSH    BC
2ACC: CD A7 22                          CALL    L22A7
2ACF: F1                                POP     AF
2AD0: F1                                POP     AF
2AD1: F1                                POP     AF
2AD2: D1                                POP     DE
2AD3: AF                                XOR     A
2AD4: DD 77 F6                          LD      (IX-0Ah),A
2AD7: DD 77 F7                          LD      (IX-09h),A
2ADA: AF                                XOR     A
2ADB: DD 77 FE                          LD      (IX-02h),A
2ADE: DD 77 FF                          LD      (IX-01h),A
2AE1: DD 36 F8 08                       LD      (IX-08h),08h
2AE5: AF                                XOR     A
2AE6: DD 77 F9                          LD      (IX-07h),A
2AE9: E1                                POP     HL
2AEA: E5                                PUSH    HL
2AEB: 6E                                LD      L,(HL)
2AEC: DD 7E F4                          LD      A,(IX-0Ch)
2AEF: C6 0B                             ADD     A,0Bh
2AF1: 4F                                LD      C,A
2AF2: DD 7E F5                          LD      A,(IX-0Bh)
2AF5: CE 00                             ADC     A,00h
2AF7: 47                                LD      B,A
2AF8: 7D                                LD      A,L
2AF9: D6 2E                             SUB     2Eh     ; '.'
2AFB: C2 A8 2B                          JP      NZ,L2BA8
2AFE: AF                                XOR     A
2AFF: DD 77 FC                          LD      (IX-04h),A
2B02: DD 77 FD                          LD      (IX-03h),A
2B05: AF                                XOR     A
2B06: DD 77 FE                          LD      (IX-02h),A
2B09: DD 77 FF                          LD      (IX-01h),A
2B0C: DD 7E F2                   L2B0C: LD      A,(IX-0Eh)
2B0F: DD 86 FE                          ADD     A,(IX-02h)
2B12: 6F                                LD      L,A
2B13: DD 7E F3                          LD      A,(IX-0Dh)
2B16: DD 8E FF                          ADC     A,(IX-01h)
2B19: 67                                LD      H,A
2B1A: DD 34 FE                          INC     (IX-02h)
2B1D: 20 03                             JR      NZ,L2B22
2B1F: DD 34 FF                          INC     (IX-01h)
2B22: 7E                         L2B22: LD      A,(HL)
2B23: DD 77 FB                          LD      (IX-05h),A
2B26: D6 2E                             SUB     2Eh     ; '.'
2B28: 20 28                             JR      NZ,L2B52
2B2A: DD 7E FE                          LD      A,(IX-02h)
2B2D: D6 03                             SUB     03h
2B2F: DD 7E FF                          LD      A,(IX-01h)
2B32: DE 00                             SBC     A,00h
2B34: 30 1C                             JR      NC,L2B52
2B36: DD 7E F4                          LD      A,(IX-0Ch)
2B39: DD 86 FC                          ADD     A,(IX-04h)
2B3C: 6F                                LD      L,A
2B3D: DD 7E F5                          LD      A,(IX-0Bh)
2B40: DD 8E FD                          ADC     A,(IX-03h)
2B43: DD 34 FC                          INC     (IX-04h)
2B46: 20 03                             JR      NZ,L2B4B
2B48: DD 34 FD                          INC     (IX-03h)
2B4B: 67                         L2B4B: LD      H,A
2B4C: DD 7E FB                          LD      A,(IX-05h)
2B4F: 77                                LD      (HL),A
2B50: 18 BA                             JR      L2B0C

2B52: DD 6E FE                   L2B52: LD      L,(IX-02h)
2B55: DD 66 FF                          LD      H,(IX-01h)
2B58: 3E 20                             LD      A,20h   ; ' '
2B5A: DD 96 FB                          SUB     (IX-05h)
2B5D: 3E 00                             LD      A,00h
2B5F: 17                                RLA
2B60: DD 77 FF                          LD      (IX-01h),A
2B63: DD 7E FB                          LD      A,(IX-05h)
2B66: D6 2F                             SUB     2Fh     ; '/'
2B68: 28 12                             JR      Z,L2B7C
2B6A: DD 7E FB                          LD      A,(IX-05h)
2B6D: D6 5C                             SUB     5Ch     ; '\'
2B6F: 28 0B                             JR      Z,L2B7C
2B71: DD 7E FF                          LD      A,(IX-01h)
2B74: B7                                OR      A
2B75: 28 05                             JR      Z,L2B7C
2B77: 2E 06                             LD      L,06h
2B79: C3 85 2D                          JP      L2D85

2B7C: DD 7E F2                   L2B7C: LD      A,(IX-0Eh)
2B7F: 85                                ADD     A,L
2B80: DD 77 FD                          LD      (IX-03h),A
2B83: DD 7E F3                          LD      A,(IX-0Dh)
2B86: 8C                                ADC     A,H
2B87: DD 77 FE                          LD      (IX-02h),A
2B8A: DD 7E FD                          LD      A,(IX-03h)
2B8D: 12                                LD      (DE),A
2B8E: 13                                INC     DE
2B8F: DD 7E FE                          LD      A,(IX-02h)
2B92: 12                                LD      (DE),A
2B93: DD CB FF 46                       BIT     0,(IX-01h)
2B97: 20 05                             JR      NZ,L2B9E
2B99: 11 24 00                          LD      DE,0024h
2B9C: 18 03                             JR      L2BA1

2B9E: 11 20 00                   L2B9E: LD      DE,0020h
2BA1: 7B                         L2BA1: LD      A,E
2BA2: 02                                LD      (BC),A
2BA3: 2E 00                             LD      L,00h
2BA5: C3 85 2D                          JP      L2D85

2BA8: DD 6E FE                   L2BA8: LD      L,(IX-02h)
2BAB: DD 66 FF                          LD      H,(IX-01h)
2BAE: DD 34 FE                          INC     (IX-02h)
2BB1: 20 03                             JR      NZ,L2BB6
2BB3: DD 34 FF                          INC     (IX-01h)
2BB6: DD 7E F2                   L2BB6: LD      A,(IX-0Eh)
2BB9: 85                                ADD     A,L
2BBA: 6F                                LD      L,A
2BBB: DD 7E F3                          LD      A,(IX-0Dh)
2BBE: 8C                                ADC     A,H
2BBF: 67                                LD      H,A
2BC0: 7E                                LD      A,(HL)
2BC1: DD 77 FA                          LD      (IX-06h),A
2BC4: 3E 20                             LD      A,20h   ; ' '
2BC6: DD 96 FA                          SUB     (IX-06h)
2BC9: 3E 00                             LD      A,00h
2BCB: 17                                RLA
2BCC: DD 77 FD                          LD      (IX-03h),A
2BCF: CB 47                             BIT     0,A
2BD1: CA 3B 2D                          JP      Z,L2D3B
2BD4: DD 7E FA                          LD      A,(IX-06h)
2BD7: D6 2F                             SUB     2Fh     ; '/'
2BD9: 28 07                             JR      Z,L2BE2
2BDB: DD 7E FA                          LD      A,(IX-06h)
2BDE: D6 5C                             SUB     5Ch     ; '\'
2BE0: 20 22                             JR      NZ,L2C04
2BE2: DD 7E F2                   L2BE2: LD      A,(IX-0Eh)
2BE5: DD 86 FE                          ADD     A,(IX-02h)
2BE8: 6F                                LD      L,A
2BE9: DD 7E F3                          LD      A,(IX-0Dh)
2BEC: DD 8E FF                          ADC     A,(IX-01h)
2BEF: 67                                LD      H,A
2BF0: 7E                                LD      A,(HL)
2BF1: FE 2F                             CP      2Fh     ; '/'
2BF3: 28 05                             JR      Z,L2BFA
2BF5: D6 5C                             SUB     5Ch     ; '\'
2BF7: C2 3B 2D                          JP      NZ,L2D3B
2BFA: DD 34 FE                   L2BFA: INC     (IX-02h)
2BFD: 20 E3                             JR      NZ,L2BE2
2BFF: DD 34 FF                          INC     (IX-01h)
2C02: 18 DE                             JR      L2BE2

2C04: DD 7E FA                   L2C04: LD      A,(IX-06h)
2C07: D6 2E                             SUB     2Eh     ; '.'
2C09: 3E 01                             LD      A,01h
2C0B: 28 01                             JR      Z,L2C0E
2C0D: AF                                XOR     A
2C0E: 6F                         L2C0E: LD      L,A
2C0F: B7                                OR      A
2C10: 20 0E                             JR      NZ,L2C20
2C12: DD 7E F6                          LD      A,(IX-0Ah)
2C15: DD 96 F8                          SUB     (IX-08h)
2C18: DD 7E F7                          LD      A,(IX-09h)
2C1B: DD 9E F9                          SBC     A,(IX-07h)
2C1E: 38 26                             JR      C,L2C46
2C20: DD 7E F8                   L2C20: LD      A,(IX-08h)
2C23: D6 0B                             SUB     0Bh
2C25: DD B6 F9                          OR      (IX-07h)
2C28: 28 04                             JR      Z,L2C2E
2C2A: CB 45                             BIT     0,L
2C2C: 20 05                             JR      NZ,L2C33
2C2E: 2E 06                      L2C2E: LD      L,06h
2C30: C3 85 2D                          JP      L2D85

2C33: DD 36 F6 08                L2C33: LD      (IX-0Ah),08h
2C37: AF                                XOR     A
2C38: DD 77 F7                          LD      (IX-09h),A
2C3B: DD 36 F8 0B                       LD      (IX-08h),0Bh
2C3F: AF                                XOR     A
2C40: DD 77 F9                          LD      (IX-07h),A
2C43: C3 A8 2B                          JP      L2BA8

2C46: C5                         L2C46: PUSH    BC
2C47: D5                                PUSH    DE
2C48: DD 7E FA                          LD      A,(IX-06h)
2C4B: F5                                PUSH    AF
2C4C: 33                                INC     SP
2C4D: CD EB 45                          CALL    L45EB
2C50: 33                                INC     SP
2C51: D1                                POP     DE
2C52: C1                                POP     BC
2C53: DD 7E F6                          LD      A,(IX-0Ah)
2C56: C6 01                             ADD     A,01h
2C58: DD 77 FC                          LD      (IX-04h),A
2C5B: DD 7E F7                          LD      A,(IX-09h)
2C5E: CE 00                             ADC     A,00h
2C60: DD 77 FD                          LD      (IX-03h),A
2C63: 7C                                LD      A,H
2C64: B5                                OR      L
2C65: CA E6 2C                          JP      Z,L2CE6
2C68: DD 6E FE                          LD      L,(IX-02h)
2C6B: DD 66 FF                          LD      H,(IX-01h)
2C6E: DD 34 FE                          INC     (IX-02h)
2C71: 20 03                             JR      NZ,L2C76
2C73: DD 34 FF                          INC     (IX-01h)
2C76: DD 7E F2                   L2C76: LD      A,(IX-0Eh)
2C79: 85                                ADD     A,L
2C7A: 6F                                LD      L,A
2C7B: DD 7E F3                          LD      A,(IX-0Dh)
2C7E: 8C                                ADC     A,H
2C7F: 67                                LD      H,A
2C80: 7E                                LD      A,(HL)
2C81: DD 77 FB                          LD      (IX-05h),A
2C84: C5                                PUSH    BC
2C85: D5                                PUSH    DE
2C86: DD 7E FB                          LD      A,(IX-05h)
2C89: F5                                PUSH    AF
2C8A: 33                                INC     SP
2C8B: CD AE 3D                          CALL    L3DAE
2C8E: 33                                INC     SP
2C8F: D1                                POP     DE
2C90: C1                                POP     BC
2C91: 7C                                LD      A,H
2C92: B5                                OR      L
2C93: 28 11                             JR      Z,L2CA6
2C95: DD 6E F8                          LD      L,(IX-08h)
2C98: DD 66 F9                          LD      H,(IX-07h)
2C9B: 2B                                DEC     HL
2C9C: DD 7E F6                          LD      A,(IX-0Ah)
2C9F: 95                                SUB     L
2CA0: DD 7E F7                          LD      A,(IX-09h)
2CA3: 9C                                SBC     A,H
2CA4: 38 05                             JR      C,L2CAB
2CA6: 2E 06                      L2CA6: LD      L,06h
2CA8: C3 85 2D                          JP      L2D85

2CAB: DD 6E F6                   L2CAB: LD      L,(IX-0Ah)
2CAE: DD 66 F7                          LD      H,(IX-09h)
2CB1: DD 7E F4                          LD      A,(IX-0Ch)
2CB4: 85                                ADD     A,L
2CB5: 6F                                LD      L,A
2CB6: DD 7E F5                          LD      A,(IX-0Bh)
2CB9: 8C                                ADC     A,H
2CBA: 67                                LD      H,A
2CBB: DD 7E FA                          LD      A,(IX-06h)
2CBE: 77                                LD      (HL),A
2CBF: DD 6E FC                          LD      L,(IX-04h)
2CC2: DD 66 FD                          LD      H,(IX-03h)
2CC5: DD 7E FC                          LD      A,(IX-04h)
2CC8: C6 01                             ADD     A,01h
2CCA: DD 77 F6                          LD      (IX-0Ah),A
2CCD: DD 7E FD                          LD      A,(IX-03h)
2CD0: CE 00                             ADC     A,00h
2CD2: DD 77 F7                          LD      (IX-09h),A
2CD5: DD 7E F4                          LD      A,(IX-0Ch)
2CD8: 85                                ADD     A,L
2CD9: 6F                                LD      L,A
2CDA: DD 7E F5                          LD      A,(IX-0Bh)
2CDD: 8C                                ADC     A,H
2CDE: 67                                LD      H,A
2CDF: DD 7E FB                          LD      A,(IX-05h)
2CE2: 77                                LD      (HL),A
2CE3: C3 A8 2B                          JP      L2BA8

2CE6: DD 6E FA                   L2CE6: LD      L,(IX-06h)
2CE9: 26 00                             LD      H,00h
2CEB: C5                                PUSH    BC
2CEC: D5                                PUSH    DE
2CED: E5                                PUSH    HL
2CEE: 21 8A 2D                          LD      HL,2D8Ah
2CF1: E5                                PUSH    HL
2CF2: CD F9 3D                          CALL    L3DF9
2CF5: F1                                POP     AF
2CF6: F1                                POP     AF
2CF7: D1                                POP     DE
2CF8: C1                                POP     BC
2CF9: 7C                                LD      A,H
2CFA: B5                                OR      L
2CFB: 28 05                             JR      Z,L2D02
2CFD: 2E 06                             LD      L,06h
2CFF: C3 85 2D                          JP      L2D85

2D02: DD 7E FA                   L2D02: LD      A,(IX-06h)
2D05: D6 61                             SUB     61h     ; 'a'
2D07: 38 0F                             JR      C,L2D18
2D09: 3E 7A                             LD      A,7Ah   ; 'z'
2D0B: DD 96 FA                          SUB     (IX-06h)
2D0E: 38 08                             JR      C,L2D18
2D10: DD 7E FA                          LD      A,(IX-06h)
2D13: C6 E0                             ADD     A,0E0h
2D15: DD 77 FA                          LD      (IX-06h),A
2D18: DD 6E F6                   L2D18: LD      L,(IX-0Ah)
2D1B: DD 66 F7                          LD      H,(IX-09h)
2D1E: DD 7E FC                          LD      A,(IX-04h)
2D21: DD 77 F6                          LD      (IX-0Ah),A
2D24: DD 7E FD                          LD      A,(IX-03h)
2D27: DD 77 F7                          LD      (IX-09h),A
2D2A: 7D                                LD      A,L
2D2B: DD 86 F4                          ADD     A,(IX-0Ch)
2D2E: 6F                                LD      L,A
2D2F: 7C                                LD      A,H
2D30: DD 8E F5                          ADC     A,(IX-0Bh)
2D33: 67                                LD      H,A
2D34: DD 7E FA                          LD      A,(IX-06h)
2D37: 77                                LD      (HL),A
2D38: C3 A8 2B                          JP      L2BA8

2D3B: DD 7E F2                   L2D3B: LD      A,(IX-0Eh)
2D3E: DD 86 FE                          ADD     A,(IX-02h)
2D41: DD 77 FB                          LD      (IX-05h),A
2D44: DD 7E F3                          LD      A,(IX-0Dh)
2D47: DD 8E FF                          ADC     A,(IX-01h)
2D4A: DD 77 FC                          LD      (IX-04h),A
2D4D: DD 7E FB                          LD      A,(IX-05h)
2D50: 12                                LD      (DE),A
2D51: 13                                INC     DE
2D52: DD 7E FC                          LD      A,(IX-04h)
2D55: 12                                LD      (DE),A
2D56: DD 7E F7                          LD      A,(IX-09h)
2D59: DD B6 F6                          OR      (IX-0Ah)
2D5C: 20 04                             JR      NZ,L2D62
2D5E: 2E 06                             LD      L,06h
2D60: 18 23                             JR      L2D85

2D62: DD 6E F4                   L2D62: LD      L,(IX-0Ch)
2D65: DD 66 F5                          LD      H,(IX-0Bh)
2D68: 7E                                LD      A,(HL)
2D69: D6 E5                             SUB     0E5h
2D6B: 20 06                             JR      NZ,L2D73
2D6D: D1                                POP     DE
2D6E: E1                                POP     HL
2D6F: E5                                PUSH    HL
2D70: D5                                PUSH    DE
2D71: 36 05                             LD      (HL),05h
2D73: DD CB FD 46                L2D73: BIT     0,(IX-03h)
2D77: 20 05                             JR      NZ,L2D7E
2D79: 11 04 00                          LD      DE,0004h
2D7C: 18 03                             JR      L2D81

2D7E: 11 00 00                   L2D7E: LD      DE,0000h
2D81: 7B                         L2D81: LD      A,E
2D82: 02                                LD      (BC),A
2D83: 2E 00                             LD      L,00h
2D85: DD F9                      L2D85: LD      SP,IX
2D87: DD E1                             POP     IX
2D89: C9                                RET

2D8A: 22                         L2D8A: DB      22h     ; '"'
2D8B: 2A 2B 2C 3A 3B 3C 3D 3E           DB      "*+,:;<=>?[]|"
2D93: 3F 5B 5D 7C
2D97: 7F                                DB      7Fh
2D98: 00                                DB      00h

                                        ; --- START PROC L2D99 ---
2D99: FD 21 02 00                L2D99: LD      IY,0002h
2D9D: FD 39                             ADD     IY,SP
2D9F: FD 7E 00                          LD      A,(IY+00h)
2DA2: C6 30                             ADD     A,30h   ; '0'
2DA4: 47                                LD      B,A
2DA5: 3E 39                             LD      A,39h   ; '9'
2DA7: 90                                SUB     B
2DA8: 30 10                             JR      NC,L2DBA
2DAA: 78                                LD      A,B
2DAB: C6 07                             ADD     A,07h
2DAD: 47                                LD      B,A
2DAE: FD 23                             INC     IY
2DB0: FD CB 00 46                       BIT     0,(IY+00h)
2DB4: 28 04                             JR      Z,L2DBA
2DB6: 78                                LD      A,B
2DB7: C6 20                             ADD     A,20h   ; ' '
2DB9: 47                                LD      B,A
2DBA: FD 21 06 00                L2DBA: LD      IY,0006h
2DBE: FD 39                             ADD     IY,SP
2DC0: FD 6E 00                          LD      L,(IY+00h)
2DC3: FD 66 01                          LD      H,(IY+01h)
2DC6: E5                                PUSH    HL
2DC7: C5                                PUSH    BC
2DC8: 33                                INC     SP
2DC9: FD 2B                             DEC     IY
2DCB: FD 2B                             DEC     IY
2DCD: FD 6E 00                          LD      L,(IY+00h)
2DD0: FD 66 01                          LD      H,(IY+01h)
2DD3: CD AD 3D                          CALL    L3DAD
2DD6: F1                                POP     AF
2DD7: 33                                INC     SP
2DD8: C9                                RET

                                        ; --- START PROC L2DD9 ---
2DD9: DD E5                      L2DD9: PUSH    IX
2DDB: DD 21 00 00                       LD      IX,0000h
2DDF: DD 39                             ADD     IX,SP
2DE1: DD 46 04                          LD      B,(IX+04h)
2DE4: CB 38                             SRL     B
2DE6: CB 38                             SRL     B
2DE8: CB 38                             SRL     B
2DEA: CB 38                             SRL     B
2DEC: DD 6E 08                          LD      L,(IX+08h)
2DEF: DD 66 09                          LD      H,(IX+09h)
2DF2: E5                                PUSH    HL
2DF3: DD 6E 06                          LD      L,(IX+06h)
2DF6: DD 66 07                          LD      H,(IX+07h)
2DF9: E5                                PUSH    HL
2DFA: DD 7E 05                          LD      A,(IX+05h)
2DFD: F5                                PUSH    AF
2DFE: 33                                INC     SP
2DFF: C5                                PUSH    BC
2E00: 33                                INC     SP
2E01: CD 99 2D                          CALL    L2D99
2E04: 21 06 00                          LD      HL,0006h
2E07: 39                                ADD     HL,SP
2E08: F9                                LD      SP,HL
2E09: DD 7E 04                          LD      A,(IX+04h)
2E0C: E6 0F                             AND     0Fh
2E0E: 47                                LD      B,A
2E0F: DD 6E 08                          LD      L,(IX+08h)
2E12: DD 66 09                          LD      H,(IX+09h)
2E15: E5                                PUSH    HL
2E16: DD 6E 06                          LD      L,(IX+06h)
2E19: DD 66 07                          LD      H,(IX+07h)
2E1C: E5                                PUSH    HL
2E1D: DD 7E 05                          LD      A,(IX+05h)
2E20: F5                                PUSH    AF
2E21: 33                                INC     SP
2E22: C5                                PUSH    BC
2E23: 33                                INC     SP
2E24: CD 99 2D                          CALL    L2D99
2E27: 21 06 00                          LD      HL,0006h
2E2A: 39                                ADD     HL,SP
2E2B: F9                                LD      SP,HL
2E2C: DD E1                             POP     IX
2E2E: C9                                RET

                                        ; --- START PROC L2E2F ---
2E2F: DD E5                      L2E2F: PUSH    IX
2E31: DD 21 00 00                       LD      IX,0000h
2E35: DD 39                             ADD     IX,SP
2E37: 21 F9 FF                          LD      HL,0FFF9h
2E3A: 39                                ADD     HL,SP
2E3B: F9                                LD      SP,HL
2E3C: DD 5E 04                          LD      E,(IX+04h)
2E3F: DD 56 05                          LD      D,(IX+05h)
2E42: D5                                PUSH    DE
2E43: 21 05 00                          LD      HL,0005h
2E46: 39                                ADD     HL,SP
2E47: EB                                EX      DE,HL
2E48: 01 04 00                          LD      BC,0004h
2E4B: ED B0                             LDIR
2E4D: D1                                POP     DE
2E4E: 21 04 00                          LD      HL,0004h
2E51: 19                                ADD     HL,DE
2E52: 4D                                LD      C,L
2E53: 44                                LD      B,H
2E54: DD 36 FA 20                       LD      (IX-06h),20h    ; ' '
2E58: 0A                         L2E58: LD      A,(BC)
2E59: 87                                ADD     A,A
2E5A: DD 77 F9                          LD      (IX-07h),A
2E5D: DD 7E FF                          LD      A,(IX-01h)
2E60: CB 07                             RLC     A
2E62: E6 01                             AND     01h
2E64: DD 77 FB                          LD      (IX-05h),A
2E67: DD 7E F9                          LD      A,(IX-07h)
2E6A: DD B6 FB                          OR      (IX-05h)
2E6D: DD 77 FB                          LD      (IX-05h),A
2E70: 02                                LD      (BC),A
2E71: DD CB FC 26                       SLA     (IX-04h)
2E75: DD CB FD 16                       RL      (IX-03h)
2E79: DD CB FE 16                       RL      (IX-02h)
2E7D: DD CB FF 16                       RL      (IX-01h)
2E81: DD 7E FB                          LD      A,(IX-05h)
2E84: DD 96 06                          SUB     (IX+06h)
2E87: 38 1F                             JR      C,L2EA8
2E89: 0A                                LD      A,(BC)
2E8A: DD 96 06                          SUB     (IX+06h)
2E8D: 02                                LD      (BC),A
2E8E: DD 7E FC                          LD      A,(IX-04h)
2E91: F6 01                             OR      01h
2E93: DD 77 FC                          LD      (IX-04h),A
2E96: DD 7E FD                          LD      A,(IX-03h)
2E99: DD 77 FD                          LD      (IX-03h),A
2E9C: DD 7E FE                          LD      A,(IX-02h)
2E9F: DD 77 FE                          LD      (IX-02h),A
2EA2: DD 7E FF                          LD      A,(IX-01h)
2EA5: DD 77 FF                          LD      (IX-01h),A
2EA8: DD 35 FA                   L2EA8: DEC     (IX-06h)
2EAB: DD 7E FA                          LD      A,(IX-06h)
2EAE: B7                                OR      A
2EAF: 20 A7                             JR      NZ,L2E58
2EB1: 21 03 00                          LD      HL,0003h
2EB4: 39                                ADD     HL,SP
2EB5: 01 04 00                          LD      BC,0004h
2EB8: ED B0                             LDIR
2EBA: DD F9                             LD      SP,IX
2EBC: DD E1                             POP     IX
2EBE: C9                                RET

                                        ; --- START PROC L2EBF ---
2EBF: DD E5                      L2EBF: PUSH    IX
2EC1: DD 21 00 00                       LD      IX,0000h
2EC5: DD 39                             ADD     IX,SP
2EC7: 21 CD FF                          LD      HL,0FFCDh
2ECA: 39                                ADD     HL,SP
2ECB: F9                                LD      SP,HL
2ECC: AF                                XOR     A
2ECD: DD 77 FA                          LD      (IX-06h),A
2ED0: DD 77 FB                          LD      (IX-05h),A
2ED3: 21 08 00                          LD      HL,0008h
2ED6: 39                                ADD     HL,SP
2ED7: DD 75 E0                          LD      (IX-20h),L
2EDA: DD 74 E1                          LD      (IX-1Fh),H
2EDD: 21 12 00                          LD      HL,0012h
2EE0: 39                                ADD     HL,SP
2EE1: DD 75 E2                          LD      (IX-1Eh),L
2EE4: DD 74 E3                          LD      (IX-1Dh),H
2EE7: 21 08 00                          LD      HL,0008h
2EEA: 39                                ADD     HL,SP
2EEB: DD 75 E4                          LD      (IX-1Ch),L
2EEE: DD 74 E5                          LD      (IX-1Bh),H
2EF1: DD 7E E4                          LD      A,(IX-1Ch)
2EF4: C6 04                             ADD     A,04h
2EF6: DD 77 E6                          LD      (IX-1Ah),A
2EF9: DD 7E E5                          LD      A,(IX-1Bh)
2EFC: CE 00                             ADC     A,00h
2EFE: DD 77 E7                          LD      (IX-19h),A
2F01: DD 7E E6                          LD      A,(IX-1Ah)
2F04: DD 77 E8                          LD      (IX-18h),A
2F07: DD 7E E7                          LD      A,(IX-19h)
2F0A: DD 77 E9                          LD      (IX-17h),A
2F0D: DD 7E E6                          LD      A,(IX-1Ah)
2F10: DD 77 EA                          LD      (IX-16h),A
2F13: DD 7E E7                          LD      A,(IX-19h)
2F16: DD 77 EB                          LD      (IX-15h),A
2F19: DD 6E 08                   L2F19: LD      L,(IX+08h)
2F1C: DD 66 09                          LD      H,(IX+09h)
2F1F: 5E                                LD      E,(HL)
2F20: 23                                INC     HL
2F21: DD 75 08                          LD      (IX+08h),L
2F24: DD 74 09                          LD      (IX+09h),H
2F27: DD 73 FF                          LD      (IX-01h),E
2F2A: 7B                                LD      A,E
2F2B: B7                                OR      A
2F2C: CA 19 3A                          JP      Z,L3A19
2F2F: DD 7E FF                          LD      A,(IX-01h)
2F32: D6 25                             SUB     25h     ; '%'
2F34: C2 F6 39                          JP      NZ,L39F6
2F37: AF                                XOR     A
2F38: DD 77 EC                          LD      (IX-14h),A
2F3B: AF                                XOR     A
2F3C: DD 77 ED                          LD      (IX-13h),A
2F3F: AF                                XOR     A
2F40: DD 77 EE                          LD      (IX-12h),A
2F43: AF                                XOR     A
2F44: DD 77 EF                          LD      (IX-11h),A
2F47: AF                                XOR     A
2F48: DD 77 F0                          LD      (IX-10h),A
2F4B: AF                                XOR     A
2F4C: DD 77 F1                          LD      (IX-0Fh),A
2F4F: AF                                XOR     A
2F50: DD 77 F2                          LD      (IX-0Eh),A
2F53: AF                                XOR     A
2F54: DD 77 F3                          LD      (IX-0Dh),A
2F57: AF                                XOR     A
2F58: DD 77 F4                          LD      (IX-0Ch),A
2F5B: AF                                XOR     A
2F5C: DD 77 FC                          LD      (IX-04h),A
2F5F: DD 77 FD                          LD      (IX-03h),A
2F62: DD 36 F5 FF                       LD      (IX-0Bh),0FFh
2F66: DD 36 F6 FF                       LD      (IX-0Ah),0FFh
2F6A: DD 7E 08                          LD      A,(IX+08h)
2F6D: DD 77 F8                          LD      (IX-08h),A
2F70: DD 7E 09                          LD      A,(IX+09h)
2F73: DD 77 F9                          LD      (IX-07h),A
2F76: DD 6E F8                   L2F76: LD      L,(IX-08h)
2F79: DD 66 F9                          LD      H,(IX-07h)
2F7C: 7E                                LD      A,(HL)
2F7D: DD 77 FF                          LD      (IX-01h),A
2F80: DD 34 F8                          INC     (IX-08h)
2F83: 20 03                             JR      NZ,L2F88
2F85: DD 34 F9                          INC     (IX-07h)
2F88: DD 7E F8                   L2F88: LD      A,(IX-08h)
2F8B: DD 77 08                          LD      (IX+08h),A
2F8E: DD 7E F9                          LD      A,(IX-07h)
2F91: DD 77 09                          LD      (IX+09h),A
2F94: DD 7E FF                          LD      A,(IX-01h)
2F97: D6 25                             SUB     25h     ; '%'
2F99: 20 23                             JR      NZ,L2FBE
2F9B: DD 6E 06                          LD      L,(IX+06h)
2F9E: DD 66 07                          LD      H,(IX+07h)
2FA1: E5                                PUSH    HL
2FA2: DD 7E FF                          LD      A,(IX-01h)
2FA5: F5                                PUSH    AF
2FA6: 33                                INC     SP
2FA7: DD 6E 04                          LD      L,(IX+04h)
2FAA: DD 66 05                          LD      H,(IX+05h)
2FAD: CD AD 3D                          CALL    L3DAD
2FB0: F1                                POP     AF
2FB1: 33                                INC     SP
2FB2: DD 34 FA                          INC     (IX-06h)
2FB5: C2 19 2F                          JP      NZ,L2F19
2FB8: DD 34 FB                          INC     (IX-05h)
2FBB: C3 19 2F                          JP      L2F19

2FBE: DD 7E FF                   L2FBE: LD      A,(IX-01h)
2FC1: D6 30                             SUB     30h     ; '0'
2FC3: 38 73                             JR      C,L3038
2FC5: 3E 39                             LD      A,39h   ; '9'
2FC7: DD 96 FF                          SUB     (IX-01h)
2FCA: 38 6C                             JR      C,L3038
2FCC: DD 7E F5                          LD      A,(IX-0Bh)
2FCF: DD A6 F6                          AND     (IX-0Ah)
2FD2: 3C                                INC     A
2FD3: 20 42                             JR      NZ,L3017
2FD5: DD 4E FC                          LD      C,(IX-04h)
2FD8: DD 46 FD                          LD      B,(IX-03h)
2FDB: 69                                LD      L,C
2FDC: 60                                LD      H,B
2FDD: 29                                ADD     HL,HL
2FDE: 29                                ADD     HL,HL
2FDF: 09                                ADD     HL,BC
2FE0: 29                                ADD     HL,HL
2FE1: DD 75 D3                          LD      (IX-2Dh),L
2FE4: DD 74 D4                          LD      (IX-2Ch),H
2FE7: DD 7E FF                          LD      A,(IX-01h)
2FEA: DD 77 FE                          LD      (IX-02h),A
2FED: AF                                XOR     A
2FEE: DD 77 FF                          LD      (IX-01h),A
2FF1: DD 4E FE                          LD      C,(IX-02h)
2FF4: DD 46 FF                          LD      B,(IX-01h)
2FF7: DD 6E D3                          LD      L,(IX-2Dh)
2FFA: DD 66 D4                          LD      H,(IX-2Ch)
2FFD: 09                                ADD     HL,BC
2FFE: 7D                                LD      A,L
2FFF: C6 D0                             ADD     A,0D0h
3001: DD 77 FC                          LD      (IX-04h),A
3004: 7C                                LD      A,H
3005: CE FF                             ADC     A,0FFh
3007: DD 77 FD                          LD      (IX-03h),A
300A: DD B6 FC                          OR      (IX-04h)
300D: C2 76 2F                          JP      NZ,L2F76
3010: DD 36 ED 01                       LD      (IX-13h),01h
3014: C3 76 2F                          JP      L2F76

3017: DD 4E F5                   L3017: LD      C,(IX-0Bh)
301A: DD 46 F6                          LD      B,(IX-0Ah)
301D: 69                                LD      L,C
301E: 60                                LD      H,B
301F: 29                                ADD     HL,HL
3020: 29                                ADD     HL,HL
3021: 09                                ADD     HL,BC
3022: 29                                ADD     HL,HL
3023: DD 4E FF                          LD      C,(IX-01h)
3026: 06 00                             LD      B,00h
3028: 09                                ADD     HL,BC
3029: 7D                                LD      A,L
302A: C6 D0                             ADD     A,0D0h
302C: DD 77 F5                          LD      (IX-0Bh),A
302F: 7C                                LD      A,H
3030: CE FF                             ADC     A,0FFh
3032: DD 77 F6                          LD      (IX-0Ah),A
3035: C3 76 2F                          JP      L2F76

3038: DD 7E FF                   L3038: LD      A,(IX-01h)
303B: D6 2E                             SUB     2Eh     ; '.'
303D: 20 14                             JR      NZ,L3053
303F: DD 7E F5                          LD      A,(IX-0Bh)
3042: DD A6 F6                          AND     (IX-0Ah)
3045: 3C                                INC     A
3046: C2 76 2F                          JP      NZ,L2F76
3049: AF                                XOR     A
304A: DD 77 F5                          LD      (IX-0Bh),A
304D: DD 77 F6                          LD      (IX-0Ah),A
3050: C3 76 2F                          JP      L2F76

3053: DD 7E FF                   L3053: LD      A,(IX-01h)
3056: D6 61                             SUB     61h     ; 'a'
3058: 38 15                             JR      C,L306F
305A: 3E 7A                             LD      A,7Ah   ; 'z'
305C: DD 96 FF                          SUB     (IX-01h)
305F: 38 0E                             JR      C,L306F
3061: DD 7E FF                          LD      A,(IX-01h)
3064: E6 DF                             AND     0DFh
3066: DD 77 FF                          LD      (IX-01h),A
3069: DD 36 F7 01                       LD      (IX-09h),01h
306D: 18 04                             JR      L3073

306F: AF                         L306F: XOR     A
3070: DD 77 F7                          LD      (IX-09h),A
3073: DD 7E FF                   L3073: LD      A,(IX-01h)
3076: D6 20                             SUB     20h     ; ' '
3078: CA 12 31                          JP      Z,L3112
307B: DD 7E FF                          LD      A,(IX-01h)
307E: D6 2B                             SUB     2Bh     ; '+'
3080: CA 0B 31                          JP      Z,L310B
3083: DD 7E FF                          LD      A,(IX-01h)
3086: D6 2D                             SUB     2Dh     ; '-'
3088: 28 7A                             JR      Z,L3104
308A: DD 7E FF                          LD      A,(IX-01h)
308D: D6 42                             SUB     42h     ; 'B'
308F: CA 19 31                          JP      Z,L3119
3092: DD 7E FF                          LD      A,(IX-01h)
3095: D6 43                             SUB     43h     ; 'C'
3097: CA 27 31                          JP      Z,L3127
309A: DD 7E FF                          LD      A,(IX-01h)
309D: D6 44                             SUB     44h     ; 'D'
309F: CA 85 33                          JP      Z,L3385
30A2: DD 7E FF                          LD      A,(IX-01h)
30A5: D6 46                             SUB     46h     ; 'F'
30A7: CA A1 33                          JP      Z,L33A1
30AA: DD 7E FF                          LD      A,(IX-01h)
30AD: D6 48                             SUB     48h     ; 'H'
30AF: CA 76 2F                          JP      Z,L2F76
30B2: DD 7E FF                          LD      A,(IX-01h)
30B5: D6 49                             SUB     49h     ; 'I'
30B7: CA 85 33                          JP      Z,L3385
30BA: DD 7E FF                          LD      A,(IX-01h)
30BD: D6 4A                             SUB     4Ah     ; 'J'
30BF: CA 76 2F                          JP      Z,L2F76
30C2: DD 7E FF                          LD      A,(IX-01h)
30C5: D6 4C                             SUB     4Ch     ; 'L'
30C7: 28 57                             JR      Z,L3120
30C9: DD 7E FF                          LD      A,(IX-01h)
30CC: D6 4F                             SUB     4Fh     ; 'O'
30CE: CA 8F 33                          JP      Z,L338F
30D1: DD 7E FF                          LD      A,(IX-01h)
30D4: D6 50                             SUB     50h     ; 'P'
30D6: CA DC 32                          JP      Z,L32DC
30D9: DD 7E FF                          LD      A,(IX-01h)
30DC: D6 53                             SUB     53h     ; 'S'
30DE: CA 6F 31                          JP      Z,L316F
30E1: DD 7E FF                          LD      A,(IX-01h)
30E4: D6 54                             SUB     54h     ; 'T'
30E6: CA 76 2F                          JP      Z,L2F76
30E9: DD 7E FF                          LD      A,(IX-01h)
30EC: D6 55                             SUB     55h     ; 'U'
30EE: CA 95 33                          JP      Z,L3395
30F1: DD 7E FF                          LD      A,(IX-01h)
30F4: D6 58                             SUB     58h     ; 'X'
30F6: CA 9B 33                          JP      Z,L339B
30F9: DD 7E FF                          LD      A,(IX-01h)
30FC: D6 5A                             SUB     5Ah     ; 'Z'
30FE: CA 76 2F                          JP      Z,L2F76
3101: C3 A7 33                          JP      L33A7

3104: DD 36 EC 01                L3104: LD      (IX-14h),01h
3108: C3 76 2F                          JP      L2F76

310B: DD 36 EE 01                L310B: LD      (IX-12h),01h
310F: C3 76 2F                          JP      L2F76

3112: DD 36 EF 01                L3112: LD      (IX-11h),01h
3116: C3 76 2F                          JP      L2F76

3119: DD 36 F1 01                L3119: LD      (IX-0Fh),01h
311D: C3 76 2F                          JP      L2F76

3120: DD 36 F2 01                L3120: LD      (IX-0Eh),01h
3124: C3 76 2F                          JP      L2F76

3127: DD CB F1 46                L3127: BIT     0,(IX-0Fh)
312B: 28 11                             JR      Z,L313E
312D: DD 6E 0A                          LD      L,(IX+0Ah)
3130: DD 66 0B                          LD      H,(IX+0Bh)
3133: 23                                INC     HL
3134: DD 75 0A                          LD      (IX+0Ah),L
3137: DD 74 0B                          LD      (IX+0Bh),H
313A: 2B                                DEC     HL
313B: 46                                LD      B,(HL)
313C: 18 11                             JR      L314F

313E: DD 6E 0A                   L313E: LD      L,(IX+0Ah)
3141: DD 66 0B                          LD      H,(IX+0Bh)
3144: 23                                INC     HL
3145: 23                                INC     HL
3146: DD 75 0A                          LD      (IX+0Ah),L
3149: DD 74 0B                          LD      (IX+0Bh),H
314C: 2B                                DEC     HL
314D: 2B                                DEC     HL
314E: 46                                LD      B,(HL)
314F: DD 6E 06                   L314F: LD      L,(IX+06h)
3152: DD 66 07                          LD      H,(IX+07h)
3155: E5                                PUSH    HL
3156: C5                                PUSH    BC
3157: 33                                INC     SP
3158: DD 6E 04                          LD      L,(IX+04h)
315B: DD 66 05                          LD      H,(IX+05h)
315E: CD AD 3D                          CALL    L3DAD
3161: F1                                POP     AF
3162: 33                                INC     SP
3163: DD 34 FA                          INC     (IX-06h)
3166: C2 D4 33                          JP      NZ,L33D4
3169: DD 34 FB                          INC     (IX-05h)
316C: C3 D4 33                          JP      L33D4

316F: 21 08 00                   L316F: LD      HL,0008h
3172: 39                                ADD     HL,SP
3173: DD 75 F8                          LD      (IX-08h),L
3176: DD 74 F9                          LD      (IX-07h),H
3179: DD 6E 0A                          LD      L,(IX+0Ah)
317C: DD 66 0B                          LD      H,(IX+0Bh)
317F: 23                                INC     HL
3180: 23                                INC     HL
3181: DD 75 0A                          LD      (IX+0Ah),L
3184: DD 74 0B                          LD      (IX+0Bh),H
3187: 2B                                DEC     HL
3188: 2B                                DEC     HL
3189: 4E                                LD      C,(HL)
318A: 23                                INC     HL
318B: 46                                LD      B,(HL)
318C: DD 6E F8                          LD      L,(IX-08h)
318F: DD 66 F9                          LD      H,(IX-07h)
3192: 71                                LD      (HL),C
3193: 23                                INC     HL
3194: 70                                LD      (HL),B
3195: C5                                PUSH    BC
3196: CD BF 13                          CALL    L13BF
3199: F1                                POP     AF
319A: 4D                                LD      C,L
319B: 44                                LD      B,H
319C: DD 7E F5                          LD      A,(IX-0Bh)
319F: DD A6 F6                          AND     (IX-0Ah)
31A2: 3C                                INC     A
31A3: 20 06                             JR      NZ,L31AB
31A5: DD 71 F5                          LD      (IX-0Bh),C
31A8: DD 70 F6                          LD      (IX-0Ah),B
31AB: DD CB EC 46                L31AB: BIT     0,(IX-14h)
31AF: 20 67                             JR      NZ,L3218
31B1: 79                                LD      A,C
31B2: DD 96 FC                          SUB     (IX-04h)
31B5: 78                                LD      A,B
31B6: DD 9E FD                          SBC     A,(IX-03h)
31B9: 30 5D                             JR      NC,L3218
31BB: DD 7E FC                          LD      A,(IX-04h)
31BE: 91                                SUB     C
31BF: DD 77 FE                          LD      (IX-02h),A
31C2: DD 7E FD                          LD      A,(IX-03h)
31C5: 98                                SBC     A,B
31C6: DD 77 FF                          LD      (IX-01h),A
31C9: DD 5E FA                          LD      E,(IX-06h)
31CC: DD 56 FB                          LD      D,(IX-05h)
31CF: DD 6E FE                   L31CF: LD      L,(IX-02h)
31D2: DD 66 FF                          LD      H,(IX-01h)
31D5: DD 7E FE                          LD      A,(IX-02h)
31D8: C6 FF                             ADD     A,0FFh
31DA: DD 77 FE                          LD      (IX-02h),A
31DD: DD 7E FF                          LD      A,(IX-01h)
31E0: CE FF                             ADC     A,0FFh
31E2: DD 77 FF                          LD      (IX-01h),A
31E5: 7C                                LD      A,H
31E6: B5                                OR      L
31E7: 28 1D                             JR      Z,L3206
31E9: C5                                PUSH    BC
31EA: D5                                PUSH    DE
31EB: DD 6E 06                          LD      L,(IX+06h)
31EE: DD 66 07                          LD      H,(IX+07h)
31F1: E5                                PUSH    HL
31F2: 3E 20                             LD      A,20h   ; ' '
31F4: F5                                PUSH    AF
31F5: 33                                INC     SP
31F6: DD 6E 04                          LD      L,(IX+04h)
31F9: DD 66 05                          LD      H,(IX+05h)
31FC: CD AD 3D                          CALL    L3DAD
31FF: F1                                POP     AF
3200: 33                                INC     SP
3201: D1                                POP     DE
3202: C1                                POP     BC
3203: 13                                INC     DE
3204: 18 C9                             JR      L31CF

3206: DD 73 FA                   L3206: LD      (IX-06h),E
3209: DD 72 FB                          LD      (IX-05h),D
320C: DD 7E FE                          LD      A,(IX-02h)
320F: DD 77 FC                          LD      (IX-04h),A
3212: DD 7E FF                          LD      A,(IX-01h)
3215: DD 77 FD                          LD      (IX-03h),A
3218: DD 7E F5                   L3218: LD      A,(IX-0Bh)
321B: DD 77 FE                          LD      (IX-02h),A
321E: DD 7E F6                          LD      A,(IX-0Ah)
3221: DD 77 FF                          LD      (IX-01h),A
3224: DD 5E FA                          LD      E,(IX-06h)
3227: DD 56 FB                          LD      D,(IX-05h)
322A: DD 6E F8                   L322A: LD      L,(IX-08h)
322D: DD 66 F9                          LD      H,(IX-07h)
3230: 7E                                LD      A,(HL)
3231: 23                                INC     HL
3232: 66                                LD      H,(HL)
3233: 6F                                LD      L,A
3234: 7E                                LD      A,(HL)
3235: DD 77 FB                          LD      (IX-05h),A
3238: B7                                OR      A
3239: 28 5A                             JR      Z,L3295
323B: AF                                XOR     A
323C: DD BE FE                          CP      (IX-02h)
323F: DD 9E FF                          SBC     A,(IX-01h)
3242: E2 47 32                          JP      PO,L3247
3245: EE 80                             XOR     80h
3247: F2 95 32                   L3247: JP      P,L3295
324A: DD 6E FE                          LD      L,(IX-02h)
324D: DD 66 FF                          LD      H,(IX-01h)
3250: 2B                                DEC     HL
3251: DD 75 FE                          LD      (IX-02h),L
3254: DD 74 FF                          LD      (IX-01h),H
3257: C5                                PUSH    BC
3258: D5                                PUSH    DE
3259: DD 6E 06                          LD      L,(IX+06h)
325C: DD 66 07                          LD      H,(IX+07h)
325F: E5                                PUSH    HL
3260: DD 7E FB                          LD      A,(IX-05h)
3263: F5                                PUSH    AF
3264: 33                                INC     SP
3265: DD 6E 04                          LD      L,(IX+04h)
3268: DD 66 05                          LD      H,(IX+05h)
326B: CD AD 3D                          CALL    L3DAD
326E: F1                                POP     AF
326F: 33                                INC     SP
3270: D1                                POP     DE
3271: C1                                POP     BC
3272: 13                                INC     DE
3273: DD 6E F8                          LD      L,(IX-08h)
3276: DD 66 F9                          LD      H,(IX-07h)
3279: 7E                                LD      A,(HL)
327A: 23                                INC     HL
327B: 66                                LD      H,(HL)
327C: 6F                                LD      L,A
327D: 23                                INC     HL
327E: DD 75 FA                          LD      (IX-06h),L
3281: DD 74 FB                          LD      (IX-05h),H
3284: DD 6E F8                          LD      L,(IX-08h)
3287: DD 66 F9                          LD      H,(IX-07h)
328A: DD 7E FA                          LD      A,(IX-06h)
328D: 77                                LD      (HL),A
328E: 23                                INC     HL
328F: DD 7E FB                          LD      A,(IX-05h)
3292: 77                                LD      (HL),A
3293: 18 95                             JR      L322A

3295: DD 73 FA                   L3295: LD      (IX-06h),E
3298: DD 72 FB                          LD      (IX-05h),D
329B: DD CB EC 46                       BIT     0,(IX-14h)
329F: CA D4 33                          JP      Z,L33D4
32A2: 79                                LD      A,C
32A3: DD 96 FC                          SUB     (IX-04h)
32A6: 78                                LD      A,B
32A7: DD 9E FD                          SBC     A,(IX-03h)
32AA: D2 D4 33                          JP      NC,L33D4
32AD: DD 7E FC                          LD      A,(IX-04h)
32B0: 91                                SUB     C
32B1: 4F                                LD      C,A
32B2: DD 7E FD                          LD      A,(IX-03h)
32B5: 98                                SBC     A,B
32B6: 47                                LD      B,A
32B7: 69                         L32B7: LD      L,C
32B8: 60                                LD      H,B
32B9: 0B                                DEC     BC
32BA: 7C                                LD      A,H
32BB: B5                                OR      L
32BC: CA C8 33                          JP      Z,L33C8
32BF: C5                                PUSH    BC
32C0: D5                                PUSH    DE
32C1: DD 6E 06                          LD      L,(IX+06h)
32C4: DD 66 07                          LD      H,(IX+07h)
32C7: E5                                PUSH    HL
32C8: 3E 20                             LD      A,20h   ; ' '
32CA: F5                                PUSH    AF
32CB: 33                                INC     SP
32CC: DD 6E 04                          LD      L,(IX+04h)
32CF: DD 66 05                          LD      H,(IX+05h)
32D2: CD AD 3D                          CALL    L3DAD
32D5: F1                                POP     AF
32D6: 33                                INC     SP
32D7: D1                                POP     DE
32D8: C1                                POP     BC
32D9: 13                                INC     DE
32DA: 18 DB                             JR      L32B7

32DC: 21 08 00                   L32DC: LD      HL,0008h
32DF: 39                                ADD     HL,SP
32E0: EB                                EX      DE,HL
32E1: DD 6E 0A                          LD      L,(IX+0Ah)
32E4: DD 66 0B                          LD      H,(IX+0Bh)
32E7: 23                                INC     HL
32E8: 23                                INC     HL
32E9: DD 75 0A                          LD      (IX+0Ah),L
32EC: DD 74 0B                          LD      (IX+0Bh),H
32EF: 2B                                DEC     HL
32F0: 2B                                DEC     HL
32F1: 4E                                LD      C,(HL)
32F2: 23                                INC     HL
32F3: 46                                LD      B,(HL)
32F4: 79                                LD      A,C
32F5: 12                                LD      (DE),A
32F6: 13                                INC     DE
32F7: 78                                LD      A,B
32F8: 12                                LD      (DE),A
32F9: DD 6E 06                          LD      L,(IX+06h)
32FC: DD 66 07                          LD      H,(IX+07h)
32FF: E5                                PUSH    HL
3300: 3E 30                             LD      A,30h   ; '0'
3302: F5                                PUSH    AF
3303: 33                                INC     SP
3304: DD 6E 04                          LD      L,(IX+04h)
3307: DD 66 05                          LD      H,(IX+05h)
330A: CD AD 3D                          CALL    L3DAD
330D: F1                                POP     AF
330E: 33                                INC     SP
330F: DD 4E FA                          LD      C,(IX-06h)
3312: DD 46 FB                          LD      B,(IX-05h)
3315: 03                                INC     BC
3316: C5                                PUSH    BC
3317: DD 6E 06                          LD      L,(IX+06h)
331A: DD 66 07                          LD      H,(IX+07h)
331D: E5                                PUSH    HL
331E: 3E 78                             LD      A,78h   ; 'x'
3320: F5                                PUSH    AF
3321: 33                                INC     SP
3322: DD 6E 04                          LD      L,(IX+04h)
3325: DD 66 05                          LD      H,(IX+05h)
3328: CD AD 3D                          CALL    L3DAD
332B: F1                                POP     AF
332C: 33                                INC     SP
332D: C1                                POP     BC
332E: 03                                INC     BC
332F: 21 09 00                          LD      HL,0009h
3332: 39                                ADD     HL,SP
3333: 56                                LD      D,(HL)
3334: C5                                PUSH    BC
3335: DD 6E 06                          LD      L,(IX+06h)
3338: DD 66 07                          LD      H,(IX+07h)
333B: E5                                PUSH    HL
333C: DD 6E 04                          LD      L,(IX+04h)
333F: DD 66 05                          LD      H,(IX+05h)
3342: E5                                PUSH    HL
3343: DD 7E F7                          LD      A,(IX-09h)
3346: F5                                PUSH    AF
3347: 33                                INC     SP
3348: D5                                PUSH    DE
3349: 33                                INC     SP
334A: CD D9 2D                          CALL    L2DD9
334D: 21 06 00                          LD      HL,0006h
3350: 39                                ADD     HL,SP
3351: F9                                LD      SP,HL
3352: C1                                POP     BC
3353: 03                                INC     BC
3354: 03                                INC     BC
3355: DD 6E E0                          LD      L,(IX-20h)
3358: DD 66 E1                          LD      H,(IX-1Fh)
335B: 56                                LD      D,(HL)
335C: C5                                PUSH    BC
335D: DD 6E 06                          LD      L,(IX+06h)
3360: DD 66 07                          LD      H,(IX+07h)
3363: E5                                PUSH    HL
3364: DD 6E 04                          LD      L,(IX+04h)
3367: DD 66 05                          LD      H,(IX+05h)
336A: E5                                PUSH    HL
336B: DD 7E F7                          LD      A,(IX-09h)
336E: F5                                PUSH    AF
336F: 33                                INC     SP
3370: D5                                PUSH    DE
3371: 33                                INC     SP
3372: CD D9 2D                          CALL    L2DD9
3375: 21 06 00                          LD      HL,0006h
3378: 39                                ADD     HL,SP
3379: F9                                LD      SP,HL
337A: C1                                POP     BC
337B: 03                                INC     BC
337C: 03                                INC     BC
337D: DD 71 FA                          LD      (IX-06h),C
3380: DD 70 FB                          LD      (IX-05h),B
3383: 18 4F                             JR      L33D4

3385: DD 36 F0 01                L3385: LD      (IX-10h),01h
3389: DD 36 F4 0A                       LD      (IX-0Ch),0Ah
338D: 18 45                             JR      L33D4

338F: DD 36 F4 08                L338F: LD      (IX-0Ch),08h
3393: 18 3F                             JR      L33D4

3395: DD 36 F4 0A                L3395: LD      (IX-0Ch),0Ah
3399: 18 39                             JR      L33D4

339B: DD 36 F4 10                L339B: LD      (IX-0Ch),10h
339F: 18 33                             JR      L33D4

33A1: DD 36 F3 01                L33A1: LD      (IX-0Dh),01h
33A5: 18 2D                             JR      L33D4

33A7: DD 6E 06                   L33A7: LD      L,(IX+06h)
33AA: DD 66 07                          LD      H,(IX+07h)
33AD: E5                                PUSH    HL
33AE: DD 7E FF                          LD      A,(IX-01h)
33B1: F5                                PUSH    AF
33B2: 33                                INC     SP
33B3: DD 6E 04                          LD      L,(IX+04h)
33B6: DD 66 05                          LD      H,(IX+05h)
33B9: CD AD 3D                          CALL    L3DAD
33BC: F1                                POP     AF
33BD: 33                                INC     SP
33BE: DD 34 FA                          INC     (IX-06h)
33C1: 20 11                             JR      NZ,L33D4
33C3: DD 34 FB                          INC     (IX-05h)
33C6: 18 0C                             JR      L33D4

33C8: DD 73 FA                   L33C8: LD      (IX-06h),E
33CB: DD 72 FB                          LD      (IX-05h),D
33CE: DD 71 FC                          LD      (IX-04h),C
33D1: DD 70 FD                          LD      (IX-03h),B
33D4: DD CB F3 46                L33D4: BIT     0,(IX-0Dh)
33D8: CA 90 34                          JP      Z,L3490
33DB: 21 08 00                          LD      HL,0008h
33DE: 39                                ADD     HL,SP
33DF: DD 75 F8                          LD      (IX-08h),L
33E2: DD 74 F9                          LD      (IX-07h),H
33E5: DD 7E 0A                          LD      A,(IX+0Ah)
33E8: C6 04                             ADD     A,04h
33EA: DD 77 FC                          LD      (IX-04h),A
33ED: DD 7E 0B                          LD      A,(IX+0Bh)
33F0: CE 00                             ADC     A,00h
33F2: DD 77 FD                          LD      (IX-03h),A
33F5: DD 7E FC                          LD      A,(IX-04h)
33F8: DD 77 0A                          LD      (IX+0Ah),A
33FB: DD 7E FD                          LD      A,(IX-03h)
33FE: DD 77 0B                          LD      (IX+0Bh),A
3401: DD 7E FC                          LD      A,(IX-04h)
3404: C6 FC                             ADD     A,0FCh
3406: DD 77 FE                          LD      (IX-02h),A
3409: DD 7E FD                          LD      A,(IX-03h)
340C: CE FF                             ADC     A,0FFh
340E: DD 77 FF                          LD      (IX-01h),A
3411: DD 5E FE                          LD      E,(IX-02h)
3414: DD 56 FF                          LD      D,(IX-01h)
3417: 21 2F 00                          LD      HL,002Fh
341A: 39                                ADD     HL,SP
341B: EB                                EX      DE,HL
341C: 01 04 00                          LD      BC,0004h
341F: ED B0                             LDIR
3421: DD 5E F8                          LD      E,(IX-08h)
3424: DD 56 F9                          LD      D,(IX-07h)
3427: 21 2F 00                          LD      HL,002Fh
342A: 39                                ADD     HL,SP
342B: 01 04 00                          LD      BC,0004h
342E: ED B0                             LDIR
3430: 21 08 00                          LD      HL,0008h
3433: 39                                ADD     HL,SP
3434: DD 75 FC                          LD      (IX-04h),L
3437: DD 74 FD                          LD      (IX-03h),H
343A: 36 24                             LD      (HL),24h        ; '$'
343C: 23                                INC     HL
343D: 36 3A                             LD      (HL),3Ah        ; ':'
343F: DD 7E FA                          LD      A,(IX-06h)
3442: DD 77 FE                          LD      (IX-02h),A
3445: DD 7E FB                          LD      A,(IX-05h)
3448: DD 77 FF                          LD      (IX-01h),A
344B: DD 6E FC                   L344B: LD      L,(IX-04h)
344E: DD 66 FD                          LD      H,(IX-03h)
3451: 4E                                LD      C,(HL)
3452: 23                                INC     HL
3453: 46                                LD      B,(HL)
3454: 59                                LD      E,C
3455: 50                                LD      D,B
3456: 13                                INC     DE
3457: DD 6E FC                          LD      L,(IX-04h)
345A: DD 66 FD                          LD      H,(IX-03h)
345D: 73                                LD      (HL),E
345E: 23                                INC     HL
345F: 72                                LD      (HL),D
3460: 0A                                LD      A,(BC)
3461: 47                                LD      B,A
3462: B7                                OR      A
3463: CA 19 2F                          JP      Z,L2F19
3466: DD 6E 06                          LD      L,(IX+06h)
3469: DD 66 07                          LD      H,(IX+07h)
346C: E5                                PUSH    HL
346D: C5                                PUSH    BC
346E: 33                                INC     SP
346F: DD 6E 04                          LD      L,(IX+04h)
3472: DD 66 05                          LD      H,(IX+05h)
3475: CD AD 3D                          CALL    L3DAD
3478: F1                                POP     AF
3479: 33                                INC     SP
347A: DD 34 FE                          INC     (IX-02h)
347D: 20 03                             JR      NZ,L3482
347F: DD 34 FF                          INC     (IX-01h)
3482: DD 7E FE                   L3482: LD      A,(IX-02h)
3485: DD 77 FA                          LD      (IX-06h),A
3488: DD 7E FF                          LD      A,(IX-01h)
348B: DD 77 FB                          LD      (IX-05h),A
348E: 18 BB                             JR      L344B

3490: DD 7E F4                   L3490: LD      A,(IX-0Ch)
3493: B7                                OR      A
3494: CA 19 2F                          JP      Z,L2F19
3497: DD 7E E2                          LD      A,(IX-1Eh)
349A: DD 77 F8                          LD      (IX-08h),A
349D: DD 7E E3                          LD      A,(IX-1Dh)
34A0: DD 77 F9                          LD      (IX-07h),A
34A3: DD CB F1 46                       BIT     0,(IX-0Fh)
34A7: CA 32 35                          JP      Z,L3532
34AA: 21 08 00                          LD      HL,0008h
34AD: 39                                ADD     HL,SP
34AE: DD 75 FE                          LD      (IX-02h),L
34B1: DD 74 FF                          LD      (IX-01h),H
34B4: DD 7E 0A                          LD      A,(IX+0Ah)
34B7: C6 01                             ADD     A,01h
34B9: DD 77 F5                          LD      (IX-0Bh),A
34BC: DD 7E 0B                          LD      A,(IX+0Bh)
34BF: CE 00                             ADC     A,00h
34C1: DD 77 F6                          LD      (IX-0Ah),A
34C4: DD 7E F5                          LD      A,(IX-0Bh)
34C7: DD 77 0A                          LD      (IX+0Ah),A
34CA: DD 7E F6                          LD      A,(IX-0Ah)
34CD: DD 77 0B                          LD      (IX+0Bh),A
34D0: DD 6E F5                          LD      L,(IX-0Bh)
34D3: DD 66 F6                          LD      H,(IX-0Ah)
34D6: 2B                                DEC     HL
34D7: 7E                                LD      A,(HL)
34D8: DD 77 F6                          LD      (IX-0Ah),A
34DB: DD 77 D1                          LD      (IX-2Fh),A
34DE: AF                                XOR     A
34DF: DD 77 D2                          LD      (IX-2Eh),A
34E2: DD 77 D3                          LD      (IX-2Dh),A
34E5: DD 77 D4                          LD      (IX-2Ch),A
34E8: DD 5E FE                          LD      E,(IX-02h)
34EB: DD 56 FF                          LD      D,(IX-01h)
34EE: 21 04 00                          LD      HL,0004h
34F1: 39                                ADD     HL,SP
34F2: 01 04 00                          LD      BC,0004h
34F5: ED B0                             LDIR
34F7: DD CB F0 46                       BIT     0,(IX-10h)
34FB: C2 31 36                          JP      NZ,L3631
34FE: DD 5E FE                          LD      E,(IX-02h)
3501: DD 56 FF                          LD      D,(IX-01h)
3504: 21 00 00                          LD      HL,0000h
3507: 39                                ADD     HL,SP
3508: EB                                EX      DE,HL
3509: 01 04 00                          LD      BC,0004h
350C: ED B0                             LDIR
350E: DD 7E CD                          LD      A,(IX-33h)
3511: DD 77 D1                          LD      (IX-2Fh),A
3514: DD 36 D2 00                       LD      (IX-2Eh),00h
3518: DD 36 D3 00                       LD      (IX-2Dh),00h
351C: DD 36 D4 00                       LD      (IX-2Ch),00h
3520: DD 5E FE                          LD      E,(IX-02h)
3523: DD 56 FF                          LD      D,(IX-01h)
3526: 21 04 00                          LD      HL,0004h
3529: 39                                ADD     HL,SP
352A: 01 04 00                          LD      BC,0004h
352D: ED B0                             LDIR
352F: C3 31 36                          JP      L3631

3532: DD CB F2 46                L3532: BIT     0,(IX-0Eh)
3536: 28 58                             JR      Z,L3590
3538: 21 08 00                          LD      HL,0008h
353B: 39                                ADD     HL,SP
353C: DD 75 F5                          LD      (IX-0Bh),L
353F: DD 74 F6                          LD      (IX-0Ah),H
3542: DD 7E 0A                          LD      A,(IX+0Ah)
3545: C6 04                             ADD     A,04h
3547: DD 77 F2                          LD      (IX-0Eh),A
354A: DD 7E 0B                          LD      A,(IX+0Bh)
354D: CE 00                             ADC     A,00h
354F: DD 77 F3                          LD      (IX-0Dh),A
3552: DD 7E F2                          LD      A,(IX-0Eh)
3555: DD 77 0A                          LD      (IX+0Ah),A
3558: DD 7E F3                          LD      A,(IX-0Dh)
355B: DD 77 0B                          LD      (IX+0Bh),A
355E: DD 7E F2                          LD      A,(IX-0Eh)
3561: C6 FC                             ADD     A,0FCh
3563: DD 77 FE                          LD      (IX-02h),A
3566: DD 7E F3                          LD      A,(IX-0Dh)
3569: CE FF                             ADC     A,0FFh
356B: DD 77 FF                          LD      (IX-01h),A
356E: DD 5E FE                          LD      E,(IX-02h)
3571: DD 56 FF                          LD      D,(IX-01h)
3574: 21 04 00                          LD      HL,0004h
3577: 39                                ADD     HL,SP
3578: EB                                EX      DE,HL
3579: 01 04 00                          LD      BC,0004h
357C: ED B0                             LDIR
357E: DD 5E F5                          LD      E,(IX-0Bh)
3581: DD 56 F6                          LD      D,(IX-0Ah)
3584: 21 04 00                          LD      HL,0004h
3587: 39                                ADD     HL,SP
3588: 01 04 00                          LD      BC,0004h
358B: ED B0                             LDIR
358D: C3 31 36                          JP      L3631

3590: 21 08 00                   L3590: LD      HL,0008h
3593: 39                                ADD     HL,SP
3594: DD 75 FE                          LD      (IX-02h),L
3597: DD 74 FF                          LD      (IX-01h),H
359A: DD 7E 0A                          LD      A,(IX+0Ah)
359D: C6 02                             ADD     A,02h
359F: DD 77 F2                          LD      (IX-0Eh),A
35A2: DD 7E 0B                          LD      A,(IX+0Bh)
35A5: CE 00                             ADC     A,00h
35A7: DD 77 F3                          LD      (IX-0Dh),A
35AA: DD 7E F2                          LD      A,(IX-0Eh)
35AD: DD 77 0A                          LD      (IX+0Ah),A
35B0: DD 7E F3                          LD      A,(IX-0Dh)
35B3: DD 77 0B                          LD      (IX+0Bh),A
35B6: DD 7E F2                          LD      A,(IX-0Eh)
35B9: C6 FE                             ADD     A,0FEh
35BB: DD 77 F5                          LD      (IX-0Bh),A
35BE: DD 7E F3                          LD      A,(IX-0Dh)
35C1: CE FF                             ADC     A,0FFh
35C3: DD 77 F6                          LD      (IX-0Ah),A
35C6: DD 6E F5                          LD      L,(IX-0Bh)
35C9: DD 66 F6                          LD      H,(IX-0Ah)
35CC: 7E                                LD      A,(HL)
35CD: DD 77 F5                          LD      (IX-0Bh),A
35D0: 23                                INC     HL
35D1: 7E                                LD      A,(HL)
35D2: DD 77 F6                          LD      (IX-0Ah),A
35D5: DD 7E F5                          LD      A,(IX-0Bh)
35D8: DD 77 D1                          LD      (IX-2Fh),A
35DB: DD 7E F6                          LD      A,(IX-0Ah)
35DE: DD 77 D2                          LD      (IX-2Eh),A
35E1: 17                                RLA
35E2: 9F                                SBC     A,A
35E3: DD 77 D3                          LD      (IX-2Dh),A
35E6: DD 77 D4                          LD      (IX-2Ch),A
35E9: DD 5E FE                          LD      E,(IX-02h)
35EC: DD 56 FF                          LD      D,(IX-01h)
35EF: 21 04 00                          LD      HL,0004h
35F2: 39                                ADD     HL,SP
35F3: 01 04 00                          LD      BC,0004h
35F6: ED B0                             LDIR
35F8: DD CB F0 46                       BIT     0,(IX-10h)
35FC: 20 33                             JR      NZ,L3631
35FE: DD 5E FE                          LD      E,(IX-02h)
3601: DD 56 FF                          LD      D,(IX-01h)
3604: 21 00 00                          LD      HL,0000h
3607: 39                                ADD     HL,SP
3608: EB                                EX      DE,HL
3609: 01 04 00                          LD      BC,0004h
360C: ED B0                             LDIR
360E: DD 7E CD                          LD      A,(IX-33h)
3611: DD 77 D1                          LD      (IX-2Fh),A
3614: DD 7E CE                          LD      A,(IX-32h)
3617: DD 77 D2                          LD      (IX-2Eh),A
361A: DD 36 D3 00                       LD      (IX-2Dh),00h
361E: DD 36 D4 00                       LD      (IX-2Ch),00h
3622: DD 5E FE                          LD      E,(IX-02h)
3625: DD 56 FF                          LD      D,(IX-01h)
3628: 21 04 00                          LD      HL,0004h
362B: 39                                ADD     HL,SP
362C: 01 04 00                          LD      BC,0004h
362F: ED B0                             LDIR
3631: DD CB F0 46                L3631: BIT     0,(IX-10h)
3635: 28 5F                             JR      Z,L3696
3637: 21 08 00                          LD      HL,0008h
363A: 39                                ADD     HL,SP
363B: DD 75 FE                          LD      (IX-02h),L
363E: DD 74 FF                          LD      (IX-01h),H
3641: EB                                EX      DE,HL
3642: 21 04 00                          LD      HL,0004h
3645: 39                                ADD     HL,SP
3646: EB                                EX      DE,HL
3647: 01 04 00                          LD      BC,0004h
364A: ED B0                             LDIR
364C: DD CB D4 7E                       BIT     7,(IX-2Ch)
3650: 28 40                             JR      Z,L3692
3652: DD 5E FE                          LD      E,(IX-02h)
3655: DD 56 FF                          LD      D,(IX-01h)
3658: 21 00 00                          LD      HL,0000h
365B: 39                                ADD     HL,SP
365C: EB                                EX      DE,HL
365D: 01 04 00                          LD      BC,0004h
3660: ED B0                             LDIR
3662: AF                                XOR     A
3663: DD 96 CD                          SUB     (IX-33h)
3666: DD 77 D1                          LD      (IX-2Fh),A
3669: 3E 00                             LD      A,00h
366B: DD 9E CE                          SBC     A,(IX-32h)
366E: DD 77 D2                          LD      (IX-2Eh),A
3671: 3E 00                             LD      A,00h
3673: DD 9E CF                          SBC     A,(IX-31h)
3676: DD 77 D3                          LD      (IX-2Dh),A
3679: 3E 00                             LD      A,00h
367B: DD 9E D0                          SBC     A,(IX-30h)
367E: DD 77 D4                          LD      (IX-2Ch),A
3681: DD 5E FE                          LD      E,(IX-02h)
3684: DD 56 FF                          LD      D,(IX-01h)
3687: 21 04 00                          LD      HL,0004h
368A: 39                                ADD     HL,SP
368B: 01 04 00                          LD      BC,0004h
368E: ED B0                             LDIR
3690: 18 04                             JR      L3696

3692: AF                         L3692: XOR     A
3693: DD 77 F0                          LD      (IX-10h),A
3696: DD 36 FF 01                L3696: LD      (IX-01h),01h
369A: DD 4E F8                          LD      C,(IX-08h)
369D: DD 46 F9                          LD      B,(IX-07h)
36A0: AF                                XOR     A
36A1: DD 77 F8                          LD      (IX-08h),A
36A4: DD 77 F9                          LD      (IX-07h),A
36A7: 21 0C 00                   L36A7: LD      HL,000Ch
36AA: 39                                ADD     HL,SP
36AB: 36 00                             LD      (HL),00h
36AD: DD 5E E4                          LD      E,(IX-1Ch)
36B0: DD 56 E5                          LD      D,(IX-1Bh)
36B3: C5                                PUSH    BC
36B4: DD 7E F4                          LD      A,(IX-0Ch)
36B7: F5                                PUSH    AF
36B8: 33                                INC     SP
36B9: D5                                PUSH    DE
36BA: CD 2F 2E                          CALL    L2E2F
36BD: F1                                POP     AF
36BE: 33                                INC     SP
36BF: C1                                POP     BC
36C0: DD CB FF 46                       BIT     0,(IX-01h)
36C4: 20 21                             JR      NZ,L36E7
36C6: DD 6E E8                          LD      L,(IX-18h)
36C9: DD 66 E9                          LD      H,(IX-17h)
36CC: 7E                                LD      A,(HL)
36CD: 87                                ADD     A,A
36CE: 87                                ADD     A,A
36CF: 87                                ADD     A,A
36D0: 87                                ADD     A,A
36D1: 5F                                LD      E,A
36D2: DD 6E E8                          LD      L,(IX-18h)
36D5: DD 66 E9                          LD      H,(IX-17h)
36D8: 7E                                LD      A,(HL)
36D9: 07                                RLCA
36DA: 07                                RLCA
36DB: 07                                RLCA
36DC: 07                                RLCA
36DD: E6 0F                             AND     0Fh
36DF: B3                                OR      E
36E0: 5F                                LD      E,A
36E1: 0A                                LD      A,(BC)
36E2: B3                                OR      E
36E3: 02                                LD      (BC),A
36E4: 0B                                DEC     BC
36E5: 18 08                             JR      L36EF

36E7: DD 6E E6                   L36E7: LD      L,(IX-1Ah)
36EA: DD 66 E7                          LD      H,(IX-19h)
36ED: 7E                                LD      A,(HL)
36EE: 02                                LD      (BC),A
36EF: DD 34 F8                   L36EF: INC     (IX-08h)
36F2: 20 03                             JR      NZ,L36F7
36F4: DD 34 F9                          INC     (IX-07h)
36F7: DD 7E FF                   L36F7: LD      A,(IX-01h)
36FA: EE 01                             XOR     01h
36FC: DD 77 FF                          LD      (IX-01h),A
36FF: DD 6E E4                          LD      L,(IX-1Ch)
3702: DD 66 E5                          LD      H,(IX-1Bh)
3705: 5E                                LD      E,(HL)
3706: 23                                INC     HL
3707: 56                                LD      D,(HL)
3708: 23                                INC     HL
3709: 23                                INC     HL
370A: 7E                                LD      A,(HL)
370B: 2B                                DEC     HL
370C: 6E                                LD      L,(HL)
370D: B5                                OR      L
370E: B2                                OR      D
370F: B3                                OR      E
3710: 20 95                             JR      NZ,L36A7
3712: DD 71 F3                          LD      (IX-0Dh),C
3715: DD 70 F4                          LD      (IX-0Ch),B
3718: DD 7E F8                          LD      A,(IX-08h)
371B: DD 77 F5                          LD      (IX-0Bh),A
371E: DD 7E F9                          LD      A,(IX-07h)
3721: DD 77 F6                          LD      (IX-0Ah),A
3724: DD 7E FD                          LD      A,(IX-03h)
3727: DD B6 FC                          OR      (IX-04h)
372A: 20 08                             JR      NZ,L3734
372C: DD 36 FC 01                       LD      (IX-04h),01h
3730: AF                                XOR     A
3731: DD 77 FD                          LD      (IX-03h),A
3734: DD CB ED 46                L3734: BIT     0,(IX-13h)
3738: 20 6C                             JR      NZ,L37A6
373A: DD CB EC 46                       BIT     0,(IX-14h)
373E: 20 66                             JR      NZ,L37A6
3740: DD 7E FC                          LD      A,(IX-04h)
3743: DD 77 F8                          LD      (IX-08h),A
3746: DD 7E FD                          LD      A,(IX-03h)
3749: DD 77 F9                          LD      (IX-07h),A
374C: DD 7E F5                   L374C: LD      A,(IX-0Bh)
374F: DD 77 FE                          LD      (IX-02h),A
3752: DD 34 FE                          INC     (IX-02h)
3755: DD 7E FE                          LD      A,(IX-02h)
3758: DD 77 FD                          LD      (IX-03h),A
375B: AF                                XOR     A
375C: DD 77 FE                          LD      (IX-02h),A
375F: DD 7E FD                          LD      A,(IX-03h)
3762: DD 96 F8                          SUB     (IX-08h)
3765: DD 7E FE                          LD      A,(IX-02h)
3768: DD 9E F9                          SBC     A,(IX-07h)
376B: 30 2D                             JR      NC,L379A
376D: DD 6E 06                          LD      L,(IX+06h)
3770: DD 66 07                          LD      H,(IX+07h)
3773: E5                                PUSH    HL
3774: 3E 20                             LD      A,20h   ; ' '
3776: F5                                PUSH    AF
3777: 33                                INC     SP
3778: DD 6E 04                          LD      L,(IX+04h)
377B: DD 66 05                          LD      H,(IX+05h)
377E: CD AD 3D                          CALL    L3DAD
3781: F1                                POP     AF
3782: 33                                INC     SP
3783: DD 34 FA                          INC     (IX-06h)
3786: 20 03                             JR      NZ,L378B
3788: DD 34 FB                          INC     (IX-05h)
378B: DD 6E F8                   L378B: LD      L,(IX-08h)
378E: DD 66 F9                          LD      H,(IX-07h)
3791: 2B                                DEC     HL
3792: DD 75 F8                          LD      (IX-08h),L
3795: DD 74 F9                          LD      (IX-07h),H
3798: 18 B2                             JR      L374C

379A: DD 7E F8                   L379A: LD      A,(IX-08h)
379D: DD 77 FC                          LD      (IX-04h),A
37A0: DD 7E F9                          LD      A,(IX-07h)
37A3: DD 77 FD                          LD      (IX-03h),A
37A6: DD CB F0 46                L37A6: BIT     0,(IX-10h)
37AA: 28 2D                             JR      Z,L37D9
37AC: DD 6E 06                          LD      L,(IX+06h)
37AF: DD 66 07                          LD      H,(IX+07h)
37B2: E5                                PUSH    HL
37B3: 3E 2D                             LD      A,2Dh   ; '-'
37B5: F5                                PUSH    AF
37B6: 33                                INC     SP
37B7: DD 6E 04                          LD      L,(IX+04h)
37BA: DD 66 05                          LD      H,(IX+05h)
37BD: CD AD 3D                          CALL    L3DAD
37C0: F1                                POP     AF
37C1: 33                                INC     SP
37C2: DD 34 FA                          INC     (IX-06h)
37C5: 20 03                             JR      NZ,L37CA
37C7: DD 34 FB                          INC     (IX-05h)
37CA: DD 6E FC                   L37CA: LD      L,(IX-04h)
37CD: DD 66 FD                          LD      H,(IX-03h)
37D0: 2B                                DEC     HL
37D1: DD 75 FC                          LD      (IX-04h),L
37D4: DD 74 FD                          LD      (IX-03h),H
37D7: 18 6C                             JR      L3845

37D9: DD 7E F6                   L37D9: LD      A,(IX-0Ah)
37DC: DD B6 F5                          OR      (IX-0Bh)
37DF: 28 64                             JR      Z,L3845
37E1: DD CB EE 46                       BIT     0,(IX-12h)
37E5: 28 2D                             JR      Z,L3814
37E7: DD 6E 06                          LD      L,(IX+06h)
37EA: DD 66 07                          LD      H,(IX+07h)
37ED: E5                                PUSH    HL
37EE: 3E 2B                             LD      A,2Bh   ; '+'
37F0: F5                                PUSH    AF
37F1: 33                                INC     SP
37F2: DD 6E 04                          LD      L,(IX+04h)
37F5: DD 66 05                          LD      H,(IX+05h)
37F8: CD AD 3D                          CALL    L3DAD
37FB: F1                                POP     AF
37FC: 33                                INC     SP
37FD: DD 34 FA                          INC     (IX-06h)
3800: 20 03                             JR      NZ,L3805
3802: DD 34 FB                          INC     (IX-05h)
3805: DD 6E FC                   L3805: LD      L,(IX-04h)
3808: DD 66 FD                          LD      H,(IX-03h)
380B: 2B                                DEC     HL
380C: DD 75 FC                          LD      (IX-04h),L
380F: DD 74 FD                          LD      (IX-03h),H
3812: 18 31                             JR      L3845

3814: DD CB EF 46                L3814: BIT     0,(IX-11h)
3818: 28 2B                             JR      Z,L3845
381A: DD 6E 06                          LD      L,(IX+06h)
381D: DD 66 07                          LD      H,(IX+07h)
3820: E5                                PUSH    HL
3821: 3E 20                             LD      A,20h   ; ' '
3823: F5                                PUSH    AF
3824: 33                                INC     SP
3825: DD 6E 04                          LD      L,(IX+04h)
3828: DD 66 05                          LD      H,(IX+05h)
382B: CD AD 3D                          CALL    L3DAD
382E: F1                                POP     AF
382F: 33                                INC     SP
3830: DD 34 FA                          INC     (IX-06h)
3833: 20 03                             JR      NZ,L3838
3835: DD 34 FB                          INC     (IX-05h)
3838: DD 6E FC                   L3838: LD      L,(IX-04h)
383B: DD 66 FD                          LD      H,(IX-03h)
383E: 2B                                DEC     HL
383F: DD 75 FC                          LD      (IX-04h),L
3842: DD 74 FD                          LD      (IX-03h),H
3845: DD CB EC 46                L3845: BIT     0,(IX-14h)
3849: 20 62                             JR      NZ,L38AD
384B: DD 7E FC                          LD      A,(IX-04h)
384E: DD 77 F8                          LD      (IX-08h),A
3851: DD 7E FD                          LD      A,(IX-03h)
3854: DD 77 F9                          LD      (IX-07h),A
3857: DD 4E F8                   L3857: LD      C,(IX-08h)
385A: DD 46 F9                          LD      B,(IX-07h)
385D: DD 6E F8                          LD      L,(IX-08h)
3860: DD 66 F9                          LD      H,(IX-07h)
3863: 2B                                DEC     HL
3864: DD 75 F8                          LD      (IX-08h),L
3867: DD 74 F9                          LD      (IX-07h),H
386A: DD 7E F5                          LD      A,(IX-0Bh)
386D: 91                                SUB     C
386E: DD 7E F6                          LD      A,(IX-0Ah)
3871: 98                                SBC     A,B
3872: 30 62                             JR      NC,L38D6
3874: DD CB ED 46                       BIT     0,(IX-13h)
3878: 28 0A                             JR      Z,L3884
387A: DD 36 FD 30                       LD      (IX-03h),30h    ; '0'
387E: AF                                XOR     A
387F: DD 77 FE                          LD      (IX-02h),A
3882: 18 08                             JR      L388C

3884: DD 36 FD 20                L3884: LD      (IX-03h),20h    ; ' '
3888: AF                                XOR     A
3889: DD 77 FE                          LD      (IX-02h),A
388C: DD 46 FD                   L388C: LD      B,(IX-03h)
388F: DD 6E 06                          LD      L,(IX+06h)
3892: DD 66 07                          LD      H,(IX+07h)
3895: E5                                PUSH    HL
3896: C5                                PUSH    BC
3897: 33                                INC     SP
3898: DD 6E 04                          LD      L,(IX+04h)
389B: DD 66 05                          LD      H,(IX+05h)
389E: CD AD 3D                          CALL    L3DAD
38A1: F1                                POP     AF
38A2: 33                                INC     SP
38A3: DD 34 FA                          INC     (IX-06h)
38A6: 20 AF                             JR      NZ,L3857
38A8: DD 34 FB                          INC     (IX-05h)
38AB: 18 AA                             JR      L3857

38AD: DD 7E F5                   L38AD: LD      A,(IX-0Bh)
38B0: DD 96 FC                          SUB     (IX-04h)
38B3: DD 7E F6                          LD      A,(IX-0Ah)
38B6: DD 9E FD                          SBC     A,(IX-03h)
38B9: 30 14                             JR      NC,L38CF
38BB: DD 7E FC                          LD      A,(IX-04h)
38BE: DD 96 F5                          SUB     (IX-0Bh)
38C1: DD 77 F8                          LD      (IX-08h),A
38C4: DD 7E FD                          LD      A,(IX-03h)
38C7: DD 9E F6                          SBC     A,(IX-0Ah)
38CA: DD 77 F9                          LD      (IX-07h),A
38CD: 18 07                             JR      L38D6

38CF: AF                         L38CF: XOR     A
38D0: DD 77 F8                          LD      (IX-08h),A
38D3: DD 77 F9                          LD      (IX-07h),A
38D6: DD 7E F3                   L38D6: LD      A,(IX-0Dh)
38D9: DD 77 FD                          LD      (IX-03h),A
38DC: DD 7E F4                          LD      A,(IX-0Ch)
38DF: DD 77 FE                          LD      (IX-02h),A
38E2: DD 7E FA                          LD      A,(IX-06h)
38E5: DD 77 F3                          LD      (IX-0Dh),A
38E8: DD 7E FB                          LD      A,(IX-05h)
38EB: DD 77 F4                          LD      (IX-0Ch),A
38EE: DD 7E F5                          LD      A,(IX-0Bh)
38F1: DD 77 FB                          LD      (IX-05h),A
38F4: DD 7E F6                          LD      A,(IX-0Ah)
38F7: DD 77 FC                          LD      (IX-04h),A
38FA: DD 7E FB                   L38FA: LD      A,(IX-05h)
38FD: DD 77 F5                          LD      (IX-0Bh),A
3900: DD 7E FC                          LD      A,(IX-04h)
3903: DD 77 F6                          LD      (IX-0Ah),A
3906: DD 6E FB                          LD      L,(IX-05h)
3909: DD 66 FC                          LD      H,(IX-04h)
390C: 2B                                DEC     HL
390D: DD 75 FB                          LD      (IX-05h),L
3910: DD 74 FC                          LD      (IX-04h),H
3913: DD 7E F6                          LD      A,(IX-0Ah)
3916: DD B6 F5                          OR      (IX-0Bh)
3919: 28 6C                             JR      Z,L3987
391B: DD 7E FF                          LD      A,(IX-01h)
391E: EE 01                             XOR     01h
3920: DD 77 FF                          LD      (IX-01h),A
3923: DD CB FF 46                       BIT     0,(IX-01h)
3927: 20 1E                             JR      NZ,L3947
3929: DD 34 FD                          INC     (IX-03h)
392C: 20 03                             JR      NZ,L3931
392E: DD 34 FE                          INC     (IX-02h)
3931: DD 6E FD                   L3931: LD      L,(IX-03h)
3934: DD 66 FE                          LD      H,(IX-02h)
3937: 7E                                LD      A,(HL)
3938: 07                                RLCA
3939: 07                                RLCA
393A: 07                                RLCA
393B: 07                                RLCA
393C: E6 0F                             AND     0Fh
393E: DD 6E E6                          LD      L,(IX-1Ah)
3941: DD 66 E7                          LD      H,(IX-19h)
3944: 77                                LD      (HL),A
3945: 18 10                             JR      L3957

3947: DD 6E FD                   L3947: LD      L,(IX-03h)
394A: DD 66 FE                          LD      H,(IX-02h)
394D: 7E                                LD      A,(HL)
394E: E6 0F                             AND     0Fh
3950: DD 6E E6                          LD      L,(IX-1Ah)
3953: DD 66 E7                          LD      H,(IX-19h)
3956: 77                                LD      (HL),A
3957: DD 6E EA                   L3957: LD      L,(IX-16h)
395A: DD 66 EB                          LD      H,(IX-15h)
395D: 46                                LD      B,(HL)
395E: DD 6E 06                          LD      L,(IX+06h)
3961: DD 66 07                          LD      H,(IX+07h)
3964: E5                                PUSH    HL
3965: DD 6E 04                          LD      L,(IX+04h)
3968: DD 66 05                          LD      H,(IX+05h)
396B: E5                                PUSH    HL
396C: DD 7E F7                          LD      A,(IX-09h)
396F: F5                                PUSH    AF
3970: 33                                INC     SP
3971: C5                                PUSH    BC
3972: 33                                INC     SP
3973: CD 99 2D                          CALL    L2D99
3976: 21 06 00                          LD      HL,0006h
3979: 39                                ADD     HL,SP
397A: F9                                LD      SP,HL
397B: DD 34 F3                          INC     (IX-0Dh)
397E: C2 FA 38                          JP      NZ,L38FA
3981: DD 34 F4                          INC     (IX-0Ch)
3984: C3 FA 38                          JP      L38FA

3987: DD 7E F3                   L3987: LD      A,(IX-0Dh)
398A: DD 77 FA                          LD      (IX-06h),A
398D: DD 7E F4                          LD      A,(IX-0Ch)
3990: DD 77 FB                          LD      (IX-05h),A
3993: DD CB EC 46                       BIT     0,(IX-14h)
3997: CA 19 2F                          JP      Z,L2F19
399A: DD 7E F3                          LD      A,(IX-0Dh)
399D: DD 77 FE                          LD      (IX-02h),A
39A0: DD 7E F4                          LD      A,(IX-0Ch)
39A3: DD 77 FF                          LD      (IX-01h),A
39A6: DD 7E F8                          LD      A,(IX-08h)
39A9: DD 77 FC                          LD      (IX-04h),A
39AC: DD 7E F9                          LD      A,(IX-07h)
39AF: DD 77 FD                          LD      (IX-03h),A
39B2: DD 4E FC                   L39B2: LD      C,(IX-04h)
39B5: DD 46 FD                          LD      B,(IX-03h)
39B8: DD 6E FC                          LD      L,(IX-04h)
39BB: DD 66 FD                          LD      H,(IX-03h)
39BE: 2B                                DEC     HL
39BF: DD 75 FC                          LD      (IX-04h),L
39C2: DD 74 FD                          LD      (IX-03h),H
39C5: 78                                LD      A,B
39C6: B1                                OR      C
39C7: CA 19 2F                          JP      Z,L2F19
39CA: DD 6E 06                          LD      L,(IX+06h)
39CD: DD 66 07                          LD      H,(IX+07h)
39D0: E5                                PUSH    HL
39D1: 3E 20                             LD      A,20h   ; ' '
39D3: F5                                PUSH    AF
39D4: 33                                INC     SP
39D5: DD 6E 04                          LD      L,(IX+04h)
39D8: DD 66 05                          LD      H,(IX+05h)
39DB: CD AD 3D                          CALL    L3DAD
39DE: F1                                POP     AF
39DF: 33                                INC     SP
39E0: DD 34 FE                          INC     (IX-02h)
39E3: 20 03                             JR      NZ,L39E8
39E5: DD 34 FF                          INC     (IX-01h)
39E8: DD 7E FE                   L39E8: LD      A,(IX-02h)
39EB: DD 77 FA                          LD      (IX-06h),A
39EE: DD 7E FF                          LD      A,(IX-01h)
39F1: DD 77 FB                          LD      (IX-05h),A
39F4: 18 BC                             JR      L39B2

39F6: DD 6E 06                   L39F6: LD      L,(IX+06h)
39F9: DD 66 07                          LD      H,(IX+07h)
39FC: E5                                PUSH    HL
39FD: DD 7E FF                          LD      A,(IX-01h)
3A00: F5                                PUSH    AF
3A01: 33                                INC     SP
3A02: DD 6E 04                          LD      L,(IX+04h)
3A05: DD 66 05                          LD      H,(IX+05h)
3A08: CD AD 3D                          CALL    L3DAD
3A0B: F1                                POP     AF
3A0C: 33                                INC     SP
3A0D: DD 34 FA                          INC     (IX-06h)
3A10: C2 19 2F                          JP      NZ,L2F19
3A13: DD 34 FB                          INC     (IX-05h)
3A16: C3 19 2F                          JP      L2F19

3A19: DD 6E FA                   L3A19: LD      L,(IX-06h)
3A1C: DD 66 FB                          LD      H,(IX-05h)
3A1F: DD F9                             LD      SP,IX
3A21: DD E1                             POP     IX
3A23: C9                                RET

3A24: 3C 4E 4F 20 46 4C 4F 41    L3A24: DB      "<NO FLOAT>"
3A2C: 54 3E
3A2E: 00                                DB      00h

                                        ; --- START PROC L3A2F ---
3A2F: F1                         L3A2F: POP     AF
3A30: C1                                POP     BC
3A31: D1                                POP     DE
3A32: D5                                PUSH    DE
3A33: C5                                PUSH    BC
3A34: F5                                PUSH    AF
3A35: AF                                XOR     A
3A36: 6F                                LD      L,A
3A37: B0                                OR      B
3A38: 06 10                             LD      B,10h
3A3A: 20 04                             JR      NZ,L3A40
3A3C: 06 08                             LD      B,08h
3A3E: 79                                LD      A,C
3A3F: 29                         L3A3F: ADD     HL,HL
3A40: CB 11                      L3A40: RL      C
3A42: 17                                RLA
3A43: 30 01                             JR      NC,L3A46
3A45: 19                                ADD     HL,DE
3A46: 10 F7                      L3A46: DJNZ    L3A3F
3A48: C9                                RET

                                        ; --- START PROC L3A49 ---
3A49: CD CE 13                   L3A49: CALL    L13CE
3A4C: 21 F6 FF                          LD      HL,0FFF6h
3A4F: 39                                ADD     HL,SP
3A50: F9                                LD      SP,HL
3A51: 21 FF FF                          LD      HL,0FFFFh
3A54: E3                                EX      (SP),HL
3A55: DD 7E 04                          LD      A,(IX+04h)
3A58: DD 77 F8                          LD      (IX-08h),A
3A5B: DD 7E 05                          LD      A,(IX+05h)
3A5E: DD 77 F9                          LD      (IX-07h),A
3A61: DD 6E F8                          LD      L,(IX-08h)
3A64: DD 66 F9                          LD      H,(IX-07h)
3A67: 7E                                LD      A,(HL)
3A68: DD 77 FE                          LD      (IX-02h),A
3A6B: 23                                INC     HL
3A6C: 7E                                LD      A,(HL)
3A6D: DD 77 FF                          LD      (IX-01h),A
3A70: DD 5E FE                          LD      E,(IX-02h)
3A73: DD 56 FF                          LD      D,(IX-01h)
3A76: 7A                                LD      A,D
3A77: B3                                OR      E
3A78: 20 06                             JR      NZ,L3A80
3A7A: 21 FF FF                          LD      HL,0FFFFh
3A7D: C3 19 3B                          JP      L3B19

3A80: DD 6E FE                   L3A80: LD      L,(IX-02h)
3A83: DD 66 FF                          LD      H,(IX-01h)
3A86: 7E                                LD      A,(HL)
3A87: DD 34 FE                          INC     (IX-02h)
3A8A: 20 03                             JR      NZ,L3A8F
3A8C: DD 34 FF                          INC     (IX-01h)
3A8F: 6F                         L3A8F: LD      L,A
3A90: 06 00                             LD      B,00h
3A92: D6 3A                             SUB     3Ah     ; ':'
3A94: 3E 01                             LD      A,01h
3A96: 28 01                             JR      Z,L3A99
3A98: AF                                XOR     A
3A99: 4F                         L3A99: LD      C,A
3A9A: 7D                                LD      A,L
3A9B: D6 21                             SUB     21h     ; '!'
3A9D: 78                                LD      A,B
3A9E: DE 00                             SBC     A,00h
3AA0: 38 04                             JR      C,L3AA6
3AA2: CB 41                             BIT     0,C
3AA4: 28 DA                             JR      Z,L3A80
3AA6: DD 7E FE                   L3AA6: LD      A,(IX-02h)
3AA9: DD 77 FA                          LD      (IX-06h),A
3AAC: DD 7E FF                          LD      A,(IX-01h)
3AAF: DD 77 FB                          LD      (IX-05h),A
3AB2: 79                                LD      A,C
3AB3: B7                                OR      A
3AB4: 28 5A                             JR      Z,L3B10
3AB6: DD 36 FC 01                       LD      (IX-04h),01h
3ABA: AF                                XOR     A
3ABB: DD 77 FD                          LD      (IX-03h),A
3ABE: 1A                                LD      A,(DE)
3ABF: 4F                                LD      C,A
3AC0: D6 30                             SUB     30h     ; '0'
3AC2: 38 20                             JR      C,L3AE4
3AC4: 3E 39                             LD      A,39h   ; '9'
3AC6: 91                                SUB     C
3AC7: 38 1B                             JR      C,L3AE4
3AC9: 13                                INC     DE
3ACA: 13                                INC     DE
3ACB: DD 6E FE                          LD      L,(IX-02h)
3ACE: DD 66 FF                          LD      H,(IX-01h)
3AD1: BF                                CP      A
3AD2: ED 52                             SBC     HL,DE
3AD4: 20 0E                             JR      NZ,L3AE4
3AD6: 06 00                             LD      B,00h
3AD8: 79                                LD      A,C
3AD9: C6 D0                             ADD     A,0D0h
3ADB: DD 77 FC                          LD      (IX-04h),A
3ADE: 78                                LD      A,B
3ADF: CE FF                             ADC     A,0FFh
3AE1: DD 77 FD                          LD      (IX-03h),A
3AE4: DD 7E FC                   L3AE4: LD      A,(IX-04h)
3AE7: D6 01                             SUB     01h
3AE9: DD 7E FD                          LD      A,(IX-03h)
3AEC: 17                                RLA
3AED: 3F                                CCF
3AEE: 1F                                RRA
3AEF: DE 80                             SBC     A,80h
3AF1: 30 19                             JR      NC,L3B0C
3AF3: DD 7E FC                          LD      A,(IX-04h)
3AF6: DD 77 F6                          LD      (IX-0Ah),A
3AF9: DD 7E FD                          LD      A,(IX-03h)
3AFC: DD 77 F7                          LD      (IX-09h),A
3AFF: C1                                POP     BC
3B00: E1                                POP     HL
3B01: E5                                PUSH    HL
3B02: C5                                PUSH    BC
3B03: DD 7E FA                          LD      A,(IX-06h)
3B06: 77                                LD      (HL),A
3B07: 23                                INC     HL
3B08: DD 7E FB                          LD      A,(IX-05h)
3B0B: 77                                LD      (HL),A
3B0C: E1                         L3B0C: POP     HL
3B0D: E5                                PUSH    HL
3B0E: 18 09                             JR      L3B19

3B10: FD 21 B7 72                L3B10: LD      IY,72B7h
3B14: FD 6E 00                          LD      L,(IY+00h)
3B17: 26 00                             LD      H,00h
3B19: DD F9                      L3B19: LD      SP,IX
3B1B: DD E1                             POP     IX
3B1D: C9                                RET

                                        ; --- START PROC L3B1E ---
3B1E: CD CE 13                   L3B1E: CALL    L13CE
3B21: F5                                PUSH    AF
3B22: F5                                PUSH    AF
3B23: F5                                PUSH    AF
3B24: 3B                                DEC     SP
3B25: DD 4E 04                          LD      C,(IX+04h)
3B28: DD 46 05                          LD      B,(IX+05h)
3B2B: 0A                                LD      A,(BC)
3B2C: DD 77 F9                          LD      (IX-07h),A
3B2F: 03                                INC     BC
3B30: 0A                                LD      A,(BC)
3B31: DD 77 FA                          LD      (IX-06h),A
3B34: 0B                                DEC     BC
3B35: C5                                PUSH    BC
3B36: 21 00 00                          LD      HL,0000h
3B39: E5                                PUSH    HL
3B3A: 21 00 00                          LD      HL,0000h
3B3D: E5                                PUSH    HL
3B3E: C5                                PUSH    BC
3B3F: CD C3 42                          CALL    L42C3
3B42: F1                                POP     AF
3B43: F1                                POP     AF
3B44: F1                                POP     AF
3B45: C1                                POP     BC
3B46: 7D                                LD      A,L
3B47: B7                                OR      A
3B48: C2 F6 3B                          JP      NZ,L3BF6
3B4B: DD 71 FB                          LD      (IX-05h),C
3B4E: DD 70 FC                          LD      (IX-04h),B
3B51: DD 71 FD                          LD      (IX-03h),C
3B54: DD 70 FE                          LD      (IX-02h),B
3B57: DD 6E FD                   L3B57: LD      L,(IX-03h)
3B5A: DD 66 FE                          LD      H,(IX-02h)
3B5D: 11 16 00                          LD      DE,0016h
3B60: 19                                ADD     HL,DE
3B61: 4E                                LD      C,(HL)
3B62: 23                                INC     HL
3B63: 46                                LD      B,(HL)
3B64: 23                                INC     HL
3B65: 5E                                LD      E,(HL)
3B66: 23                                INC     HL
3B67: 56                                LD      D,(HL)
3B68: D5                                PUSH    DE
3B69: C5                                PUSH    BC
3B6A: DD 6E F9                          LD      L,(IX-07h)
3B6D: DD 66 FA                          LD      H,(IX-06h)
3B70: E5                                PUSH    HL
3B71: CD DE 22                          CALL    L22DE
3B74: F1                                POP     AF
3B75: F1                                POP     AF
3B76: F1                                POP     AF
3B77: DD 75 FF                          LD      (IX-01h),L
3B7A: 7D                                LD      A,L
3B7B: B7                                OR      A
3B7C: 20 75                             JR      NZ,L3BF3
3B7E: DD 7E FB                          LD      A,(IX-05h)
3B81: C6 1A                             ADD     A,1Ah
3B83: 4F                                LD      C,A
3B84: DD 7E FC                          LD      A,(IX-04h)
3B87: CE 00                             ADC     A,00h
3B89: 47                                LD      B,A
3B8A: 69                                LD      L,C
3B8B: 60                                LD      H,B
3B8C: 7E                                LD      A,(HL)
3B8D: 23                                INC     HL
3B8E: 66                                LD      H,(HL)
3B8F: 6F                                LD      L,A
3B90: 7E                                LD      A,(HL)
3B91: B7                                OR      A
3B92: 20 06                             JR      NZ,L3B9A
3B94: DD 36 FF 04                       LD      (IX-01h),04h
3B98: 18 59                             JR      L3BF3

3B9A: DD 7E FB                   L3B9A: LD      A,(IX-05h)
3B9D: C6 04                             ADD     A,04h
3B9F: 5F                                LD      E,A
3BA0: DD 7E FC                          LD      A,(IX-04h)
3BA3: CE 00                             ADC     A,00h
3BA5: 57                                LD      D,A
3BA6: C5                                PUSH    BC
3BA7: 01 0B 00                          LD      BC,000Bh
3BAA: 09                                ADD     HL,BC
3BAB: C1                                POP     BC
3BAC: 7E                                LD      A,(HL)
3BAD: E6 3F                             AND     3Fh     ; '?'
3BAF: 12                                LD      (DE),A
3BB0: 69                                LD      L,C
3BB1: 60                                LD      H,B
3BB2: 4E                                LD      C,(HL)
3BB3: 23                                INC     HL
3BB4: 46                                LD      B,(HL)
3BB5: 69                                LD      L,C
3BB6: 60                                LD      H,B
3BB7: 11 0B 00                          LD      DE,000Bh
3BBA: 19                                ADD     HL,DE
3BBB: CB 5E                             BIT     3,(HL)
3BBD: 20 1C                             JR      NZ,L3BDB
3BBF: DD 7E FB                          LD      A,(IX-05h)
3BC2: C6 1C                             ADD     A,1Ch
3BC4: 5F                                LD      E,A
3BC5: DD 7E FC                          LD      A,(IX-04h)
3BC8: CE 00                             ADC     A,00h
3BCA: 57                                LD      D,A
3BCB: 21 0B 00                          LD      HL,000Bh
3BCE: E5                                PUSH    HL
3BCF: D5                                PUSH    DE
3BD0: C5                                PUSH    BC
3BD1: CD 74 42                          CALL    L4274
3BD4: F1                                POP     AF
3BD5: F1                                POP     AF
3BD6: F1                                POP     AF
3BD7: 7C                                LD      A,H
3BD8: B5                                OR      L
3BD9: 28 18                             JR      Z,L3BF3
3BDB: 21 00 00                   L3BDB: LD      HL,0000h
3BDE: E5                                PUSH    HL
3BDF: DD 6E FB                          LD      L,(IX-05h)
3BE2: DD 66 FC                          LD      H,(IX-04h)
3BE5: E5                                PUSH    HL
3BE6: CD 51 3F                          CALL    L3F51
3BE9: F1                                POP     AF
3BEA: F1                                POP     AF
3BEB: DD 75 FF                          LD      (IX-01h),L
3BEE: 7D                                LD      A,L
3BEF: B7                                OR      A
3BF0: CA 57 3B                          JP      Z,L3B57
3BF3: DD 6E FF                   L3BF3: LD      L,(IX-01h)
3BF6: DD F9                      L3BF6: LD      SP,IX
3BF8: DD E1                             POP     IX
3BFA: C9                                RET

                                        ; --- START PROC L3BFB ---
3BFB: CD CE 13                   L3BFB: CALL    L13CE
3BFE: DD 4E 04                          LD      C,(IX+04h)
3C01: DD 46 05                          LD      B,(IX+05h)
3C04: DD 7E 06                          LD      A,(IX+06h)
3C07: 02                                LD      (BC),A
3C08: 03                                INC     BC
3C09: DD 71 04                          LD      (IX+04h),C
3C0C: DD 70 05                          LD      (IX+05h),B
3C0F: DD 7E 07                          LD      A,(IX+07h)
3C12: DD 77 06                          LD      (IX+06h),A
3C15: DD 36 07 00                       LD      (IX+07h),00h
3C19: DD 4E 04                          LD      C,(IX+04h)
3C1C: DD 46 05                          LD      B,(IX+05h)
3C1F: DD 7E 06                          LD      A,(IX+06h)
3C22: 02                                LD      (BC),A
3C23: DD E1                             POP     IX
3C25: C9                                RET

                                        ; --- START PROC L3C26 ---
3C26: CD CE 13                   L3C26: CALL    L13CE
3C29: 21 F6 FF                          LD      HL,0FFF6h
3C2C: 39                                ADD     HL,SP
3C2D: F9                                LD      SP,HL
3C2E: 21 00 00                          LD      HL,0000h
3C31: 39                                ADD     HL,SP
3C32: DD 5E 04                          LD      E,(IX+04h)
3C35: DD 56 05                          LD      D,(IX+05h)
3C38: D5                                PUSH    DE
3C39: E5                                PUSH    HL
3C3A: D5                                PUSH    DE
3C3B: CD EE 10                          CALL    L10EE
3C3E: F1                                POP     AF
3C3F: F1                                POP     AF
3C40: 7D                                LD      A,L
3C41: D1                                POP     DE
3C42: 4F                                LD      C,A
3C43: B7                                OR      A
3C44: C2 A7 3D                          JP      NZ,L3DA7
3C47: 21 0E 00                          LD      HL,000Eh
3C4A: 19                                ADD     HL,DE
3C4B: DD 75 F8                          LD      (IX-08h),L
3C4E: DD 74 F9                          LD      (IX-07h),H
3C51: 7E                                LD      A,(HL)
3C52: CB 77                             BIT     6,A
3C54: CA A7 3D                          JP      Z,L3DA7
3C57: 07                                RLCA
3C58: 30 66                             JR      NC,L3CC0
3C5A: 6B                                LD      L,E
3C5B: 62                                LD      H,D
3C5C: 01 18 00                          LD      BC,0018h
3C5F: 09                                ADD     HL,BC
3C60: 7E                                LD      A,(HL)
3C61: DD 77 FA                          LD      (IX-06h),A
3C64: 23                                INC     HL
3C65: 7E                                LD      A,(HL)
3C66: DD 77 FB                          LD      (IX-05h),A
3C69: 23                                INC     HL
3C6A: 7E                                LD      A,(HL)
3C6B: DD 77 FC                          LD      (IX-04h),A
3C6E: 23                                INC     HL
3C6F: 7E                                LD      A,(HL)
3C70: DD 77 FD                          LD      (IX-03h),A
3C73: 21 22 00                          LD      HL,0022h
3C76: 19                                ADD     HL,DE
3C77: DD 75 FE                          LD      (IX-02h),L
3C7A: DD 74 FF                          LD      (IX-01h),H
3C7D: E1                                POP     HL
3C7E: E5                                PUSH    HL
3C7F: 23                                INC     HL
3C80: 46                                LD      B,(HL)
3C81: D5                                PUSH    DE
3C82: 21 01 00                          LD      HL,0001h
3C85: E5                                PUSH    HL
3C86: DD 6E FC                          LD      L,(IX-04h)
3C89: DD 66 FD                          LD      H,(IX-03h)
3C8C: E5                                PUSH    HL
3C8D: DD 6E FA                          LD      L,(IX-06h)
3C90: DD 66 FB                          LD      H,(IX-05h)
3C93: E5                                PUSH    HL
3C94: DD 6E FE                          LD      L,(IX-02h)
3C97: DD 66 FF                          LD      H,(IX-01h)
3C9A: E5                                PUSH    HL
3C9B: C5                                PUSH    BC
3C9C: 33                                INC     SP
3C9D: CD 79 03                          CALL    L0379
3CA0: FD 21 09 00                       LD      IY,0009h
3CA4: FD 39                             ADD     IY,SP
3CA6: FD F9                             LD      SP,IY
3CA8: 7D                                LD      A,L
3CA9: D1                                POP     DE
3CAA: B7                                OR      A
3CAB: 28 05                             JR      Z,L3CB2
3CAD: 2E 01                             LD      L,01h
3CAF: C3 A8 3D                          JP      L3DA8

3CB2: DD 6E F8                   L3CB2: LD      L,(IX-08h)
3CB5: DD 66 F9                          LD      H,(IX-07h)
3CB8: 7E                                LD      A,(HL)
3CB9: CB BF                             RES     7,A
3CBB: C1                                POP     BC
3CBC: E1                                POP     HL
3CBD: E5                                PUSH    HL
3CBE: C5                                PUSH    BC
3CBF: 77                                LD      (HL),A
3CC0: 6B                         L3CC0: LD      L,E
3CC1: 62                                LD      H,D
3CC2: 01 1C 00                          LD      BC,001Ch
3CC5: 09                                ADD     HL,BC
3CC6: 4E                                LD      C,(HL)
3CC7: 23                                INC     HL
3CC8: 46                                LD      B,(HL)
3CC9: 23                                INC     HL
3CCA: 23                                INC     HL
3CCB: 7E                                LD      A,(HL)
3CCC: 2B                                DEC     HL
3CCD: 6E                                LD      L,(HL)
3CCE: 67                                LD      H,A
3CCF: D5                                PUSH    DE
3CD0: E5                                PUSH    HL
3CD1: C5                                PUSH    BC
3CD2: DD 6E F6                          LD      L,(IX-0Ah)
3CD5: DD 66 F7                          LD      H,(IX-09h)
3CD8: E5                                PUSH    HL
3CD9: CD DE 22                          CALL    L22DE
3CDC: F1                                POP     AF
3CDD: F1                                POP     AF
3CDE: F1                                POP     AF
3CDF: 7D                                LD      A,L
3CE0: D1                                POP     DE
3CE1: 4F                                LD      C,A
3CE2: B7                                OR      A
3CE3: C2 A7 3D                          JP      NZ,L3DA7
3CE6: 6B                                LD      L,E
3CE7: 62                                LD      H,D
3CE8: 01 20 00                          LD      BC,0020h
3CEB: 09                                ADD     HL,BC
3CEC: 4E                                LD      C,(HL)
3CED: 23                                INC     HL
3CEE: 46                                LD      B,(HL)
3CEF: 21 0B 00                          LD      HL,000Bh
3CF2: 09                                ADD     HL,BC
3CF3: CB EE                             SET     5,(HL)
3CF5: 6B                                LD      L,E
3CF6: 62                                LD      H,D
3CF7: C5                                PUSH    BC
3CF8: 01 06 00                          LD      BC,0006h
3CFB: 09                                ADD     HL,BC
3CFC: C1                                POP     BC
3CFD: 7E                                LD      A,(HL)
3CFE: DD 77 FA                          LD      (IX-06h),A
3D01: 23                                INC     HL
3D02: 7E                                LD      A,(HL)
3D03: DD 77 FB                          LD      (IX-05h),A
3D06: 23                                INC     HL
3D07: 7E                                LD      A,(HL)
3D08: DD 77 FC                          LD      (IX-04h),A
3D0B: 23                                INC     HL
3D0C: 7E                                LD      A,(HL)
3D0D: DD 77 FD                          LD      (IX-03h),A
3D10: 1A                                LD      A,(DE)
3D11: DD 77 FE                          LD      (IX-02h),A
3D14: 13                                INC     DE
3D15: 1A                                LD      A,(DE)
3D16: DD 77 FF                          LD      (IX-01h),A
3D19: 1B                                DEC     DE
3D1A: C5                                PUSH    BC
3D1B: D5                                PUSH    DE
3D1C: DD 6E FC                          LD      L,(IX-04h)
3D1F: DD 66 FD                          LD      H,(IX-03h)
3D22: E5                                PUSH    HL
3D23: DD 6E FA                          LD      L,(IX-06h)
3D26: DD 66 FB                          LD      H,(IX-05h)
3D29: E5                                PUSH    HL
3D2A: C5                                PUSH    BC
3D2B: DD 6E FE                          LD      L,(IX-02h)
3D2E: DD 66 FF                          LD      H,(IX-01h)
3D31: E5                                PUSH    HL
3D32: CD 75 25                          CALL    L2575
3D35: F1                                POP     AF
3D36: F1                                POP     AF
3D37: F1                                POP     AF
3D38: F1                                POP     AF
3D39: D1                                POP     DE
3D3A: C1                                POP     BC
3D3B: EB                                EX      DE,HL
3D3C: 11 0A 00                          LD      DE,000Ah
3D3F: 19                                ADD     HL,DE
3D40: 5E                                LD      E,(HL)
3D41: 23                                INC     HL
3D42: 56                                LD      D,(HL)
3D43: 23                                INC     HL
3D44: 23                                INC     HL
3D45: 7E                                LD      A,(HL)
3D46: 2B                                DEC     HL
3D47: 6E                                LD      L,(HL)
3D48: 67                                LD      H,A
3D49: 79                                LD      A,C
3D4A: C6 1C                             ADD     A,1Ch
3D4C: DD 77 FE                          LD      (IX-02h),A
3D4F: 78                                LD      A,B
3D50: CE 00                             ADC     A,00h
3D52: DD 77 FF                          LD      (IX-01h),A
3D55: C5                                PUSH    BC
3D56: E5                                PUSH    HL
3D57: D5                                PUSH    DE
3D58: DD 6E FE                          LD      L,(IX-02h)
3D5B: DD 66 FF                          LD      H,(IX-01h)
3D5E: E5                                PUSH    HL
3D5F: CD 52 19                          CALL    L1952
3D62: F1                                POP     AF
3D63: F1                                POP     AF
3D64: F1                                POP     AF
3D65: C1                                POP     BC
3D66: 21 16 00                          LD      HL,0016h
3D69: 09                                ADD     HL,BC
3D6A: EB                                EX      DE,HL
3D6B: C5                                PUSH    BC
3D6C: 21 21 50                          LD      HL,5021h
3D6F: E5                                PUSH    HL
3D70: 21 00 00                          LD      HL,0000h
3D73: E5                                PUSH    HL
3D74: D5                                PUSH    DE
3D75: CD 52 19                          CALL    L1952
3D78: F1                                POP     AF
3D79: F1                                POP     AF
3D7A: F1                                POP     AF
3D7B: C1                                POP     BC
3D7C: 21 12 00                          LD      HL,0012h
3D7F: 09                                ADD     HL,BC
3D80: 01 00 00                          LD      BC,0000h
3D83: C5                                PUSH    BC
3D84: E5                                PUSH    HL
3D85: CD FB 3B                          CALL    L3BFB
3D88: F1                                POP     AF
3D89: F1                                POP     AF
3D8A: E1                                POP     HL
3D8B: E5                                PUSH    HL
3D8C: 23                                INC     HL
3D8D: 23                                INC     HL
3D8E: 23                                INC     HL
3D8F: 36 01                             LD      (HL),01h
3D91: E1                                POP     HL
3D92: E5                                PUSH    HL
3D93: E5                                PUSH    HL
3D94: CD 64 47                          CALL    L4764
3D97: F1                                POP     AF
3D98: 4D                                LD      C,L
3D99: DD 6E F8                          LD      L,(IX-08h)
3D9C: DD 66 F9                          LD      H,(IX-07h)
3D9F: 7E                                LD      A,(HL)
3DA0: CB B7                             RES     6,A
3DA2: D1                                POP     DE
3DA3: E1                                POP     HL
3DA4: E5                                PUSH    HL
3DA5: D5                                PUSH    DE
3DA6: 77                                LD      (HL),A
3DA7: 69                         L3DA7: LD      L,C
3DA8: DD F9                      L3DA8: LD      SP,IX
3DAA: DD E1                             POP     IX
3DAC: C9                                RET

                                        ; --- START PROC L3DAD ---
3DAD: E9                         L3DAD: JP      (HL)

                                        ; --- START PROC L3DAE ---
3DAE: CD CE 13                   L3DAE: CALL    L13CE
3DB1: 21 00 13                          LD      HL,1300h
3DB4: DD 7E 04                          LD      A,(IX+04h)
3DB7: 96                                SUB     (HL)
3DB8: 38 39                             JR      C,L3DF3
3DBA: 3A 01 13                          LD      A,(L1301)
3DBD: DD 96 04                          SUB     (IX+04h)
3DC0: 38 05                             JR      C,L3DC7
3DC2: 21 01 00                          LD      HL,0001h
3DC5: 18 2F                             JR      L3DF6

3DC7: 21 02 13                   L3DC7: LD      HL,1302h
3DCA: DD 7E 04                          LD      A,(IX+04h)
3DCD: 96                                SUB     (HL)
3DCE: 38 0D                             JR      C,L3DDD
3DD0: 3A 03 13                          LD      A,(L1303)
3DD3: DD 96 04                          SUB     (IX+04h)
3DD6: 38 05                             JR      C,L3DDD
3DD8: 21 01 00                          LD      HL,0001h
3DDB: 18 19                             JR      L3DF6

3DDD: 21 04 13                   L3DDD: LD      HL,1304h
3DE0: DD 7E 04                          LD      A,(IX+04h)
3DE3: 96                                SUB     (HL)
3DE4: 38 0D                             JR      C,L3DF3
3DE6: 3A 05 13                          LD      A,(L1305)
3DE9: DD 96 04                          SUB     (IX+04h)
3DEC: 38 05                             JR      C,L3DF3
3DEE: 21 01 00                          LD      HL,0001h
3DF1: 18 03                             JR      L3DF6

3DF3: 21 00 00                   L3DF3: LD      HL,0000h
3DF6: DD E1                      L3DF6: POP     IX
3DF8: C9                                RET

                                        ; --- START PROC L3DF9 ---
3DF9: D1                         L3DF9: POP     DE
3DFA: C1                                POP     BC
3DFB: C5                                PUSH    BC
3DFC: D5                                PUSH    DE
3DFD: 0A                         L3DFD: LD      A,(BC)
3DFE: 5F                                LD      E,A
3DFF: 16 00                             LD      D,00h
3E01: B7                                OR      A
3E02: 28 14                             JR      Z,L3E18
3E04: FD 21 04 00                       LD      IY,0004h
3E08: FD 39                             ADD     IY,SP
3E0A: FD 6E 00                          LD      L,(IY+00h)
3E0D: FD 66 01                          LD      H,(IY+01h)
3E10: BF                                CP      A
3E11: ED 52                             SBC     HL,DE
3E13: 28 03                             JR      Z,L3E18
3E15: 03                                INC     BC
3E16: 18 E5                             JR      L3DFD

3E18: EB                         L3E18: EX      DE,HL
3E19: C9                                RET

                                        ; --- START PROC L3E1A ---
3E1A: CD CE 13                   L3E1A: CALL    L13CE
3E1D: 21 E6 FF                          LD      HL,0FFE6h
3E20: 39                                ADD     HL,SP
3E21: F9                                LD      SP,HL
3E22: 21 00 00                          LD      HL,0000h
3E25: E5                                PUSH    HL
3E26: 21 00 00                          LD      HL,0000h
3E29: E5                                PUSH    HL
3E2A: DD 6E 04                          LD      L,(IX+04h)
3E2D: DD 66 05                          LD      H,(IX+05h)
3E30: E5                                PUSH    HL
3E31: CD 37 49                          CALL    L4937
3E34: F1                                POP     AF
3E35: F1                                POP     AF
3E36: F1                                POP     AF
3E37: 7D                                LD      A,L
3E38: D6 02                             SUB     02h
3E3A: B4                                OR      H
3E3B: 28 12                             JR      Z,L3E4F
3E3D: 7D                                LD      A,L
3E3E: D6 03                             SUB     03h
3E40: 7C                                LD      A,H
3E41: DE 00                             SBC     A,00h
3E43: D2 4C 3F                          JP      NC,L3F4C
3E46: DD 7E 07                          LD      A,(IX+07h)
3E49: DD B6 06                          OR      (IX+06h)
3E4C: CA 4C 3F                          JP      Z,L3F4C
3E4F: 21 00 00                   L3E4F: LD      HL,0000h
3E52: 39                                ADD     HL,SP
3E53: 4D                                LD      C,L
3E54: 44                                LD      B,H
3E55: DD 7E 04                          LD      A,(IX+04h)
3E58: DD 77 F6                          LD      (IX-0Ah),A
3E5B: DD 7E 05                          LD      A,(IX+05h)
3E5E: DD 77 F7                          LD      (IX-09h),A
3E61: DD 7E F6                          LD      A,(IX-0Ah)
3E64: C6 33                             ADD     A,33h   ; '3'
3E66: DD 77 F8                          LD      (IX-08h),A
3E69: DD 7E F7                          LD      A,(IX-09h)
3E6C: CE 00                             ADC     A,00h
3E6E: DD 77 F9                          LD      (IX-07h),A
3E71: 11 00 00                          LD      DE,0000h
3E74: 6B                         L3E74: LD      L,E
3E75: 62                                LD      H,D
3E76: 29                                ADD     HL,HL
3E77: 29                                ADD     HL,HL
3E78: 09                                ADD     HL,BC
3E79: DD 75 FA                          LD      (IX-06h),L
3E7C: DD 74 FB                          LD      (IX-05h),H
3E7F: 6B                                LD      L,E
3E80: 62                                LD      H,D
3E81: 29                                ADD     HL,HL
3E82: 29                                ADD     HL,HL
3E83: 29                                ADD     HL,HL
3E84: 29                                ADD     HL,HL
3E85: D5                                PUSH    DE
3E86: 11 C6 01                          LD      DE,01C6h
3E89: 19                                ADD     HL,DE
3E8A: D1                                POP     DE
3E8B: 7D                                LD      A,L
3E8C: DD 86 F8                          ADD     A,(IX-08h)
3E8F: 6F                                LD      L,A
3E90: 7C                                LD      A,H
3E91: DD 8E F9                          ADC     A,(IX-07h)
3E94: 67                                LD      H,A
3E95: C5                                PUSH    BC
3E96: D5                                PUSH    DE
3E97: E5                                PUSH    HL
3E98: CD 76 11                          CALL    L1176
3E9B: F1                                POP     AF
3E9C: DD 75 FC                          LD      (IX-04h),L
3E9F: DD 74 FD                          LD      (IX-03h),H
3EA2: DD 73 FE                          LD      (IX-02h),E
3EA5: DD 72 FF                          LD      (IX-01h),D
3EA8: D1                                POP     DE
3EA9: C1                                POP     BC
3EAA: D5                                PUSH    DE
3EAB: C5                                PUSH    BC
3EAC: DD 5E FA                          LD      E,(IX-06h)
3EAF: DD 56 FB                          LD      D,(IX-05h)
3EB2: 21 1A 00                          LD      HL,001Ah
3EB5: 39                                ADD     HL,SP
3EB6: 01 04 00                          LD      BC,0004h
3EB9: ED B0                             LDIR
3EBB: C1                                POP     BC
3EBC: D1                                POP     DE
3EBD: 13                                INC     DE
3EBE: 7B                                LD      A,E
3EBF: D6 04                             SUB     04h
3EC1: 7A                                LD      A,D
3EC2: DE 00                             SBC     A,00h
3EC4: 38 AE                             JR      C,L3E74
3EC6: DD 7E 07                          LD      A,(IX+07h)
3EC9: DD B6 06                          OR      (IX+06h)
3ECC: 28 09                             JR      Z,L3ED7
3ECE: DD 5E 06                          LD      E,(IX+06h)
3ED1: DD 56 07                          LD      D,(IX+07h)
3ED4: 1B                                DEC     DE
3ED5: 18 03                             JR      L3EDA

3ED7: 11 00 00                   L3ED7: LD      DE,0000h
3EDA: DD 73 FE                   L3EDA: LD      (IX-02h),E
3EDD: DD 72 FF                          LD      (IX-01h),D
3EE0: DD 6E FE                   L3EE0: LD      L,(IX-02h)
3EE3: DD 66 FF                          LD      H,(IX-01h)
3EE6: 29                                ADD     HL,HL
3EE7: 29                                ADD     HL,HL
3EE8: 09                                ADD     HL,BC
3EE9: EB                                EX      DE,HL
3EEA: C5                                PUSH    BC
3EEB: 21 16 00                          LD      HL,0016h
3EEE: 39                                ADD     HL,SP
3EEF: EB                                EX      DE,HL
3EF0: 01 04 00                          LD      BC,0004h
3EF3: ED B0                             LDIR
3EF5: C1                                POP     BC
3EF6: DD 7E FD                          LD      A,(IX-03h)
3EF9: DD B6 FC                          OR      (IX-04h)
3EFC: DD B6 FB                          OR      (IX-05h)
3EFF: DD B6 FA                          OR      (IX-06h)
3F02: 28 20                             JR      Z,L3F24
3F04: C5                                PUSH    BC
3F05: DD 6E FC                          LD      L,(IX-04h)
3F08: DD 66 FD                          LD      H,(IX-03h)
3F0B: E5                                PUSH    HL
3F0C: DD 6E FA                          LD      L,(IX-06h)
3F0F: DD 66 FB                          LD      H,(IX-05h)
3F12: E5                                PUSH    HL
3F13: DD 6E F6                          LD      L,(IX-0Ah)
3F16: DD 66 F7                          LD      H,(IX-09h)
3F19: E5                                PUSH    HL
3F1A: CD 37 49                          CALL    L4937
3F1D: F1                                POP     AF
3F1E: F1                                POP     AF
3F1F: F1                                POP     AF
3F20: C1                                POP     BC
3F21: EB                                EX      DE,HL
3F22: 18 03                             JR      L3F27

3F24: 11 03 00                   L3F24: LD      DE,0003h
3F27: DD 7E 07                   L3F27: LD      A,(IX+07h)
3F2A: DD B6 06                          OR      (IX+06h)
3F2D: 20 1C                             JR      NZ,L3F4B
3F2F: 7B                                LD      A,E
3F30: D6 02                             SUB     02h
3F32: 7A                                LD      A,D
3F33: DE 00                             SBC     A,00h
3F35: 38 14                             JR      C,L3F4B
3F37: DD 34 FE                          INC     (IX-02h)
3F3A: 20 03                             JR      NZ,L3F3F
3F3C: DD 34 FF                          INC     (IX-01h)
3F3F: DD 7E FE                   L3F3F: LD      A,(IX-02h)
3F42: D6 04                             SUB     04h
3F44: DD 7E FF                          LD      A,(IX-01h)
3F47: DE 00                             SBC     A,00h
3F49: 38 95                             JR      C,L3EE0
3F4B: EB                         L3F4B: EX      DE,HL
3F4C: DD F9                      L3F4C: LD      SP,IX
3F4E: DD E1                             POP     IX
3F50: C9                                RET

                                        ; --- START PROC L3F51 ---
3F51: CD CE 13                   L3F51: CALL    L13CE
3F54: 21 E6 FF                          LD      HL,0FFE6h
3F57: 39                                ADD     HL,SP
3F58: F9                                LD      SP,HL
3F59: DD 7E 04                          LD      A,(IX+04h)
3F5C: DD 77 E6                          LD      (IX-1Ah),A
3F5F: DD 7E 05                          LD      A,(IX+05h)
3F62: DD 77 E7                          LD      (IX-19h),A
3F65: E1                                POP     HL
3F66: E5                                PUSH    HL
3F67: 7E                                LD      A,(HL)
3F68: DD 77 E8                          LD      (IX-18h),A
3F6B: 23                                INC     HL
3F6C: 7E                                LD      A,(HL)
3F6D: DD 77 E9                          LD      (IX-17h),A
3F70: DD 7E E6                          LD      A,(IX-1Ah)
3F73: C6 0E                             ADD     A,0Eh
3F75: DD 77 EA                          LD      (IX-16h),A
3F78: DD 7E E7                          LD      A,(IX-19h)
3F7B: CE 00                             ADC     A,00h
3F7D: DD 77 EB                          LD      (IX-15h),A
3F80: DD 6E EA                          LD      L,(IX-16h)
3F83: DD 66 EB                          LD      H,(IX-15h)
3F86: 5E                                LD      E,(HL)
3F87: 23                                INC     HL
3F88: 56                                LD      D,(HL)
3F89: 23                                INC     HL
3F8A: 23                                INC     HL
3F8B: 7E                                LD      A,(HL)
3F8C: 2B                                DEC     HL
3F8D: 6E                                LD      L,(HL)
3F8E: 67                                LD      H,A
3F8F: 7B                                LD      A,E
3F90: C6 20                             ADD     A,20h   ; ' '
3F92: DD 77 EC                          LD      (IX-14h),A
3F95: 7A                                LD      A,D
3F96: CE 00                             ADC     A,00h
3F98: DD 77 ED                          LD      (IX-13h),A
3F9B: 7D                                LD      A,L
3F9C: CE 00                             ADC     A,00h
3F9E: DD 77 EE                          LD      (IX-12h),A
3FA1: 7C                                LD      A,H
3FA2: CE 00                             ADC     A,00h
3FA4: DD 77 EF                          LD      (IX-11h),A
3FA7: DD 7E E6                          LD      A,(IX-1Ah)
3FAA: C6 16                             ADD     A,16h
3FAC: DD 77 F0                          LD      (IX-10h),A
3FAF: DD 7E E7                          LD      A,(IX-19h)
3FB2: CE 00                             ADC     A,00h
3FB4: DD 77 F1                          LD      (IX-0Fh),A
3FB7: DD 7E EE                          LD      A,(IX-12h)
3FBA: D6 20                             SUB     20h     ; ' '
3FBC: DD 7E EF                          LD      A,(IX-11h)
3FBF: DE 00                             SBC     A,00h
3FC1: 38 0E                             JR      C,L3FD1
3FC3: DD 6E F0                          LD      L,(IX-10h)
3FC6: DD 66 F1                          LD      H,(IX-0Fh)
3FC9: AF                                XOR     A
3FCA: 77                                LD      (HL),A
3FCB: 23                                INC     HL
3FCC: 77                                LD      (HL),A
3FCD: 23                                INC     HL
3FCE: 77                                LD      (HL),A
3FCF: 23                                INC     HL
3FD0: 77                                LD      (HL),A
3FD1: DD 5E F0                   L3FD1: LD      E,(IX-10h)
3FD4: DD 56 F1                          LD      D,(IX-0Fh)
3FD7: 21 16 00                          LD      HL,0016h
3FDA: 39                                ADD     HL,SP
3FDB: EB                                EX      DE,HL
3FDC: 01 04 00                          LD      BC,0004h
3FDF: ED B0                             LDIR
3FE1: DD 7E FF                          LD      A,(IX-01h)
3FE4: DD B6 FE                          OR      (IX-02h)
3FE7: DD B6 FD                          OR      (IX-03h)
3FEA: DD B6 FC                          OR      (IX-04h)
3FED: 20 05                             JR      NZ,L3FF4
3FEF: 2E 04                             LD      L,04h
3FF1: C3 6F 42                          JP      L426F

3FF4: DD 7E EC                   L3FF4: LD      A,(IX-14h)
3FF7: DD 77 F2                          LD      (IX-0Eh),A
3FFA: DD 7E ED                          LD      A,(IX-13h)
3FFD: E6 01                             AND     01h
3FFF: DD 77 F3                          LD      (IX-0Dh),A
4002: DD 36 F4 00                       LD      (IX-0Ch),00h
4006: DD 36 F5 00                       LD      (IX-0Bh),00h
400A: 3E 00                             LD      A,00h
400C: DD B6 F4                          OR      (IX-0Ch)
400F: DD B6 F3                          OR      (IX-0Dh)
4012: DD B6 F2                          OR      (IX-0Eh)
4015: C2 1D 42                          JP      NZ,L421D
4018: DD 7E FC                          LD      A,(IX-04h)
401B: C6 01                             ADD     A,01h
401D: 4F                                LD      C,A
401E: DD 7E FD                          LD      A,(IX-03h)
4021: CE 00                             ADC     A,00h
4023: 47                                LD      B,A
4024: DD 7E FE                          LD      A,(IX-02h)
4027: CE 00                             ADC     A,00h
4029: 5F                                LD      E,A
402A: DD 7E FF                          LD      A,(IX-01h)
402D: CE 00                             ADC     A,00h
402F: 57                                LD      D,A
4030: DD 6E F0                          LD      L,(IX-10h)
4033: DD 66 F1                          LD      H,(IX-0Fh)
4036: 71                                LD      (HL),C
4037: 23                                INC     HL
4038: 70                                LD      (HL),B
4039: 23                                INC     HL
403A: 73                                LD      (HL),E
403B: 23                                INC     HL
403C: 72                                LD      (HL),D
403D: DD 7E E6                          LD      A,(IX-1Ah)
4040: C6 12                             ADD     A,12h
4042: DD 77 F6                          LD      (IX-0Ah),A
4045: DD 7E E7                          LD      A,(IX-19h)
4048: CE 00                             ADC     A,00h
404A: DD 77 F7                          LD      (IX-09h),A
404D: DD 5E F6                          LD      E,(IX-0Ah)
4050: DD 56 F7                          LD      D,(IX-09h)
4053: 21 12 00                          LD      HL,0012h
4056: 39                                ADD     HL,SP
4057: EB                                EX      DE,HL
4058: 01 04 00                          LD      BC,0004h
405B: ED B0                             LDIR
405D: DD 7E FB                          LD      A,(IX-05h)
4060: DD B6 FA                          OR      (IX-06h)
4063: DD B6 F9                          OR      (IX-07h)
4066: DD B6 F8                          OR      (IX-08h)
4069: 20 5B                             JR      NZ,L40C6
406B: DD 4E EC                          LD      C,(IX-14h)
406E: DD 46 ED                          LD      B,(IX-13h)
4071: DD 5E EE                          LD      E,(IX-12h)
4074: DD 56 EF                          LD      D,(IX-11h)
4077: 3E 05                             LD      A,05h
4079: CB 3A                      L4079: SRL     D
407B: CB 1B                             RR      E
407D: CB 18                             RR      B
407F: CB 19                             RR      C
4081: 3D                                DEC     A
4082: 20 F5                             JR      NZ,L4079
4084: DD 6E E8                          LD      L,(IX-18h)
4087: DD 66 E9                          LD      H,(IX-17h)
408A: C5                                PUSH    BC
408B: 01 07 00                          LD      BC,0007h
408E: 09                                ADD     HL,BC
408F: C1                                POP     BC
4090: 7E                                LD      A,(HL)
4091: 23                                INC     HL
4092: 66                                LD      H,(HL)
4093: DD 77 FC                          LD      (IX-04h),A
4096: DD 74 FD                          LD      (IX-03h),H
4099: AF                                XOR     A
409A: DD 77 FE                          LD      (IX-02h),A
409D: DD 77 FF                          LD      (IX-01h),A
40A0: 79                                LD      A,C
40A1: DD 96 FC                          SUB     (IX-04h)
40A4: 78                                LD      A,B
40A5: DD 9E FD                          SBC     A,(IX-03h)
40A8: 7B                                LD      A,E
40A9: DD 9E FE                          SBC     A,(IX-02h)
40AC: 7A                                LD      A,D
40AD: DD 9E FF                          SBC     A,(IX-01h)
40B0: DA 1D 42                          JP      C,L421D
40B3: DD 6E F0                          LD      L,(IX-10h)
40B6: DD 66 F1                          LD      H,(IX-0Fh)
40B9: AF                                XOR     A
40BA: 77                                LD      (HL),A
40BB: 23                                INC     HL
40BC: 77                                LD      (HL),A
40BD: 23                                INC     HL
40BE: 77                                LD      (HL),A
40BF: 23                                INC     HL
40C0: 77                                LD      (HL),A
40C1: 2E 04                             LD      L,04h
40C3: C3 6F 42                          JP      L426F

40C6: DD 4E ED                   L40C6: LD      C,(IX-13h)
40C9: DD 46 EE                          LD      B,(IX-12h)
40CC: DD 5E EF                          LD      E,(IX-11h)
40CF: 16 00                             LD      D,00h
40D1: CB 3B                             SRL     E
40D3: CB 18                             RR      B
40D5: CB 19                             RR      C
40D7: DD 6E E8                          LD      L,(IX-18h)
40DA: DD 66 E9                          LD      H,(IX-17h)
40DD: C5                                PUSH    BC
40DE: 01 0A 00                          LD      BC,000Ah
40E1: 09                                ADD     HL,BC
40E2: C1                                POP     BC
40E3: 7E                                LD      A,(HL)
40E4: 2B                                DEC     HL
40E5: 6E                                LD      L,(HL)
40E6: 67                                LD      H,A
40E7: 2B                                DEC     HL
40E8: DD 75 FC                          LD      (IX-04h),L
40EB: DD 74 FD                          LD      (IX-03h),H
40EE: AF                                XOR     A
40EF: DD 77 FE                          LD      (IX-02h),A
40F2: DD 77 FF                          LD      (IX-01h),A
40F5: 79                                LD      A,C
40F6: DD A6 FC                          AND     (IX-04h)
40F9: 4F                                LD      C,A
40FA: 78                                LD      A,B
40FB: DD A6 FD                          AND     (IX-03h)
40FE: 47                                LD      B,A
40FF: 7B                                LD      A,E
4100: DD A6 FE                          AND     (IX-02h)
4103: 5F                                LD      E,A
4104: 7A                                LD      A,D
4105: DD A6 FF                          AND     (IX-01h)
4108: B3                                OR      E
4109: B0                                OR      B
410A: B1                                OR      C
410B: C2 1D 42                          JP      NZ,L421D
410E: DD 6E FA                          LD      L,(IX-06h)
4111: DD 66 FB                          LD      H,(IX-05h)
4114: E5                                PUSH    HL
4115: DD 6E F8                          LD      L,(IX-08h)
4118: DD 66 F9                          LD      H,(IX-07h)
411B: E5                                PUSH    HL
411C: DD 6E E6                          LD      L,(IX-1Ah)
411F: DD 66 E7                          LD      H,(IX-19h)
4122: E5                                PUSH    HL
4123: CD 47 14                          CALL    L1447
4126: F1                                POP     AF
4127: F1                                POP     AF
4128: F1                                POP     AF
4129: 4D                                LD      C,L
412A: 44                                LD      B,H
412B: 3E 01                             LD      A,01h
412D: B9                                CP      C
412E: 3E 00                             LD      A,00h
4130: 98                                SBC     A,B
4131: 21 00 00                          LD      HL,0000h
4134: ED 52                             SBC     HL,DE
4136: 38 05                             JR      C,L413D
4138: 2E 02                             LD      L,02h
413A: C3 6F 42                          JP      L426F

413D: 79                         L413D: LD      A,C
413E: A0                                AND     B
413F: A3                                AND     E
4140: A2                                AND     D
4141: 3C                                INC     A
4142: 20 05                             JR      NZ,L4149
4144: 2E 01                             LD      L,01h
4146: C3 6F 42                          JP      L426F

4149: DD 6E E8                   L4149: LD      L,(IX-18h)
414C: DD 66 E9                          LD      H,(IX-17h)
414F: C5                                PUSH    BC
4150: 01 17 00                          LD      BC,0017h
4153: 09                                ADD     HL,BC
4154: C1                                POP     BC
4155: 7E                                LD      A,(HL)
4156: DD 77 FC                          LD      (IX-04h),A
4159: 23                                INC     HL
415A: 7E                                LD      A,(HL)
415B: DD 77 FD                          LD      (IX-03h),A
415E: 23                                INC     HL
415F: 7E                                LD      A,(HL)
4160: DD 77 FE                          LD      (IX-02h),A
4163: 23                                INC     HL
4164: 7E                                LD      A,(HL)
4165: DD 77 FF                          LD      (IX-01h),A
4168: 79                                LD      A,C
4169: DD 96 FC                          SUB     (IX-04h)
416C: 78                                LD      A,B
416D: DD 9E FD                          SBC     A,(IX-03h)
4170: 7B                                LD      A,E
4171: DD 9E FE                          SBC     A,(IX-02h)
4174: 7A                                LD      A,D
4175: DD 9E FF                          SBC     A,(IX-01h)
4178: 38 78                             JR      C,L41F2
417A: DD 7E 07                          LD      A,(IX+07h)
417D: DD B6 06                          OR      (IX+06h)
4180: 20 13                             JR      NZ,L4195
4182: DD 6E F0                          LD      L,(IX-10h)
4185: DD 66 F1                          LD      H,(IX-0Fh)
4188: AF                                XOR     A
4189: 77                                LD      (HL),A
418A: 23                                INC     HL
418B: 77                                LD      (HL),A
418C: 23                                INC     HL
418D: 77                                LD      (HL),A
418E: 23                                INC     HL
418F: 77                                LD      (HL),A
4190: 2E 04                             LD      L,04h
4192: C3 6F 42                          JP      L426F

4195: DD 6E F6                   L4195: LD      L,(IX-0Ah)
4198: DD 66 F7                          LD      H,(IX-09h)
419B: 4E                                LD      C,(HL)
419C: 23                                INC     HL
419D: 46                                LD      B,(HL)
419E: 23                                INC     HL
419F: 5E                                LD      E,(HL)
41A0: 23                                INC     HL
41A1: 56                                LD      D,(HL)
41A2: D5                                PUSH    DE
41A3: C5                                PUSH    BC
41A4: DD 6E E6                          LD      L,(IX-1Ah)
41A7: DD 66 E7                          LD      H,(IX-19h)
41AA: E5                                PUSH    HL
41AB: CD FD 49                          CALL    L49FD
41AE: F1                                POP     AF
41AF: F1                                POP     AF
41B0: F1                                POP     AF
41B1: 4D                                LD      C,L
41B2: 44                                LD      B,H
41B3: 7A                                LD      A,D
41B4: B3                                OR      E
41B5: B0                                OR      B
41B6: B1                                OR      C
41B7: 20 05                             JR      NZ,L41BE
41B9: 2E 07                             LD      L,07h
41BB: C3 6F 42                          JP      L426F

41BE: 79                         L41BE: LD      A,C
41BF: 3D                                DEC     A
41C0: B0                                OR      B
41C1: B3                                OR      E
41C2: B2                                OR      D
41C3: 20 05                             JR      NZ,L41CA
41C5: 2E 02                             LD      L,02h
41C7: C3 6F 42                          JP      L426F

41CA: 79                         L41CA: LD      A,C
41CB: A0                                AND     B
41CC: A3                                AND     E
41CD: A2                                AND     D
41CE: 3C                                INC     A
41CF: 20 05                             JR      NZ,L41D6
41D1: 2E 01                             LD      L,01h
41D3: C3 6F 42                          JP      L426F

41D6: C5                         L41D6: PUSH    BC
41D7: D5                                PUSH    DE
41D8: D5                                PUSH    DE
41D9: C5                                PUSH    BC
41DA: DD 6E E8                          LD      L,(IX-18h)
41DD: DD 66 E9                          LD      H,(IX-17h)
41E0: E5                                PUSH    HL
41E1: CD 27 46                          CALL    L4627
41E4: F1                                POP     AF
41E5: F1                                POP     AF
41E6: F1                                POP     AF
41E7: 7D                                LD      A,L
41E8: D1                                POP     DE
41E9: C1                                POP     BC
41EA: B7                                OR      A
41EB: 28 05                             JR      Z,L41F2
41ED: 2E 01                             LD      L,01h
41EF: C3 6F 42                          JP      L426F

41F2: DD 6E F6                   L41F2: LD      L,(IX-0Ah)
41F5: DD 66 F7                          LD      H,(IX-09h)
41F8: 71                                LD      (HL),C
41F9: 23                                INC     HL
41FA: 70                                LD      (HL),B
41FB: 23                                INC     HL
41FC: 73                                LD      (HL),E
41FD: 23                                INC     HL
41FE: 72                                LD      (HL),D
41FF: D5                                PUSH    DE
4200: C5                                PUSH    BC
4201: DD 6E E8                          LD      L,(IX-18h)
4204: DD 66 E9                          LD      H,(IX-17h)
4207: E5                                PUSH    HL
4208: CD 07 13                          CALL    L1307
420B: F1                                POP     AF
420C: F1                                POP     AF
420D: F1                                POP     AF
420E: 4D                                LD      C,L
420F: 44                                LD      B,H
4210: DD 6E F0                          LD      L,(IX-10h)
4213: DD 66 F1                          LD      H,(IX-0Fh)
4216: 71                                LD      (HL),C
4217: 23                                INC     HL
4218: 70                                LD      (HL),B
4219: 23                                INC     HL
421A: 73                                LD      (HL),E
421B: 23                                INC     HL
421C: 72                                LD      (HL),D
421D: DD 5E EA                   L421D: LD      E,(IX-16h)
4220: DD 56 EB                          LD      D,(IX-15h)
4223: 21 06 00                          LD      HL,0006h
4226: 39                                ADD     HL,SP
4227: 01 04 00                          LD      BC,0004h
422A: ED B0                             LDIR
422C: DD 7E E6                          LD      A,(IX-1Ah)
422F: C6 1A                             ADD     A,1Ah
4231: DD 77 FE                          LD      (IX-02h),A
4234: DD 7E E7                          LD      A,(IX-19h)
4237: CE 00                             ADC     A,00h
4239: DD 77 FF                          LD      (IX-01h),A
423C: DD 7E E8                          LD      A,(IX-18h)
423F: C6 33                             ADD     A,33h   ; '3'
4241: DD 77 FC                          LD      (IX-04h),A
4244: DD 7E E9                          LD      A,(IX-17h)
4247: CE 00                             ADC     A,00h
4249: DD 77 FD                          LD      (IX-03h),A
424C: DD 7E FC                          LD      A,(IX-04h)
424F: DD 86 F2                          ADD     A,(IX-0Eh)
4252: DD 77 FA                          LD      (IX-06h),A
4255: DD 7E FD                          LD      A,(IX-03h)
4258: DD 8E F3                          ADC     A,(IX-0Dh)
425B: DD 77 FB                          LD      (IX-05h),A
425E: DD 6E FE                          LD      L,(IX-02h)
4261: DD 66 FF                          LD      H,(IX-01h)
4264: DD 7E FA                          LD      A,(IX-06h)
4267: 77                                LD      (HL),A
4268: 23                                INC     HL
4269: DD 7E FB                          LD      A,(IX-05h)
426C: 77                                LD      (HL),A
426D: 2E 00                             LD      L,00h
426F: DD F9                      L426F: LD      SP,IX
4271: DD E1                             POP     IX
4273: C9                                RET

                                        ; --- START PROC L4274 ---
4274: CD CE 13                   L4274: CALL    L13CE
4277: F5                                PUSH    AF
4278: F5                                PUSH    AF
4279: DD 4E 04                          LD      C,(IX+04h)
427C: DD 46 05                          LD      B,(IX+05h)
427F: DD 7E 06                          LD      A,(IX+06h)
4282: DD 77 FE                          LD      (IX-02h),A
4285: DD 7E 07                          LD      A,(IX+07h)
4288: DD 77 FF                          LD      (IX-01h),A
428B: DD 5E 08                          LD      E,(IX+08h)
428E: DD 56 09                          LD      D,(IX+09h)
4291: 0A                         L4291: LD      A,(BC)
4292: 03                                INC     BC
4293: DD 77 FC                          LD      (IX-04h),A
4296: AF                                XOR     A
4297: DD 77 FD                          LD      (IX-03h),A
429A: DD 6E FE                          LD      L,(IX-02h)
429D: DD 66 FF                          LD      H,(IX-01h)
42A0: 6E                                LD      L,(HL)
42A1: DD 34 FE                          INC     (IX-02h)
42A4: 20 03                             JR      NZ,L42A9
42A6: DD 34 FF                          INC     (IX-01h)
42A9: 26 00                      L42A9: LD      H,00h
42AB: DD 7E FC                          LD      A,(IX-04h)
42AE: 95                                SUB     L
42AF: 6F                                LD      L,A
42B0: DD 7E FD                          LD      A,(IX-03h)
42B3: 9C                                SBC     A,H
42B4: 67                                LD      H,A
42B5: 1B                                DEC     DE
42B6: 7A                                LD      A,D
42B7: B3                                OR      E
42B8: 28 04                             JR      Z,L42BE
42BA: 7C                                LD      A,H
42BB: B5                                OR      L
42BC: 28 D3                             JR      Z,L4291
42BE: DD F9                      L42BE: LD      SP,IX
42C0: DD E1                             POP     IX
42C2: C9                                RET

                                        ; --- START PROC L42C3 ---
42C3: CD CE 13                   L42C3: CALL    L13CE
42C6: 21 EE FF                          LD      HL,0FFEEh
42C9: 39                                ADD     HL,SP
42CA: F9                                LD      SP,HL
42CB: DD 7E 04                          LD      A,(IX+04h)
42CE: DD 77 EE                          LD      (IX-12h),A
42D1: DD 7E 05                          LD      A,(IX+05h)
42D4: DD 77 EF                          LD      (IX-11h),A
42D7: DD 7E EE                          LD      A,(IX-12h)
42DA: DD 77 F0                          LD      (IX-10h),A
42DD: DD 7E EF                          LD      A,(IX-11h)
42E0: DD 77 F1                          LD      (IX-0Fh),A
42E3: E1                                POP     HL
42E4: E5                                PUSH    HL
42E5: 7E                                LD      A,(HL)
42E6: DD 77 F2                          LD      (IX-0Eh),A
42E9: 23                                INC     HL
42EA: 7E                                LD      A,(HL)
42EB: DD 77 F3                          LD      (IX-0Dh),A
42EE: DD 7E 08                          LD      A,(IX+08h)
42F1: D6 20                             SUB     20h     ; ' '
42F3: DD 7E 09                          LD      A,(IX+09h)
42F6: DE 00                             SBC     A,00h
42F8: 30 07                             JR      NC,L4301
42FA: DD 7E 06                          LD      A,(IX+06h)
42FD: E6 1F                             AND     1Fh
42FF: 28 05                             JR      Z,L4306
4301: 2E 02                      L4301: LD      L,02h
4303: C3 E6 45                          JP      L45E6

4306: DD 7E EE                   L4306: LD      A,(IX-12h)
4309: C6 0E                             ADD     A,0Eh
430B: 5F                                LD      E,A
430C: DD 7E EF                          LD      A,(IX-11h)
430F: CE 00                             ADC     A,00h
4311: 57                                LD      D,A
4312: 21 18 00                          LD      HL,0018h
4315: 39                                ADD     HL,SP
4316: 01 04 00                          LD      BC,0004h
4319: ED B0                             LDIR
431B: DD 7E EE                          LD      A,(IX-12h)
431E: DD 77 FE                          LD      (IX-02h),A
4321: DD 7E EF                          LD      A,(IX-11h)
4324: DD 77 FF                          LD      (IX-01h),A
4327: DD 6E FE                          LD      L,(IX-02h)
432A: DD 66 FF                          LD      H,(IX-01h)
432D: 11 06 00                          LD      DE,0006h
4330: 19                                ADD     HL,DE
4331: 7E                                LD      A,(HL)
4332: DD 77 F4                          LD      (IX-0Ch),A
4335: 23                                INC     HL
4336: 7E                                LD      A,(HL)
4337: DD 77 F5                          LD      (IX-0Bh),A
433A: 23                                INC     HL
433B: 7E                                LD      A,(HL)
433C: DD 77 F6                          LD      (IX-0Ah),A
433F: 23                                INC     HL
4340: 7E                                LD      A,(HL)
4341: DD 77 F7                          LD      (IX-09h),A
4344: DD 7E F2                          LD      A,(IX-0Eh)
4347: C6 27                             ADD     A,27h   ; '''
4349: DD 77 FE                          LD      (IX-02h),A
434C: DD 7E F3                          LD      A,(IX-0Dh)
434F: CE 00                             ADC     A,00h
4351: DD 77 FF                          LD      (IX-01h),A
4354: DD 7E F7                          LD      A,(IX-09h)
4357: DD B6 F6                          OR      (IX-0Ah)
435A: DD B6 F5                          OR      (IX-0Bh)
435D: DD B6 F4                          OR      (IX-0Ch)
4360: 20 1B                             JR      NZ,L437D
4362: DD 6E F2                          LD      L,(IX-0Eh)
4365: DD 66 F3                          LD      H,(IX-0Dh)
4368: 7E                                LD      A,(HL)
4369: D6 03                             SUB     03h
436B: 38 10                             JR      C,L437D
436D: DD 5E FE                          LD      E,(IX-02h)
4370: DD 56 FF                          LD      D,(IX-01h)
4373: 21 06 00                          LD      HL,0006h
4376: 39                                ADD     HL,SP
4377: EB                                EX      DE,HL
4378: 01 04 00                          LD      BC,0004h
437B: ED B0                             LDIR
437D: DD 7E EE                   L437D: LD      A,(IX-12h)
4380: C6 16                             ADD     A,16h
4382: DD 77 F8                          LD      (IX-08h),A
4385: DD 7E EF                          LD      A,(IX-11h)
4388: CE 00                             ADC     A,00h
438A: DD 77 F9                          LD      (IX-07h),A
438D: DD 7E F7                          LD      A,(IX-09h)
4390: DD B6 F6                          OR      (IX-0Ah)
4393: DD B6 F5                          OR      (IX-0Bh)
4396: DD B6 F4                          OR      (IX-0Ch)
4399: 20 69                             JR      NZ,L4404
439B: DD 4E 06                          LD      C,(IX+06h)
439E: DD 46 07                          LD      B,(IX+07h)
43A1: DD 5E 08                          LD      E,(IX+08h)
43A4: DD 56 09                          LD      D,(IX+09h)
43A7: 3E 05                             LD      A,05h
43A9: CB 3A                      L43A9: SRL     D
43AB: CB 1B                             RR      E
43AD: CB 18                             RR      B
43AF: CB 19                             RR      C
43B1: 3D                                DEC     A
43B2: 20 F5                             JR      NZ,L43A9
43B4: DD 6E F2                          LD      L,(IX-0Eh)
43B7: DD 66 F3                          LD      H,(IX-0Dh)
43BA: C5                                PUSH    BC
43BB: 01 07 00                          LD      BC,0007h
43BE: 09                                ADD     HL,BC
43BF: C1                                POP     BC
43C0: 7E                                LD      A,(HL)
43C1: 23                                INC     HL
43C2: 66                                LD      H,(HL)
43C3: DD 77 FA                          LD      (IX-06h),A
43C6: DD 74 FB                          LD      (IX-05h),H
43C9: AF                                XOR     A
43CA: DD 77 FC                          LD      (IX-04h),A
43CD: DD 77 FD                          LD      (IX-03h),A
43D0: 79                                LD      A,C
43D1: DD 96 FA                          SUB     (IX-06h)
43D4: 78                                LD      A,B
43D5: DD 9E FB                          SBC     A,(IX-05h)
43D8: 7B                                LD      A,E
43D9: DD 9E FC                          SBC     A,(IX-04h)
43DC: 7A                                LD      A,D
43DD: DD 9E FD                          SBC     A,(IX-03h)
43E0: 38 05                             JR      C,L43E7
43E2: 2E 02                             LD      L,02h
43E4: C3 E6 45                          JP      L45E6

43E7: DD 6E FE                   L43E7: LD      L,(IX-02h)
43EA: DD 66 FF                          LD      H,(IX-01h)
43ED: 4E                                LD      C,(HL)
43EE: 23                                INC     HL
43EF: 46                                LD      B,(HL)
43F0: 23                                INC     HL
43F1: 5E                                LD      E,(HL)
43F2: 23                                INC     HL
43F3: 56                                LD      D,(HL)
43F4: DD 6E F8                          LD      L,(IX-08h)
43F7: DD 66 F9                          LD      H,(IX-07h)
43FA: 71                                LD      (HL),C
43FB: 23                                INC     HL
43FC: 70                                LD      (HL),B
43FD: 23                                INC     HL
43FE: 73                                LD      (HL),E
43FF: 23                                INC     HL
4400: 72                                LD      (HL),D
4401: C3 1D 45                          JP      L451D

4404: DD 6E F2                   L4404: LD      L,(IX-0Eh)
4407: DD 66 F3                          LD      H,(IX-0Dh)
440A: 11 09 00                          LD      DE,0009h
440D: 19                                ADD     HL,DE
440E: 4E                                LD      C,(HL)
440F: 23                                INC     HL
4410: 46                                LD      B,(HL)
4411: 1E 00                             LD      E,00h
4413: DD 71 FB                          LD      (IX-05h),C
4416: DD 70 FC                          LD      (IX-04h),B
4419: DD 73 FD                          LD      (IX-03h),E
441C: AF                                XOR     A
441D: DD 77 FA                          LD      (IX-06h),A
4420: DD CB FB 26                       SLA     (IX-05h)
4424: DD CB FC 16                       RL      (IX-04h)
4428: DD CB FD 16                       RL      (IX-03h)
442C: DD 7E F2                          LD      A,(IX-0Eh)
442F: DD 77 FE                          LD      (IX-02h),A
4432: DD 7E F3                          LD      A,(IX-0Dh)
4435: DD 77 FF                          LD      (IX-01h),A
4438: DD 7E 06                   L4438: LD      A,(IX+06h)
443B: DD 96 FA                          SUB     (IX-06h)
443E: DD 7E 07                          LD      A,(IX+07h)
4441: DD 9E FB                          SBC     A,(IX-05h)
4444: DD 7E 08                          LD      A,(IX+08h)
4447: DD 9E FC                          SBC     A,(IX-04h)
444A: DD 7E 09                          LD      A,(IX+09h)
444D: DD 9E FD                          SBC     A,(IX-03h)
4450: DA F3 44                          JP      C,L44F3
4453: DD 6E F6                          LD      L,(IX-0Ah)
4456: DD 66 F7                          LD      H,(IX-09h)
4459: E5                                PUSH    HL
445A: DD 6E F4                          LD      L,(IX-0Ch)
445D: DD 66 F5                          LD      H,(IX-0Bh)
4460: E5                                PUSH    HL
4461: DD 6E F0                          LD      L,(IX-10h)
4464: DD 66 F1                          LD      H,(IX-0Fh)
4467: E5                                PUSH    HL
4468: CD 47 14                          CALL    L1447
446B: F1                                POP     AF
446C: F1                                POP     AF
446D: F1                                POP     AF
446E: DD 75 F4                          LD      (IX-0Ch),L
4471: DD 74 F5                          LD      (IX-0Bh),H
4474: DD 73 F6                          LD      (IX-0Ah),E
4477: DD 72 F7                          LD      (IX-09h),D
447A: DD 7E F4                          LD      A,(IX-0Ch)
447D: DD A6 F5                          AND     (IX-0Bh)
4480: DD A6 F6                          AND     (IX-0Ah)
4483: DD A6 F7                          AND     (IX-09h)
4486: 3C                                INC     A
4487: 20 05                             JR      NZ,L448E
4489: 2E 01                             LD      L,01h
448B: C3 E6 45                          JP      L45E6

448E: DD 7E F4                   L448E: LD      A,(IX-0Ch)
4491: D6 02                             SUB     02h
4493: DD 7E F5                          LD      A,(IX-0Bh)
4496: DE 00                             SBC     A,00h
4498: DD 7E F6                          LD      A,(IX-0Ah)
449B: DE 00                             SBC     A,00h
449D: DD 7E F7                          LD      A,(IX-09h)
44A0: DE 00                             SBC     A,00h
44A2: 38 23                             JR      C,L44C7
44A4: DD 6E FE                          LD      L,(IX-02h)
44A7: DD 66 FF                          LD      H,(IX-01h)
44AA: 11 17 00                          LD      DE,0017h
44AD: 19                                ADD     HL,DE
44AE: 4E                                LD      C,(HL)
44AF: 23                                INC     HL
44B0: 46                                LD      B,(HL)
44B1: 23                                INC     HL
44B2: 5E                                LD      E,(HL)
44B3: 23                                INC     HL
44B4: 56                                LD      D,(HL)
44B5: DD 7E F4                          LD      A,(IX-0Ch)
44B8: 91                                SUB     C
44B9: DD 7E F5                          LD      A,(IX-0Bh)
44BC: 98                                SBC     A,B
44BD: DD 7E F6                          LD      A,(IX-0Ah)
44C0: 9B                                SBC     A,E
44C1: DD 7E F7                          LD      A,(IX-09h)
44C4: 9A                                SBC     A,D
44C5: 38 05                             JR      C,L44CC
44C7: 2E 02                      L44C7: LD      L,02h
44C9: C3 E6 45                          JP      L45E6

44CC: DD 7E 06                   L44CC: LD      A,(IX+06h)
44CF: DD 96 FA                          SUB     (IX-06h)
44D2: DD 77 06                          LD      (IX+06h),A
44D5: DD 7E 07                          LD      A,(IX+07h)
44D8: DD 9E FB                          SBC     A,(IX-05h)
44DB: DD 77 07                          LD      (IX+07h),A
44DE: DD 7E 08                          LD      A,(IX+08h)
44E1: DD 9E FC                          SBC     A,(IX-04h)
44E4: DD 77 08                          LD      (IX+08h),A
44E7: DD 7E 09                          LD      A,(IX+09h)
44EA: DD 9E FD                          SBC     A,(IX-03h)
44ED: DD 77 09                          LD      (IX+09h),A
44F0: C3 38 44                          JP      L4438

44F3: DD 6E F6                   L44F3: LD      L,(IX-0Ah)
44F6: DD 66 F7                          LD      H,(IX-09h)
44F9: E5                                PUSH    HL
44FA: DD 6E F4                          LD      L,(IX-0Ch)
44FD: DD 66 F5                          LD      H,(IX-0Bh)
4500: E5                                PUSH    HL
4501: DD 6E F2                          LD      L,(IX-0Eh)
4504: DD 66 F3                          LD      H,(IX-0Dh)
4507: E5                                PUSH    HL
4508: CD 07 13                          CALL    L1307
450B: F1                                POP     AF
450C: F1                                POP     AF
450D: F1                                POP     AF
450E: 4D                                LD      C,L
450F: 44                                LD      B,H
4510: DD 6E F8                          LD      L,(IX-08h)
4513: DD 66 F9                          LD      H,(IX-07h)
4516: 71                                LD      (HL),C
4517: 23                                INC     HL
4518: 70                                LD      (HL),B
4519: 23                                INC     HL
451A: 73                                LD      (HL),E
451B: 23                                INC     HL
451C: 72                                LD      (HL),D
451D: DD 7E EE                   L451D: LD      A,(IX-12h)
4520: C6 12                             ADD     A,12h
4522: 5F                                LD      E,A
4523: DD 7E EF                          LD      A,(IX-11h)
4526: CE 00                             ADC     A,00h
4528: 57                                LD      D,A
4529: 21 06 00                          LD      HL,0006h
452C: 39                                ADD     HL,SP
452D: 01 04 00                          LD      BC,0004h
4530: ED B0                             LDIR
4532: DD 6E F8                          LD      L,(IX-08h)
4535: DD 66 F9                          LD      H,(IX-07h)
4538: 4E                                LD      C,(HL)
4539: 23                                INC     HL
453A: 46                                LD      B,(HL)
453B: 23                                INC     HL
453C: 5E                                LD      E,(HL)
453D: 23                                INC     HL
453E: 56                                LD      D,(HL)
453F: 7A                                LD      A,D
4540: B3                                OR      E
4541: B0                                OR      B
4542: B1                                OR      C
4543: 20 05                             JR      NZ,L454A
4545: 2E 02                             LD      L,02h
4547: C3 E6 45                          JP      L45E6

454A: DD 7E 07                   L454A: LD      A,(IX+07h)
454D: DD 77 FC                          LD      (IX-04h),A
4550: DD 7E 08                          LD      A,(IX+08h)
4553: DD 77 FD                          LD      (IX-03h),A
4556: DD 7E 09                          LD      A,(IX+09h)
4559: DD 77 FE                          LD      (IX-02h),A
455C: AF                                XOR     A
455D: DD 77 FF                          LD      (IX-01h),A
4560: DD CB FE 3E                       SRL     (IX-02h)
4564: DD CB FD 1E                       RR      (IX-03h)
4568: DD CB FC 1E                       RR      (IX-04h)
456C: 79                                LD      A,C
456D: DD 86 FC                          ADD     A,(IX-04h)
4570: 4F                                LD      C,A
4571: 78                                LD      A,B
4572: DD 8E FD                          ADC     A,(IX-03h)
4575: 47                                LD      B,A
4576: 7B                                LD      A,E
4577: DD 8E FE                          ADC     A,(IX-02h)
457A: 5F                                LD      E,A
457B: 7A                                LD      A,D
457C: DD 8E FF                          ADC     A,(IX-01h)
457F: 57                                LD      D,A
4580: DD 6E F8                          LD      L,(IX-08h)
4583: DD 66 F9                          LD      H,(IX-07h)
4586: 71                                LD      (HL),C
4587: 23                                INC     HL
4588: 70                                LD      (HL),B
4589: 23                                INC     HL
458A: 73                                LD      (HL),E
458B: 23                                INC     HL
458C: 72                                LD      (HL),D
458D: DD 7E EE                          LD      A,(IX-12h)
4590: C6 1A                             ADD     A,1Ah
4592: DD 77 FE                          LD      (IX-02h),A
4595: DD 7E EF                          LD      A,(IX-11h)
4598: CE 00                             ADC     A,00h
459A: DD 77 FF                          LD      (IX-01h),A
459D: DD 7E F2                          LD      A,(IX-0Eh)
45A0: C6 33                             ADD     A,33h   ; '3'
45A2: DD 77 FC                          LD      (IX-04h),A
45A5: DD 7E F3                          LD      A,(IX-0Dh)
45A8: CE 00                             ADC     A,00h
45AA: DD 77 FD                          LD      (IX-03h),A
45AD: DD 7E 06                          LD      A,(IX+06h)
45B0: DD 77 F6                          LD      (IX-0Ah),A
45B3: DD 7E 07                          LD      A,(IX+07h)
45B6: E6 01                             AND     01h
45B8: DD 77 F7                          LD      (IX-09h),A
45BB: DD 36 F8 00                       LD      (IX-08h),00h
45BF: DD 36 F9 00                       LD      (IX-07h),00h
45C3: DD 7E FC                          LD      A,(IX-04h)
45C6: DD 86 F6                          ADD     A,(IX-0Ah)
45C9: DD 77 FA                          LD      (IX-06h),A
45CC: DD 7E FD                          LD      A,(IX-03h)
45CF: DD 8E F7                          ADC     A,(IX-09h)
45D2: DD 77 FB                          LD      (IX-05h),A
45D5: DD 6E FE                          LD      L,(IX-02h)
45D8: DD 66 FF                          LD      H,(IX-01h)
45DB: DD 7E FA                          LD      A,(IX-06h)
45DE: 77                                LD      (HL),A
45DF: 23                                INC     HL
45E0: DD 7E FB                          LD      A,(IX-05h)
45E3: 77                                LD      (HL),A
45E4: 2E 00                             LD      L,00h
45E6: DD F9                      L45E6: LD      SP,IX
45E8: DD E1                             POP     IX
45EA: C9                                RET

                                        ; --- START PROC L45EB ---
45EB: 21 FC 12                   L45EB: LD      HL,12FCh
45EE: 4E                                LD      C,(HL)
45EF: FD 21 02 00                       LD      IY,0002h
45F3: FD 39                             ADD     IY,SP
45F5: FD 7E 00                          LD      A,(IY+00h)
45F8: 91                                SUB     C
45F9: 38 28                             JR      C,L4623
45FB: 3A FD 12                          LD      A,(L12FD)
45FE: FD 96 00                          SUB     (IY+00h)
4601: 38 04                             JR      C,L4607
4603: 21 01 00                          LD      HL,0001h
4606: C9                                RET

4607: 21 FE 12                   L4607: LD      HL,12FEh
460A: 4E                                LD      C,(HL)
460B: FD 21 02 00                       LD      IY,0002h
460F: FD 39                             ADD     IY,SP
4611: FD 7E 00                          LD      A,(IY+00h)
4614: 91                                SUB     C
4615: 38 0C                             JR      C,L4623
4617: 3A FF 12                          LD      A,(L12FF)
461A: FD 96 00                          SUB     (IY+00h)
461D: 38 04                             JR      C,L4623
461F: 21 01 00                          LD      HL,0001h
4622: C9                                RET

4623: 21 00 00                   L4623: LD      HL,0000h
4626: C9                                RET

                                        ; --- START PROC L4627 ---
4627: CD CE 13                   L4627: CALL    L13CE
462A: 21 ED FF                          LD      HL,0FFEDh
462D: 39                                ADD     HL,SP
462E: F9                                LD      SP,HL
462F: DD 6E 04                          LD      L,(IX+04h)
4632: DD 66 05                          LD      H,(IX+05h)
4635: E5                                PUSH    HL
4636: CD 4C 29                          CALL    L294C
4639: F1                                POP     AF
463A: 7D                                LD      A,L
463B: B7                                OR      A
463C: 28 05                             JR      Z,L4643
463E: 2E 01                             LD      L,01h
4640: C3 5F 47                          JP      L475F

4643: DD 6E 08                   L4643: LD      L,(IX+08h)
4646: DD 66 09                          LD      H,(IX+09h)
4649: E5                                PUSH    HL
464A: DD 6E 06                          LD      L,(IX+06h)
464D: DD 66 07                          LD      H,(IX+07h)
4650: E5                                PUSH    HL
4651: DD 6E 04                          LD      L,(IX+04h)
4654: DD 66 05                          LD      H,(IX+05h)
4657: E5                                PUSH    HL
4658: CD 07 13                          CALL    L1307
465B: F1                                POP     AF
465C: F1                                POP     AF
465D: F1                                POP     AF
465E: DD 75 F1                          LD      (IX-0Fh),L
4661: DD 74 F2                          LD      (IX-0Eh),H
4664: DD 73 F3                          LD      (IX-0Dh),E
4667: DD 72 F4                          LD      (IX-0Ch),D
466A: DD 4E 04                          LD      C,(IX+04h)
466D: DD 46 05                          LD      B,(IX+05h)
4670: 21 2F 00                          LD      HL,002Fh
4673: 09                                ADD     HL,BC
4674: EB                                EX      DE,HL
4675: C5                                PUSH    BC
4676: 21 06 00                          LD      HL,0006h
4679: 39                                ADD     HL,SP
467A: 01 04 00                          LD      BC,0004h
467D: ED B0                             LDIR
467F: C1                                POP     BC
4680: 21 33 00                          LD      HL,0033h
4683: 09                                ADD     HL,BC
4684: DD 75 FE                          LD      (IX-02h),L
4687: DD 74 FF                          LD      (IX-01h),H
468A: E5                                PUSH    HL
468B: C5                                PUSH    BC
468C: 11 00 02                          LD      DE,0200h
468F: D5                                PUSH    DE
4690: 11 00 00                          LD      DE,0000h
4693: D5                                PUSH    DE
4694: DD 5E FE                          LD      E,(IX-02h)
4697: DD 56 FF                          LD      D,(IX-01h)
469A: D5                                PUSH    DE
469B: CD A7 22                          CALL    L22A7
469E: F1                                POP     AF
469F: F1                                POP     AF
46A0: F1                                POP     AF
46A1: C1                                POP     BC
46A2: E1                                POP     HL
46A3: DD 75 F5                          LD      (IX-0Bh),L
46A6: DD 74 F6                          LD      (IX-0Ah),H
46A9: DD 71 F7                          LD      (IX-09h),C
46AC: DD 70 F8                          LD      (IX-08h),B
46AF: 21 09 00                          LD      HL,0009h
46B2: 09                                ADD     HL,BC
46B3: EB                                EX      DE,HL
46B4: AF                                XOR     A
46B5: DD 77 FE                          LD      (IX-02h),A
46B8: DD 77 FF                          LD      (IX-01h),A
46BB: 6B                         L46BB: LD      L,E
46BC: 62                                LD      H,D
46BD: 7E                                LD      A,(HL)
46BE: 23                                INC     HL
46BF: 66                                LD      H,(HL)
46C0: 6F                                LD      L,A
46C1: DD 4E FE                          LD      C,(IX-02h)
46C4: DD 46 FF                          LD      B,(IX-01h)
46C7: 79                                LD      A,C
46C8: 95                                SUB     L
46C9: 78                                LD      A,B
46CA: 9C                                SBC     A,H
46CB: D2 4D 47                          JP      NC,L474D
46CE: DD 7E FE                          LD      A,(IX-02h)
46D1: DD 77 ED                          LD      (IX-13h),A
46D4: DD 7E FF                          LD      A,(IX-01h)
46D7: DD 77 EE                          LD      (IX-12h),A
46DA: AF                                XOR     A
46DB: DD 77 EF                          LD      (IX-11h),A
46DE: DD 77 F0                          LD      (IX-10h),A
46E1: DD 7E ED                          LD      A,(IX-13h)
46E4: DD 86 F1                          ADD     A,(IX-0Fh)
46E7: DD 77 F9                          LD      (IX-07h),A
46EA: DD 7E EE                          LD      A,(IX-12h)
46ED: DD 8E F2                          ADC     A,(IX-0Eh)
46F0: DD 77 FA                          LD      (IX-06h),A
46F3: DD 7E EF                          LD      A,(IX-11h)
46F6: DD 8E F3                          ADC     A,(IX-0Dh)
46F9: DD 77 FB                          LD      (IX-05h),A
46FC: DD 7E F0                          LD      A,(IX-10h)
46FF: DD 8E F4                          ADC     A,(IX-0Ch)
4702: DD 77 FC                          LD      (IX-04h),A
4705: DD 6E F7                          LD      L,(IX-09h)
4708: DD 66 F8                          LD      H,(IX-08h)
470B: 23                                INC     HL
470C: 7E                                LD      A,(HL)
470D: DD 77 FD                          LD      (IX-03h),A
4710: C5                                PUSH    BC
4711: D5                                PUSH    DE
4712: 21 01 00                          LD      HL,0001h
4715: E5                                PUSH    HL
4716: DD 6E FB                          LD      L,(IX-05h)
4719: DD 66 FC                          LD      H,(IX-04h)
471C: E5                                PUSH    HL
471D: DD 6E F9                          LD      L,(IX-07h)
4720: DD 66 FA                          LD      H,(IX-06h)
4723: E5                                PUSH    HL
4724: DD 6E F5                          LD      L,(IX-0Bh)
4727: DD 66 F6                          LD      H,(IX-0Ah)
472A: E5                                PUSH    HL
472B: DD 7E FD                          LD      A,(IX-03h)
472E: F5                                PUSH    AF
472F: 33                                INC     SP
4730: CD 79 03                          CALL    L0379
4733: FD 21 09 00                       LD      IY,0009h
4737: FD 39                             ADD     IY,SP
4739: FD F9                             LD      SP,IY
473B: 7D                                LD      A,L
473C: D1                                POP     DE
473D: C1                                POP     BC
473E: B7                                OR      A
473F: 20 0C                             JR      NZ,L474D
4741: DD 34 FE                          INC     (IX-02h)
4744: C2 BB 46                          JP      NZ,L46BB
4747: DD 34 FF                          INC     (IX-01h)
474A: C3 BB 46                          JP      L46BB

474D: EB                         L474D: EX      DE,HL
474E: 5E                                LD      E,(HL)
474F: 23                                INC     HL
4750: 56                                LD      D,(HL)
4751: EB                                EX      DE,HL
4752: BF                                CP      A
4753: ED 42                             SBC     HL,BC
4755: 20 05                             JR      NZ,L475C
4757: 21 00 00                          LD      HL,0000h
475A: 18 03                             JR      L475F

475C: 21 01 00                   L475C: LD      HL,0001h
475F: DD F9                      L475F: LD      SP,IX
4761: DD E1                             POP     IX
4763: C9                                RET

                                        ; --- START PROC L4764 ---
4764: CD CE 13                   L4764: CALL    L13CE
4767: 21 F5 FF                          LD      HL,0FFF5h
476A: 39                                ADD     HL,SP
476B: F9                                LD      SP,HL
476C: DD 6E 04                          LD      L,(IX+04h)
476F: DD 66 05                          LD      H,(IX+05h)
4772: E5                                PUSH    HL
4773: CD 4C 29                          CALL    L294C
4776: F1                                POP     AF
4777: 7D                                LD      A,L
4778: DD 77 F5                          LD      (IX-0Bh),A
477B: B7                                OR      A
477C: C2 2F 49                          JP      NZ,L492F
477F: DD 4E 04                          LD      C,(IX+04h)
4782: DD 46 05                          LD      B,(IX+05h)
4785: 0A                                LD      A,(BC)
4786: 5F                                LD      E,A
4787: 21 01 00                          LD      HL,0001h
478A: 09                                ADD     HL,BC
478B: DD 75 F6                          LD      (IX-0Ah),L
478E: DD 74 F7                          LD      (IX-09h),H
4791: 7B                                LD      A,E
4792: D6 03                             SUB     03h
4794: C2 12 49                          JP      NZ,L4912
4797: 21 04 00                          LD      HL,0004h
479A: 09                                ADD     HL,BC
479B: DD 75 F8                          LD      (IX-08h),L
479E: DD 74 F9                          LD      (IX-07h),H
47A1: 7E                                LD      A,(HL)
47A2: 3D                                DEC     A
47A3: C2 12 49                          JP      NZ,L4912
47A6: 21 33 00                          LD      HL,0033h
47A9: 09                                ADD     HL,BC
47AA: EB                                EX      DE,HL
47AB: DD 73 FE                          LD      (IX-02h),E
47AE: DD 72 FF                          LD      (IX-01h),D
47B1: C5                                PUSH    BC
47B2: D5                                PUSH    DE
47B3: 21 00 02                          LD      HL,0200h
47B6: E5                                PUSH    HL
47B7: 26 00                             LD      H,00h
47B9: E5                                PUSH    HL
47BA: DD 6E FE                          LD      L,(IX-02h)
47BD: DD 66 FF                          LD      H,(IX-01h)
47C0: E5                                PUSH    HL
47C1: CD A7 22                          CALL    L22A7
47C4: F1                                POP     AF
47C5: F1                                POP     AF
47C6: F1                                POP     AF
47C7: D1                                POP     DE
47C8: C1                                POP     BC
47C9: 21 31 02                          LD      HL,0231h
47CC: 09                                ADD     HL,BC
47CD: DD 75 FE                          LD      (IX-02h),L
47D0: DD 74 FF                          LD      (IX-01h),H
47D3: C5                                PUSH    BC
47D4: D5                                PUSH    DE
47D5: 21 55 AA                          LD      HL,0AA55h
47D8: E5                                PUSH    HL
47D9: DD 6E FE                          LD      L,(IX-02h)
47DC: DD 66 FF                          LD      H,(IX-01h)
47DF: E5                                PUSH    HL
47E0: CD FB 3B                          CALL    L3BFB
47E3: F1                                POP     AF
47E4: F1                                POP     AF
47E5: D1                                POP     DE
47E6: D5                                PUSH    DE
47E7: 21 61 41                          LD      HL,4161h
47EA: E5                                PUSH    HL
47EB: 21 52 52                          LD      HL,5252h
47EE: E5                                PUSH    HL
47EF: D5                                PUSH    DE
47F0: CD 52 19                          CALL    L1952
47F3: F1                                POP     AF
47F4: F1                                POP     AF
47F5: F1                                POP     AF
47F6: D1                                POP     DE
47F7: C1                                POP     BC
47F8: 21 17 02                          LD      HL,0217h
47FB: 09                                ADD     HL,BC
47FC: DD 75 FE                          LD      (IX-02h),L
47FF: DD 74 FF                          LD      (IX-01h),H
4802: C5                                PUSH    BC
4803: D5                                PUSH    DE
4804: 21 41 61                          LD      HL,6141h
4807: E5                                PUSH    HL
4808: 21 72 72                          LD      HL,7272h
480B: E5                                PUSH    HL
480C: DD 6E FE                          LD      L,(IX-02h)
480F: DD 66 FF                          LD      H,(IX-01h)
4812: E5                                PUSH    HL
4813: CD 52 19                          CALL    L1952
4816: F1                                POP     AF
4817: F1                                POP     AF
4818: F1                                POP     AF
4819: D1                                POP     DE
481A: C1                                POP     BC
481B: 69                                LD      L,C
481C: 60                                LD      H,B
481D: C5                                PUSH    BC
481E: 01 0F 00                          LD      BC,000Fh
4821: 09                                ADD     HL,BC
4822: C1                                POP     BC
4823: 7E                                LD      A,(HL)
4824: DD 77 FA                          LD      (IX-06h),A
4827: 23                                INC     HL
4828: 7E                                LD      A,(HL)
4829: DD 77 FB                          LD      (IX-05h),A
482C: 23                                INC     HL
482D: 7E                                LD      A,(HL)
482E: DD 77 FC                          LD      (IX-04h),A
4831: 23                                INC     HL
4832: 7E                                LD      A,(HL)
4833: DD 77 FD                          LD      (IX-03h),A
4836: 21 1B 02                          LD      HL,021Bh
4839: 09                                ADD     HL,BC
483A: DD 75 FE                          LD      (IX-02h),L
483D: DD 74 FF                          LD      (IX-01h),H
4840: C5                                PUSH    BC
4841: D5                                PUSH    DE
4842: DD 6E FC                          LD      L,(IX-04h)
4845: DD 66 FD                          LD      H,(IX-03h)
4848: E5                                PUSH    HL
4849: DD 6E FA                          LD      L,(IX-06h)
484C: DD 66 FB                          LD      H,(IX-05h)
484F: E5                                PUSH    HL
4850: DD 6E FE                          LD      L,(IX-02h)
4853: DD 66 FF                          LD      H,(IX-01h)
4856: E5                                PUSH    HL
4857: CD 52 19                          CALL    L1952
485A: F1                                POP     AF
485B: F1                                POP     AF
485C: F1                                POP     AF
485D: D1                                POP     DE
485E: C1                                POP     BC
485F: 69                                LD      L,C
4860: 60                                LD      H,B
4861: C5                                PUSH    BC
4862: 01 0B 00                          LD      BC,000Bh
4865: 09                                ADD     HL,BC
4866: C1                                POP     BC
4867: 7E                                LD      A,(HL)
4868: DD 77 FA                          LD      (IX-06h),A
486B: 23                                INC     HL
486C: 7E                                LD      A,(HL)
486D: DD 77 FB                          LD      (IX-05h),A
4870: 23                                INC     HL
4871: 7E                                LD      A,(HL)
4872: DD 77 FC                          LD      (IX-04h),A
4875: 23                                INC     HL
4876: 7E                                LD      A,(HL)
4877: DD 77 FD                          LD      (IX-03h),A
487A: 21 1F 02                          LD      HL,021Fh
487D: 09                                ADD     HL,BC
487E: DD 75 FE                          LD      (IX-02h),L
4881: DD 74 FF                          LD      (IX-01h),H
4884: C5                                PUSH    BC
4885: D5                                PUSH    DE
4886: DD 6E FC                          LD      L,(IX-04h)
4889: DD 66 FD                          LD      H,(IX-03h)
488C: E5                                PUSH    HL
488D: DD 6E FA                          LD      L,(IX-06h)
4890: DD 66 FB                          LD      H,(IX-05h)
4893: E5                                PUSH    HL
4894: DD 6E FE                          LD      L,(IX-02h)
4897: DD 66 FF                          LD      H,(IX-01h)
489A: E5                                PUSH    HL
489B: CD 52 19                          CALL    L1952
489E: F1                                POP     AF
489F: F1                                POP     AF
48A0: F1                                POP     AF
48A1: D1                                POP     DE
48A2: C1                                POP     BC
48A3: 21 2F 00                          LD      HL,002Fh
48A6: 09                                ADD     HL,BC
48A7: DD 75 FA                          LD      (IX-06h),L
48AA: DD 74 FB                          LD      (IX-05h),H
48AD: 69                                LD      L,C
48AE: 60                                LD      H,B
48AF: 01 1F 00                          LD      BC,001Fh
48B2: 09                                ADD     HL,BC
48B3: 4E                                LD      C,(HL)
48B4: 23                                INC     HL
48B5: 46                                LD      B,(HL)
48B6: 23                                INC     HL
48B7: 23                                INC     HL
48B8: 7E                                LD      A,(HL)
48B9: 2B                                DEC     HL
48BA: 6E                                LD      L,(HL)
48BB: 67                                LD      H,A
48BC: 79                                LD      A,C
48BD: C6 01                             ADD     A,01h
48BF: DD 77 FC                          LD      (IX-04h),A
48C2: 78                                LD      A,B
48C3: CE 00                             ADC     A,00h
48C5: DD 77 FD                          LD      (IX-03h),A
48C8: 7D                                LD      A,L
48C9: CE 00                             ADC     A,00h
48CB: DD 77 FE                          LD      (IX-02h),A
48CE: 7C                                LD      A,H
48CF: CE 00                             ADC     A,00h
48D1: DD 77 FF                          LD      (IX-01h),A
48D4: D5                                PUSH    DE
48D5: DD 5E FA                          LD      E,(IX-06h)
48D8: DD 56 FB                          LD      D,(IX-05h)
48DB: 21 09 00                          LD      HL,0009h
48DE: 39                                ADD     HL,SP
48DF: 01 04 00                          LD      BC,0004h
48E2: ED B0                             LDIR
48E4: D1                                POP     DE
48E5: DD 6E F6                          LD      L,(IX-0Ah)
48E8: DD 66 F7                          LD      H,(IX-09h)
48EB: 4E                                LD      C,(HL)
48EC: 21 01 00                          LD      HL,0001h
48EF: E5                                PUSH    HL
48F0: DD 6E FE                          LD      L,(IX-02h)
48F3: DD 66 FF                          LD      H,(IX-01h)
48F6: E5                                PUSH    HL
48F7: DD 6E FC                          LD      L,(IX-04h)
48FA: DD 66 FD                          LD      H,(IX-03h)
48FD: E5                                PUSH    HL
48FE: D5                                PUSH    DE
48FF: 79                                LD      A,C
4900: F5                                PUSH    AF
4901: 33                                INC     SP
4902: CD 79 03                          CALL    L0379
4905: 21 09 00                          LD      HL,0009h
4908: 39                                ADD     HL,SP
4909: F9                                LD      SP,HL
490A: DD 6E F8                          LD      L,(IX-08h)
490D: DD 66 F9                          LD      H,(IX-07h)
4910: 36 00                             LD      (HL),00h
4912: DD 6E F6                   L4912: LD      L,(IX-0Ah)
4915: DD 66 F7                          LD      H,(IX-09h)
4918: 46                                LD      B,(HL)
4919: 21 00 00                          LD      HL,0000h
491C: E5                                PUSH    HL
491D: AF                                XOR     A
491E: F5                                PUSH    AF
491F: 33                                INC     SP
4920: C5                                PUSH    BC
4921: 33                                INC     SP
4922: CD 7C 03                          CALL    L037C
4925: F1                                POP     AF
4926: F1                                POP     AF
4927: 7D                                LD      A,L
4928: B7                                OR      A
4929: 28 04                             JR      Z,L492F
492B: DD 36 F5 01                       LD      (IX-0Bh),01h
492F: DD 6E F5                   L492F: LD      L,(IX-0Bh)
4932: DD F9                             LD      SP,IX
4934: DD E1                             POP     IX
4936: C9                                RET

                                        ; --- START PROC L4937 ---
4937: CD CE 13                   L4937: CALL    L13CE
493A: DD 4E 04                          LD      C,(IX+04h)
493D: DD 46 05                          LD      B,(IX+05h)
4940: 59                                LD      E,C
4941: 50                                LD      D,B
4942: 13                                INC     DE
4943: 13                                INC     DE
4944: 13                                INC     DE
4945: AF                                XOR     A
4946: 12                                LD      (DE),A
4947: 21 2F 00                          LD      HL,002Fh
494A: 09                                ADD     HL,BC
494B: 36 FF                             LD      (HL),0FFh
494D: 23                                INC     HL
494E: 36 FF                             LD      (HL),0FFh
4950: 23                                INC     HL
4951: 36 FF                             LD      (HL),0FFh
4953: 23                                INC     HL
4954: 36 FF                             LD      (HL),0FFh
4956: C5                                PUSH    BC
4957: DD 6E 08                          LD      L,(IX+08h)
495A: DD 66 09                          LD      H,(IX+09h)
495D: E5                                PUSH    HL
495E: DD 6E 06                          LD      L,(IX+06h)
4961: DD 66 07                          LD      H,(IX+07h)
4964: E5                                PUSH    HL
4965: C5                                PUSH    BC
4966: CD DE 22                          CALL    L22DE
4969: F1                                POP     AF
496A: F1                                POP     AF
496B: F1                                POP     AF
496C: 5D                                LD      E,L
496D: C1                                POP     BC
496E: 7B                                LD      A,E
496F: B7                                OR      A
4970: 28 05                             JR      Z,L4977
4972: 21 04 00                          LD      HL,0004h
4975: 18 6D                             JR      L49E4

4977: 59                         L4977: LD      E,C
4978: 50                                LD      D,B
4979: 21 31 02                          LD      HL,0231h
497C: 09                                ADD     HL,BC
497D: C5                                PUSH    BC
497E: D5                                PUSH    DE
497F: E5                                PUSH    HL
4980: CD BF 22                          CALL    L22BF
4983: F1                                POP     AF
4984: D1                                POP     DE
4985: C1                                POP     BC
4986: 7D                                LD      A,L
4987: D6 55                             SUB     55h     ; 'U'
4989: 20 05                             JR      NZ,L4990
498B: 7C                                LD      A,H
498C: D6 AA                             SUB     0AAh
498E: 28 05                             JR      Z,L4995
4990: 21 03 00                   L4990: LD      HL,0003h
4993: 18 4F                             JR      L49E4

4995: EB                         L4995: EX      DE,HL
4996: 11 33 00                          LD      DE,0033h
4999: 19                                ADD     HL,DE
499A: 7E                                LD      A,(HL)
499B: FE E9                             CP      0E9h
499D: 28 08                             JR      Z,L49A7
499F: FE EB                             CP      0EBh
49A1: 28 04                             JR      Z,L49A7
49A3: D6 E8                             SUB     0E8h
49A5: 20 3A                             JR      NZ,L49E1
49A7: 21 69 00                   L49A7: LD      HL,0069h
49AA: 09                                ADD     HL,BC
49AB: C5                                PUSH    BC
49AC: 11 03 00                          LD      DE,0003h
49AF: D5                                PUSH    DE
49B0: 11 F3 49                          LD      DE,49F3h
49B3: D5                                PUSH    DE
49B4: E5                                PUSH    HL
49B5: CD 74 42                          CALL    L4274
49B8: F1                                POP     AF
49B9: F1                                POP     AF
49BA: F1                                POP     AF
49BB: C1                                POP     BC
49BC: 7C                                LD      A,H
49BD: B5                                OR      L
49BE: 20 05                             JR      NZ,L49C5
49C0: 21 00 00                          LD      HL,0000h
49C3: 18 1F                             JR      L49E4

49C5: 21 85 00                   L49C5: LD      HL,0085h
49C8: 09                                ADD     HL,BC
49C9: 01 05 00                          LD      BC,0005h
49CC: C5                                PUSH    BC
49CD: 01 F7 49                          LD      BC,49F7h
49D0: C5                                PUSH    BC
49D1: E5                                PUSH    HL
49D2: CD 74 42                          CALL    L4274
49D5: F1                                POP     AF
49D6: F1                                POP     AF
49D7: F1                                POP     AF
49D8: 7C                                LD      A,H
49D9: B5                                OR      L
49DA: 20 05                             JR      NZ,L49E1
49DC: 21 00 00                          LD      HL,0000h
49DF: 18 03                             JR      L49E4

49E1: 21 02 00                   L49E1: LD      HL,0002h
49E4: DD E1                      L49E4: POP     IX
49E6: C9                                RET

49E7: EB                         L49E7: DB      0EBh
49E8: 76                                DB      76h     ; 'v'
49E9: 90                                DB      90h
49EA: 45 58 46 41 54 20 20 20           DB      "EXFAT   "
49F2: 00                                DB      00h
49F3: 46                                DB      46h     ; 'F'
49F4: 41                                DB      41h     ; 'A'
49F5: 54                                DB      54h     ; 'T'
49F6: 00                                DB      00h
49F7: 46 41 54 33 32                    DB      "FAT32"
49FC: 00                                DB      00h

                                        ; --- START PROC L49FD ---
49FD: CD CE 13                   L49FD: CALL    L13CE
4A00: 21 E9 FF                          LD      HL,0FFE9h
4A03: 39                                ADD     HL,SP
4A04: F9                                LD      SP,HL
4A05: DD 7E 04                          LD      A,(IX+04h)
4A08: DD 77 FE                          LD      (IX-02h),A
4A0B: DD 7E 05                          LD      A,(IX+05h)
4A0E: DD 77 FF                          LD      (IX-01h),A
4A11: DD 6E FE                          LD      L,(IX-02h)
4A14: DD 66 FF                          LD      H,(IX-01h)
4A17: 7E                                LD      A,(HL)
4A18: DD 77 ED                          LD      (IX-13h),A
4A1B: 23                                INC     HL
4A1C: 7E                                LD      A,(HL)
4A1D: DD 77 EE                          LD      (IX-12h),A
4A20: DD 7E ED                          LD      A,(IX-13h)
4A23: C6 0B                             ADD     A,0Bh
4A25: DD 77 EF                          LD      (IX-11h),A
4A28: DD 7E EE                          LD      A,(IX-12h)
4A2B: CE 00                             ADC     A,00h
4A2D: DD 77 F0                          LD      (IX-10h),A
4A30: DD 7E ED                          LD      A,(IX-13h)
4A33: C6 17                             ADD     A,17h
4A35: DD 77 F1                          LD      (IX-0Fh),A
4A38: DD 7E EE                          LD      A,(IX-12h)
4A3B: CE 00                             ADC     A,00h
4A3D: DD 77 F2                          LD      (IX-0Eh),A
4A40: DD 7E 09                          LD      A,(IX+09h)
4A43: DD B6 08                          OR      (IX+08h)
4A46: DD B6 07                          OR      (IX+07h)
4A49: DD B6 06                          OR      (IX+06h)
4A4C: 20 5A                             JR      NZ,L4AA8
4A4E: DD 5E EF                          LD      E,(IX-11h)
4A51: DD 56 F0                          LD      D,(IX-10h)
4A54: 21 0A 00                          LD      HL,000Ah
4A57: 39                                ADD     HL,SP
4A58: EB                                EX      DE,HL
4A59: 01 04 00                          LD      BC,0004h
4A5C: ED B0                             LDIR
4A5E: DD 7E F6                          LD      A,(IX-0Ah)
4A61: DD B6 F5                          OR      (IX-0Bh)
4A64: DD B6 F4                          OR      (IX-0Ch)
4A67: DD B6 F3                          OR      (IX-0Dh)
4A6A: 28 2B                             JR      Z,L4A97
4A6C: DD 5E F1                          LD      E,(IX-0Fh)
4A6F: DD 56 F2                          LD      D,(IX-0Eh)
4A72: 21 13 00                          LD      HL,0013h
4A75: 39                                ADD     HL,SP
4A76: EB                                EX      DE,HL
4A77: 01 04 00                          LD      BC,0004h
4A7A: ED B0                             LDIR
4A7C: DD 7E F3                          LD      A,(IX-0Dh)
4A7F: DD 96 FC                          SUB     (IX-04h)
4A82: DD 7E F4                          LD      A,(IX-0Ch)
4A85: DD 9E FD                          SBC     A,(IX-03h)
4A88: DD 7E F5                          LD      A,(IX-0Bh)
4A8B: DD 9E FE                          SBC     A,(IX-02h)
4A8E: DD 7E F6                          LD      A,(IX-0Ah)
4A91: DD 9E FF                          SBC     A,(IX-01h)
4A94: DA 61 4B                          JP      C,L4B61
4A97: DD 36 F3 01                L4A97: LD      (IX-0Dh),01h
4A9B: AF                                XOR     A
4A9C: DD 77 F4                          LD      (IX-0Ch),A
4A9F: DD 77 F5                          LD      (IX-0Bh),A
4AA2: DD 77 F6                          LD      (IX-0Ah),A
4AA5: C3 61 4B                          JP      L4B61

4AA8: DD 6E 08                   L4AA8: LD      L,(IX+08h)
4AAB: DD 66 09                          LD      H,(IX+09h)
4AAE: E5                                PUSH    HL
4AAF: DD 6E 06                          LD      L,(IX+06h)
4AB2: DD 66 07                          LD      H,(IX+07h)
4AB5: E5                                PUSH    HL
4AB6: DD 6E FE                          LD      L,(IX-02h)
4AB9: DD 66 FF                          LD      H,(IX-01h)
4ABC: E5                                PUSH    HL
4ABD: CD 47 14                          CALL    L1447
4AC0: F1                                POP     AF
4AC1: F1                                POP     AF
4AC2: F1                                POP     AF
4AC3: DD 75 FC                          LD      (IX-04h),L
4AC6: DD 74 FD                          LD      (IX-03h),H
4AC9: DD 73 FE                          LD      (IX-02h),E
4ACC: DD 72 FF                          LD      (IX-01h),D
4ACF: 21 0F 00                          LD      HL,000Fh
4AD2: 39                                ADD     HL,SP
4AD3: EB                                EX      DE,HL
4AD4: 21 13 00                          LD      HL,0013h
4AD7: 39                                ADD     HL,SP
4AD8: 01 04 00                          LD      BC,0004h
4ADB: ED B0                             LDIR
4ADD: DD 7E F8                          LD      A,(IX-08h)
4AE0: D6 02                             SUB     02h
4AE2: DD 7E F9                          LD      A,(IX-07h)
4AE5: DE 00                             SBC     A,00h
4AE7: DD 7E FA                          LD      A,(IX-06h)
4AEA: DE 00                             SBC     A,00h
4AEC: DD 7E FB                          LD      A,(IX-05h)
4AEF: DE 00                             SBC     A,00h
4AF1: 30 09                             JR      NC,L4AFC
4AF3: 21 01 00                          LD      HL,0001h
4AF6: 11 00 00                          LD      DE,0000h
4AF9: C3 DE 4E                          JP      L4EDE

4AFC: DD 7E F8                   L4AFC: LD      A,(IX-08h)
4AFF: DD A6 F9                          AND     (IX-07h)
4B02: DD A6 FA                          AND     (IX-06h)
4B05: DD A6 FB                          AND     (IX-05h)
4B08: 3C                                INC     A
4B09: 20 0F                             JR      NZ,L4B1A
4B0B: DD 6E F8                          LD      L,(IX-08h)
4B0E: DD 66 F9                          LD      H,(IX-07h)
4B11: DD 5E FA                          LD      E,(IX-06h)
4B14: DD 56 FB                          LD      D,(IX-05h)
4B17: C3 DE 4E                          JP      L4EDE

4B1A: DD 5E F1                   L4B1A: LD      E,(IX-0Fh)
4B1D: DD 56 F2                          LD      D,(IX-0Eh)
4B20: 21 13 00                          LD      HL,0013h
4B23: 39                                ADD     HL,SP
4B24: EB                                EX      DE,HL
4B25: 01 04 00                          LD      BC,0004h
4B28: ED B0                             LDIR
4B2A: DD 7E F8                          LD      A,(IX-08h)
4B2D: DD 96 FC                          SUB     (IX-04h)
4B30: DD 7E F9                          LD      A,(IX-07h)
4B33: DD 9E FD                          SBC     A,(IX-03h)
4B36: DD 7E FA                          LD      A,(IX-06h)
4B39: DD 9E FE                          SBC     A,(IX-02h)
4B3C: DD 7E FB                          LD      A,(IX-05h)
4B3F: DD 9E FF                          SBC     A,(IX-01h)
4B42: 30 0F                             JR      NC,L4B53
4B44: DD 6E F8                          LD      L,(IX-08h)
4B47: DD 66 F9                          LD      H,(IX-07h)
4B4A: DD 5E FA                          LD      E,(IX-06h)
4B4D: DD 56 FB                          LD      D,(IX-05h)
4B50: C3 DE 4E                          JP      L4EDE

4B53: 21 0A 00                   L4B53: LD      HL,000Ah
4B56: 39                                ADD     HL,SP
4B57: EB                                EX      DE,HL
4B58: 21 1D 00                          LD      HL,001Dh
4B5B: 39                                ADD     HL,SP
4B5C: 01 04 00                          LD      BC,0004h
4B5F: ED B0                             LDIR
4B61: DD 7E ED                   L4B61: LD      A,(IX-13h)
4B64: C6 0F                             ADD     A,0Fh
4B66: DD 77 F7                          LD      (IX-09h),A
4B69: DD 7E EE                          LD      A,(IX-12h)
4B6C: CE 00                             ADC     A,00h
4B6E: DD 77 F8                          LD      (IX-08h),A
4B71: DD 6E F7                          LD      L,(IX-09h)
4B74: DD 66 F8                          LD      H,(IX-08h)
4B77: 4E                                LD      C,(HL)
4B78: 23                                INC     HL
4B79: 46                                LD      B,(HL)
4B7A: 23                                INC     HL
4B7B: 5E                                LD      E,(HL)
4B7C: 23                                INC     HL
4B7D: 56                                LD      D,(HL)
4B7E: 7A                                LD      A,D
4B7F: B3                                OR      E
4B80: B0                                OR      B
4B81: B1                                OR      C
4B82: 20 08                             JR      NZ,L4B8C
4B84: 21 00 00                          LD      HL,0000h
4B87: 5D                                LD      E,L
4B88: 54                                LD      D,H
4B89: C3 DE 4E                          JP      L4EDE

4B8C: AF                         L4B8C: XOR     A
4B8D: DD 77 FC                          LD      (IX-04h),A
4B90: DD 77 FD                          LD      (IX-03h),A
4B93: DD 77 FE                          LD      (IX-02h),A
4B96: DD 77 FF                          LD      (IX-01h),A
4B99: DD 7E 06                          LD      A,(IX+06h)
4B9C: DD 96 F3                          SUB     (IX-0Dh)
4B9F: C2 A0 4C                          JP      NZ,L4CA0
4BA2: DD 7E 07                          LD      A,(IX+07h)
4BA5: DD 96 F4                          SUB     (IX-0Ch)
4BA8: C2 A0 4C                          JP      NZ,L4CA0
4BAB: DD 7E 08                          LD      A,(IX+08h)
4BAE: DD 96 F5                          SUB     (IX-0Bh)
4BB1: C2 A0 4C                          JP      NZ,L4CA0
4BB4: DD 7E 09                          LD      A,(IX+09h)
4BB7: DD 96 F6                          SUB     (IX-0Ah)
4BBA: C2 A0 4C                          JP      NZ,L4CA0
4BBD: DD 7E F3                          LD      A,(IX-0Dh)
4BC0: C6 01                             ADD     A,01h
4BC2: DD 77 FC                          LD      (IX-04h),A
4BC5: DD 7E F4                          LD      A,(IX-0Ch)
4BC8: CE 00                             ADC     A,00h
4BCA: DD 77 FD                          LD      (IX-03h),A
4BCD: DD 7E F5                          LD      A,(IX-0Bh)
4BD0: CE 00                             ADC     A,00h
4BD2: DD 77 FE                          LD      (IX-02h),A
4BD5: DD 7E F6                          LD      A,(IX-0Ah)
4BD8: CE 00                             ADC     A,00h
4BDA: DD 77 FF                          LD      (IX-01h),A
4BDD: DD 6E F1                          LD      L,(IX-0Fh)
4BE0: DD 66 F2                          LD      H,(IX-0Eh)
4BE3: 4E                                LD      C,(HL)
4BE4: 23                                INC     HL
4BE5: 46                                LD      B,(HL)
4BE6: 23                                INC     HL
4BE7: 5E                                LD      E,(HL)
4BE8: 23                                INC     HL
4BE9: 56                                LD      D,(HL)
4BEA: DD 7E FC                          LD      A,(IX-04h)
4BED: 91                                SUB     C
4BEE: DD 7E FD                          LD      A,(IX-03h)
4BF1: 98                                SBC     A,B
4BF2: DD 7E FE                          LD      A,(IX-02h)
4BF5: 9B                                SBC     A,E
4BF6: DD 7E FF                          LD      A,(IX-01h)
4BF9: 9A                                SBC     A,D
4BFA: 38 0E                             JR      C,L4C0A
4BFC: DD 36 FC 02                       LD      (IX-04h),02h
4C00: AF                                XOR     A
4C01: DD 77 FD                          LD      (IX-03h),A
4C04: DD 77 FE                          LD      (IX-02h),A
4C07: DD 77 FF                          LD      (IX-01h),A
4C0A: DD 6E FE                   L4C0A: LD      L,(IX-02h)
4C0D: DD 66 FF                          LD      H,(IX-01h)
4C10: E5                                PUSH    HL
4C11: DD 6E FC                          LD      L,(IX-04h)
4C14: DD 66 FD                          LD      H,(IX-03h)
4C17: E5                                PUSH    HL
4C18: DD 6E 04                          LD      L,(IX+04h)
4C1B: DD 66 05                          LD      H,(IX+05h)
4C1E: E5                                PUSH    HL
4C1F: CD 47 14                          CALL    L1447
4C22: F1                                POP     AF
4C23: F1                                POP     AF
4C24: F1                                POP     AF
4C25: 4D                                LD      C,L
4C26: 44                                LD      B,H
4C27: 79                                LD      A,C
4C28: 3D                                DEC     A
4C29: B0                                OR      B
4C2A: B3                                OR      E
4C2B: B2                                OR      D
4C2C: 28 07                             JR      Z,L4C35
4C2E: 79                                LD      A,C
4C2F: A0                                AND     B
4C30: A3                                AND     E
4C31: A2                                AND     D
4C32: 3C                                INC     A
4C33: 20 05                             JR      NZ,L4C3A
4C35: 69                         L4C35: LD      L,C
4C36: 60                                LD      H,B
4C37: C3 DE 4E                          JP      L4EDE

4C3A: 7A                         L4C3A: LD      A,D
4C3B: B3                                OR      E
4C3C: B0                                OR      B
4C3D: B1                                OR      C
4C3E: 28 60                             JR      Z,L4CA0
4C40: DD 5E EF                          LD      E,(IX-11h)
4C43: DD 56 F0                          LD      D,(IX-10h)
4C46: 21 13 00                          LD      HL,0013h
4C49: 39                                ADD     HL,SP
4C4A: EB                                EX      DE,HL
4C4B: 01 04 00                          LD      BC,0004h
4C4E: ED B0                             LDIR
4C50: DD 7E FC                          LD      A,(IX-04h)
4C53: D6 02                             SUB     02h
4C55: DD 7E FD                          LD      A,(IX-03h)
4C58: DE 00                             SBC     A,00h
4C5A: DD 7E FE                          LD      A,(IX-02h)
4C5D: DE 00                             SBC     A,00h
4C5F: DD 7E FF                          LD      A,(IX-01h)
4C62: DE 00                             SBC     A,00h
4C64: 38 2D                             JR      C,L4C93
4C66: DD 6E F1                          LD      L,(IX-0Fh)
4C69: DD 66 F2                          LD      H,(IX-0Eh)
4C6C: 4E                                LD      C,(HL)
4C6D: 23                                INC     HL
4C6E: 46                                LD      B,(HL)
4C6F: 23                                INC     HL
4C70: 5E                                LD      E,(HL)
4C71: 23                                INC     HL
4C72: 56                                LD      D,(HL)
4C73: DD 7E FC                          LD      A,(IX-04h)
4C76: 91                                SUB     C
4C77: DD 7E FD                          LD      A,(IX-03h)
4C7A: 98                                SBC     A,B
4C7B: DD 7E FE                          LD      A,(IX-02h)
4C7E: 9B                                SBC     A,E
4C7F: DD 7E FF                          LD      A,(IX-01h)
4C82: 9A                                SBC     A,D
4C83: 30 0E                             JR      NC,L4C93
4C85: 21 0A 00                          LD      HL,000Ah
4C88: 39                                ADD     HL,SP
4C89: EB                                EX      DE,HL
4C8A: 21 13 00                          LD      HL,0013h
4C8D: 39                                ADD     HL,SP
4C8E: 01 04 00                          LD      BC,0004h
4C91: ED B0                             LDIR
4C93: AF                         L4C93: XOR     A
4C94: DD 77 FC                          LD      (IX-04h),A
4C97: DD 77 FD                          LD      (IX-03h),A
4C9A: DD 77 FE                          LD      (IX-02h),A
4C9D: DD 77 FF                          LD      (IX-01h),A
4CA0: DD 7E FF                   L4CA0: LD      A,(IX-01h)
4CA3: DD B6 FE                          OR      (IX-02h)
4CA6: DD B6 FD                          OR      (IX-03h)
4CA9: DD B6 FC                          OR      (IX-04h)
4CAC: C2 8D 4D                          JP      NZ,L4D8D
4CAF: 21 13 00                          LD      HL,0013h
4CB2: 39                                ADD     HL,SP
4CB3: EB                                EX      DE,HL
4CB4: 21 0A 00                          LD      HL,000Ah
4CB7: 39                                ADD     HL,SP
4CB8: 01 04 00                          LD      BC,0004h
4CBB: ED B0                             LDIR
4CBD: DD 7E F3                          LD      A,(IX-0Dh)
4CC0: D6 02                             SUB     02h
4CC2: DD 7E F4                          LD      A,(IX-0Ch)
4CC5: DE 00                             SBC     A,00h
4CC7: DD 7E F5                          LD      A,(IX-0Bh)
4CCA: DE 00                             SBC     A,00h
4CCC: DD 7E F6                          LD      A,(IX-0Ah)
4CCF: DE 00                             SBC     A,00h
4CD1: 3E 00                             LD      A,00h
4CD3: 17                                RLA
4CD4: DD 77 F9                          LD      (IX-07h),A
4CD7: DD 7E F1                          LD      A,(IX-0Fh)
4CDA: DD 77 FA                          LD      (IX-06h),A
4CDD: DD 7E F2                          LD      A,(IX-0Eh)
4CE0: DD 77 FB                          LD      (IX-05h),A
4CE3: DD 34 FC                   L4CE3: INC     (IX-04h)
4CE6: 20 0D                             JR      NZ,L4CF5
4CE8: DD 34 FD                          INC     (IX-03h)
4CEB: 20 08                             JR      NZ,L4CF5
4CED: DD 34 FE                          INC     (IX-02h)
4CF0: 20 03                             JR      NZ,L4CF5
4CF2: DD 34 FF                          INC     (IX-01h)
4CF5: DD 6E FA                   L4CF5: LD      L,(IX-06h)
4CF8: DD 66 FB                          LD      H,(IX-05h)
4CFB: 4E                                LD      C,(HL)
4CFC: 23                                INC     HL
4CFD: 46                                LD      B,(HL)
4CFE: 23                                INC     HL
4CFF: 5E                                LD      E,(HL)
4D00: 23                                INC     HL
4D01: 56                                LD      D,(HL)
4D02: DD 7E FC                          LD      A,(IX-04h)
4D05: 91                                SUB     C
4D06: DD 7E FD                          LD      A,(IX-03h)
4D09: 98                                SBC     A,B
4D0A: DD 7E FE                          LD      A,(IX-02h)
4D0D: 9B                                SBC     A,E
4D0E: DD 7E FF                          LD      A,(IX-01h)
4D11: 9A                                SBC     A,D
4D12: 38 1C                             JR      C,L4D30
4D14: DD 36 FC 02                       LD      (IX-04h),02h
4D18: AF                                XOR     A
4D19: DD 77 FD                          LD      (IX-03h),A
4D1C: DD 77 FE                          LD      (IX-02h),A
4D1F: DD 77 FF                          LD      (IX-01h),A
4D22: DD 7E F9                          LD      A,(IX-07h)
4D25: B7                                OR      A
4D26: 28 08                             JR      Z,L4D30
4D28: 21 00 00                          LD      HL,0000h
4D2B: 5D                                LD      E,L
4D2C: 54                                LD      D,H
4D2D: C3 DE 4E                          JP      L4EDE

4D30: DD 6E FE                   L4D30: LD      L,(IX-02h)
4D33: DD 66 FF                          LD      H,(IX-01h)
4D36: E5                                PUSH    HL
4D37: DD 6E FC                          LD      L,(IX-04h)
4D3A: DD 66 FD                          LD      H,(IX-03h)
4D3D: E5                                PUSH    HL
4D3E: DD 6E 04                          LD      L,(IX+04h)
4D41: DD 66 05                          LD      H,(IX+05h)
4D44: E5                                PUSH    HL
4D45: CD 47 14                          CALL    L1447
4D48: F1                                POP     AF
4D49: F1                                POP     AF
4D4A: F1                                POP     AF
4D4B: 7A                                LD      A,D
4D4C: B3                                OR      E
4D4D: B4                                OR      H
4D4E: B5                                OR      L
4D4F: 28 3C                             JR      Z,L4D8D
4D51: 7D                                LD      A,L
4D52: 3D                                DEC     A
4D53: B4                                OR      H
4D54: B3                                OR      E
4D55: B2                                OR      D
4D56: CA DE 4E                          JP      Z,L4EDE
4D59: 7D                                LD      A,L
4D5A: A4                                AND     H
4D5B: A3                                AND     E
4D5C: A2                                AND     D
4D5D: 3C                                INC     A
4D5E: CA DE 4E                          JP      Z,L4EDE
4D61: DD 7E FC                          LD      A,(IX-04h)
4D64: DD 96 F3                          SUB     (IX-0Dh)
4D67: C2 E3 4C                          JP      NZ,L4CE3
4D6A: DD 7E FD                          LD      A,(IX-03h)
4D6D: DD 96 F4                          SUB     (IX-0Ch)
4D70: C2 E3 4C                          JP      NZ,L4CE3
4D73: DD 7E FE                          LD      A,(IX-02h)
4D76: DD 96 F5                          SUB     (IX-0Bh)
4D79: C2 E3 4C                          JP      NZ,L4CE3
4D7C: DD 7E FF                          LD      A,(IX-01h)
4D7F: DD 96 F6                          SUB     (IX-0Ah)
4D82: C2 E3 4C                          JP      NZ,L4CE3
4D85: 21 00 00                          LD      HL,0000h
4D88: 5D                                LD      E,L
4D89: 54                                LD      D,H
4D8A: C3 DE 4E                          JP      L4EDE

4D8D: 21 FF FF                   L4D8D: LD      HL,0FFFFh
4D90: E5                                PUSH    HL
4D91: 21 FF FF                          LD      HL,0FFFFh
4D94: E5                                PUSH    HL
4D95: DD 6E FE                          LD      L,(IX-02h)
4D98: DD 66 FF                          LD      H,(IX-01h)
4D9B: E5                                PUSH    HL
4D9C: DD 6E FC                          LD      L,(IX-04h)
4D9F: DD 66 FD                          LD      H,(IX-03h)
4DA2: E5                                PUSH    HL
4DA3: DD 6E ED                          LD      L,(IX-13h)
4DA6: DD 66 EE                          LD      H,(IX-12h)
4DA9: E5                                PUSH    HL
4DAA: CD B8 25                          CALL    L25B8
4DAD: FD 21 0A 00                       LD      IY,000Ah
4DB1: FD 39                             ADD     IY,SP
4DB3: FD F9                             LD      SP,IY
4DB5: DD 75 FB                          LD      (IX-05h),L
4DB8: 7D                                LD      A,L
4DB9: B7                                OR      A
4DBA: 20 3F                             JR      NZ,L4DFB
4DBC: DD 7E 09                          LD      A,(IX+09h)
4DBF: DD B6 08                          OR      (IX+08h)
4DC2: DD B6 07                          OR      (IX+07h)
4DC5: DD B6 06                          OR      (IX+06h)
4DC8: 28 31                             JR      Z,L4DFB
4DCA: DD 6E FE                          LD      L,(IX-02h)
4DCD: DD 66 FF                          LD      H,(IX-01h)
4DD0: E5                                PUSH    HL
4DD1: DD 6E FC                          LD      L,(IX-04h)
4DD4: DD 66 FD                          LD      H,(IX-03h)
4DD7: E5                                PUSH    HL
4DD8: DD 6E 08                          LD      L,(IX+08h)
4DDB: DD 66 09                          LD      H,(IX+09h)
4DDE: E5                                PUSH    HL
4DDF: DD 6E 06                          LD      L,(IX+06h)
4DE2: DD 66 07                          LD      H,(IX+07h)
4DE5: E5                                PUSH    HL
4DE6: DD 6E ED                          LD      L,(IX-13h)
4DE9: DD 66 EE                          LD      H,(IX-12h)
4DEC: E5                                PUSH    HL
4DED: CD B8 25                          CALL    L25B8
4DF0: FD 21 0A 00                       LD      IY,000Ah
4DF4: FD 39                             ADD     IY,SP
4DF6: FD F9                             LD      SP,IY
4DF8: DD 75 FB                          LD      (IX-05h),L
4DFB: DD 7E FB                   L4DFB: LD      A,(IX-05h)
4DFE: B7                                OR      A
4DFF: C2 AC 4E                          JP      NZ,L4EAC
4E02: DD 5E EF                          LD      E,(IX-11h)
4E05: DD 56 F0                          LD      D,(IX-10h)
4E08: 21 13 00                          LD      HL,0013h
4E0B: 39                                ADD     HL,SP
4E0C: 01 04 00                          LD      BC,0004h
4E0F: ED B0                             LDIR
4E11: DD 5E F7                          LD      E,(IX-09h)
4E14: DD 56 F8                          LD      D,(IX-08h)
4E17: 21 00 00                          LD      HL,0000h
4E1A: 39                                ADD     HL,SP
4E1B: EB                                EX      DE,HL
4E1C: 01 04 00                          LD      BC,0004h
4E1F: ED B0                             LDIR
4E21: DD 5E F1                          LD      E,(IX-0Fh)
4E24: DD 56 F2                          LD      D,(IX-0Eh)
4E27: 21 0A 00                          LD      HL,000Ah
4E2A: 39                                ADD     HL,SP
4E2B: EB                                EX      DE,HL
4E2C: 01 04 00                          LD      BC,0004h
4E2F: ED B0                             LDIR
4E31: DD 7E F3                          LD      A,(IX-0Dh)
4E34: C6 FE                             ADD     A,0FEh
4E36: DD 77 EF                          LD      (IX-11h),A
4E39: DD 7E F4                          LD      A,(IX-0Ch)
4E3C: CE FF                             ADC     A,0FFh
4E3E: DD 77 F0                          LD      (IX-10h),A
4E41: DD 7E F5                          LD      A,(IX-0Bh)
4E44: CE FF                             ADC     A,0FFh
4E46: DD 77 F1                          LD      (IX-0Fh),A
4E49: DD 7E F6                          LD      A,(IX-0Ah)
4E4C: CE FF                             ADC     A,0FFh
4E4E: DD 77 F2                          LD      (IX-0Eh),A
4E51: DD 7E EF                          LD      A,(IX-11h)
4E54: DD 96 E9                          SUB     (IX-17h)
4E57: DD 7E F0                          LD      A,(IX-10h)
4E5A: DD 9E EA                          SBC     A,(IX-16h)
4E5D: DD 7E F1                          LD      A,(IX-0Fh)
4E60: DD 9E EB                          SBC     A,(IX-15h)
4E63: DD 7E F2                          LD      A,(IX-0Eh)
4E66: DD 9E EC                          SBC     A,(IX-14h)
4E69: 38 2F                             JR      C,L4E9A
4E6B: DD 7E E9                          LD      A,(IX-17h)
4E6E: C6 FF                             ADD     A,0FFh
4E70: DD 77 F3                          LD      (IX-0Dh),A
4E73: DD 7E EA                          LD      A,(IX-16h)
4E76: CE FF                             ADC     A,0FFh
4E78: DD 77 F4                          LD      (IX-0Ch),A
4E7B: DD 7E EB                          LD      A,(IX-15h)
4E7E: CE FF                             ADC     A,0FFh
4E80: DD 77 F5                          LD      (IX-0Bh),A
4E83: DD 7E EC                          LD      A,(IX-14h)
4E86: CE FF                             ADC     A,0FFh
4E88: DD 77 F6                          LD      (IX-0Ah),A
4E8B: DD 5E F7                          LD      E,(IX-09h)
4E8E: DD 56 F8                          LD      D,(IX-08h)
4E91: 21 0A 00                          LD      HL,000Ah
4E94: 39                                ADD     HL,SP
4E95: 01 04 00                          LD      BC,0004h
4E98: ED B0                             LDIR
4E9A: DD 7E ED                   L4E9A: LD      A,(IX-13h)
4E9D: C6 04                             ADD     A,04h
4E9F: 4F                                LD      C,A
4EA0: DD 7E EE                          LD      A,(IX-12h)
4EA3: CE 00                             ADC     A,00h
4EA5: 47                                LD      B,A
4EA6: 0A                                LD      A,(BC)
4EA7: CB C7                             SET     0,A
4EA9: 02                                LD      (BC),A
4EAA: 18 26                             JR      L4ED2

4EAC: DD 7E FB                   L4EAC: LD      A,(IX-05h)
4EAF: 3D                                DEC     A
4EB0: 20 12                             JR      NZ,L4EC4
4EB2: DD 36 FC FF                       LD      (IX-04h),0FFh
4EB6: DD 36 FD FF                       LD      (IX-03h),0FFh
4EBA: DD 36 FE FF                       LD      (IX-02h),0FFh
4EBE: DD 36 FF FF                       LD      (IX-01h),0FFh
4EC2: 18 0E                             JR      L4ED2

4EC4: DD 36 FC 01                L4EC4: LD      (IX-04h),01h
4EC8: AF                                XOR     A
4EC9: DD 77 FD                          LD      (IX-03h),A
4ECC: DD 77 FE                          LD      (IX-02h),A
4ECF: DD 77 FF                          LD      (IX-01h),A
4ED2: DD 6E FC                   L4ED2: LD      L,(IX-04h)
4ED5: DD 66 FD                          LD      H,(IX-03h)
4ED8: DD 5E FE                          LD      E,(IX-02h)
4EDB: DD 56 FF                          LD      D,(IX-01h)
4EDE: DD F9                      L4EDE: LD      SP,IX
4EE0: DD E1                             POP     IX
4EE2: C9                                RET

                                        ; --- START PROC L4EE3 ---
4EE3: DD E5                      L4EE3: PUSH    IX
4EE5: DD 21 00 00                       LD      IX,0000h
4EE9: DD 39                             ADD     IX,SP
4EEB: 21 F8 FF                          LD      HL,0FFF8h
4EEE: 39                                ADD     HL,SP
4EEF: F9                                LD      SP,HL
4EF0: 21 0C 00                          LD      HL,000Ch
4EF3: 39                                ADD     HL,SP
4EF4: EB                                EX      DE,HL
4EF5: 4B                                LD      C,E
4EF6: 42                                LD      B,D
4EF7: 03                                INC     BC
4EF8: 03                                INC     BC
4EF9: DD 71 FE                          LD      (IX-02h),C
4EFC: DD 70 FF                          LD      (IX-01h),B
4EFF: 6B                                LD      L,E
4F00: 62                                LD      H,D
4F01: 23                                INC     HL
4F02: 23                                INC     HL
4F03: 4E                                LD      C,(HL)
4F04: 23                                INC     HL
4F05: 46                                LD      B,(HL)
4F06: 21 10 00                          LD      HL,0010h
4F09: 39                                ADD     HL,SP
4F0A: E3                                EX      (SP),HL
4F0B: E1                                POP     HL
4F0C: E5                                PUSH    HL
4F0D: 7E                                LD      A,(HL)
4F0E: 23                                INC     HL
4F0F: 66                                LD      H,(HL)
4F10: 6F                                LD      L,A
4F11: D5                                PUSH    DE
4F12: E5                                PUSH    HL
4F13: C5                                PUSH    BC
4F14: CD 2F 3A                          CALL    L3A2F
4F17: F1                                POP     AF
4F18: F1                                POP     AF
4F19: 4D                                LD      C,L
4F1A: 44                                LD      B,H
4F1B: D1                                POP     DE
4F1C: DD 6E FE                          LD      L,(IX-02h)
4F1F: DD 66 FF                          LD      H,(IX-01h)
4F22: 71                                LD      (HL),C
4F23: 23                                INC     HL
4F24: 70                                LD      (HL),B
4F25: 4B                                LD      C,E
4F26: 42                                LD      B,D
4F27: 03                                INC     BC
4F28: 03                                INC     BC
4F29: DD 71 FC                          LD      (IX-04h),C
4F2C: DD 70 FD                          LD      (IX-03h),B
4F2F: 6B                                LD      L,E
4F30: 62                                LD      H,D
4F31: 23                                INC     HL
4F32: 23                                INC     HL
4F33: 7E                                LD      A,(HL)
4F34: DD 77 FE                          LD      (IX-02h),A
4F37: 23                                INC     HL
4F38: 7E                                LD      A,(HL)
4F39: DD 77 FF                          LD      (IX-01h),A
4F3C: E1                                POP     HL
4F3D: E5                                PUSH    HL
4F3E: 23                                INC     HL
4F3F: 23                                INC     HL
4F40: 4E                                LD      C,(HL)
4F41: 23                                INC     HL
4F42: 46                                LD      B,(HL)
4F43: 6B                                LD      L,E
4F44: 62                                LD      H,D
4F45: 7E                                LD      A,(HL)
4F46: 23                                INC     HL
4F47: 66                                LD      H,(HL)
4F48: 6F                                LD      L,A
4F49: D5                                PUSH    DE
4F4A: E5                                PUSH    HL
4F4B: C5                                PUSH    BC
4F4C: CD 2F 3A                          CALL    L3A2F
4F4F: F1                                POP     AF
4F50: F1                                POP     AF
4F51: D1                                POP     DE
4F52: DD 7E FE                          LD      A,(IX-02h)
4F55: 85                                ADD     A,L
4F56: 4F                                LD      C,A
4F57: DD 7E FF                          LD      A,(IX-01h)
4F5A: 8C                                ADC     A,H
4F5B: 47                                LD      B,A
4F5C: DD 6E FC                          LD      L,(IX-04h)
4F5F: DD 66 FD                          LD      H,(IX-03h)
4F62: 71                                LD      (HL),C
4F63: 23                                INC     HL
4F64: 70                                LD      (HL),B
4F65: 4B                                LD      C,E
4F66: 42                                LD      B,D
4F67: 03                                INC     BC
4F68: 03                                INC     BC
4F69: DD 71 FD                          LD      (IX-03h),C
4F6C: DD 70 FE                          LD      (IX-02h),B
4F6F: 6B                                LD      L,E
4F70: 62                                LD      H,D
4F71: 23                                INC     HL
4F72: 23                                INC     HL
4F73: 4E                                LD      C,(HL)
4F74: 23                                INC     HL
4F75: 46                                LD      B,(HL)
4F76: 6B                                LD      L,E
4F77: 62                                LD      H,D
4F78: 23                                INC     HL
4F79: 7E                                LD      A,(HL)
4F7A: DD 77 FF                          LD      (IX-01h),A
4F7D: E1                                POP     HL
4F7E: E5                                PUSH    HL
4F7F: 23                                INC     HL
4F80: 66                                LD      H,(HL)
4F81: D5                                PUSH    DE
4F82: C5                                PUSH    BC
4F83: DD 5E FF                          LD      E,(IX-01h)
4F86: 2E 00                             LD      L,00h
4F88: 55                                LD      D,L
4F89: 06 08                             LD      B,08h
4F8B: 29                         L4F8B: ADD     HL,HL
4F8C: 30 01                             JR      NC,L4F8F
4F8E: 19                                ADD     HL,DE
4F8F: 10 FA                      L4F8F: DJNZ    L4F8B
4F91: C1                                POP     BC
4F92: D1                                POP     DE
4F93: 09                                ADD     HL,BC
4F94: 4D                                LD      C,L
4F95: 44                                LD      B,H
4F96: DD 6E FD                          LD      L,(IX-03h)
4F99: DD 66 FE                          LD      H,(IX-02h)
4F9C: 71                                LD      (HL),C
4F9D: 23                                INC     HL
4F9E: 70                                LD      (HL),B
4F9F: E1                                POP     HL
4FA0: E5                                PUSH    HL
4FA1: 4E                                LD      C,(HL)
4FA2: 6B                                LD      L,E
4FA3: 62                                LD      H,D
4FA4: 23                                INC     HL
4FA5: 66                                LD      H,(HL)
4FA6: D5                                PUSH    DE
4FA7: 59                                LD      E,C
4FA8: 2E 00                             LD      L,00h
4FAA: 55                                LD      D,L
4FAB: 06 08                             LD      B,08h
4FAD: 29                         L4FAD: ADD     HL,HL
4FAE: 30 01                             JR      NC,L4FB1
4FB0: 19                                ADD     HL,DE
4FB1: 10 FA                      L4FB1: DJNZ    L4FAD
4FB3: D1                                POP     DE
4FB4: DD 75 FA                          LD      (IX-06h),L
4FB7: DD 74 FB                          LD      (IX-05h),H
4FBA: C1                                POP     BC
4FBB: C5                                PUSH    BC
4FBC: 03                                INC     BC
4FBD: DD 71 FE                          LD      (IX-02h),C
4FC0: DD 70 FF                          LD      (IX-01h),B
4FC3: 6B                                LD      L,E
4FC4: 62                                LD      H,D
4FC5: 4E                                LD      C,(HL)
4FC6: E1                                POP     HL
4FC7: E5                                PUSH    HL
4FC8: 23                                INC     HL
4FC9: 66                                LD      H,(HL)
4FCA: D5                                PUSH    DE
4FCB: 59                                LD      E,C
4FCC: 2E 00                             LD      L,00h
4FCE: 55                                LD      D,L
4FCF: 06 08                             LD      B,08h
4FD1: 29                         L4FD1: ADD     HL,HL
4FD2: 30 01                             JR      NC,L4FD5
4FD4: 19                                ADD     HL,DE
4FD5: 10 FA                      L4FD5: DJNZ    L4FD1
4FD7: D1                                POP     DE
4FD8: 4D                                LD      C,L
4FD9: 44                                LD      B,H
4FDA: DD 6E FE                          LD      L,(IX-02h)
4FDD: DD 66 FF                          LD      H,(IX-01h)
4FE0: 71                                LD      (HL),C
4FE1: 23                                INC     HL
4FE2: 70                                LD      (HL),B
4FE3: C1                                POP     BC
4FE4: C5                                PUSH    BC
4FE5: 03                                INC     BC
4FE6: 03                                INC     BC
4FE7: 03                                INC     BC
4FE8: DD 71 FC                          LD      (IX-04h),C
4FEB: DD 70 FD                          LD      (IX-03h),B
4FEE: C1                                POP     BC
4FEF: C5                                PUSH    BC
4FF0: 03                                INC     BC
4FF1: DD 71 FE                          LD      (IX-02h),C
4FF4: DD 70 FF                          LD      (IX-01h),B
4FF7: E1                                POP     HL
4FF8: E5                                PUSH    HL
4FF9: 23                                INC     HL
4FFA: 4E                                LD      C,(HL)
4FFB: 23                                INC     HL
4FFC: 46                                LD      B,(HL)
4FFD: 79                                LD      A,C
4FFE: DD 86 FA                          ADD     A,(IX-06h)
5001: 4F                                LD      C,A
5002: 78                                LD      A,B
5003: DD 8E FB                          ADC     A,(IX-05h)
5006: 47                                LD      B,A
5007: DD 6E FE                          LD      L,(IX-02h)
500A: DD 66 FF                          LD      H,(IX-01h)
500D: 71                                LD      (HL),C
500E: 23                                INC     HL
500F: 70                                LD      (HL),B
5010: 79                                LD      A,C
5011: DD 96 FA                          SUB     (IX-06h)
5014: 78                                LD      A,B
5015: DD 9E FB                          SBC     A,(IX-05h)
5018: 3E 00                             LD      A,00h
501A: 17                                RLA
501B: DD 6E FC                          LD      L,(IX-04h)
501E: DD 66 FD                          LD      H,(IX-03h)
5021: 77                                LD      (HL),A
5022: 4B                                LD      C,E
5023: 42                                LD      B,D
5024: 1A                                LD      A,(DE)
5025: 5F                                LD      E,A
5026: E1                                POP     HL
5027: E5                                PUSH    HL
5028: 66                                LD      H,(HL)
5029: C5                                PUSH    BC
502A: 2E 00                             LD      L,00h
502C: 55                                LD      D,L
502D: 06 08                             LD      B,08h
502F: 29                         L502F: ADD     HL,HL
5030: 30 01                             JR      NC,L5033
5032: 19                                ADD     HL,DE
5033: 10 FA                      L5033: DJNZ    L502F
5035: C1                                POP     BC
5036: EB                                EX      DE,HL
5037: 7B                                LD      A,E
5038: 02                                LD      (BC),A
5039: 03                                INC     BC
503A: 7A                                LD      A,D
503B: 02                                LD      (BC),A
503C: C1                                POP     BC
503D: C5                                PUSH    BC
503E: AF                                XOR     A
503F: 02                                LD      (BC),A
5040: DD 7E 04                          LD      A,(IX+04h)
5043: DD 86 08                          ADD     A,(IX+08h)
5046: 6F                                LD      L,A
5047: DD 7E 05                          LD      A,(IX+05h)
504A: DD 8E 09                          ADC     A,(IX+09h)
504D: 67                                LD      H,A
504E: DD 7E 06                          LD      A,(IX+06h)
5051: DD 8E 0A                          ADC     A,(IX+0Ah)
5054: 5F                                LD      E,A
5055: DD 7E 07                          LD      A,(IX+07h)
5058: DD 8E 0B                          ADC     A,(IX+0Bh)
505B: 57                                LD      D,A
505C: DD F9                             LD      SP,IX
505E: DD E1                             POP     IX
5060: C9                                RET

                                        ; --- START PROC L5061 ---
5061: DD E5                      L5061: PUSH    IX
5063: DD 21 00 00                       LD      IX,0000h
5067: DD 39                             ADD     IX,SP
5069: 3B                                DEC     SP
506A: 01 00 00                          LD      BC,0000h
506D: 11 00 00                          LD      DE,0000h
5070: DD 36 FF 20                       LD      (IX-01h),20h    ; ' '
5074: DD 7E 07                   L5074: LD      A,(IX+07h)
5077: CB 07                             RLC     A
5079: E6 01                             AND     01h
507B: 6F                                LD      L,A
507C: DD CB 04 26                       SLA     (IX+04h)
5080: DD CB 05 16                       RL      (IX+05h)
5084: DD CB 06 16                       RL      (IX+06h)
5088: DD CB 07 16                       RL      (IX+07h)
508C: CB 21                             SLA     C
508E: CB 10                             RL      B
5090: CB 13                             RL      E
5092: CB 12                             RL      D
5094: CB 45                             BIT     0,L
5096: 28 02                             JR      Z,L509A
5098: CB C1                             SET     0,C
509A: 79                         L509A: LD      A,C
509B: DD 96 08                          SUB     (IX+08h)
509E: 78                                LD      A,B
509F: DD 9E 09                          SBC     A,(IX+09h)
50A2: 7B                                LD      A,E
50A3: DD 9E 0A                          SBC     A,(IX+0Ah)
50A6: 7A                                LD      A,D
50A7: DD 9E 0B                          SBC     A,(IX+0Bh)
50AA: 38 2E                             JR      C,L50DA
50AC: 79                                LD      A,C
50AD: DD 96 08                          SUB     (IX+08h)
50B0: 4F                                LD      C,A
50B1: 78                                LD      A,B
50B2: DD 9E 09                          SBC     A,(IX+09h)
50B5: 47                                LD      B,A
50B6: 7B                                LD      A,E
50B7: DD 9E 0A                          SBC     A,(IX+0Ah)
50BA: 5F                                LD      E,A
50BB: 7A                                LD      A,D
50BC: DD 9E 0B                          SBC     A,(IX+0Bh)
50BF: 57                                LD      D,A
50C0: DD 7E 04                          LD      A,(IX+04h)
50C3: F6 01                             OR      01h
50C5: DD 77 04                          LD      (IX+04h),A
50C8: DD 7E 05                          LD      A,(IX+05h)
50CB: DD 77 05                          LD      (IX+05h),A
50CE: DD 7E 06                          LD      A,(IX+06h)
50D1: DD 77 06                          LD      (IX+06h),A
50D4: DD 7E 07                          LD      A,(IX+07h)
50D7: DD 77 07                          LD      (IX+07h),A
50DA: DD 35 FF                   L50DA: DEC     (IX-01h)
50DD: DD 7E FF                          LD      A,(IX-01h)
50E0: B7                                OR      A
50E1: 20 91                             JR      NZ,L5074
50E3: DD 6E 04                          LD      L,(IX+04h)
50E6: DD 66 05                          LD      H,(IX+05h)
50E9: DD 5E 06                          LD      E,(IX+06h)
50EC: DD 56 07                          LD      D,(IX+07h)
50EF: 33                                INC     SP
50F0: DD E1                             POP     IX
50F2: C9                                RET

50F3: 06                         L50F3: DB      06h
50F4: 13                                DB      13h

                                        ; --- START PROC L50F5 ---
50F5: 21 00 70                   L50F5: LD      HL,7000h
50F8: AF                                XOR     A
50F9: 77                                LD      (HL),A
50FA: 01 B7 02                          LD      BC,02B7h
50FD: 78                                LD      A,B
50FE: B1                                OR      C
50FF: 28 05                             JR      Z,L5106
5101: 11 01 70                          LD      DE,7001h
5104: ED B0                             LDIR
5106: 01 02 00                   L5106: LD      BC,0002h
5109: 78                                LD      A,B
510A: B1                                OR      C
510B: 28 08                             JR      Z,L5115
510D: 11 B8 72                          LD      DE,72B8h
5110: 21 F3 50                          LD      HL,50F3h
5113: ED B0                             LDIR
                                        ; --- START PROC L5115 ---
5115: C9                         L5115: RET


references to external address 72B5h:
        2278 LD HL,(72B5h)
        227C LD (72B5h),HL
        227F LD IY,72B5h

references to external address 72B8h:
        1237 LD HL,(72B8h)
        12B2 LD HL,(72B8h)
        510D LD DE,72B8h

possible references to internal address 0000:
        0114 LD IX,0000h
        0171 LD HL,0000h
        0221 LD HL,0000h
        02D9 LD HL,0000h
        02E7 LD HL,0000h
        02F1 LD IX,0000h
        08E2 LD HL,0000h
        0996 LD HL,0000h
        09A3 LD HL,0000h
        0A97 LD HL,0000h
        0ABA LD HL,0000h
        0ABE LD HL,0000h
        0ADF LD HL,0000h
        0AE3 LD HL,0000h
        0B27 LD HL,0000h
        0B2B LD HL,0000h
        0F1F LD HL,0000h
        10BC LD IX,0000h
        1166 LD BC,0000h
        11A1 LD DE,0000h
        11CE LD DE,0000h
        11FA LD DE,0000h
        1275 LD IY,0000h
        128B LD IX,0000h
        1363 LD HL,0000h
        138C LD DE,0000h
        13D1 LD IX,0000h
        1417 LD BC,0000h
        150E LD HL,0000h
        157F LD DE,0000h
        1766 LD HL,0000h
        1830 LD HL,0000h
        1834 LD HL,0000h
        19F4 LD HL,0000h
        19F8 LD HL,0000h
        1B78 LD HL,0000h
        1BFF LD DE,0000h
        1D28 LD DE,0000h
        1E31 LD DE,0000h
        1E7A LD HL,0000h
        1E8F LD HL,0000h
        2087 LD HL,0000h
        2490 LD HL,0000h
        2494 LD HL,0000h
        266E LD HL,0000h
        2738 LD HL,0000h
        28FB LD HL,0000h
        2D7E LD DE,0000h
        2DDB LD IX,0000h
        2E31 LD IX,0000h
        2EC1 LD IX,0000h
        3504 LD HL,0000h
        3604 LD HL,0000h
        3658 LD HL,0000h
        3B36 LD HL,0000h
        3B3A LD HL,0000h
        3BDB LD HL,0000h
        3C2E LD HL,0000h
        3D70 LD HL,0000h
        3D80 LD BC,0000h
        3DF3 LD HL,0000h
        3E22 LD HL,0000h
        3E26 LD HL,0000h
        3E4F LD HL,0000h
        3E71 LD DE,0000h
        3ED7 LD DE,0000h
        4131 LD HL,0000h
        4623 LD HL,0000h
        4690 LD DE,0000h
        4757 LD HL,0000h
        4919 LD HL,0000h
        49C0 LD HL,0000h
        49DC LD HL,0000h
        4AF6 LD DE,0000h
        4B84 LD HL,0000h
        4D28 LD HL,0000h
        4D85 LD HL,0000h
        4E17 LD HL,0000h
        4EE5 LD IX,0000h
        5063 LD IX,0000h
        506A LD BC,0000h
        506D LD DE,0000h

possible references to internal address 0001:
        0677 LD HL,0001h
        07B7 LD HL,0001h
        07FD LD HL,0001h
        0ED0 LD HL,0001h
        0FD3 LD HL,0001h
        1A83 LD HL,0001h
        2342 LD HL,0001h
        2990 LD HL,0001h
        29A0 LD HL,0001h
        2A71 LD HL,0001h
        3C82 LD HL,0001h
        3DC2 LD HL,0001h
        3DD8 LD HL,0001h
        3DEE LD HL,0001h
        4603 LD HL,0001h
        461F LD HL,0001h
        4712 LD HL,0001h
        475C LD HL,0001h
        4787 LD HL,0001h
        48EC LD HL,0001h
        4AF3 LD HL,0001h

possible references to internal address 0002:
        02DD LD HL,0002h
        02EB LD HL,0002h
        1216 LD IY,0002h
        123F LD HL,0002h
        124F LD IY,0002h
        12F2 LD HL,0002h
        2D99 LD IY,0002h
        45EF LD IY,0002h
        460B LD IY,0002h
        49E1 LD HL,0002h
        5106 LD BC,0002h

possible references to internal address 0003:
        208B LD HL,0003h
        2EB1 LD HL,0003h
        3F24 LD DE,0003h
        4990 LD HL,0003h
        49AC LD DE,0003h

possible references to internal address 0004:
        0305 LD BC,0004h
        03A9 LD HL,0004h
        044A LD BC,0004h
        04E4 LD BC,0004h
        05DE LD BC,0004h
        0706 LD BC,0004h
        083E LD BC,0004h
        084E LD BC,0004h
        08DB LD BC,0004h
        0905 LD BC,0004h
        0D8F LD BC,0004h
        0D9F LD BC,0004h
        0E50 LD BC,0004h
        10C7 LD HL,0004h
        1502 LD BC,0004h
        1572 LD BC,0004h
        1646 LD BC,0004h
        16BB LD BC,0004h
        1756 LD HL,0004h
        176B LD HL,0004h
        17EC LD BC,0004h
        1940 LD BC,0004h
        1DEE LD BC,0004h
        1EE3 LD BC,0004h
        1F1F LD BC,0004h
        1F5A LD BC,0004h
        1FD2 LD BC,0004h
        2044 LD BC,0004h
        2054 LD BC,0004h
        20DD LD BC,0004h
        22B2 LD HL,0004h
        2305 LD BC,0004h
        2384 LD BC,0004h
        23CC LD BC,0004h
        24CE LD BC,0004h
        2530 LD BC,0004h
        2536 LD HL,0004h
        2546 LD BC,0004h
        2660 LD BC,0004h
        272A LD BC,0004h
        27D6 LD BC,0004h
        2860 LD BC,0004h
        297F LD BC,0004h
        29DE LD BC,0004h
        2D79 LD DE,0004h
        2E48 LD BC,0004h
        2E4E LD HL,0004h
        2EB5 LD BC,0004h
        341C LD BC,0004h
        342B LD BC,0004h
        34EE LD HL,0004h
        34F2 LD BC,0004h
        3509 LD BC,0004h
        3526 LD HL,0004h
        352A LD BC,0004h
        3574 LD HL,0004h
        3579 LD BC,0004h
        3584 LD HL,0004h
        3588 LD BC,0004h
        35EF LD HL,0004h
        35F3 LD BC,0004h
        3609 LD BC,0004h
        3628 LD HL,0004h
        362C LD BC,0004h
        3642 LD HL,0004h
        3647 LD BC,0004h
        365D LD BC,0004h
        3687 LD HL,0004h
        368B LD BC,0004h
        3E04 LD IY,0004h
        3EB6 LD BC,0004h
        3EF0 LD BC,0004h
        3FDC LD BC,0004h
        4058 LD BC,0004h
        4227 LD BC,0004h
        4316 LD BC,0004h
        4378 LD BC,0004h
        452D LD BC,0004h
        467A LD BC,0004h
        4797 LD HL,0004h
        48DF LD BC,0004h
        4972 LD HL,0004h
        4A59 LD BC,0004h
        4A77 LD BC,0004h
        4AD8 LD BC,0004h
        4B25 LD BC,0004h
        4B5C LD BC,0004h
        4C4B LD BC,0004h
        4C8E LD BC,0004h
        4CB8 LD BC,0004h
        4E0C LD BC,0004h
        4E1C LD BC,0004h
        4E2C LD BC,0004h
        4E95 LD BC,0004h

possible references to internal address 0005:
        0CAA LD DE,0005h
        2300 LD HL,0005h
        2E43 LD HL,0005h
        49C9 LD BC,0005h

possible references to internal address 0006:
        0152 LD HL,0006h
        019F LD HL,0006h
        0209 LD HL,0006h
        02FC LD HL,0006h
        0364 LD HL,0006h
        053E LD DE,0006h
        1268 LD HL,0006h
        180D LD HL,0006h
        1EDF LD HL,0006h
        22AB LD HL,0006h
        2542 LD HL,0006h
        2DBA LD IY,0006h
        2E04 LD HL,0006h
        2E27 LD HL,0006h
        334D LD HL,0006h
        3375 LD HL,0006h
        3976 LD HL,0006h
        3CF8 LD BC,0006h
        4223 LD HL,0006h
        432D LD DE,0006h
        4373 LD HL,0006h
        4529 LD HL,0006h
        4676 LD HL,0006h

possible references to internal address 0007:
        29D9 LD HL,0007h
        408B LD BC,0007h
        43BB LD BC,0007h

possible references to internal address 0008:
        01E3 LD HL,0008h
        10C2 LD HL,0008h
        2ED3 LD HL,0008h
        2EE7 LD HL,0008h
        316F LD HL,0008h
        32DC LD HL,0008h
        33DB LD HL,0008h
        3430 LD HL,0008h
        34AA LD HL,0008h
        3538 LD HL,0008h
        3590 LD HL,0008h
        3637 LD HL,0008h

possible references to internal address 0009:
        0695 LD DE,0009h
        06D5 LD IY,0009h
        07CC LD IY,0009h
        081B LD IY,0009h
        0D62 LD DE,0009h
        0EE5 LD IY,0009h
        1385 LD DE,0009h
        235A LD IY,0009h
        29C1 LD IY,0009h
        2A86 LD HL,0009h
        332F LD HL,0009h
        3CA0 LD IY,0009h
        440A LD DE,0009h
        46AF LD HL,0009h
        4733 LD IY,0009h
        48DB LD HL,0009h
        4905 LD HL,0009h

possible references to internal address 000A:
        01CC LD BC,000Ah
        0422 LD DE,000Ah
        050D LD BC,000Ah
        0B47 LD IY,000Ah
        0F7D LD HL,000Ah
        241C LD IY,000Ah
        24AA LD IY,000Ah
        2725 LD HL,000Ah
        3D3C LD DE,000Ah
        40DE LD BC,000Ah
        4A54 LD HL,000Ah
        4B53 LD HL,000Ah
        4C85 LD HL,000Ah
        4CB4 LD HL,000Ah
        4DAD LD IY,000Ah
        4DF0 LD IY,000Ah
        4E27 LD HL,000Ah
        4E91 LD HL,000Ah

possible references to internal address 000B:
        0AAB LD HL,000Bh
        0B70 LD HL,000Bh
        1048 LD HL,000Bh
        2AC4 LD HL,000Bh
        3BA7 LD BC,000Bh
        3BB7 LD DE,000Bh
        3BCB LD HL,000Bh
        3CEF LD HL,000Bh
        4862 LD BC,000Bh

possible references to internal address 000C:
        0F93 LD HL,000Ch
        14FD LD HL,000Ch
        156D LD HL,000Ch
        1641 LD HL,000Ch
        16B6 LD HL,000Ch
        24C9 LD HL,000Ch
        265B LD HL,000Ch
        36A7 LD HL,000Ch
        4EF0 LD HL,000Ch

possible references to internal address 000D:
        1CB2 LD DE,000Dh
        2380 LD HL,000Dh

possible references to internal address 000E:
        0A8E LD HL,000Eh
        17E8 LD HL,000Eh
        18DB LD BC,000Eh
        193C LD HL,000Eh
        27D1 LD HL,000Eh
        285B LD HL,000Eh
        297A LD HL,000Eh
        3C47 LD HL,000Eh

possible references to internal address 000F:
        24B8 LD HL,000Fh
        481E LD BC,000Fh
        4ACF LD HL,000Fh

possible references to internal address 0010:
        1C4F LD BC,0010h
        252C LD HL,0010h
        4F06 LD HL,0010h

possible references to internal address 0011:
        0301 LD HL,0011h

possible references to internal address 0012:
        23C7 LD HL,0012h
        2EDD LD HL,0012h
        3D7C LD HL,0012h
        4053 LD HL,0012h

possible references to internal address 0013:
        17C8 LD BC,0013h
        4A72 LD HL,0013h
        4AD4 LD HL,0013h
        4B20 LD HL,0013h
        4C46 LD HL,0013h
        4C8A LD HL,0013h
        4CAF LD HL,0013h
        4E08 LD HL,0013h

possible references to internal address 0014:
        0569 LD DE,0014h
        05E9 LD DE,0014h
        1845 LD HL,0014h

possible references to internal address 0016:
        0FE6 LD DE,0016h
        1A2A LD DE,0016h
        3B5D LD DE,0016h
        3D66 LD HL,0016h
        3EEB LD HL,0016h
        3FD7 LD HL,0016h

possible references to internal address 0017:
        1334 LD DE,0017h
        1476 LD DE,0017h
        23C0 LD HL,0017h
        25E9 LD DE,0017h
        4150 LD BC,0017h
        44AA LD DE,0017h

possible references to internal address 0018:
        1FCE LD HL,0018h
        2040 LD HL,0018h
        204F LD HL,0018h
        3C5C LD BC,0018h
        4312 LD HL,0018h

possible references to internal address 001A:
        1009 LD HL,001Ah
        1A51 LD DE,001Ah
        253D LD HL,001Ah
        3EB2 LD HL,001Ah

possible references to internal address 001B:
        2A11 LD DE,001Bh

possible references to internal address 001C:
        0ADA LD HL,001Ch
        0C75 LD HL,001Ch
        1034 LD HL,001Ch
        1DE5 LD HL,001Ch
        2AB7 LD HL,001Ch
        3CC2 LD BC,001Ch

possible references to internal address 001D:
        4B58 LD HL,001Dh

possible references to internal address 001E:
        083A LD HL,001Eh

possible references to internal address 001F:
        20D8 LD HL,001Fh
        48AF LD BC,001Fh

possible references to internal address 0020:
        101E LD HL,0020h
        2B9E LD DE,0020h
        3CE8 LD BC,0020h

possible references to internal address 0022:
        1F1B LD HL,0022h
        1F56 LD HL,0022h
        3C73 LD HL,0022h

possible references to internal address 0023:
        29E6 LD DE,0023h

possible references to internal address 0024:
        1DEA LD HL,0024h
        2B99 LD DE,0024h

possible references to internal address 0026:
        04DF LD HL,0026h
        05DA LD HL,0026h
        0849 LD HL,0026h
        08D6 LD HL,0026h
        0901 LD HL,0026h

possible references to internal address 0027:
        09C9 LD DE,0027h
        182A LD HL,0027h
        1868 LD HL,0027h

possible references to internal address 0028:
        0701 LD HL,0028h

possible references to internal address 002A:
        0445 LD HL,002Ah
        0968 LD HL,002Ah

possible references to internal address 002B:
        136C LD DE,002Bh

possible references to internal address 002F:
        0B0E LD DE,002Fh
        0BE2 LD DE,002Fh
        1BA6 LD DE,002Fh
        22EF LD HL,002Fh
        2968 LD HL,002Fh
        3417 LD HL,002Fh
        3427 LD HL,002Fh
        4670 LD HL,002Fh
        48A3 LD HL,002Fh
        4947 LD HL,002Fh

possible references to internal address 0033:
        2339 LD HL,0033h
        2986 LD HL,0033h
        4680 LD HL,0033h
        47A6 LD HL,0033h
        4996 LD DE,0033h

possible references to internal address 0039:
        0D8A LD HL,0039h
        0E4C LD HL,0039h

possible references to internal address 003D:
        0D9A LD HL,003Dh

possible references to internal address 0047:
        096D LD HL,0047h

possible references to internal address 0069:
        49A7 LD HL,0069h

possible references to internal address 0085:
        49C5 LD HL,0085h

possible references to internal address 0092:
        1247 LD BC,0092h

possible references to internal address 01C6:
        3E86 LD DE,01C6h

possible references to internal address 0200:
        0763 LD DE,0200h
        0D26 LD HL,0200h
        468C LD DE,0200h
        47B3 LD HL,0200h

possible references to internal address 0217:
        47F8 LD HL,0217h

possible references to internal address 021B:
        4836 LD HL,021Bh

possible references to internal address 021F:
        487A LD HL,021Fh

possible references to internal address 0222:
        01C1 LD HL,0222h

possible references to internal address 022A:
        0131 LD HL,022Ah

possible references to internal address 022C:
        011F LD HL,022Ch

possible references to internal address 0231:
        47C9 LD HL,0231h
        4979 LD HL,0231h

possible references to internal address 0245:
        0126 LD HL,0245h

possible references to internal address 0259:
        0147 LD HL,0259h
        0194 LD HL,0259h

possible references to internal address 0267:
        0162 LD HL,0267h
        01AE LD HL,0267h

possible references to internal address 026C:
        0169 LD HL,026Ch

possible references to internal address 0284:
        0181 LD HL,0284h

possible references to internal address 0294:
        01FE LD HL,0294h

possible references to internal address 02B5:
        0215 LD HL,02B5h

possible references to internal address 02B7:
        50FA LD BC,02B7h

possible references to internal address 0490:
        12F6 LD BC,0490h

possible references to internal address 0FFF:
        1E65 LD HL,0FFFh

possible references to internal address 1068:
        10D4 LD HL,1068h

possible references to internal address 12FC:
        45EB LD HL,12FCh

possible references to internal address 12FE:
        4607 LD HL,12FEh

possible references to internal address 1300:
        3DB1 LD HL,1300h

possible references to internal address 1302:
        3DC7 LD HL,1302h

possible references to internal address 1304:
        3DDD LD HL,1304h

possible references to internal address 2D8A:
        2CEE LD HL,2D8Ah

possible references to internal address 4161:
        47E7 LD HL,4161h

possible references to internal address 49F3:
        49B0 LD DE,49F3h

possible references to internal address 49F7:
        49CD LD BC,49F7h

possible references to internal address 5021:
        0A93 LD HL,5021h
        3D6C LD HL,5021h

possible references to internal address 50F3:
        5110 LD HL,50F3h

possible references to external address 5252h:
        47EB LD HL,5252h

possible references to external address 6141h:
        4804 LD HL,6141h

possible references to external address 7000h:
        014B LD HL,7000h
        0157 LD HL,7000h
        0198 LD HL,7000h
        01A4 LD HL,7000h
        0202 LD HL,7000h
        020E LD HL,7000h
        50F5 LD HL,7000h

possible references to external address 7001h:
        5101 LD DE,7001h

possible references to external address 7080h:
        0135 LD HL,7080h

possible references to external address 7272h:
        4808 LD HL,7272h

possible references to external address 72B3h:
        0F39 LD BC,72B3h
        1AE7 LD BC,72B3h

possible references to external address 72B5h:
        227F LD IY,72B5h
        ----------
        2278 LD HL,(72B5h)
        227C LD (72B5h),HL

possible references to external address 72B7h:
        3B10 LD IY,72B7h

possible references to external address 72B8h:
        510D LD DE,72B8h
        ----------
        1237 LD HL,(72B8h)
        12B2 LD HL,(72B8h)

possible references to external address 8000h:
        0104 LD SP,8000h
        01DB LD BC,8000h

possible references to external address 0AA55h:
        47D5 LD HL,0AA55h

possible references to external address 0FDDAh:
        011A LD HL,0FDDAh

possible references to external address 0FFBFh:
        094E LD HL,0FFBFh

possible references to external address 0FFCDh:
        2EC7 LD HL,0FFCDh

possible references to external address 0FFD4h:
        0382 LD HL,0FFD4h

possible references to external address 0FFDCh:
        1AB0 LD HL,0FFDCh

possible references to external address 0FFE6h:
        3E1D LD HL,0FFE6h
        3F54 LD HL,0FFE6h

possible references to external address 0FFE9h:
        4A00 LD HL,0FFE9h

possible references to external address 0FFEDh:
        462A LD HL,0FFEDh

possible references to external address 0FFEEh:
        2394 LD HL,0FFEEh
        42C6 LD HL,0FFEEh

possible references to external address 0FFEFh:
        294F LD HL,0FFEFh

possible references to external address 0FFF0h:
        144A LD HL,0FFF0h
        25BB LD HL,0FFF0h

possible references to external address 0FFF2h:
        178A LD HL,0FFF2h
        2A9C LD HL,0FFF2h

possible references to external address 0FFF5h:
        4767 LD HL,0FFF5h

possible references to external address 0FFF6h:
        02F7 LD HL,0FFF6h
        3A4C LD HL,0FFF6h
        3C29 LD HL,0FFF6h

possible references to external address 0FFF7h:
        19D4 LD HL,0FFF7h

possible references to external address 0FFF8h:
        4EEB LD HL,0FFF8h

possible references to external address 0FFF9h:
        2E37 LD HL,0FFF9h

possible references to external address 0FFFFh:
        13C8 LD HL,0FFFFh
        2402 LD HL,0FFFFh
        2406 LD HL,0FFFFh
        3A51 LD HL,0FFFFh
        3A7A LD HL,0FFFFh
        4D8D LD HL,0FFFFh
        4D91 LD HL,0FFFFh

references to port 1Ch
        021F OUT (1Ch),A

references to port 80h
        129D IN A,(80h)

references to port 91h
        02CE IN A,(91h)
        02D3 IN A,(91h)
        02E1 IN A,(91h)
        1233 IN A,(91h)
        1231 OUT (91h),A

references to port 0A1h
        01B8 OUT (0A1h),A
        01F5 OUT (0A1h),A

Procedures (65):
  Proc  Length  References Dependants
  L0000  010F            0          2
  L0112  0118            1          6
  L02CE  0013            2          0
  L02E1  000E            2          0
  L02EF  008A            4          1
  L0379  0003            6          0
  L037C  0003            1          0
  L037F  0595            1          7
  L0914  0037            3          1
  L094B  05C2            1         14
  L0F0D  00AF            1          3
  L0FBC  00AC            1          5
  L10BA  0034            3          1
  L10EE  0088            3          2
  L1176  00A0           11          1
  L1216  0029            1          2
  L123F  0010            1          0
  L124F  0026            1          2
  L1275  0014            1          0
  L1289  0052            1          2
  L12DB  0017            9          2
  L12F2  000A            1          0
  L1307  00B8            5          2
  L13BF  000F            2          0
  L13CE  000A           34          0
  L13D8  006F            3          2
  L1447  030E            8          4
  L1755  0032            1          2
  L1787  01CB            1          5
  L1952  007F            9          1
  L19D1  00DC            1          4
  L1AAD  07FA            2         10
  L22A7  0018            5          0
  L22BF  001F           12          1
  L22DE  00B3           15          3
  L2391  01E4            1          3
  L2575  0043            2          2
  L25B8  0394            4          5
  L294C  014D            3          2
  L2A99  02F1            1          5
  L2D99  0040            3          1
  L2DD9  0056            2          1
  L2E2F  0090            1          0
  L2EBF  0B65            1          5
  L3A2F  001A            2          0
  L3A49  00D5            2          1
  L3B1E  00DD            1          5
  L3BFB  002B            5          1
  L3C26  0187            1          8
  L3DAD  0001           19          0
  L3DAE  004B            1          1
  L3DF9  0021            1          0
  L3E1A  0137            1          3
  L3F51  0323            2          5
  L4274  004F            3          1
  L42C3  0328            3          3
  L45EB  003C            1          0
  L4627  013D            1          5
  L4764  01D3            1          7
  L4937  00B0            2          4
  L49FD  04E6            1          3
  L4EE3  017E            3          1
  L5061  0092            1          0
  L50F5  0021            1          1
  L5115  0001            1          0

Call Graph:
L0000 - Entry Point
  L50F5
    L5115
  L0112
    L12DB
      L13BF
      L1289
        L3DAD
        L1275
    L0F0D
      L13CE
      L3A49
        L13CE
      L1AAD
        L13CE
        L3A49
          L13CE
        L02E1
        L02CE
        L3E1A
          L13CE
          L4937
            L13CE
            L22DE
              L13CE
              L294C
                L13CE
                L0379
              L02EF
                L124F
                  L1216
                    L12F2
                    L3DAD
                  L123F
            L22BF
              L13CE
            L4274
              L13CE
          L1176
            L13CE
        L22BF
          L13CE
        L1176
          L13CE
        L4EE3
          L3A2F
        L5061
        L22DE
          L13CE
          L294C
            L13CE
            L0379
          L02EF
            L124F
              L1216
                L12F2
                L3DAD
              L123F
    L10BA
      L2EBF
        L3DAD
        L13BF
        L2DD9
          L2D99
            L3DAD
        L2E2F
        L2D99
          L3DAD
    L094B
      L13CE
      L1AAD
        L13CE
        L3A49
          L13CE
        L02E1
        L02CE
        L3E1A
          L13CE
          L4937
            L13CE
            L22DE
              L13CE
              L294C
                L13CE
                L0379
              L02EF
                L124F
                  L1216
                    L12F2
                    L3DAD
                  L123F
            L22BF
              L13CE
            L4274
              L13CE
          L1176
            L13CE
        L22BF
          L13CE
        L1176
          L13CE
        L4EE3
          L3A2F
        L5061
        L22DE
          L13CE
          L294C
            L13CE
            L0379
          L02EF
            L124F
              L1216
                L12F2
                L3DAD
              L123F
      L1787
        L13CE
        L42C3
          L13CE
          L1447
            L13CE
            L22DE
              L13CE
              L294C
                L13CE
                L0379
              L02EF
                L124F
                  L1216
                    L12F2
                    L3DAD
                  L123F
            L22BF
              L13CE
            L1176
              L13CE
          L1307
            L13CE
            L4EE3
              L3A2F
        L2A99
          L13CE
          L22A7
          L45EB
          L3DAE
            L13CE
          L3DF9
        L3B1E
          L13CE
          L42C3
            L13CE
            L1447
              L13CE
              L22DE
                L13CE
                L294C
                  L13CE
                  L0379
                L02EF
                  L124F
                    L1216
                      L12F2
                      L3DAD
                    L123F
              L22BF
                L13CE
              L1176
                L13CE
            L1307
              L13CE
              L4EE3
                L3A2F
          L22DE
            L13CE
            L294C
              L13CE
              L0379
            L02EF
              L124F
                L1216
                  L12F2
                  L3DAD
                L123F
          L4274
            L13CE
          L3F51
            L13CE
            L1447
              L13CE
              L22DE
                L13CE
                L294C
                  L13CE
                  L0379
                L02EF
                  L124F
                    L1216
                      L12F2
                      L3DAD
                    L123F
              L22BF
                L13CE
              L1176
                L13CE
            L49FD
              L13CE
              L1447
                L13CE
                L22DE
                  L13CE
                  L294C
                    L13CE
                    L0379
                  L02EF
                    L124F
                      L1216
                        L12F2
                        L3DAD
                      L123F
                L22BF
                  L13CE
                L1176
                  L13CE
              L25B8
                L13CE
                L22DE
                  L13CE
                  L294C
                    L13CE
                    L0379
                  L02EF
                    L124F
                      L1216
                        L12F2
                        L3DAD
                      L123F
                L3BFB
                  L13CE
                L1176
                  L13CE
                L1952
                  L13CE
            L4627
              L13CE
              L294C
                L13CE
                L0379
              L1307
                L13CE
                L4EE3
                  L3A2F
              L22A7
              L0379
            L1307
              L13CE
              L4EE3
                L3A2F
        L13D8
          L13CE
          L22BF
            L13CE
      L0FBC
        L13CE
        L19D1
          L13CE
          L42C3
            L13CE
            L1447
              L13CE
              L22DE
                L13CE
                L294C
                  L13CE
                  L0379
                L02EF
                  L124F
                    L1216
                      L12F2
                      L3DAD
                    L123F
              L22BF
                L13CE
              L1176
                L13CE
            L1307
              L13CE
              L4EE3
                L3A2F
          L22DE
            L13CE
            L294C
              L13CE
              L0379
            L02EF
              L124F
                L1216
                  L12F2
                  L3DAD
                L123F
          L3F51
            L13CE
            L1447
              L13CE
              L22DE
                L13CE
                L294C
                  L13CE
                  L0379
                L02EF
                  L124F
                    L1216
                      L12F2
                      L3DAD
                    L123F
              L22BF
                L13CE
              L1176
                L13CE
            L49FD
              L13CE
              L1447
                L13CE
                L22DE
                  L13CE
                  L294C
                    L13CE
                    L0379
                  L02EF
                    L124F
                      L1216
                        L12F2
                        L3DAD
                      L123F
                L22BF
                  L13CE
                L1176
                  L13CE
              L25B8
                L13CE
                L22DE
                  L13CE
                  L294C
                    L13CE
                    L0379
                  L02EF
                    L124F
                      L1216
                        L12F2
                        L3DAD
                      L123F
                L3BFB
                  L13CE
                L1176
                  L13CE
                L1952
                  L13CE
            L4627
              L13CE
              L294C
                L13CE
                L0379
              L1307
                L13CE
                L4EE3
                  L3A2F
              L22A7
              L0379
            L1307
              L13CE
              L4EE3
                L3A2F
        L22DE
          L13CE
          L294C
            L13CE
            L0379
          L02EF
            L124F
              L1216
                L12F2
                L3DAD
              L123F
        L22A7
        L0914
          L13CE
      L13D8
        L13CE
        L22BF
          L13CE
      L1952
        L13CE
      L2575
        L13CE
        L3BFB
          L13CE
      L2391
        L13CE
        L25B8
          L13CE
          L22DE
            L13CE
            L294C
              L13CE
              L0379
            L02EF
              L124F
                L1216
                  L12F2
                  L3DAD
                L123F
          L3BFB
            L13CE
          L1176
            L13CE
          L1952
            L13CE
        L1447
          L13CE
          L22DE
            L13CE
            L294C
              L13CE
              L0379
            L02EF
              L124F
                L1216
                  L12F2
                  L3DAD
                L123F
          L22BF
            L13CE
          L1176
            L13CE
      L22DE
        L13CE
        L294C
          L13CE
          L0379
        L02EF
          L124F
            L1216
              L12F2
              L3DAD
            L123F
      L1176
        L13CE
      L22A7
      L1447
        L13CE
        L22DE
          L13CE
          L294C
            L13CE
            L0379
          L02EF
            L124F
              L1216
                L12F2
                L3DAD
              L123F
        L22BF
          L13CE
        L1176
          L13CE
      L1307
        L13CE
        L4EE3
          L3A2F
      L02EF
        L124F
          L1216
            L12F2
            L3DAD
          L123F
    L037F
      L13CE
      L10EE
        L13CE
        L02E1
      L1447
        L13CE
        L22DE
          L13CE
          L294C
            L13CE
            L0379
          L02EF
            L124F
              L1216
                L12F2
                L3DAD
              L123F
        L22BF
          L13CE
        L1176
          L13CE
      L1307
        L13CE
        L4EE3
          L3A2F
      L02EF
        L124F
          L1216
            L12F2
            L3DAD
          L123F
      L0914
        L13CE
      L0379
    L1755
      L3C26
        L13CE
        L10EE
          L13CE
          L02E1
        L0379
        L22DE
          L13CE
          L294C
            L13CE
            L0379
          L02EF
            L124F
              L1216
                L12F2
                L3DAD
              L123F
        L2575
          L13CE
          L3BFB
            L13CE
        L1952
          L13CE
        L3BFB
          L13CE
        L4764
          L13CE
          L294C
            L13CE
            L0379
          L22A7
          L3BFB
            L13CE
          L1952
            L13CE
          L0379
          L037C
      L10EE
        L13CE
        L02E1
