                                        ; Entry Point
                                        ; --- START PROC L0000 ---
0000: C3 00 01                   L0000: JP      L0100

0003: FF                         L0003: DB      0FFh
0004: FF                                DB      0FFh
0005: FF                                DB      0FFh
0006: FF                                DB      0FFh
0007: FF                                DB      0FFh
0008: ED                                DB      0EDh
0009: 4D                                DB      4Dh     ; 'M'
000A: FF                                DB      0FFh
000B: FF                                DB      0FFh
000C: FF                                DB      0FFh
000D: FF                                DB      0FFh
000E: FF                                DB      0FFh
000F: FF                                DB      0FFh
0010: ED                                DB      0EDh
0011: 4D                                DB      4Dh     ; 'M'
0012: FF                                DB      0FFh
0013: FF                                DB      0FFh
0014: FF                                DB      0FFh
0015: FF                                DB      0FFh
0016: FF                                DB      0FFh
0017: FF                                DB      0FFh
0018: ED                                DB      0EDh
0019: 4D                                DB      4Dh     ; 'M'
001A: FF                                DB      0FFh
001B: FF                                DB      0FFh
001C: FF                                DB      0FFh
001D: FF                                DB      0FFh
001E: FF                                DB      0FFh
001F: FF                                DB      0FFh
0020: ED                                DB      0EDh
0021: 4D                                DB      4Dh     ; 'M'
0022: FF                                DB      0FFh
0023: FF                                DB      0FFh
0024: FF                                DB      0FFh
0025: FF                                DB      0FFh
0026: FF                                DB      0FFh
0027: FF                                DB      0FFh
0028: ED                                DB      0EDh
0029: 4D                                DB      4Dh     ; 'M'
002A: FF                                DB      0FFh
002B: FF                                DB      0FFh
002C: FF                                DB      0FFh
002D: FF                                DB      0FFh
002E: FF                                DB      0FFh
002F: FF                                DB      0FFh
0030: ED                                DB      0EDh
0031: 4D                                DB      4Dh     ; 'M'
0032: FF                                DB      0FFh
0033: FF                                DB      0FFh
0034: FF                                DB      0FFh
0035: FF                                DB      0FFh
0036: FF                                DB      0FFh
0037: FF                                DB      0FFh
0038: ED                                DB      0EDh
0039: 4D                                DB      4Dh     ; 'M'
003A: FF                                DB      0FFh
003B: FF                                DB      0FFh
003C: FF                                DB      0FFh
003D: FF                                DB      0FFh
003E: FF                                DB      0FFh
003F: FF                                DB      0FFh
0040: FF                                DB      0FFh
0041: FF                                DB      0FFh
0042: FF                                DB      0FFh
0043: FF                                DB      0FFh
0044: FF                                DB      0FFh
0045: FF                                DB      0FFh
0046: FF                                DB      0FFh
0047: FF                                DB      0FFh
0048: FF                                DB      0FFh
0049: FF                                DB      0FFh
004A: FF                                DB      0FFh
004B: FF                                DB      0FFh
004C: FF                                DB      0FFh
004D: FF                                DB      0FFh
004E: FF                                DB      0FFh
004F: FF                                DB      0FFh
0050: FF                                DB      0FFh
0051: FF                                DB      0FFh
0052: FF                                DB      0FFh
0053: FF                                DB      0FFh
0054: FF                                DB      0FFh
0055: FF                                DB      0FFh
0056: FF                                DB      0FFh
0057: FF                                DB      0FFh
0058: FF                                DB      0FFh
0059: FF                                DB      0FFh
005A: FF                                DB      0FFh
005B: FF                                DB      0FFh
005C: FF                                DB      0FFh
005D: FF                                DB      0FFh
005E: FF                                DB      0FFh
005F: FF                                DB      0FFh
0060: FF                                DB      0FFh
0061: FF                                DB      0FFh
0062: FF                                DB      0FFh
0063: FF                                DB      0FFh
0064: FF                                DB      0FFh
0065: FF                                DB      0FFh

                                        ; Entry Point
                                        ; --- START PROC L0066 ---
0066: C3 C1 09                   L0066: JP      L09C1

0069: FF                         L0069: DB      0FFh
006A: FF                                DB      0FFh
006B: FF                                DB      0FFh
006C: FF                                DB      0FFh
006D: FF                                DB      0FFh
006E: FF                                DB      0FFh
006F: FF                                DB      0FFh
0070: FF                                DB      0FFh
0071: FF                                DB      0FFh
0072: FF                                DB      0FFh
0073: FF                                DB      0FFh
0074: FF                                DB      0FFh
0075: FF                                DB      0FFh
0076: FF                                DB      0FFh
0077: FF                                DB      0FFh
0078: FF                                DB      0FFh
0079: FF                                DB      0FFh
007A: FF                                DB      0FFh
007B: FF                                DB      0FFh
007C: FF                                DB      0FFh
007D: FF                                DB      0FFh
007E: FF                                DB      0FFh
007F: FF                                DB      0FFh
0080: FF                                DB      0FFh
0081: FF                                DB      0FFh
0082: FF                                DB      0FFh
0083: FF                                DB      0FFh
0084: FF                                DB      0FFh
0085: FF                                DB      0FFh
0086: FF                                DB      0FFh
0087: FF                                DB      0FFh
0088: FF                                DB      0FFh
0089: FF                                DB      0FFh
008A: FF                                DB      0FFh
008B: FF                                DB      0FFh
008C: FF                                DB      0FFh
008D: FF                                DB      0FFh
008E: FF                                DB      0FFh
008F: FF                                DB      0FFh
0090: FF                                DB      0FFh
0091: FF                                DB      0FFh
0092: FF                                DB      0FFh
0093: FF                                DB      0FFh
0094: FF                                DB      0FFh
0095: FF                                DB      0FFh
0096: FF                                DB      0FFh
0097: FF                                DB      0FFh
0098: FF                                DB      0FFh
0099: FF                                DB      0FFh
009A: FF                                DB      0FFh
009B: FF                                DB      0FFh
009C: FF                                DB      0FFh
009D: FF                                DB      0FFh
009E: FF                                DB      0FFh
009F: FF                                DB      0FFh
00A0: FF                                DB      0FFh
00A1: FF                                DB      0FFh
00A2: FF                                DB      0FFh
00A3: FF                                DB      0FFh
00A4: FF                                DB      0FFh
00A5: FF                                DB      0FFh
00A6: FF                                DB      0FFh
00A7: FF                                DB      0FFh
00A8: FF                                DB      0FFh
00A9: FF                                DB      0FFh
00AA: FF                                DB      0FFh
00AB: FF                                DB      0FFh
00AC: FF                                DB      0FFh
00AD: FF                                DB      0FFh
00AE: FF                                DB      0FFh
00AF: FF                                DB      0FFh
00B0: FF                                DB      0FFh
00B1: FF                                DB      0FFh
00B2: FF                                DB      0FFh
00B3: FF                                DB      0FFh
00B4: FF                                DB      0FFh
00B5: FF                                DB      0FFh
00B6: FF                                DB      0FFh
00B7: FF                                DB      0FFh
00B8: FF                                DB      0FFh
00B9: FF                                DB      0FFh
00BA: FF                                DB      0FFh
00BB: FF                                DB      0FFh
00BC: FF                                DB      0FFh
00BD: FF                                DB      0FFh
00BE: FF                                DB      0FFh
00BF: FF                                DB      0FFh
00C0: FF                                DB      0FFh
00C1: FF                                DB      0FFh
00C2: FF                                DB      0FFh
00C3: FF                                DB      0FFh
00C4: FF                                DB      0FFh
00C5: FF                                DB      0FFh
00C6: FF                                DB      0FFh
00C7: FF                                DB      0FFh
00C8: FF                                DB      0FFh
00C9: FF                                DB      0FFh
00CA: FF                                DB      0FFh
00CB: FF                                DB      0FFh
00CC: FF                                DB      0FFh
00CD: FF                                DB      0FFh
00CE: FF                                DB      0FFh
00CF: FF                                DB      0FFh
00D0: FF                                DB      0FFh
00D1: FF                                DB      0FFh
00D2: FF                                DB      0FFh
00D3: FF                                DB      0FFh
00D4: FF                                DB      0FFh
00D5: FF                                DB      0FFh
00D6: FF                                DB      0FFh
00D7: FF                                DB      0FFh
00D8: FF                                DB      0FFh
00D9: FF                                DB      0FFh
00DA: FF                                DB      0FFh
00DB: FF                                DB      0FFh
00DC: FF                                DB      0FFh
00DD: FF                                DB      0FFh
00DE: FF                                DB      0FFh
00DF: FF                                DB      0FFh
00E0: FF                                DB      0FFh
00E1: FF                                DB      0FFh
00E2: FF                                DB      0FFh
00E3: FF                                DB      0FFh
00E4: FF                                DB      0FFh
00E5: FF                                DB      0FFh
00E6: FF                                DB      0FFh
00E7: FF                                DB      0FFh
00E8: FF                                DB      0FFh
00E9: FF                                DB      0FFh
00EA: FF                                DB      0FFh
00EB: FF                                DB      0FFh
00EC: FF                                DB      0FFh
00ED: FF                                DB      0FFh
00EE: FF                                DB      0FFh
00EF: FF                                DB      0FFh
00F0: FF                                DB      0FFh
00F1: FF                                DB      0FFh
00F2: FF                                DB      0FFh
00F3: FF                                DB      0FFh
00F4: FF                                DB      0FFh
00F5: FF                                DB      0FFh
00F6: FF                                DB      0FFh
00F7: FF                                DB      0FFh
00F8: FF                                DB      0FFh
00F9: FF                                DB      0FFh
00FA: FF                                DB      0FFh
00FB: FF                                DB      0FFh
00FC: FF                                DB      0FFh
00FD: FF                                DB      0FFh
00FE: FF                                DB      0FFh
00FF: FF                                DB      0FFh

                                        ; --- START PROC L0100 ---
0100: 06 40                      L0100: LD      B,40h   ; '@'
0102: 10 FE                      L0102: DJNZ    L0102
0104: 31 00 FC                          LD      SP,0FC00h
0107: CD 2D 52                          CALL    L522D
010A: CD 10 01                          CALL    L0110
010D: 18 FE                      L010D: JR      L010D

010F: FF                         L010F: DB      0FFh

                                        ; --- START PROC L0110 ---
0110: DD E5                      L0110: PUSH    IX
0112: DD 21 00 00                       LD      IX,0000h
0116: DD 39                             ADD     IX,SP
0118: 21 D6 FD                          LD      HL,0FDD6h
011B: 39                                ADD     HL,SP
011C: F9                                LD      SP,HL
011D: 21 84 02                          LD      HL,0284h
0120: E5                                PUSH    HL
0121: CD 05 12                          CALL    L1205
0124: 21 9D 02                          LD      HL,029Dh
0127: E3                                EX      (SP),HL
0128: CD 05 12                          CALL    L1205
012B: 26 01                             LD      H,01h
012D: E3                                EX      (SP),HL
012E: 33                                INC     SP
012F: 21 82 02                          LD      HL,0282h
0132: E5                                PUSH    HL
0133: 21 80 70                          LD      HL,7080h
0136: E5                                PUSH    HL
0137: CD 44 10                          CALL    L1044
013A: F1                                POP     AF
013B: F1                                POP     AF
013C: 33                                INC     SP
013D: 4D                                LD      C,L
013E: 79                                LD      A,C
013F: B7                                OR      A
0140: 28 1E                             JR      Z,L0160
0142: 06 00                             LD      B,00h
0144: C5                                PUSH    BC
0145: 21 B1 02                          LD      HL,02B1h
0148: E5                                PUSH    HL
0149: 21 00 70                          LD      HL,7000h
014C: E5                                PUSH    HL
014D: CD 6E 12                          CALL    L126E
0150: 21 06 00                          LD      HL,0006h
0153: 39                                ADD     HL,SP
0154: F9                                LD      SP,HL
0155: 21 00 70                          LD      HL,7000h
0158: E5                                PUSH    HL
0159: CD 05 12                          CALL    L1205
015C: F1                                POP     AF
015D: C3 7D 02                          JP      L027D

0160: 21 BF 02                   L0160: LD      HL,02BFh
0163: E5                                PUSH    HL
0164: CD 05 12                          CALL    L1205
0167: 21 C4 02                          LD      HL,02C4h
016A: E3                                EX      (SP),HL
016B: CD 05 12                          CALL    L1205
016E: F1                                POP     AF
016F: 21 00 00                          LD      HL,0000h
0172: 39                                ADD     HL,SP
0173: EB                                EX      DE,HL
0174: 4B                                LD      C,E
0175: 42                                LD      B,D
0176: D5                                PUSH    DE
0177: 3E 01                             LD      A,01h
0179: F5                                PUSH    AF
017A: 33                                INC     SP
017B: 21 DC 02                          LD      HL,02DCh
017E: E5                                PUSH    HL
017F: C5                                PUSH    BC
0180: CD 0F 0A                          CALL    L0A0F
0183: F1                                POP     AF
0184: F1                                POP     AF
0185: 33                                INC     SP
0186: 7D                                LD      A,L
0187: D1                                POP     DE
0188: B7                                OR      A
0189: 28 1F                             JR      Z,L01AA
018B: 4F                                LD      C,A
018C: 06 00                             LD      B,00h
018E: C5                                PUSH    BC
018F: 21 B1 02                          LD      HL,02B1h
0192: E5                                PUSH    HL
0193: 21 00 70                          LD      HL,7000h
0196: E5                                PUSH    HL
0197: CD 6E 12                          CALL    L126E
019A: 21 06 00                          LD      HL,0006h
019D: 39                                ADD     HL,SP
019E: F9                                LD      SP,HL
019F: 21 00 70                          LD      HL,7000h
01A2: E5                                PUSH    HL
01A3: CD 05 12                          CALL    L1205
01A6: F1                                POP     AF
01A7: C3 7D 02                          JP      L027D

01AA: D5                         L01AA: PUSH    DE
01AB: 21 BF 02                          LD      HL,02BFh
01AE: E5                                PUSH    HL
01AF: CD 05 12                          CALL    L1205
01B2: F1                                POP     AF
01B3: D1                                POP     DE
01B4: 3E 04                             LD      A,04h
01B6: D3 A2                             OUT     (0A2h),A
01B8: 3E 00                             LD      A,00h
01BA: D3 A1                             OUT     (0A1h),A
01BC: 01 00 00                          LD      BC,0000h
01BF: DD 73 FA                          LD      (IX-06h),E
01C2: DD 72 FB                          LD      (IX-05h),D
01C5: AF                         L01C5: XOR     A
01C6: DD 77 F8                          LD      (IX-08h),A
01C9: DD 77 F9                          LD      (IX-07h),A
01CC: 21 22 02                          LD      HL,0222h
01CF: 39                                ADD     HL,SP
01D0: DD 75 FC                          LD      (IX-04h),L
01D3: DD 74 FD                          LD      (IX-03h),H
01D6: DD 7E FA                          LD      A,(IX-06h)
01D9: DD 77 FE                          LD      (IX-02h),A
01DC: DD 7E FB                          LD      A,(IX-05h)
01DF: DD 77 FF                          LD      (IX-01h),A
01E2: C5                                PUSH    BC
01E3: D5                                PUSH    DE
01E4: DD 6E FC                          LD      L,(IX-04h)
01E7: DD 66 FD                          LD      H,(IX-03h)
01EA: E5                                PUSH    HL
01EB: 21 00 04                          LD      HL,0400h
01EE: E5                                PUSH    HL
01EF: 21 00 FC                          LD      HL,0FC00h
01F2: E5                                PUSH    HL
01F3: DD 6E FE                          LD      L,(IX-02h)
01F6: DD 66 FF                          LD      H,(IX-01h)
01F9: E5                                PUSH    HL
01FA: CD F4 03                          CALL    L03F4
01FD: 21 08 00                          LD      HL,0008h
0200: 39                                ADD     HL,SP
0201: F9                                LD      SP,HL
0202: D1                                POP     DE
0203: C1                                POP     BC
0204: 79                                LD      A,C
0205: DD 86 F8                          ADD     A,(IX-08h)
0208: 4F                                LD      C,A
0209: 78                                LD      A,B
020A: DD 8E F9                          ADC     A,(IX-07h)
020D: 47                                LD      B,A
020E: DB A1                             IN      A,(0A1h)
0210: 3C                                INC     A
0211: D3 A1                             OUT     (0A1h),A
0213: DD 7E F8                          LD      A,(IX-08h)
0216: B7                                OR      A
0217: 20 07                             JR      NZ,L0220
0219: DD 7E F9                          LD      A,(IX-07h)
021C: D6 04                             SUB     04h
021E: 28 A5                             JR      Z,L01C5
0220: C5                         L0220: PUSH    BC
0221: D5                                PUSH    DE
0222: CD 8D 18                          CALL    L188D
0225: F1                                POP     AF
0226: C1                                POP     BC
0227: 3E 00                             LD      A,00h
0229: D3 A2                             OUT     (0A2h),A
022B: C5                                PUSH    BC
022C: 21 EC 02                          LD      HL,02ECh
022F: E5                                PUSH    HL
0230: 21 00 70                          LD      HL,7000h
0233: E5                                PUSH    HL
0234: CD 6E 12                          CALL    L126E
0237: 21 06 00                          LD      HL,0006h
023A: 39                                ADD     HL,SP
023B: F9                                LD      SP,HL
023C: 21 00 70                          LD      HL,7000h
023F: E5                                PUSH    HL
0240: CD 05 12                          CALL    L1205
0243: 21 0D 03                          LD      HL,030Dh
0246: E3                                EX      (SP),HL
0247: CD 05 12                          CALL    L1205
024A: F1                                POP     AF
024B: FD 21 D5 72                       LD      IY,72D5h
024F: FD 36 00 DF                       LD      (IY+00h),0DFh
0253: FD 36 01 09                       LD      (IY+01h),09h
0257: 3E 80                      L0257: LD      A,80h
0259: F5                                PUSH    AF
025A: 33                                INC     SP
025B: 21 00 70                          LD      HL,7000h
025E: E5                                PUSH    HL
025F: CD E9 0F                          CALL    L0FE9
0262: F1                                POP     AF
0263: 33                                INC     SP
0264: 7D                                LD      A,L
0265: 47                                LD      B,A
0266: B7                                OR      A
0267: 28 EE                             JR      Z,L0257
0269: C5                                PUSH    BC
026A: 21 40 03                          LD      HL,0340h
026D: E5                                PUSH    HL
026E: CD 05 12                          CALL    L1205
0271: 33                                INC     SP
0272: 21 00 70                          LD      HL,7000h
0275: E3                                EX      (SP),HL
0276: CD B3 11                          CALL    L11B3
0279: F1                                POP     AF
027A: 33                                INC     SP
027B: 18 DA                             JR      L0257

027D: DD F9                      L027D: LD      SP,IX
027F: DD E1                             POP     IX
0281: C9                                RET

0282: 30                         L0282: DB      30h     ; '0'
0283: 00                                DB      00h
0284: 2E 2E 2E 6C 61 6E 64 65           DB      "...landed in big80.sys!"
028C: 64 20 69 6E 20 62 69 67
0294: 38 30 2E 73 79 73 21
029B: 0A                                DB      0Ah
029C: 00                                DB      00h
029D: 4D 6F 75 6E 74 69 6E 67           DB      "Mounting SD card..."
02A5: 20 53 44 20 63 61 72 64
02AD: 2E 2E 2E
02B0: 00                                DB      00h
02B1: 20 46 41 49 4C 45 44 20           DB      " FAILED (%i)"
02B9: 28 25 69 29
02BD: 0A                                DB      0Ah
02BE: 00                                DB      00h
02BF: 20                                DB      20h     ; ' '
02C0: 4F                                DB      4Fh     ; 'O'
02C1: 4B                                DB      4Bh     ; 'K'
02C2: 0A                                DB      0Ah
02C3: 00                                DB      00h
02C4: 4F 70 65 6E 69 6E 67 20           DB      "Opening level2-a.rom..."
02CC: 6C 65 76 65 6C 32 2D 61
02D4: 2E 72 6F 6D 2E 2E 2E
02DB: 00                                DB      00h
02DC: 30 3A 2F 6C 65 76 65 6C           DB      "0:/level2-a.rom"
02E4: 32 2D 61 2E 72 6F 6D
02EB: 00                                DB      00h
02EC: 6C 65 76 65 6C 32 2D 61           DB      "level2-a.rom loaded (%u bytes)."
02F4: 2E 72 6F 6D 20 6C 6F 61
02FC: 64 65 64 20 28 25 75 20
0304: 62 79 74 65 73 29 2E
030B: 0A                                DB      0Ah
030C: 00                                DB      00h
030D: 45 6E 74 65 72 69 6E 67           DB      "Entering serial echo and jumping to TRS-80 ROM..."
0315: 20 73 65 72 69 61 6C 20
031D: 65 63 68 6F 20 61 6E 64
0325: 20 6A 75 6D 70 69 6E 67
032D: 20 74 6F 20 54 52 53 2D
0335: 38 30 20 52 4F 4D 2E 2E
033D: 2E
033E: 0A                                DB      0Ah
033F: 00                                DB      00h
0340: 52                                DB      52h     ; 'R'
0341: 3A                                DB      3Ah     ; ':'
0342: 00                                DB      00h

                                        ; --- START PROC L0343 ---
0343: DB 91                      L0343: IN      A,(91h)
0345: 0F                                RRCA
0346: 38 FB                             JR      C,L0343
0348: DB 91                             IN      A,(91h)
034A: CB 77                             BIT     6,A
034C: 28 04                             JR      Z,L0352
034E: 21 00 00                          LD      HL,0000h
0351: C9                                RET

0352: 21 02 00                   L0352: LD      HL,0002h
0355: C9                                RET

                                        ; --- START PROC L0356 ---
0356: DB 91                      L0356: IN      A,(91h)
0358: CB 77                             BIT     6,A
035A: 28 04                             JR      Z,L0360
035C: 21 00 00                          LD      HL,0000h
035F: C9                                RET

0360: 21 02 00                   L0360: LD      HL,0002h
0363: C9                                RET

                                        ; --- START PROC L0364 ---
0364: DD E5                      L0364: PUSH    IX
0366: DD 21 00 00                       LD      IX,0000h
036A: DD 39                             ADD     IX,SP
036C: 21 F6 FF                          LD      HL,0FFF6h
036F: 39                                ADD     HL,SP
0370: F9                                LD      SP,HL
0371: 21 06 00                          LD      HL,0006h
0374: 39                                ADD     HL,SP
0375: EB                                EX      DE,HL
0376: 21 11 00                          LD      HL,0011h
0379: 39                                ADD     HL,SP
037A: 01 04 00                          LD      BC,0004h
037D: ED B0                             LDIR
037F: DD 46 05                          LD      B,(IX+05h)
0382: DD 4E 06                          LD      C,(IX+06h)
0385: DD 5E 0B                          LD      E,(IX+0Bh)
0388: DD 56 0C                          LD      D,(IX+0Ch)
038B: 7A                         L038B: LD      A,D
038C: B3                                OR      E
038D: 28 58                             JR      Z,L03E7
038F: DD 70 F6                          LD      (IX-0Ah),B
0392: DD 71 F7                          LD      (IX-09h),C
0395: DD 7E FC                          LD      A,(IX-04h)
0398: DD 77 F8                          LD      (IX-08h),A
039B: DD 7E FD                          LD      A,(IX-03h)
039E: DD 77 F9                          LD      (IX-07h),A
03A1: DD 7E FE                          LD      A,(IX-02h)
03A4: DD 77 FA                          LD      (IX-06h),A
03A7: DD 7E FF                          LD      A,(IX-01h)
03AA: DD 77 FB                          LD      (IX-05h),A
03AD: DD 34 FC                          INC     (IX-04h)
03B0: 20 0D                             JR      NZ,L03BF
03B2: DD 34 FD                          INC     (IX-03h)
03B5: 20 08                             JR      NZ,L03BF
03B7: DD 34 FE                          INC     (IX-02h)
03BA: 20 03                             JR      NZ,L03BF
03BC: DD 34 FF                          INC     (IX-01h)
03BF: C5                         L03BF: PUSH    BC
03C0: D5                                PUSH    DE
03C1: DD 6E F6                          LD      L,(IX-0Ah)
03C4: DD 66 F7                          LD      H,(IX-09h)
03C7: E5                                PUSH    HL
03C8: DD 6E FA                          LD      L,(IX-06h)
03CB: DD 66 FB                          LD      H,(IX-05h)
03CE: E5                                PUSH    HL
03CF: DD 6E F8                          LD      L,(IX-08h)
03D2: DD 66 F9                          LD      H,(IX-07h)
03D5: E5                                PUSH    HL
03D6: CD 04 14                          CALL    L1404
03D9: 21 06 00                          LD      HL,0006h
03DC: 39                                ADD     HL,SP
03DD: F9                                LD      SP,HL
03DE: D1                                POP     DE
03DF: C1                                POP     BC
03E0: 79                                LD      A,C
03E1: C6 02                             ADD     A,02h
03E3: 4F                                LD      C,A
03E4: 1B                                DEC     DE
03E5: 18 A4                             JR      L038B

03E7: 2E 00                      L03E7: LD      L,00h
03E9: DD F9                             LD      SP,IX
03EB: DD E1                             POP     IX
03ED: C9                                RET

                                        ; --- START PROC L03EE ---
03EE: 2E 04                      L03EE: LD      L,04h
03F0: C9                                RET

                                        ; --- START PROC L03F1 ---
03F1: 2E 04                      L03F1: LD      L,04h
03F3: C9                                RET

                                        ; --- START PROC L03F4 ---
03F4: CD 06 15                   L03F4: CALL    L1506
03F7: 21 D4 FF                          LD      HL,0FFD4h
03FA: 39                                ADD     HL,SP
03FB: F9                                LD      SP,HL
03FC: DD 7E 06                          LD      A,(IX+06h)
03FF: DD 77 FE                          LD      (IX-02h),A
0402: DD 7E 07                          LD      A,(IX+07h)
0405: DD 77 FF                          LD      (IX-01h),A
0408: DD 7E 0A                          LD      A,(IX+0Ah)
040B: DD 77 DA                          LD      (IX-26h),A
040E: DD 7E 0B                          LD      A,(IX+0Bh)
0411: DD 77 DB                          LD      (IX-25h),A
0414: DD 6E DA                          LD      L,(IX-26h)
0417: DD 66 DB                          LD      H,(IX-25h)
041A: AF                                XOR     A
041B: 77                                LD      (HL),A
041C: 23                                INC     HL
041D: 77                                LD      (HL),A
041E: 21 04 00                          LD      HL,0004h
0421: 39                                ADD     HL,SP
0422: DD 7E 04                          LD      A,(IX+04h)
0425: DD 77 DC                          LD      (IX-24h),A
0428: DD 7E 05                          LD      A,(IX+05h)
042B: DD 77 DD                          LD      (IX-23h),A
042E: E5                                PUSH    HL
042F: DD 6E DC                          LD      L,(IX-24h)
0432: DD 66 DD                          LD      H,(IX-23h)
0435: E5                                PUSH    HL
0436: CD A3 12                          CALL    L12A3
0439: F1                                POP     AF
043A: F1                                POP     AF
043B: 4D                                LD      C,L
043C: DD 71 FD                          LD      (IX-03h),C
043F: 79                                LD      A,C
0440: B7                                OR      A
0441: 20 1D                             JR      NZ,L0460
0443: DD 7E DC                          LD      A,(IX-24h)
0446: C6 0F                             ADD     A,0Fh
0448: DD 77 DE                          LD      (IX-22h),A
044B: DD 7E DD                          LD      A,(IX-23h)
044E: CE 00                             ADC     A,00h
0450: DD 77 DF                          LD      (IX-21h),A
0453: DD 6E DE                          LD      L,(IX-22h)
0456: DD 66 DF                          LD      H,(IX-21h)
0459: 7E                                LD      A,(HL)
045A: DD 77 FD                          LD      (IX-03h),A
045D: B7                                OR      A
045E: 28 06                             JR      Z,L0466
0460: DD 6E FD                   L0460: LD      L,(IX-03h)
0463: C3 84 09                          JP      L0984

0466: DD 7E DC                   L0466: LD      A,(IX-24h)
0469: DD 77 E0                          LD      (IX-20h),A
046C: DD 7E DD                          LD      A,(IX-23h)
046F: DD 77 E1                          LD      (IX-1Fh),A
0472: DD 7E DC                          LD      A,(IX-24h)
0475: C6 0E                             ADD     A,0Eh
0477: DD 77 E2                          LD      (IX-1Eh),A
047A: DD 7E DD                          LD      A,(IX-23h)
047D: CE 00                             ADC     A,00h
047F: DD 77 E3                          LD      (IX-1Dh),A
0482: DD 6E E2                          LD      L,(IX-1Eh)
0485: DD 66 E3                          LD      H,(IX-1Dh)
0488: 7E                                LD      A,(HL)
0489: 0F                                RRCA
048A: 38 05                             JR      C,L0491
048C: 2E 07                             LD      L,07h
048E: C3 84 09                          JP      L0984

0491: DD 6E DC                   L0491: LD      L,(IX-24h)
0494: DD 66 DD                          LD      H,(IX-23h)
0497: 11 0A 00                          LD      DE,000Ah
049A: 19                                ADD     HL,DE
049B: 4E                                LD      C,(HL)
049C: 23                                INC     HL
049D: 46                                LD      B,(HL)
049E: 23                                INC     HL
049F: 5E                                LD      E,(HL)
04A0: 23                                INC     HL
04A1: 56                                LD      D,(HL)
04A2: DD 7E DC                          LD      A,(IX-24h)
04A5: C6 10                             ADD     A,10h
04A7: DD 77 E4                          LD      (IX-1Ch),A
04AA: DD 7E DD                          LD      A,(IX-23h)
04AD: CE 00                             ADC     A,00h
04AF: DD 77 E5                          LD      (IX-1Bh),A
04B2: D5                                PUSH    DE
04B3: C5                                PUSH    BC
04B4: DD 5E E4                          LD      E,(IX-1Ch)
04B7: DD 56 E5                          LD      D,(IX-1Bh)
04BA: 21 2A 00                          LD      HL,002Ah
04BD: 39                                ADD     HL,SP
04BE: EB                                EX      DE,HL
04BF: 01 04 00                          LD      BC,0004h
04C2: ED B0                             LDIR
04C4: C1                                POP     BC
04C5: D1                                POP     DE
04C6: 79                                LD      A,C
04C7: DD 96 FA                          SUB     (IX-06h)
04CA: 4F                                LD      C,A
04CB: 78                                LD      A,B
04CC: DD 9E FB                          SBC     A,(IX-05h)
04CF: 47                                LD      B,A
04D0: 7B                                LD      A,E
04D1: DD 9E FC                          SBC     A,(IX-04h)
04D4: 5F                                LD      E,A
04D5: 7A                                LD      A,D
04D6: DD 9E FD                          SBC     A,(IX-03h)
04D9: 57                                LD      D,A
04DA: DD 7E 08                          LD      A,(IX+08h)
04DD: DD 77 FA                          LD      (IX-06h),A
04E0: DD 7E 09                          LD      A,(IX+09h)
04E3: DD 77 FB                          LD      (IX-05h),A
04E6: AF                                XOR     A
04E7: DD 77 FC                          LD      (IX-04h),A
04EA: DD 77 FD                          LD      (IX-03h),A
04ED: 79                                LD      A,C
04EE: DD 96 FA                          SUB     (IX-06h)
04F1: 78                                LD      A,B
04F2: DD 9E FB                          SBC     A,(IX-05h)
04F5: 7B                                LD      A,E
04F6: DD 9E FC                          SBC     A,(IX-04h)
04F9: 7A                                LD      A,D
04FA: DD 9E FD                          SBC     A,(IX-03h)
04FD: 30 06                             JR      NC,L0505
04FF: DD 71 08                          LD      (IX+08h),C
0502: DD 70 09                          LD      (IX+09h),B
0505: DD 7E DC                   L0505: LD      A,(IX-24h)
0508: DD 77 E6                          LD      (IX-1Ah),A
050B: DD 7E DD                          LD      A,(IX-23h)
050E: DD 77 E7                          LD      (IX-19h),A
0511: DD 7E DC                          LD      A,(IX-24h)
0514: DD 77 E8                          LD      (IX-18h),A
0517: DD 7E DD                          LD      A,(IX-23h)
051A: DD 77 E9                          LD      (IX-17h),A
051D: DD 7E E4                          LD      A,(IX-1Ch)
0520: DD 77 EA                          LD      (IX-16h),A
0523: DD 7E E5                          LD      A,(IX-1Bh)
0526: DD 77 EB                          LD      (IX-15h),A
0529: DD 7E DC                          LD      A,(IX-24h)
052C: C6 22                             ADD     A,22h   ; '"'
052E: DD 77 EC                          LD      (IX-14h),A
0531: DD 7E DD                          LD      A,(IX-23h)
0534: CE 00                             ADC     A,00h
0536: DD 77 ED                          LD      (IX-13h),A
0539: DD 7E DC                          LD      A,(IX-24h)
053C: DD 77 EE                          LD      (IX-12h),A
053F: DD 7E DD                          LD      A,(IX-23h)
0542: DD 77 EF                          LD      (IX-11h),A
0545: DD 7E 09                   L0545: LD      A,(IX+09h)
0548: DD B6 08                          OR      (IX+08h)
054B: CA 82 09                          JP      Z,L0982
054E: DD 5E E4                          LD      E,(IX-1Ch)
0551: DD 56 E5                          LD      D,(IX-1Bh)
0554: 21 26 00                          LD      HL,0026h
0557: 39                                ADD     HL,SP
0558: EB                                EX      DE,HL
0559: 01 04 00                          LD      BC,0004h
055C: ED B0                             LDIR
055E: DD 7E FA                          LD      A,(IX-06h)
0561: B7                                OR      A
0562: C2 B8 08                          JP      NZ,L08B8
0565: DD CB FB 46                       BIT     0,(IX-05h)
0569: C2 B8 08                          JP      NZ,L08B8
056C: DD 4E FB                          LD      C,(IX-05h)
056F: DD 46 FC                          LD      B,(IX-04h)
0572: DD 5E FD                          LD      E,(IX-03h)
0575: CB 3B                             SRL     E
0577: CB 18                             RR      B
0579: CB 19                             RR      C
057B: DD 6E D8                          LD      L,(IX-28h)
057E: DD 66 D9                          LD      H,(IX-27h)
0581: C5                                PUSH    BC
0582: 01 0A 00                          LD      BC,000Ah
0585: 09                                ADD     HL,BC
0586: C1                                POP     BC
0587: 7E                                LD      A,(HL)
0588: 2B                                DEC     HL
0589: 6E                                LD      L,(HL)
058A: 67                                LD      H,A
058B: 2B                                DEC     HL
058C: 7D                                LD      A,L
058D: A1                                AND     C
058E: 4F                                LD      C,A
058F: 7C                                LD      A,H
0590: A0                                AND     B
0591: 47                                LD      B,A
0592: DD 71 F0                          LD      (IX-10h),C
0595: DD 70 F1                          LD      (IX-0Fh),B
0598: 78                                LD      A,B
0599: DD B6 F0                          OR      (IX-10h)
059C: C2 58 06                          JP      NZ,L0658
059F: DD 7E FD                          LD      A,(IX-03h)
05A2: DD B6 FC                          OR      (IX-04h)
05A5: DD B6 FB                          OR      (IX-05h)
05A8: DD B6 FA                          OR      (IX-06h)
05AB: 20 1F                             JR      NZ,L05CC
05AD: DD 6E E6                          LD      L,(IX-1Ah)
05B0: DD 66 E7                          LD      H,(IX-19h)
05B3: 11 06 00                          LD      DE,0006h
05B6: 19                                ADD     HL,DE
05B7: 7E                                LD      A,(HL)
05B8: DD 77 FA                          LD      (IX-06h),A
05BB: 23                                INC     HL
05BC: 7E                                LD      A,(HL)
05BD: DD 77 FB                          LD      (IX-05h),A
05C0: 23                                INC     HL
05C1: 7E                                LD      A,(HL)
05C2: DD 77 FC                          LD      (IX-04h),A
05C5: 23                                INC     HL
05C6: 7E                                LD      A,(HL)
05C7: DD 77 FD                          LD      (IX-03h),A
05CA: 18 38                             JR      L0604

05CC: DD 7E E0                   L05CC: LD      A,(IX-20h)
05CF: DD 77 FC                          LD      (IX-04h),A
05D2: DD 7E E1                          LD      A,(IX-1Fh)
05D5: DD 77 FD                          LD      (IX-03h),A
05D8: DD 6E FC                          LD      L,(IX-04h)
05DB: DD 66 FD                          LD      H,(IX-03h)
05DE: 11 14 00                          LD      DE,0014h
05E1: 19                                ADD     HL,DE
05E2: 4E                                LD      C,(HL)
05E3: 23                                INC     HL
05E4: 46                                LD      B,(HL)
05E5: 23                                INC     HL
05E6: 5E                                LD      E,(HL)
05E7: 23                                INC     HL
05E8: 56                                LD      D,(HL)
05E9: D5                                PUSH    DE
05EA: C5                                PUSH    BC
05EB: DD 6E E0                          LD      L,(IX-20h)
05EE: DD 66 E1                          LD      H,(IX-1Fh)
05F1: E5                                PUSH    HL
05F2: CD 7F 15                          CALL    L157F
05F5: F1                                POP     AF
05F6: F1                                POP     AF
05F7: F1                                POP     AF
05F8: DD 75 FA                          LD      (IX-06h),L
05FB: DD 74 FB                          LD      (IX-05h),H
05FE: DD 73 FC                          LD      (IX-04h),E
0601: DD 72 FD                          LD      (IX-03h),D
0604: DD 7E FA                   L0604: LD      A,(IX-06h)
0607: D6 02                             SUB     02h
0609: DD 7E FB                          LD      A,(IX-05h)
060C: DE 00                             SBC     A,00h
060E: DD 7E FC                          LD      A,(IX-04h)
0611: DE 00                             SBC     A,00h
0613: DD 7E FD                          LD      A,(IX-03h)
0616: DE 00                             SBC     A,00h
0618: 30 0D                             JR      NC,L0627
061A: DD 6E DE                          LD      L,(IX-22h)
061D: DD 66 DF                          LD      H,(IX-21h)
0620: 36 02                             LD      (HL),02h
0622: 2E 02                             LD      L,02h
0624: C3 84 09                          JP      L0984

0627: DD 7E FA                   L0627: LD      A,(IX-06h)
062A: DD A6 FB                          AND     (IX-05h)
062D: DD A6 FC                          AND     (IX-04h)
0630: DD A6 FD                          AND     (IX-03h)
0633: 3C                                INC     A
0634: 20 0D                             JR      NZ,L0643
0636: DD 6E DE                          LD      L,(IX-22h)
0639: DD 66 DF                          LD      H,(IX-21h)
063C: 36 01                             LD      (HL),01h
063E: 2E 01                             LD      L,01h
0640: C3 84 09                          JP      L0984

0643: DD 7E E8                   L0643: LD      A,(IX-18h)
0646: C6 14                             ADD     A,14h
0648: 5F                                LD      E,A
0649: DD 7E E9                          LD      A,(IX-17h)
064C: CE 00                             ADC     A,00h
064E: 57                                LD      D,A
064F: 21 26 00                          LD      HL,0026h
0652: 39                                ADD     HL,SP
0653: 01 04 00                          LD      BC,0004h
0656: ED B0                             LDIR
0658: DD 6E DC                   L0658: LD      L,(IX-24h)
065B: DD 66 DD                          LD      H,(IX-23h)
065E: 11 14 00                          LD      DE,0014h
0661: 19                                ADD     HL,DE
0662: 4E                                LD      C,(HL)
0663: 23                                INC     HL
0664: 46                                LD      B,(HL)
0665: 23                                INC     HL
0666: 5E                                LD      E,(HL)
0667: 23                                INC     HL
0668: 56                                LD      D,(HL)
0669: D5                                PUSH    DE
066A: C5                                PUSH    BC
066B: DD 6E D8                          LD      L,(IX-28h)
066E: DD 66 D9                          LD      H,(IX-27h)
0671: E5                                PUSH    HL
0672: CD 3E 14                          CALL    L143E
0675: F1                                POP     AF
0676: F1                                POP     AF
0677: F1                                POP     AF
0678: 7A                                LD      A,D
0679: B3                                OR      E
067A: B4                                OR      H
067B: B5                                OR      L
067C: 20 0D                             JR      NZ,L068B
067E: DD 6E DE                          LD      L,(IX-22h)
0681: DD 66 DF                          LD      H,(IX-21h)
0684: 36 02                             LD      (HL),02h
0686: 2E 02                             LD      L,02h
0688: C3 84 09                          JP      L0984

068B: DD 7E F0                   L068B: LD      A,(IX-10h)
068E: DD 77 FA                          LD      (IX-06h),A
0691: DD 7E F1                          LD      A,(IX-0Fh)
0694: DD 77 FB                          LD      (IX-05h),A
0697: AF                                XOR     A
0698: DD 77 FC                          LD      (IX-04h),A
069B: DD 77 FD                          LD      (IX-03h),A
069E: 7D                                LD      A,L
069F: DD 86 FA                          ADD     A,(IX-06h)
06A2: 4F                                LD      C,A
06A3: 7C                                LD      A,H
06A4: DD 8E FB                          ADC     A,(IX-05h)
06A7: 47                                LD      B,A
06A8: 7B                                LD      A,E
06A9: DD 8E FC                          ADC     A,(IX-04h)
06AC: 5F                                LD      E,A
06AD: 7A                                LD      A,D
06AE: DD 8E FD                          ADC     A,(IX-03h)
06B1: 57                                LD      D,A
06B2: DD 71 F2                          LD      (IX-0Eh),C
06B5: DD 70 F3                          LD      (IX-0Dh),B
06B8: DD 73 F4                          LD      (IX-0Ch),E
06BB: DD 72 F5                          LD      (IX-0Bh),D
06BE: DD 7E 09                          LD      A,(IX+09h)
06C1: CB 3F                             SRL     A
06C3: 4F                                LD      C,A
06C4: 06 00                             LD      B,00h
06C6: DD 5E D8                          LD      E,(IX-28h)
06C9: DD 56 D9                          LD      D,(IX-27h)
06CC: DD 7E DC                          LD      A,(IX-24h)
06CF: C6 18                             ADD     A,18h
06D1: DD 77 F6                          LD      (IX-0Ah),A
06D4: DD 7E DD                          LD      A,(IX-23h)
06D7: CE 00                             ADC     A,00h
06D9: DD 77 F7                          LD      (IX-09h),A
06DC: DD 7E DC                          LD      A,(IX-24h)
06DF: C6 22                             ADD     A,22h   ; '"'
06E1: DD 77 F8                          LD      (IX-08h),A
06E4: DD 7E DD                          LD      A,(IX-23h)
06E7: CE 00                             ADC     A,00h
06E9: DD 77 F9                          LD      (IX-07h),A
06EC: 21 01 00                          LD      HL,0001h
06EF: 19                                ADD     HL,DE
06F0: DD 75 FA                          LD      (IX-06h),L
06F3: DD 74 FB                          LD      (IX-05h),H
06F6: 78                                LD      A,B
06F7: B1                                OR      C
06F8: CA F3 07                          JP      Z,L07F3
06FB: DD 7E F0                          LD      A,(IX-10h)
06FE: 81                                ADD     A,C
06FF: DD 77 FC                          LD      (IX-04h),A
0702: DD 7E F1                          LD      A,(IX-0Fh)
0705: 88                                ADC     A,B
0706: DD 77 FD                          LD      (IX-03h),A
0709: EB                                EX      DE,HL
070A: 11 09 00                          LD      DE,0009h
070D: 19                                ADD     HL,DE
070E: 5E                                LD      E,(HL)
070F: 23                                INC     HL
0710: 56                                LD      D,(HL)
0711: DD 6E FC                          LD      L,(IX-04h)
0714: DD 66 FD                          LD      H,(IX-03h)
0717: 7B                                LD      A,E
0718: 95                                SUB     L
0719: 7A                                LD      A,D
071A: 9C                                SBC     A,H
071B: 30 0A                             JR      NC,L0727
071D: 7B                                LD      A,E
071E: DD 96 F0                          SUB     (IX-10h)
0721: 4F                                LD      C,A
0722: 7A                                LD      A,D
0723: DD 9E F1                          SBC     A,(IX-0Fh)
0726: 47                                LD      B,A
0727: DD 6E FA                   L0727: LD      L,(IX-06h)
072A: DD 66 FB                          LD      H,(IX-05h)
072D: 56                                LD      D,(HL)
072E: C5                                PUSH    BC
072F: C5                                PUSH    BC
0730: DD 6E F4                          LD      L,(IX-0Ch)
0733: DD 66 F5                          LD      H,(IX-0Bh)
0736: E5                                PUSH    HL
0737: DD 6E F2                          LD      L,(IX-0Eh)
073A: DD 66 F3                          LD      H,(IX-0Dh)
073D: E5                                PUSH    HL
073E: DD 6E FE                          LD      L,(IX-02h)
0741: DD 66 FF                          LD      H,(IX-01h)
0744: E5                                PUSH    HL
0745: D5                                PUSH    DE
0746: 33                                INC     SP
0747: CD 64 03                          CALL    L0364
074A: FD 21 09 00                       LD      IY,0009h
074E: FD 39                             ADD     IY,SP
0750: FD F9                             LD      SP,IY
0752: 7D                                LD      A,L
0753: C1                                POP     BC
0754: B7                                OR      A
0755: 28 0D                             JR      Z,L0764
0757: DD 6E DE                          LD      L,(IX-22h)
075A: DD 66 DF                          LD      H,(IX-21h)
075D: 36 01                             LD      (HL),01h
075F: 2E 01                             LD      L,01h
0761: C3 84 09                          JP      L0984

0764: DD 6E E2                   L0764: LD      L,(IX-1Eh)
0767: DD 66 E3                          LD      H,(IX-1Dh)
076A: 7E                                LD      A,(HL)
076B: 07                                RLCA
076C: D2 EB 07                          JP      NC,L07EB
076F: C5                                PUSH    BC
0770: DD 5E F6                          LD      E,(IX-0Ah)
0773: DD 56 F7                          LD      D,(IX-09h)
0776: 21 28 00                          LD      HL,0028h
0779: 39                                ADD     HL,SP
077A: EB                                EX      DE,HL
077B: 01 04 00                          LD      BC,0004h
077E: ED B0                             LDIR
0780: C1                                POP     BC
0781: DD 7E FA                          LD      A,(IX-06h)
0784: DD 96 F2                          SUB     (IX-0Eh)
0787: 5F                                LD      E,A
0788: DD 7E FB                          LD      A,(IX-05h)
078B: DD 9E F3                          SBC     A,(IX-0Dh)
078E: 57                                LD      D,A
078F: DD 7E FC                          LD      A,(IX-04h)
0792: DD 9E F4                          SBC     A,(IX-0Ch)
0795: 6F                                LD      L,A
0796: DD 7E FD                          LD      A,(IX-03h)
0799: DD 9E F5                          SBC     A,(IX-0Bh)
079C: 67                                LD      H,A
079D: DD 71 D4                          LD      (IX-2Ch),C
07A0: DD 70 D5                          LD      (IX-2Bh),B
07A3: AF                                XOR     A
07A4: DD 77 D6                          LD      (IX-2Ah),A
07A7: DD 77 D7                          LD      (IX-29h),A
07AA: 7B                                LD      A,E
07AB: DD 96 D4                          SUB     (IX-2Ch)
07AE: 7A                                LD      A,D
07AF: DD 9E D5                          SBC     A,(IX-2Bh)
07B2: 7D                                LD      A,L
07B3: DD 9E D6                          SBC     A,(IX-2Ah)
07B6: 7C                                LD      A,H
07B7: DD 9E D7                          SBC     A,(IX-29h)
07BA: 30 2F                             JR      NC,L07EB
07BC: DD 6E FA                          LD      L,(IX-06h)
07BF: DD 66 FB                          LD      H,(IX-05h)
07C2: DD 5E F2                          LD      E,(IX-0Eh)
07C5: DD 56 F3                          LD      D,(IX-0Dh)
07C8: BF                                CP      A
07C9: ED 52                             SBC     HL,DE
07CB: 7D                                LD      A,L
07CC: 87                                ADD     A,A
07CD: 57                                LD      D,A
07CE: 1E 00                             LD      E,00h
07D0: DD 6E FE                          LD      L,(IX-02h)
07D3: DD 66 FF                          LD      H,(IX-01h)
07D6: 19                                ADD     HL,DE
07D7: C5                                PUSH    BC
07D8: 11 00 02                          LD      DE,0200h
07DB: D5                                PUSH    DE
07DC: DD 5E F8                          LD      E,(IX-08h)
07DF: DD 56 F9                          LD      D,(IX-07h)
07E2: D5                                PUSH    DE
07E3: E5                                PUSH    HL
07E4: CD 89 09                          CALL    L0989
07E7: F1                                POP     AF
07E8: F1                                POP     AF
07E9: F1                                POP     AF
07EA: C1                                POP     BC
07EB: 79                         L07EB: LD      A,C
07EC: 87                                ADD     A,A
07ED: 47                                LD      B,A
07EE: 0E 00                             LD      C,00h
07F0: C3 0C 09                          JP      L090C

07F3: DD 6E F6                   L07F3: LD      L,(IX-0Ah)
07F6: DD 66 F7                          LD      H,(IX-09h)
07F9: 4E                                LD      C,(HL)
07FA: 23                                INC     HL
07FB: 46                                LD      B,(HL)
07FC: 23                                INC     HL
07FD: 5E                                LD      E,(HL)
07FE: 23                                INC     HL
07FF: 56                                LD      D,(HL)
0800: DD 7E F2                          LD      A,(IX-0Eh)
0803: 91                                SUB     C
0804: 20 12                             JR      NZ,L0818
0806: DD 7E F3                          LD      A,(IX-0Dh)
0809: 90                                SUB     B
080A: 20 0C                             JR      NZ,L0818
080C: DD 6E F4                          LD      L,(IX-0Ch)
080F: DD 66 F5                          LD      H,(IX-0Bh)
0812: BF                                CP      A
0813: ED 52                             SBC     HL,DE
0815: CA A9 08                          JP      Z,L08A9
0818: DD 6E E2                   L0818: LD      L,(IX-1Eh)
081B: DD 66 E3                          LD      H,(IX-1Dh)
081E: 7E                                LD      A,(HL)
081F: 07                                RLCA
0820: 30 48                             JR      NC,L086A
0822: DD 6E FA                          LD      L,(IX-06h)
0825: DD 66 FB                          LD      H,(IX-05h)
0828: 7E                                LD      A,(HL)
0829: DD 77 FD                          LD      (IX-03h),A
082C: 21 01 00                          LD      HL,0001h
082F: E5                                PUSH    HL
0830: D5                                PUSH    DE
0831: C5                                PUSH    BC
0832: DD 6E F8                          LD      L,(IX-08h)
0835: DD 66 F9                          LD      H,(IX-07h)
0838: E5                                PUSH    HL
0839: DD 7E FD                          LD      A,(IX-03h)
083C: F5                                PUSH    AF
083D: 33                                INC     SP
083E: CD EE 03                          CALL    L03EE
0841: FD 21 09 00                       LD      IY,0009h
0845: FD 39                             ADD     IY,SP
0847: FD F9                             LD      SP,IY
0849: 7D                                LD      A,L
084A: B7                                OR      A
084B: 28 0D                             JR      Z,L085A
084D: DD 6E DE                          LD      L,(IX-22h)
0850: DD 66 DF                          LD      H,(IX-21h)
0853: 36 01                             LD      (HL),01h
0855: 2E 01                             LD      L,01h
0857: C3 84 09                          JP      L0984

085A: DD 6E E2                   L085A: LD      L,(IX-1Eh)
085D: DD 66 E3                          LD      H,(IX-1Dh)
0860: 7E                                LD      A,(HL)
0861: CB BF                             RES     7,A
0863: DD 6E E2                          LD      L,(IX-1Eh)
0866: DD 66 E3                          LD      H,(IX-1Dh)
0869: 77                                LD      (HL),A
086A: DD 6E D8                   L086A: LD      L,(IX-28h)
086D: DD 66 D9                          LD      H,(IX-27h)
0870: 23                                INC     HL
0871: 46                                LD      B,(HL)
0872: 21 01 00                          LD      HL,0001h
0875: E5                                PUSH    HL
0876: DD 6E F4                          LD      L,(IX-0Ch)
0879: DD 66 F5                          LD      H,(IX-0Bh)
087C: E5                                PUSH    HL
087D: DD 6E F2                          LD      L,(IX-0Eh)
0880: DD 66 F3                          LD      H,(IX-0Dh)
0883: E5                                PUSH    HL
0884: DD 6E F8                          LD      L,(IX-08h)
0887: DD 66 F9                          LD      H,(IX-07h)
088A: E5                                PUSH    HL
088B: C5                                PUSH    BC
088C: 33                                INC     SP
088D: CD 64 03                          CALL    L0364
0890: FD 21 09 00                       LD      IY,0009h
0894: FD 39                             ADD     IY,SP
0896: FD F9                             LD      SP,IY
0898: 7D                                LD      A,L
0899: B7                                OR      A
089A: 28 0D                             JR      Z,L08A9
089C: DD 6E DE                          LD      L,(IX-22h)
089F: DD 66 DF                          LD      H,(IX-21h)
08A2: 36 01                             LD      (HL),01h
08A4: 2E 01                             LD      L,01h
08A6: C3 84 09                          JP      L0984

08A9: DD 5E F6                   L08A9: LD      E,(IX-0Ah)
08AC: DD 56 F7                          LD      D,(IX-09h)
08AF: 21 1E 00                          LD      HL,001Eh
08B2: 39                                ADD     HL,SP
08B3: 01 04 00                          LD      BC,0004h
08B6: ED B0                             LDIR
08B8: DD 5E EA                   L08B8: LD      E,(IX-16h)
08BB: DD 56 EB                          LD      D,(IX-15h)
08BE: 21 26 00                          LD      HL,0026h
08C1: 39                                ADD     HL,SP
08C2: EB                                EX      DE,HL
08C3: 01 04 00                          LD      BC,0004h
08C6: ED B0                             LDIR
08C8: DD 4E FA                          LD      C,(IX-06h)
08CB: DD 7E FB                          LD      A,(IX-05h)
08CE: E6 01                             AND     01h
08D0: 47                                LD      B,A
08D1: AF                                XOR     A
08D2: 91                                SUB     C
08D3: 4F                                LD      C,A
08D4: 3E 02                             LD      A,02h
08D6: 98                                SBC     A,B
08D7: 47                                LD      B,A
08D8: DD 7E 08                          LD      A,(IX+08h)
08DB: 91                                SUB     C
08DC: DD 7E 09                          LD      A,(IX+09h)
08DF: 98                                SBC     A,B
08E0: 30 06                             JR      NC,L08E8
08E2: DD 4E 08                          LD      C,(IX+08h)
08E5: DD 46 09                          LD      B,(IX+09h)
08E8: DD 5E FA                   L08E8: LD      E,(IX-06h)
08EB: DD 7E FB                          LD      A,(IX-05h)
08EE: E6 01                             AND     01h
08F0: 57                                LD      D,A
08F1: 7B                                LD      A,E
08F2: DD 86 EC                          ADD     A,(IX-14h)
08F5: 5F                                LD      E,A
08F6: 7A                                LD      A,D
08F7: DD 8E ED                          ADC     A,(IX-13h)
08FA: 57                                LD      D,A
08FB: DD 6E FE                          LD      L,(IX-02h)
08FE: DD 66 FF                          LD      H,(IX-01h)
0901: C5                                PUSH    BC
0902: C5                                PUSH    BC
0903: D5                                PUSH    DE
0904: E5                                PUSH    HL
0905: CD 89 09                          CALL    L0989
0908: F1                                POP     AF
0909: F1                                POP     AF
090A: F1                                POP     AF
090B: C1                                POP     BC
090C: DD 7E 08                   L090C: LD      A,(IX+08h)
090F: 91                                SUB     C
0910: DD 77 08                          LD      (IX+08h),A
0913: DD 7E 09                          LD      A,(IX+09h)
0916: 98                                SBC     A,B
0917: DD 77 09                          LD      (IX+09h),A
091A: DD 6E DA                          LD      L,(IX-26h)
091D: DD 66 DB                          LD      H,(IX-25h)
0920: 7E                                LD      A,(HL)
0921: 23                                INC     HL
0922: 66                                LD      H,(HL)
0923: 6F                                LD      L,A
0924: 09                                ADD     HL,BC
0925: EB                                EX      DE,HL
0926: DD 6E DA                          LD      L,(IX-26h)
0929: DD 66 DB                          LD      H,(IX-25h)
092C: 73                                LD      (HL),E
092D: 23                                INC     HL
092E: 72                                LD      (HL),D
092F: DD 7E FE                          LD      A,(IX-02h)
0932: 81                                ADD     A,C
0933: DD 77 FE                          LD      (IX-02h),A
0936: DD 7E FF                          LD      A,(IX-01h)
0939: 88                                ADC     A,B
093A: DD 77 FF                          LD      (IX-01h),A
093D: DD 7E EE                          LD      A,(IX-12h)
0940: C6 10                             ADD     A,10h
0942: 5F                                LD      E,A
0943: DD 7E EF                          LD      A,(IX-11h)
0946: CE 00                             ADC     A,00h
0948: 57                                LD      D,A
0949: D5                                PUSH    DE
094A: C5                                PUSH    BC
094B: 21 26 00                          LD      HL,0026h
094E: 39                                ADD     HL,SP
094F: EB                                EX      DE,HL
0950: 01 04 00                          LD      BC,0004h
0953: ED B0                             LDIR
0955: C1                                POP     BC
0956: D1                                POP     DE
0957: 21 00 00                          LD      HL,0000h
095A: 79                                LD      A,C
095B: DD 86 F6                          ADD     A,(IX-0Ah)
095E: DD 77 FA                          LD      (IX-06h),A
0961: 78                                LD      A,B
0962: DD 8E F7                          ADC     A,(IX-09h)
0965: DD 77 FB                          LD      (IX-05h),A
0968: 7D                                LD      A,L
0969: DD 8E F8                          ADC     A,(IX-08h)
096C: DD 77 FC                          LD      (IX-04h),A
096F: 7C                                LD      A,H
0970: DD 8E F9                          ADC     A,(IX-07h)
0973: DD 77 FD                          LD      (IX-03h),A
0976: 21 26 00                          LD      HL,0026h
0979: 39                                ADD     HL,SP
097A: 01 04 00                          LD      BC,0004h
097D: ED B0                             LDIR
097F: C3 45 05                          JP      L0545

0982: 2E 00                      L0982: LD      L,00h
0984: DD F9                      L0984: LD      SP,IX
0986: DD E1                             POP     IX
0988: C9                                RET

                                        ; --- START PROC L0989 ---
0989: CD 06 15                   L0989: CALL    L1506
098C: F5                                PUSH    AF
098D: DD 4E 04                          LD      C,(IX+04h)
0990: DD 46 05                          LD      B,(IX+05h)
0993: DD 5E 06                          LD      E,(IX+06h)
0996: DD 56 07                          LD      D,(IX+07h)
0999: DD 7E 09                          LD      A,(IX+09h)
099C: DD B6 08                          OR      (IX+08h)
099F: 28 1B                             JR      Z,L09BC
09A1: 33                                INC     SP
09A2: 33                                INC     SP
09A3: C5                                PUSH    BC
09A4: DD 4E 08                          LD      C,(IX+08h)
09A7: DD 46 09                          LD      B,(IX+09h)
09AA: 1A                         L09AA: LD      A,(DE)
09AB: 13                                INC     DE
09AC: E1                                POP     HL
09AD: E5                                PUSH    HL
09AE: 77                                LD      (HL),A
09AF: DD 34 FE                          INC     (IX-02h)
09B2: 20 03                             JR      NZ,L09B7
09B4: DD 34 FF                          INC     (IX-01h)
09B7: 0B                         L09B7: DEC     BC
09B8: 78                                LD      A,B
09B9: B1                                OR      C
09BA: 20 EE                             JR      NZ,L09AA
09BC: F1                         L09BC: POP     AF
09BD: DD E1                             POP     IX
09BF: C9                                RET

                                        ; --- START PROC L09C0 ---
09C0: C9                         L09C0: RET

                                        ; --- START PROC L09C1 ---
09C1: ED 73 B3 72                L09C1: LD      (72B3h),SP
09C5: 31 C1 72                          LD      SP,72C1h
09C8: F5                                PUSH    AF
09C9: C5                                PUSH    BC
09CA: D5                                PUSH    DE
09CB: E5                                PUSH    HL
09CC: DD E5                             PUSH    IX
09CE: FD E5                             PUSH    IY
09D0: ED 7B C1 72                       LD      SP,(72C1h)
09D4: FD E1                             POP     IY
09D6: DD E1                             POP     IX
09D8: E1                                POP     HL
09D9: D1                                POP     DE
09DA: C1                                POP     BC
09DB: F1                                POP     AF
09DC: C3 C0 09                          JP      L09C0

09DF: F5                         L09DF: DB      0F5h
09E0: C5                                DB      0C5h
09E1: D5                                DB      0D5h
09E2: E5                                DB      0E5h
09E3: DD                                DB      0DDh
09E4: E5                                DB      0E5h
09E5: FD                                DB      0FDh
09E6: E5                                DB      0E5h
09E7: ED                                DB      0EDh
09E8: 73                                DB      73h     ; 's'
09E9: C1                                DB      0C1h
09EA: 72                                DB      72h     ; 'r'
09EB: 31                                DB      31h     ; '1'
09EC: B5                                DB      0B5h
09ED: 72                                DB      72h     ; 'r'
09EE: FD                                DB      0FDh
09EF: E1                                DB      0E1h
09F0: DD                                DB      0DDh
09F1: E1                                DB      0E1h
09F2: E1                                DB      0E1h
09F3: D1                                DB      0D1h
09F4: C1                                DB      0C1h
09F5: 3A                                DB      3Ah     ; ':'
09F6: D4                                DB      0D4h
09F7: 72                                DB      72h     ; 'r'
09F8: B7                                DB      0B7h
09F9: 20                                DB      20h     ; ' '
09FA: 09                                DB      09h
09FB: F1                                DB      0F1h
09FC: ED                                DB      0EDh
09FD: 7B                                DB      7Bh     ; '{'
09FE: B3                                DB      0B3h
09FF: 72                                DB      72h     ; 'r'
0A00: D3                                DB      0D3h
0A01: 1C                                DB      1Ch
0A02: ED                                DB      0EDh
0A03: 45                                DB      45h     ; 'E'
0A04: AF                                DB      0AFh
0A05: 32                                DB      32h     ; '2'
0A06: D4                                DB      0D4h
0A07: 72                                DB      72h     ; 'r'
0A08: 21                                DB      21h     ; '!'
0A09: 00                                DB      00h
0A0A: 00                                DB      00h
0A0B: D3                                DB      0D3h
0A0C: 1C                                DB      1Ch
0A0D: E9                                DB      0E9h
0A0E: C9                                DB      0C9h

                                        ; --- START PROC L0A0F ---
0A0F: CD 06 15                   L0A0F: CALL    L1506
0A12: 21 BF FF                          LD      HL,0FFBFh
0A15: 39                                ADD     HL,SP
0A16: F9                                LD      SP,HL
0A17: DD 7E 05                          LD      A,(IX+05h)
0A1A: DD B6 04                          OR      (IX+04h)
0A1D: 20 05                             JR      NZ,L0A24
0A1F: 2E 09                             LD      L,09h
0A21: C3 CC 0F                          JP      L0FCC

0A24: DD 7E 08                   L0A24: LD      A,(IX+08h)
0A27: E6 3F                             AND     3Fh     ; '?'
0A29: DD 77 08                          LD      (IX+08h),A
0A2C: 21 2A 00                          LD      HL,002Ah
0A2F: 39                                ADD     HL,SP
0A30: EB                                EX      DE,HL
0A31: 21 47 00                          LD      HL,0047h
0A34: 39                                ADD     HL,SP
0A35: 4D                                LD      C,L
0A36: 44                                LD      B,H
0A37: DD 7E 08                          LD      A,(IX+08h)
0A3A: F5                                PUSH    AF
0A3B: 33                                INC     SP
0A3C: D5                                PUSH    DE
0A3D: C5                                PUSH    BC
0A3E: CD E5 1B                          CALL    L1BE5
0A41: F1                                POP     AF
0A42: F1                                POP     AF
0A43: 33                                INC     SP
0A44: DD 75 EB                          LD      (IX-15h),L
0A47: DD 7E 04                          LD      A,(IX+04h)
0A4A: DD 77 EC                          LD      (IX-14h),A
0A4D: DD 7E 05                          LD      A,(IX+05h)
0A50: DD 77 ED                          LD      (IX-13h),A
0A53: DD 7E EB                          LD      A,(IX-15h)
0A56: B7                                OR      A
0A57: C2 B9 0F                          JP      NZ,L0FB9
0A5A: 21 00 00                          LD      HL,0000h
0A5D: 39                                ADD     HL,SP
0A5E: DD 7E E9                          LD      A,(IX-17h)
0A61: 77                                LD      (HL),A
0A62: 23                                INC     HL
0A63: DD 7E EA                          LD      A,(IX-16h)
0A66: 77                                LD      (HL),A
0A67: 21 00 00                          LD      HL,0000h
0A6A: 39                                ADD     HL,SP
0A6B: DD 75 F7                          LD      (IX-09h),L
0A6E: DD 74 F8                          LD      (IX-08h),H
0A71: 4D                                LD      C,L
0A72: 44                                LD      B,H
0A73: DD 6E 06                          LD      L,(IX+06h)
0A76: DD 66 07                          LD      H,(IX+07h)
0A79: E5                                PUSH    HL
0A7A: C5                                PUSH    BC
0A7B: CD BF 18                          CALL    L18BF
0A7E: F1                                POP     AF
0A7F: F1                                POP     AF
0A80: DD 75 EB                          LD      (IX-15h),L
0A83: 7D                                LD      A,L
0A84: B7                                OR      A
0A85: 20 12                             JR      NZ,L0A99
0A87: DD 6E F7                          LD      L,(IX-09h)
0A8A: DD 66 F8                          LD      H,(IX-08h)
0A8D: 11 27 00                          LD      DE,0027h
0A90: 19                                ADD     HL,DE
0A91: 7E                                LD      A,(HL)
0A92: 07                                RLCA
0A93: 30 04                             JR      NC,L0A99
0A95: DD 36 EB 06                       LD      (IX-15h),06h
0A99: DD 7E 08                   L0A99: LD      A,(IX+08h)
0A9C: DD 77 F9                          LD      (IX-07h),A
0A9F: DD 7E F7                          LD      A,(IX-09h)
0AA2: C6 04                             ADD     A,04h
0AA4: DD 77 FE                          LD      (IX-02h),A
0AA7: DD 7E F8                          LD      A,(IX-08h)
0AAA: CE 00                             ADC     A,00h
0AAC: DD 77 FF                          LD      (IX-01h),A
0AAF: DD 7E F7                          LD      A,(IX-09h)
0AB2: C6 1A                             ADD     A,1Ah
0AB4: DD 77 FA                          LD      (IX-06h),A
0AB7: DD 7E F8                          LD      A,(IX-08h)
0ABA: CE 00                             ADC     A,00h
0ABC: DD 77 FB                          LD      (IX-05h),A
0ABF: DD 7E 08                          LD      A,(IX+08h)
0AC2: E6 1C                             AND     1Ch
0AC4: CA 58 0C                          JP      Z,L0C58
0AC7: DD 7E EB                          LD      A,(IX-15h)
0ACA: B7                                OR      A
0ACB: 28 2B                             JR      Z,L0AF8
0ACD: DD 7E EB                          LD      A,(IX-15h)
0AD0: D6 04                             SUB     04h
0AD2: 20 1A                             JR      NZ,L0AEE
0AD4: DD 7E F7                          LD      A,(IX-09h)
0AD7: DD 77 FE                          LD      (IX-02h),A
0ADA: DD 7E F8                          LD      A,(IX-08h)
0ADD: DD 77 FF                          LD      (IX-01h),A
0AE0: DD 6E FE                          LD      L,(IX-02h)
0AE3: DD 66 FF                          LD      H,(IX-01h)
0AE6: E5                                PUSH    HL
0AE7: CD F3 10                          CALL    L10F3
0AEA: F1                                POP     AF
0AEB: DD 75 EB                          LD      (IX-15h),L
0AEE: DD 7E F9                   L0AEE: LD      A,(IX-07h)
0AF1: F6 08                             OR      08h
0AF3: DD 77 08                          LD      (IX+08h),A
0AF6: 18 1B                             JR      L0B13

0AF8: DD 6E FE                   L0AF8: LD      L,(IX-02h)
0AFB: DD 66 FF                          LD      H,(IX-01h)
0AFE: 7E                                LD      A,(HL)
0AFF: E6 11                             AND     11h
0B01: 28 06                             JR      Z,L0B09
0B03: DD 36 EB 07                       LD      (IX-15h),07h
0B07: 18 0A                             JR      L0B13

0B09: DD CB F9 56                L0B09: BIT     2,(IX-07h)
0B0D: 28 04                             JR      Z,L0B13
0B0F: DD 36 EB 08                       LD      (IX-15h),08h
0B13: DD 7E 08                   L0B13: LD      A,(IX+08h)
0B16: DD 77 F9                          LD      (IX-07h),A
0B19: DD 7E EB                          LD      A,(IX-15h)
0B1C: B7                                OR      A
0B1D: C2 7C 0C                          JP      NZ,L0C7C
0B20: DD CB F9 5E                       BIT     3,(IX-07h)
0B24: CA 7C 0C                          JP      Z,L0C7C
0B27: DD 6E FA                          LD      L,(IX-06h)
0B2A: DD 66 FB                          LD      H,(IX-05h)
0B2D: 4E                                LD      C,(HL)
0B2E: 23                                INC     HL
0B2F: 46                                LD      B,(HL)
0B30: C5                                PUSH    BC
0B31: DD 6E E9                          LD      L,(IX-17h)
0B34: DD 66 EA                          LD      H,(IX-16h)
0B37: E5                                PUSH    HL
0B38: CD 10 15                          CALL    L1510
0B3B: F1                                POP     AF
0B3C: F1                                POP     AF
0B3D: DD 75 FC                          LD      (IX-04h),L
0B40: DD 74 FD                          LD      (IX-03h),H
0B43: DD 73 FE                          LD      (IX-02h),E
0B46: DD 72 FF                          LD      (IX-01h),D
0B49: DD 6E FA                          LD      L,(IX-06h)
0B4C: DD 66 FB                          LD      H,(IX-05h)
0B4F: 4E                                LD      C,(HL)
0B50: 23                                INC     HL
0B51: 46                                LD      B,(HL)
0B52: 21 0E 00                          LD      HL,000Eh
0B55: 09                                ADD     HL,BC
0B56: EB                                EX      DE,HL
0B57: 21 21 50                          LD      HL,5021h
0B5A: E5                                PUSH    HL
0B5B: 21 00 00                          LD      HL,0000h
0B5E: E5                                PUSH    HL
0B5F: D5                                PUSH    DE
0B60: CD 8A 1A                          CALL    L1A8A
0B63: F1                                POP     AF
0B64: F1                                POP     AF
0B65: F1                                POP     AF
0B66: DD 6E FA                          LD      L,(IX-06h)
0B69: DD 66 FB                          LD      H,(IX-05h)
0B6C: 4E                                LD      C,(HL)
0B6D: 23                                INC     HL
0B6E: 46                                LD      B,(HL)
0B6F: 21 0B 00                          LD      HL,000Bh
0B72: 09                                ADD     HL,BC
0B73: 36 20                             LD      (HL),20h        ; ' '
0B75: DD 6E FA                          LD      L,(IX-06h)
0B78: DD 66 FB                          LD      H,(IX-05h)
0B7B: 4E                                LD      C,(HL)
0B7C: 23                                INC     HL
0B7D: 46                                LD      B,(HL)
0B7E: 21 00 00                          LD      HL,0000h
0B81: E5                                PUSH    HL
0B82: 21 00 00                          LD      HL,0000h
0B85: E5                                PUSH    HL
0B86: C5                                PUSH    BC
0B87: DD 6E E9                          LD      L,(IX-17h)
0B8A: DD 66 EA                          LD      H,(IX-16h)
0B8D: E5                                PUSH    HL
0B8E: CD AD 26                          CALL    L26AD
0B91: F1                                POP     AF
0B92: F1                                POP     AF
0B93: F1                                POP     AF
0B94: F1                                POP     AF
0B95: DD 6E FA                          LD      L,(IX-06h)
0B98: DD 66 FB                          LD      H,(IX-05h)
0B9B: 4E                                LD      C,(HL)
0B9C: 23                                INC     HL
0B9D: 46                                LD      B,(HL)
0B9E: 21 1C 00                          LD      HL,001Ch
0BA1: 09                                ADD     HL,BC
0BA2: EB                                EX      DE,HL
0BA3: 21 00 00                          LD      HL,0000h
0BA6: E5                                PUSH    HL
0BA7: 21 00 00                          LD      HL,0000h
0BAA: E5                                PUSH    HL
0BAB: D5                                PUSH    DE
0BAC: CD 8A 1A                          CALL    L1A8A
0BAF: F1                                POP     AF
0BB0: F1                                POP     AF
0BB1: F1                                POP     AF
0BB2: DD 6E E9                          LD      L,(IX-17h)
0BB5: DD 66 EA                          LD      H,(IX-16h)
0BB8: 23                                INC     HL
0BB9: 23                                INC     HL
0BBA: 23                                INC     HL
0BBB: 36 01                             LD      (HL),01h
0BBD: DD 7E FF                          LD      A,(IX-01h)
0BC0: DD B6 FE                          OR      (IX-02h)
0BC3: DD B6 FD                          OR      (IX-03h)
0BC6: DD B6 FC                          OR      (IX-04h)
0BC9: CA 7C 0C                          JP      Z,L0C7C
0BCC: DD 6E E9                          LD      L,(IX-17h)
0BCF: DD 66 EA                          LD      H,(IX-16h)
0BD2: 11 2F 00                          LD      DE,002Fh
0BD5: 19                                ADD     HL,DE
0BD6: 4E                                LD      C,(HL)
0BD7: 23                                INC     HL
0BD8: 46                                LD      B,(HL)
0BD9: 23                                INC     HL
0BDA: 5E                                LD      E,(HL)
0BDB: 23                                INC     HL
0BDC: 56                                LD      D,(HL)
0BDD: DD 6E F7                          LD      L,(IX-09h)
0BE0: DD 66 F8                          LD      H,(IX-08h)
0BE3: DD 75 F7                          LD      (IX-09h),L
0BE6: DD 74 F8                          LD      (IX-08h),H
0BE9: C5                                PUSH    BC
0BEA: D5                                PUSH    DE
0BEB: 21 00 00                          LD      HL,0000h
0BEE: E5                                PUSH    HL
0BEF: 21 00 00                          LD      HL,0000h
0BF2: E5                                PUSH    HL
0BF3: DD 6E FE                          LD      L,(IX-02h)
0BF6: DD 66 FF                          LD      H,(IX-01h)
0BF9: E5                                PUSH    HL
0BFA: DD 6E FC                          LD      L,(IX-04h)
0BFD: DD 66 FD                          LD      H,(IX-03h)
0C00: E5                                PUSH    HL
0C01: DD 6E F7                          LD      L,(IX-09h)
0C04: DD 66 F8                          LD      H,(IX-08h)
0C07: E5                                PUSH    HL
0C08: CD C9 24                          CALL    L24C9
0C0B: FD 21 0A 00                       LD      IY,000Ah
0C0F: FD 39                             ADD     IY,SP
0C11: FD F9                             LD      SP,IY
0C13: D1                                POP     DE
0C14: C1                                POP     BC
0C15: DD 75 EB                          LD      (IX-15h),L
0C18: 7D                                LD      A,L
0C19: B7                                OR      A
0C1A: 20 60                             JR      NZ,L0C7C
0C1C: D5                                PUSH    DE
0C1D: C5                                PUSH    BC
0C1E: DD 6E E9                          LD      L,(IX-17h)
0C21: DD 66 EA                          LD      H,(IX-16h)
0C24: E5                                PUSH    HL
0C25: CD 16 24                          CALL    L2416
0C28: F1                                POP     AF
0C29: F1                                POP     AF
0C2A: F1                                POP     AF
0C2B: DD 75 EB                          LD      (IX-15h),L
0C2E: DD 4E E9                          LD      C,(IX-17h)
0C31: DD 46 EA                          LD      B,(IX-16h)
0C34: 21 0B 00                          LD      HL,000Bh
0C37: 09                                ADD     HL,BC
0C38: DD 7E FC                          LD      A,(IX-04h)
0C3B: C6 FF                             ADD     A,0FFh
0C3D: 4F                                LD      C,A
0C3E: DD 7E FD                          LD      A,(IX-03h)
0C41: CE FF                             ADC     A,0FFh
0C43: 47                                LD      B,A
0C44: DD 7E FE                          LD      A,(IX-02h)
0C47: CE FF                             ADC     A,0FFh
0C49: 5F                                LD      E,A
0C4A: DD 7E FF                          LD      A,(IX-01h)
0C4D: CE FF                             ADC     A,0FFh
0C4F: 71                                LD      (HL),C
0C50: 23                                INC     HL
0C51: 70                                LD      (HL),B
0C52: 23                                INC     HL
0C53: 73                                LD      (HL),E
0C54: 23                                INC     HL
0C55: 77                                LD      (HL),A
0C56: 18 24                             JR      L0C7C

0C58: DD 7E EB                   L0C58: LD      A,(IX-15h)
0C5B: B7                                OR      A
0C5C: 20 1E                             JR      NZ,L0C7C
0C5E: DD 6E FE                          LD      L,(IX-02h)
0C61: DD 66 FF                          LD      H,(IX-01h)
0C64: 7E                                LD      A,(HL)
0C65: CB 67                             BIT     4,A
0C67: 28 06                             JR      Z,L0C6F
0C69: DD 36 EB 04                       LD      (IX-15h),04h
0C6D: 18 0D                             JR      L0C7C

0C6F: DD CB F9 4E                L0C6F: BIT     1,(IX-07h)
0C73: 28 07                             JR      Z,L0C7C
0C75: 0F                                RRCA
0C76: 30 04                             JR      NC,L0C7C
0C78: DD 36 EB 07                       LD      (IX-15h),07h
0C7C: DD 7E EB                   L0C7C: LD      A,(IX-15h)
0C7F: B7                                OR      A
0C80: 20 56                             JR      NZ,L0CD8
0C82: DD CB F9 5E                       BIT     3,(IX-07h)
0C86: 28 08                             JR      Z,L0C90
0C88: DD 7E F9                          LD      A,(IX-07h)
0C8B: F6 40                             OR      40h     ; '@'
0C8D: DD 77 08                          LD      (IX+08h),A
0C90: DD 7E EC                   L0C90: LD      A,(IX-14h)
0C93: C6 1C                             ADD     A,1Ch
0C95: DD 77 FE                          LD      (IX-02h),A
0C98: DD 7E ED                          LD      A,(IX-13h)
0C9B: CE 00                             ADC     A,00h
0C9D: DD 77 FF                          LD      (IX-01h),A
0CA0: DD 6E E9                          LD      L,(IX-17h)
0CA3: DD 66 EA                          LD      H,(IX-16h)
0CA6: 11 2F 00                          LD      DE,002Fh
0CA9: 19                                ADD     HL,DE
0CAA: 4E                                LD      C,(HL)
0CAB: 23                                INC     HL
0CAC: 46                                LD      B,(HL)
0CAD: 23                                INC     HL
0CAE: 5E                                LD      E,(HL)
0CAF: 23                                INC     HL
0CB0: 56                                LD      D,(HL)
0CB1: DD 6E FE                          LD      L,(IX-02h)
0CB4: DD 66 FF                          LD      H,(IX-01h)
0CB7: 71                                LD      (HL),C
0CB8: 23                                INC     HL
0CB9: 70                                LD      (HL),B
0CBA: 23                                INC     HL
0CBB: 73                                LD      (HL),E
0CBC: 23                                INC     HL
0CBD: 72                                LD      (HL),D
0CBE: DD 7E EC                          LD      A,(IX-14h)
0CC1: C6 20                             ADD     A,20h   ; ' '
0CC3: 4F                                LD      C,A
0CC4: DD 7E ED                          LD      A,(IX-13h)
0CC7: CE 00                             ADC     A,00h
0CC9: 47                                LD      B,A
0CCA: DD 6E FA                          LD      L,(IX-06h)
0CCD: DD 66 FB                          LD      H,(IX-05h)
0CD0: 5E                                LD      E,(HL)
0CD1: 23                                INC     HL
0CD2: 56                                LD      D,(HL)
0CD3: 7B                                LD      A,E
0CD4: 02                                LD      (BC),A
0CD5: 03                                INC     BC
0CD6: 7A                                LD      A,D
0CD7: 02                                LD      (BC),A
0CD8: DD 7E EB                   L0CD8: LD      A,(IX-15h)
0CDB: B7                                OR      A
0CDC: C2 B9 0F                          JP      NZ,L0FB9
0CDF: DD 7E EC                          LD      A,(IX-14h)
0CE2: DD 77 EE                          LD      (IX-12h),A
0CE5: DD 7E ED                          LD      A,(IX-13h)
0CE8: DD 77 EF                          LD      (IX-11h),A
0CEB: DD 7E EC                          LD      A,(IX-14h)
0CEE: C6 06                             ADD     A,06h
0CF0: DD 77 FC                          LD      (IX-04h),A
0CF3: DD 7E ED                          LD      A,(IX-13h)
0CF6: CE 00                             ADC     A,00h
0CF8: DD 77 FD                          LD      (IX-03h),A
0CFB: DD 6E FA                          LD      L,(IX-06h)
0CFE: DD 66 FB                          LD      H,(IX-05h)
0D01: 4E                                LD      C,(HL)
0D02: 23                                INC     HL
0D03: 46                                LD      B,(HL)
0D04: C5                                PUSH    BC
0D05: DD 6E E9                          LD      L,(IX-17h)
0D08: DD 66 EA                          LD      H,(IX-16h)
0D0B: E5                                PUSH    HL
0D0C: CD 10 15                          CALL    L1510
0D0F: F1                                POP     AF
0D10: F1                                POP     AF
0D11: 4D                                LD      C,L
0D12: 44                                LD      B,H
0D13: DD 6E FC                          LD      L,(IX-04h)
0D16: DD 66 FD                          LD      H,(IX-03h)
0D19: 71                                LD      (HL),C
0D1A: 23                                INC     HL
0D1B: 70                                LD      (HL),B
0D1C: 23                                INC     HL
0D1D: 73                                LD      (HL),E
0D1E: 23                                INC     HL
0D1F: 72                                LD      (HL),D
0D20: DD 7E EC                          LD      A,(IX-14h)
0D23: C6 0A                             ADD     A,0Ah
0D25: DD 77 FE                          LD      (IX-02h),A
0D28: DD 7E ED                          LD      A,(IX-13h)
0D2B: CE 00                             ADC     A,00h
0D2D: DD 77 FF                          LD      (IX-01h),A
0D30: DD 6E FA                          LD      L,(IX-06h)
0D33: DD 66 FB                          LD      H,(IX-05h)
0D36: 4E                                LD      C,(HL)
0D37: 23                                INC     HL
0D38: 46                                LD      B,(HL)
0D39: 21 1C 00                          LD      HL,001Ch
0D3C: 09                                ADD     HL,BC
0D3D: E5                                PUSH    HL
0D3E: CD 2B 13                          CALL    L132B
0D41: F1                                POP     AF
0D42: 4D                                LD      C,L
0D43: 44                                LD      B,H
0D44: DD 6E FE                          LD      L,(IX-02h)
0D47: DD 66 FF                          LD      H,(IX-01h)
0D4A: 71                                LD      (HL),C
0D4B: 23                                INC     HL
0D4C: 70                                LD      (HL),B
0D4D: 23                                INC     HL
0D4E: 73                                LD      (HL),E
0D4F: 23                                INC     HL
0D50: 72                                LD      (HL),D
0D51: DD 6E EC                          LD      L,(IX-14h)
0D54: DD 66 ED                          LD      H,(IX-13h)
0D57: DD 7E E9                          LD      A,(IX-17h)
0D5A: 77                                LD      (HL),A
0D5B: 23                                INC     HL
0D5C: DD 7E EA                          LD      A,(IX-16h)
0D5F: 77                                LD      (HL),A
0D60: DD 4E EC                          LD      C,(IX-14h)
0D63: DD 46 ED                          LD      B,(IX-13h)
0D66: 03                                INC     BC
0D67: 03                                INC     BC
0D68: DD 6E E9                          LD      L,(IX-17h)
0D6B: DD 66 EA                          LD      H,(IX-16h)
0D6E: 11 05 00                          LD      DE,0005h
0D71: 19                                ADD     HL,DE
0D72: 5E                                LD      E,(HL)
0D73: 23                                INC     HL
0D74: 56                                LD      D,(HL)
0D75: 7B                                LD      A,E
0D76: 02                                LD      (BC),A
0D77: 03                                INC     BC
0D78: 7A                                LD      A,D
0D79: 02                                LD      (BC),A
0D7A: DD 7E EC                          LD      A,(IX-14h)
0D7D: C6 0E                             ADD     A,0Eh
0D7F: 4F                                LD      C,A
0D80: DD 7E ED                          LD      A,(IX-13h)
0D83: CE 00                             ADC     A,00h
0D85: 47                                LD      B,A
0D86: DD 7E 08                          LD      A,(IX+08h)
0D89: 02                                LD      (BC),A
0D8A: DD 7E EC                          LD      A,(IX-14h)
0D8D: C6 0F                             ADD     A,0Fh
0D8F: 4F                                LD      C,A
0D90: DD 7E ED                          LD      A,(IX-13h)
0D93: CE 00                             ADC     A,00h
0D95: 47                                LD      B,A
0D96: AF                                XOR     A
0D97: 02                                LD      (BC),A
0D98: DD 7E EC                          LD      A,(IX-14h)
0D9B: C6 18                             ADD     A,18h
0D9D: DD 77 F0                          LD      (IX-10h),A
0DA0: DD 7E ED                          LD      A,(IX-13h)
0DA3: CE 00                             ADC     A,00h
0DA5: DD 77 F1                          LD      (IX-0Fh),A
0DA8: DD 6E F0                          LD      L,(IX-10h)
0DAB: DD 66 F1                          LD      H,(IX-0Fh)
0DAE: AF                                XOR     A
0DAF: 77                                LD      (HL),A
0DB0: 23                                INC     HL
0DB1: 77                                LD      (HL),A
0DB2: 23                                INC     HL
0DB3: 77                                LD      (HL),A
0DB4: 23                                INC     HL
0DB5: 77                                LD      (HL),A
0DB6: DD 7E EC                          LD      A,(IX-14h)
0DB9: C6 10                             ADD     A,10h
0DBB: DD 77 FA                          LD      (IX-06h),A
0DBE: DD 7E ED                          LD      A,(IX-13h)
0DC1: CE 00                             ADC     A,00h
0DC3: DD 77 FB                          LD      (IX-05h),A
0DC6: DD 6E FA                          LD      L,(IX-06h)
0DC9: DD 66 FB                          LD      H,(IX-05h)
0DCC: AF                                XOR     A
0DCD: 77                                LD      (HL),A
0DCE: 23                                INC     HL
0DCF: 77                                LD      (HL),A
0DD0: 23                                INC     HL
0DD1: 77                                LD      (HL),A
0DD2: 23                                INC     HL
0DD3: 77                                LD      (HL),A
0DD4: DD 7E EC                          LD      A,(IX-14h)
0DD7: C6 22                             ADD     A,22h   ; '"'
0DD9: DD 77 F2                          LD      (IX-0Eh),A
0DDC: DD 7E ED                          LD      A,(IX-13h)
0DDF: CE 00                             ADC     A,00h
0DE1: DD 77 F3                          LD      (IX-0Dh),A
0DE4: DD 4E F2                          LD      C,(IX-0Eh)
0DE7: DD 46 F3                          LD      B,(IX-0Dh)
0DEA: 21 00 02                          LD      HL,0200h
0DED: E5                                PUSH    HL
0DEE: 26 00                             LD      H,00h
0DF0: E5                                PUSH    HL
0DF1: C5                                PUSH    BC
0DF2: CD DF 23                          CALL    L23DF
0DF5: F1                                POP     AF
0DF6: F1                                POP     AF
0DF7: F1                                POP     AF
0DF8: DD CB 08 6E                       BIT     5,(IX+08h)
0DFC: CA B9 0F                          JP      Z,L0FB9
0DFF: DD 6E FE                          LD      L,(IX-02h)
0E02: DD 66 FF                          LD      H,(IX-01h)
0E05: 4E                                LD      C,(HL)
0E06: 23                                INC     HL
0E07: 46                                LD      B,(HL)
0E08: 23                                INC     HL
0E09: 5E                                LD      E,(HL)
0E0A: 23                                INC     HL
0E0B: 56                                LD      D,(HL)
0E0C: 7A                                LD      A,D
0E0D: B3                                OR      E
0E0E: B0                                OR      B
0E0F: B1                                OR      C
0E10: CA B9 0F                          JP      Z,L0FB9
0E13: DD 6E FA                          LD      L,(IX-06h)
0E16: DD 66 FB                          LD      H,(IX-05h)
0E19: 71                                LD      (HL),C
0E1A: 23                                INC     HL
0E1B: 70                                LD      (HL),B
0E1C: 23                                INC     HL
0E1D: 73                                LD      (HL),E
0E1E: 23                                INC     HL
0E1F: 72                                LD      (HL),D
0E20: DD 6E E9                          LD      L,(IX-17h)
0E23: DD 66 EA                          LD      H,(IX-16h)
0E26: 11 09 00                          LD      DE,0009h
0E29: 19                                ADD     HL,DE
0E2A: 4E                                LD      C,(HL)
0E2B: 23                                INC     HL
0E2C: 46                                LD      B,(HL)
0E2D: 1E 00                             LD      E,00h
0E2F: DD 71 F5                          LD      (IX-0Bh),C
0E32: DD 70 F6                          LD      (IX-0Ah),B
0E35: DD 73 F7                          LD      (IX-09h),E
0E38: AF                                XOR     A
0E39: DD 77 F4                          LD      (IX-0Ch),A
0E3C: DD CB F5 26                       SLA     (IX-0Bh)
0E40: DD CB F6 16                       RL      (IX-0Ah)
0E44: DD CB F7 16                       RL      (IX-09h)
0E48: DD 5E FC                          LD      E,(IX-04h)
0E4B: DD 56 FD                          LD      D,(IX-03h)
0E4E: 21 39 00                          LD      HL,0039h
0E51: 39                                ADD     HL,SP
0E52: EB                                EX      DE,HL
0E53: 01 04 00                          LD      BC,0004h
0E56: ED B0                             LDIR
0E58: DD 5E FE                          LD      E,(IX-02h)
0E5B: DD 56 FF                          LD      D,(IX-01h)
0E5E: 21 3D 00                          LD      HL,003Dh
0E61: 39                                ADD     HL,SP
0E62: EB                                EX      DE,HL
0E63: 01 04 00                          LD      BC,0004h
0E66: ED B0                             LDIR
0E68: DD 7E EB                   L0E68: LD      A,(IX-15h)
0E6B: B7                                OR      A
0E6C: C2 04 0F                          JP      NZ,L0F04
0E6F: DD 7E F4                          LD      A,(IX-0Ch)
0E72: DD 96 FC                          SUB     (IX-04h)
0E75: DD 7E F5                          LD      A,(IX-0Bh)
0E78: DD 9E FD                          SBC     A,(IX-03h)
0E7B: DD 7E F6                          LD      A,(IX-0Ah)
0E7E: DD 9E FE                          SBC     A,(IX-02h)
0E81: DD 7E F7                          LD      A,(IX-09h)
0E84: DD 9E FF                          SBC     A,(IX-01h)
0E87: 30 7B                             JR      NC,L0F04
0E89: DD 6E FA                          LD      L,(IX-06h)
0E8C: DD 66 FB                          LD      H,(IX-05h)
0E8F: E5                                PUSH    HL
0E90: DD 6E F8                          LD      L,(IX-08h)
0E93: DD 66 F9                          LD      H,(IX-07h)
0E96: E5                                PUSH    HL
0E97: DD 6E EE                          LD      L,(IX-12h)
0E9A: DD 66 EF                          LD      H,(IX-11h)
0E9D: E5                                PUSH    HL
0E9E: CD 7F 15                          CALL    L157F
0EA1: F1                                POP     AF
0EA2: F1                                POP     AF
0EA3: F1                                POP     AF
0EA4: DD 75 F8                          LD      (IX-08h),L
0EA7: DD 74 F9                          LD      (IX-07h),H
0EAA: DD 73 FA                          LD      (IX-06h),E
0EAD: DD 72 FB                          LD      (IX-05h),D
0EB0: 3E 01                             LD      A,01h
0EB2: DD BE F8                          CP      (IX-08h)
0EB5: 3E 00                             LD      A,00h
0EB7: DD 9E F9                          SBC     A,(IX-07h)
0EBA: 3E 00                             LD      A,00h
0EBC: DD 9E FA                          SBC     A,(IX-06h)
0EBF: 3E 00                             LD      A,00h
0EC1: DD 9E FB                          SBC     A,(IX-05h)
0EC4: 38 04                             JR      C,L0ECA
0EC6: DD 36 EB 02                       LD      (IX-15h),02h
0ECA: DD 7E F8                   L0ECA: LD      A,(IX-08h)
0ECD: DD A6 F9                          AND     (IX-07h)
0ED0: DD A6 FA                          AND     (IX-06h)
0ED3: DD A6 FB                          AND     (IX-05h)
0ED6: 3C                                INC     A
0ED7: 20 04                             JR      NZ,L0EDD
0ED9: DD 36 EB 01                       LD      (IX-15h),01h
0EDD: DD 7E FC                   L0EDD: LD      A,(IX-04h)
0EE0: DD 96 F4                          SUB     (IX-0Ch)
0EE3: DD 77 FC                          LD      (IX-04h),A
0EE6: DD 7E FD                          LD      A,(IX-03h)
0EE9: DD 9E F5                          SBC     A,(IX-0Bh)
0EEC: DD 77 FD                          LD      (IX-03h),A
0EEF: DD 7E FE                          LD      A,(IX-02h)
0EF2: DD 9E F6                          SBC     A,(IX-0Ah)
0EF5: DD 77 FE                          LD      (IX-02h),A
0EF8: DD 7E FF                          LD      A,(IX-01h)
0EFB: DD 9E F7                          SBC     A,(IX-09h)
0EFE: DD 77 FF                          LD      (IX-01h),A
0F01: C3 68 0E                          JP      L0E68

0F04: DD 7E EC                   L0F04: LD      A,(IX-14h)
0F07: C6 14                             ADD     A,14h
0F09: 5F                                LD      E,A
0F0A: DD 7E ED                          LD      A,(IX-13h)
0F0D: CE 00                             ADC     A,00h
0F0F: 57                                LD      D,A
0F10: 21 39 00                          LD      HL,0039h
0F13: 39                                ADD     HL,SP
0F14: 01 04 00                          LD      BC,0004h
0F17: ED B0                             LDIR
0F19: DD 7E EB                          LD      A,(IX-15h)
0F1C: B7                                OR      A
0F1D: C2 B9 0F                          JP      NZ,L0FB9
0F20: DD 7E FC                          LD      A,(IX-04h)
0F23: B7                                OR      A
0F24: 20 07                             JR      NZ,L0F2D
0F26: DD CB FD 46                       BIT     0,(IX-03h)
0F2A: CA B9 0F                          JP      Z,L0FB9
0F2D: DD 6E FA                   L0F2D: LD      L,(IX-06h)
0F30: DD 66 FB                          LD      H,(IX-05h)
0F33: E5                                PUSH    HL
0F34: DD 6E F8                          LD      L,(IX-08h)
0F37: DD 66 F9                          LD      H,(IX-07h)
0F3A: E5                                PUSH    HL
0F3B: DD 6E E9                          LD      L,(IX-17h)
0F3E: DD 66 EA                          LD      H,(IX-16h)
0F41: E5                                PUSH    HL
0F42: CD 3E 14                          CALL    L143E
0F45: F1                                POP     AF
0F46: F1                                POP     AF
0F47: F1                                POP     AF
0F48: 7A                                LD      A,D
0F49: B3                                OR      E
0F4A: B4                                OR      H
0F4B: B5                                OR      L
0F4C: 20 06                             JR      NZ,L0F54
0F4E: DD 36 EB 02                       LD      (IX-15h),02h
0F52: 18 65                             JR      L0FB9

0F54: 06 09                      L0F54: LD      B,09h
0F56: DD CB FF 3E                L0F56: SRL     (IX-01h)
0F5A: DD CB FE 1E                       RR      (IX-02h)
0F5E: DD CB FD 1E                       RR      (IX-03h)
0F62: DD CB FC 1E                       RR      (IX-04h)
0F66: 10 EE                             DJNZ    L0F56
0F68: 7D                                LD      A,L
0F69: DD 86 FC                          ADD     A,(IX-04h)
0F6C: 4F                                LD      C,A
0F6D: 7C                                LD      A,H
0F6E: DD 8E FD                          ADC     A,(IX-03h)
0F71: 47                                LD      B,A
0F72: 7B                                LD      A,E
0F73: DD 8E FE                          ADC     A,(IX-02h)
0F76: 5F                                LD      E,A
0F77: 7A                                LD      A,D
0F78: DD 8E FF                          ADC     A,(IX-01h)
0F7B: 57                                LD      D,A
0F7C: DD 6E F0                          LD      L,(IX-10h)
0F7F: DD 66 F1                          LD      H,(IX-0Fh)
0F82: 71                                LD      (HL),C
0F83: 23                                INC     HL
0F84: 70                                LD      (HL),B
0F85: 23                                INC     HL
0F86: 73                                LD      (HL),E
0F87: 23                                INC     HL
0F88: 72                                LD      (HL),D
0F89: DD 6E E9                          LD      L,(IX-17h)
0F8C: DD 66 EA                          LD      H,(IX-16h)
0F8F: 23                                INC     HL
0F90: 7E                                LD      A,(HL)
0F91: DD 77 FF                          LD      (IX-01h),A
0F94: 21 01 00                          LD      HL,0001h
0F97: E5                                PUSH    HL
0F98: D5                                PUSH    DE
0F99: C5                                PUSH    BC
0F9A: DD 6E F2                          LD      L,(IX-0Eh)
0F9D: DD 66 F3                          LD      H,(IX-0Dh)
0FA0: E5                                PUSH    HL
0FA1: DD 7E FF                          LD      A,(IX-01h)
0FA4: F5                                PUSH    AF
0FA5: 33                                INC     SP
0FA6: CD 64 03                          CALL    L0364
0FA9: FD 21 09 00                       LD      IY,0009h
0FAD: FD 39                             ADD     IY,SP
0FAF: FD F9                             LD      SP,IY
0FB1: 7D                                LD      A,L
0FB2: B7                                OR      A
0FB3: 28 04                             JR      Z,L0FB9
0FB5: DD 36 EB 01                       LD      (IX-15h),01h
0FB9: DD 7E EB                   L0FB9: LD      A,(IX-15h)
0FBC: B7                                OR      A
0FBD: 28 0A                             JR      Z,L0FC9
0FBF: DD 6E EC                          LD      L,(IX-14h)
0FC2: DD 66 ED                          LD      H,(IX-13h)
0FC5: AF                                XOR     A
0FC6: 77                                LD      (HL),A
0FC7: 23                                INC     HL
0FC8: 77                                LD      (HL),A
0FC9: DD 6E EB                   L0FC9: LD      L,(IX-15h)
0FCC: DD F9                      L0FCC: LD      SP,IX
0FCE: DD E1                             POP     IX
0FD0: C9                                RET

                                        ; --- START PROC L0FD1 ---
0FD1: FD E5                      L0FD1: PUSH    IY
0FD3: FD 21 00 00                       LD      IY,0000h
0FD7: FD 39                             ADD     IY,SP
0FD9: FD 6E 04                          LD      L,(IY+04h)
0FDC: FD 66 05                          LD      H,(IY+05h)
0FDF: FD 46 06                          LD      B,(IY+06h)
0FE2: 0E 82                             LD      C,82h
0FE4: ED B2                             INIR
0FE6: FD E1                             POP     IY
0FE8: C9                                RET

                                        ; --- START PROC L0FE9 ---
0FE9: DD E5                      L0FE9: PUSH    IX
0FEB: DD 21 00 00                       LD      IX,0000h
0FEF: DD 39                             ADD     IX,SP
0FF1: DD 4E 04                          LD      C,(IX+04h)
0FF4: DD 46 05                          LD      B,(IX+05h)
0FF7: DD 56 06                          LD      D,(IX+06h)
0FFA: DD 7E 06                   L0FFA: LD      A,(IX+06h)
0FFD: B7                                OR      A
0FFE: 28 2E                             JR      Z,L102E
1000: DB 81                             IN      A,(81h)
1002: 5F                                LD      E,A
1003: DD 7E 06                          LD      A,(IX+06h)
1006: 93                                SUB     E
1007: 30 03                             JR      NC,L100C
1009: DD 5E 06                          LD      E,(IX+06h)
100C: 7B                         L100C: LD      A,E
100D: B7                                OR      A
100E: 28 1E                             JR      Z,L102E
1010: 69                                LD      L,C
1011: 60                                LD      H,B
1012: C5                                PUSH    BC
1013: D5                                PUSH    DE
1014: 7B                                LD      A,E
1015: F5                                PUSH    AF
1016: 33                                INC     SP
1017: E5                                PUSH    HL
1018: CD D1 0F                          CALL    L0FD1
101B: F1                                POP     AF
101C: 33                                INC     SP
101D: D1                                POP     DE
101E: C1                                POP     BC
101F: 79                                LD      A,C
1020: 83                                ADD     A,E
1021: 4F                                LD      C,A
1022: 30 01                             JR      NC,L1025
1024: 04                                INC     B
1025: DD 7E 06                   L1025: LD      A,(IX+06h)
1028: 93                                SUB     E
1029: DD 77 06                          LD      (IX+06h),A
102C: 18 CC                             JR      L0FFA

102E: DD 7E 06                   L102E: LD      A,(IX+06h)
1031: 92                                SUB     D
1032: 20 08                             JR      NZ,L103C
1034: D5                                PUSH    DE
1035: 2A D5 72                          LD      HL,(72D5h)
1038: CD A2 12                          CALL    L12A2
103B: D1                                POP     DE
103C: 7A                         L103C: LD      A,D
103D: DD 96 06                          SUB     (IX+06h)
1040: 6F                                LD      L,A
1041: DD E1                             POP     IX
1043: C9                                RET

                                        ; --- START PROC L1044 ---
1044: CD 06 15                   L1044: CALL    L1506
1047: F5                                PUSH    AF
1048: F5                                PUSH    AF
1049: F5                                PUSH    AF
104A: DD 7E 06                          LD      A,(IX+06h)
104D: DD 77 FA                          LD      (IX-06h),A
1050: DD 7E 07                          LD      A,(IX+07h)
1053: DD 77 FB                          LD      (IX-05h),A
1056: 21 00 00                          LD      HL,0000h
1059: 39                                ADD     HL,SP
105A: E5                                PUSH    HL
105B: CD 81 3B                          CALL    L3B81
105E: F1                                POP     AF
105F: DD 75 FE                          LD      (IX-02h),L
1062: DD 74 FF                          LD      (IX-01h),H
1065: DD CB FF 7E                       BIT     7,(IX-01h)
1069: 28 05                             JR      Z,L1070
106B: 2E 0B                             LD      L,0Bh
106D: C3 EE 10                          JP      L10EE

1070: 01 CF 72                   L1070: LD      BC,72CFh
1073: DD 6E FE                          LD      L,(IX-02h)
1076: DD 66 FF                          LD      H,(IX-01h)
1079: 29                                ADD     HL,HL
107A: 09                                ADD     HL,BC
107B: DD 75 FE                          LD      (IX-02h),L
107E: DD 74 FF                          LD      (IX-01h),H
1081: 4E                                LD      C,(HL)
1082: 23                                INC     HL
1083: 46                                LD      B,(HL)
1084: 59                                LD      E,C
1085: 78                                LD      A,B
1086: 57                                LD      D,A
1087: B1                                OR      C
1088: 28 02                             JR      Z,L108C
108A: AF                                XOR     A
108B: 12                                LD      (DE),A
108C: DD 7E 05                   L108C: LD      A,(IX+05h)
108F: DD B6 04                          OR      (IX+04h)
1092: 28 08                             JR      Z,L109C
1094: DD 4E 04                          LD      C,(IX+04h)
1097: DD 46 05                          LD      B,(IX+05h)
109A: AF                                XOR     A
109B: 02                                LD      (BC),A
109C: DD 6E FE                   L109C: LD      L,(IX-02h)
109F: DD 66 FF                          LD      H,(IX-01h)
10A2: DD 7E 04                          LD      A,(IX+04h)
10A5: 77                                LD      (HL),A
10A6: 23                                INC     HL
10A7: DD 7E 05                          LD      A,(IX+05h)
10AA: 77                                LD      (HL),A
10AB: DD 7E 08                          LD      A,(IX+08h)
10AE: B7                                OR      A
10AF: 20 03                             JR      NZ,L10B4
10B1: 6F                                LD      L,A
10B2: 18 3A                             JR      L10EE

10B4: 21 0A 00                   L10B4: LD      HL,000Ah
10B7: 39                                ADD     HL,SP
10B8: DD 75 FE                          LD      (IX-02h),L
10BB: DD 74 FF                          LD      (IX-01h),H
10BE: DD 7E FE                          LD      A,(IX-02h)
10C1: DD 77 FC                          LD      (IX-04h),A
10C4: DD 7E FF                          LD      A,(IX-01h)
10C7: DD 77 FD                          LD      (IX-03h),A
10CA: 21 0C 00                          LD      HL,000Ch
10CD: 39                                ADD     HL,SP
10CE: DD 75 FE                          LD      (IX-02h),L
10D1: DD 74 FF                          LD      (IX-01h),H
10D4: AF                                XOR     A
10D5: F5                                PUSH    AF
10D6: 33                                INC     SP
10D7: DD 6E FC                          LD      L,(IX-04h)
10DA: DD 66 FD                          LD      H,(IX-03h)
10DD: E5                                PUSH    HL
10DE: DD 6E FE                          LD      L,(IX-02h)
10E1: DD 66 FF                          LD      H,(IX-01h)
10E4: E5                                PUSH    HL
10E5: CD E5 1B                          CALL    L1BE5
10E8: F1                                POP     AF
10E9: F1                                POP     AF
10EA: 33                                INC     SP
10EB: DD 75 FF                          LD      (IX-01h),L
10EE: DD F9                      L10EE: LD      SP,IX
10F0: DD E1                             POP     IX
10F2: C9                                RET

                                        ; --- START PROC L10F3 ---
10F3: CD 06 15                   L10F3: CALL    L1506
10F6: F5                                PUSH    AF
10F7: F5                                PUSH    AF
10F8: F5                                PUSH    AF
10F9: DD 4E 04                          LD      C,(IX+04h)
10FC: DD 46 05                          LD      B,(IX+05h)
10FF: 0A                                LD      A,(BC)
1100: DD 77 FA                          LD      (IX-06h),A
1103: 03                                INC     BC
1104: 0A                                LD      A,(BC)
1105: DD 77 FB                          LD      (IX-05h),A
1108: 0B                                DEC     BC
1109: C5                                PUSH    BC
110A: 21 01 00                          LD      HL,0001h
110D: E5                                PUSH    HL
110E: C5                                PUSH    BC
110F: CD 09 1B                          CALL    L1B09
1112: F1                                POP     AF
1113: F1                                POP     AF
1114: 7D                                LD      A,L
1115: C1                                POP     BC
1116: 5F                                LD      E,A
1117: B7                                OR      A
1118: C2 99 11                          JP      NZ,L1199
111B: 69                                LD      L,C
111C: 60                                LD      H,B
111D: 11 16 00                          LD      DE,0016h
1120: 19                                ADD     HL,DE
1121: 5E                                LD      E,(HL)
1122: 23                                INC     HL
1123: 56                                LD      D,(HL)
1124: 23                                INC     HL
1125: 23                                INC     HL
1126: 7E                                LD      A,(HL)
1127: 2B                                DEC     HL
1128: 6E                                LD      L,(HL)
1129: 67                                LD      H,A
112A: C5                                PUSH    BC
112B: E5                                PUSH    HL
112C: D5                                PUSH    DE
112D: DD 6E FA                          LD      L,(IX-06h)
1130: DD 66 FB                          LD      H,(IX-05h)
1133: E5                                PUSH    HL
1134: CD 16 24                          CALL    L2416
1137: F1                                POP     AF
1138: F1                                POP     AF
1139: F1                                POP     AF
113A: 7D                                LD      A,L
113B: C1                                POP     BC
113C: 5F                                LD      E,A
113D: B7                                OR      A
113E: 20 59                             JR      NZ,L1199
1140: 21 1A 00                          LD      HL,001Ah
1143: 09                                ADD     HL,BC
1144: DD 75 FC                          LD      (IX-04h),L
1147: DD 74 FD                          LD      (IX-03h),H
114A: 56                                LD      D,(HL)
114B: 23                                INC     HL
114C: 6E                                LD      L,(HL)
114D: DD 72 FE                          LD      (IX-02h),D
1150: DD 75 FF                          LD      (IX-01h),L
1153: C5                                PUSH    BC
1154: D5                                PUSH    DE
1155: 21 20 00                          LD      HL,0020h
1158: E5                                PUSH    HL
1159: 2E 00                             LD      L,00h
115B: E5                                PUSH    HL
115C: DD 6E FE                          LD      L,(IX-02h)
115F: DD 66 FF                          LD      H,(IX-01h)
1162: E5                                PUSH    HL
1163: CD DF 23                          CALL    L23DF
1166: F1                                POP     AF
1167: F1                                POP     AF
1168: F1                                POP     AF
1169: D1                                POP     DE
116A: C1                                POP     BC
116B: 21 1C 00                          LD      HL,001Ch
116E: 09                                ADD     HL,BC
116F: DD 75 FE                          LD      (IX-02h),L
1172: DD 74 FF                          LD      (IX-01h),H
1175: DD 6E FC                          LD      L,(IX-04h)
1178: DD 66 FD                          LD      H,(IX-03h)
117B: 4E                                LD      C,(HL)
117C: 23                                INC     HL
117D: 46                                LD      B,(HL)
117E: D5                                PUSH    DE
117F: 21 0B 00                          LD      HL,000Bh
1182: E5                                PUSH    HL
1183: DD 6E FE                          LD      L,(IX-02h)
1186: DD 66 FF                          LD      H,(IX-01h)
1189: E5                                PUSH    HL
118A: C5                                PUSH    BC
118B: CD 89 09                          CALL    L0989
118E: F1                                POP     AF
118F: F1                                POP     AF
1190: F1                                POP     AF
1191: D1                                POP     DE
1192: E1                                POP     HL
1193: E5                                PUSH    HL
1194: 23                                INC     HL
1195: 23                                INC     HL
1196: 23                                INC     HL
1197: 36 01                             LD      (HL),01h
1199: 6B                         L1199: LD      L,E
119A: DD F9                             LD      SP,IX
119C: DD E1                             POP     IX
119E: C9                                RET

                                        ; --- START PROC L119F ---
119F: FD 21 00 00                L119F: LD      IY,0000h
11A3: FD 39                             ADD     IY,SP
11A5: FD 6E 02                          LD      L,(IY+02h)
11A8: FD 66 03                          LD      H,(IY+03h)
11AB: FD 46 04                          LD      B,(IY+04h)
11AE: 0E 80                             LD      C,80h
11B0: ED B3                             OTIR
11B2: C9                                RET

                                        ; --- START PROC L11B3 ---
11B3: DD E5                      L11B3: PUSH    IX
11B5: DD 21 00 00                       LD      IX,0000h
11B9: DD 39                             ADD     IX,SP
11BB: DD 4E 04                          LD      C,(IX+04h)
11BE: DD 46 05                          LD      B,(IX+05h)
11C1: DD 7E 06                   L11C1: LD      A,(IX+06h)
11C4: B7                                OR      A
11C5: 28 3B                             JR      Z,L1202
11C7: DB 80                             IN      A,(80h)
11C9: 5F                                LD      E,A
11CA: 3E FF                             LD      A,0FFh
11CC: 93                                SUB     E
11CD: 67                                LD      H,A
11CE: DD 7E 06                          LD      A,(IX+06h)
11D1: 94                                SUB     H
11D2: 30 03                             JR      NC,L11D7
11D4: DD 66 06                          LD      H,(IX+06h)
11D7: 7C                         L11D7: LD      A,H
11D8: B7                                OR      A
11D9: 20 0A                             JR      NZ,L11E5
11DB: C5                                PUSH    BC
11DC: 2A D5 72                          LD      HL,(72D5h)
11DF: CD A2 12                          CALL    L12A2
11E2: C1                                POP     BC
11E3: 18 DC                             JR      L11C1

11E5: 59                         L11E5: LD      E,C
11E6: 50                                LD      D,B
11E7: E5                                PUSH    HL
11E8: C5                                PUSH    BC
11E9: E5                                PUSH    HL
11EA: 33                                INC     SP
11EB: D5                                PUSH    DE
11EC: CD 9F 11                          CALL    L119F
11EF: F1                                POP     AF
11F0: 33                                INC     SP
11F1: C1                                POP     BC
11F2: E1                                POP     HL
11F3: 79                                LD      A,C
11F4: 84                                ADD     A,H
11F5: 4F                                LD      C,A
11F6: 30 01                             JR      NC,L11F9
11F8: 04                                INC     B
11F9: DD 7E 06                   L11F9: LD      A,(IX+06h)
11FC: 94                                SUB     H
11FD: DD 77 06                          LD      (IX+06h),A
1200: 18 BF                             JR      L11C1

1202: DD E1                      L1202: POP     IX
1204: C9                                RET

                                        ; --- START PROC L1205 ---
1205: C1                         L1205: POP     BC
1206: E1                                POP     HL
1207: E5                                PUSH    HL
1208: C5                                PUSH    BC
1209: E5                                PUSH    HL
120A: CD F7 14                          CALL    L14F7
120D: F1                                POP     AF
120E: 65                                LD      H,L
120F: D1                                POP     DE
1210: C1                                POP     BC
1211: C5                                PUSH    BC
1212: D5                                PUSH    DE
1213: E5                                PUSH    HL
1214: 33                                INC     SP
1215: C5                                PUSH    BC
1216: CD B3 11                          CALL    L11B3
1219: F1                                POP     AF
121A: 33                                INC     SP
121B: C9                                RET

121C: DD                         L121C: DB      0DDh
121D: E5                                DB      0E5h
121E: DD                                DB      0DDh
121F: 21                                DB      21h     ; '!'
1220: 00                                DB      00h
1221: 00                                DB      00h
1222: DD                                DB      0DDh
1223: 39                                DB      39h     ; '9'
1224: DD                                DB      0DDh
1225: 6E                                DB      6Eh     ; 'n'
1226: 05                                DB      05h
1227: DD                                DB      0DDh
1228: 66                                DB      66h     ; 'f'
1229: 06                                DB      06h
122A: 4E 23 46 2B 59 50                 DB      "N#F+YP"
1230: 13                                DB      13h
1231: 73                                DB      73h     ; 's'
1232: 23                                DB      23h     ; '#'
1233: 72                                DB      72h     ; 'r'
1234: DD                                DB      0DDh
1235: 7E                                DB      7Eh     ; '~'
1236: 04                                DB      04h
1237: 02                                DB      02h
1238: DD                                DB      0DDh
1239: E1                                DB      0E1h
123A: C9                                DB      0C9h
123B: 21                                DB      21h     ; '!'
123C: 02                                DB      02h
123D: 00                                DB      00h
123E: 39                                DB      39h     ; '9'
123F: FD                                DB      0FDh
1240: 21                                DB      21h     ; '!'
1241: 06                                DB      06h
1242: 00                                DB      00h
1243: FD                                DB      0FDh
1244: 39                                DB      39h     ; '9'
1245: FD                                DB      0FDh
1246: 4E                                DB      4Eh     ; 'N'
1247: 00                                DB      00h
1248: FD                                DB      0FDh
1249: 46                                DB      46h     ; 'F'
124A: 01                                DB      01h
124B: C5                                DB      0C5h
124C: FD                                DB      0FDh
124D: 2B                                DB      2Bh     ; '+'
124E: FD                                DB      0FDh
124F: 2B                                DB      2Bh     ; '+'
1250: FD                                DB      0FDh
1251: 4E                                DB      4Eh     ; 'N'
1252: 00                                DB      00h
1253: FD                                DB      0FDh
1254: 46                                DB      46h     ; 'F'
1255: 01                                DB      01h
1256: C5                                DB      0C5h
1257: E5                                DB      0E5h
1258: 21                                DB      21h     ; '!'
1259: 1C                                DB      1Ch
125A: 12                                DB      12h
125B: E5                                DB      0E5h
125C: CD                                DB      0CDh
125D: F7                                DB      0F7h
125E: 2F                                DB      2Fh     ; '/'
125F: F1                                DB      0F1h
1260: F1                                DB      0F1h
1261: F1                                DB      0F1h
1262: F1                                DB      0F1h
1263: 4D                                DB      4Dh     ; 'M'
1264: 44                                DB      44h     ; 'D'
1265: D1                                DB      0D1h
1266: E1                                DB      0E1h
1267: E5                                DB      0E5h
1268: D5                                DB      0D5h
1269: 36                                DB      36h     ; '6'
126A: 00                                DB      00h
126B: 69                                DB      69h     ; 'i'
126C: 60                                DB      60h     ; '`'
126D: C9                                DB      0C9h

                                        ; --- START PROC L126E ---
126E: DD E5                      L126E: PUSH    IX
1270: DD 21 00 00                       LD      IX,0000h
1274: DD 39                             ADD     IX,SP
1276: 21 08 00                          LD      HL,0008h
1279: 39                                ADD     HL,SP
127A: EB                                EX      DE,HL
127B: 21 04 00                          LD      HL,0004h
127E: 39                                ADD     HL,SP
127F: D5                                PUSH    DE
1280: DD 4E 06                          LD      C,(IX+06h)
1283: DD 46 07                          LD      B,(IX+07h)
1286: C5                                PUSH    BC
1287: E5                                PUSH    HL
1288: 21 1C 12                          LD      HL,121Ch
128B: E5                                PUSH    HL
128C: CD F7 2F                          CALL    L2FF7
128F: F1                                POP     AF
1290: F1                                POP     AF
1291: F1                                POP     AF
1292: F1                                POP     AF
1293: 4D                                LD      C,L
1294: 44                                LD      B,H
1295: DD 5E 04                          LD      E,(IX+04h)
1298: DD 56 05                          LD      D,(IX+05h)
129B: AF                                XOR     A
129C: 12                                LD      (DE),A
129D: 69                                LD      L,C
129E: 60                                LD      H,B
129F: DD E1                             POP     IX
12A1: C9                                RET

                                        ; --- START PROC L12A2 ---
12A2: E9                         L12A2: JP      (HL)

                                        ; --- START PROC L12A3 ---
12A3: CD 06 15                   L12A3: CALL    L1506
12A6: F5                                PUSH    AF
12A7: F5                                PUSH    AF
12A8: 3B                                DEC     SP
12A9: DD 36 FB 09                       LD      (IX-05h),09h
12AD: DD 4E 04                          LD      C,(IX+04h)
12B0: DD 46 05                          LD      B,(IX+05h)
12B3: DD 7E 05                          LD      A,(IX+05h)
12B6: DD B6 04                          OR      (IX+04h)
12B9: 28 4D                             JR      Z,L1308
12BB: 69                                LD      L,C
12BC: 60                                LD      H,B
12BD: 5E                                LD      E,(HL)
12BE: 23                                INC     HL
12BF: 56                                LD      D,(HL)
12C0: 7A                                LD      A,D
12C1: B3                                OR      E
12C2: 28 44                             JR      Z,L1308
12C4: 1A                                LD      A,(DE)
12C5: B7                                OR      A
12C6: 28 40                             JR      Z,L1308
12C8: 69                                LD      L,C
12C9: 60                                LD      H,B
12CA: 23                                INC     HL
12CB: 23                                INC     HL
12CC: 7E                                LD      A,(HL)
12CD: DD 77 FC                          LD      (IX-04h),A
12D0: 23                                INC     HL
12D1: 7E                                LD      A,(HL)
12D2: DD 77 FD                          LD      (IX-03h),A
12D5: 6B                                LD      L,E
12D6: 62                                LD      H,D
12D7: 23                                INC     HL
12D8: 23                                INC     HL
12D9: 23                                INC     HL
12DA: 23                                INC     HL
12DB: 23                                INC     HL
12DC: 7E                                LD      A,(HL)
12DD: DD 77 FE                          LD      (IX-02h),A
12E0: 23                                INC     HL
12E1: 7E                                LD      A,(HL)
12E2: DD 77 FF                          LD      (IX-01h),A
12E5: DD 7E FC                          LD      A,(IX-04h)
12E8: DD 96 FE                          SUB     (IX-02h)
12EB: 20 1B                             JR      NZ,L1308
12ED: DD 7E FD                          LD      A,(IX-03h)
12F0: DD 96 FF                          SUB     (IX-01h)
12F3: 20 13                             JR      NZ,L1308
12F5: EB                                EX      DE,HL
12F6: 23                                INC     HL
12F7: 7E                                LD      A,(HL)
12F8: C5                                PUSH    BC
12F9: F5                                PUSH    AF
12FA: 33                                INC     SP
12FB: CD 56 03                          CALL    L0356
12FE: 33                                INC     SP
12FF: 7D                                LD      A,L
1300: C1                                POP     BC
1301: 0F                                RRCA
1302: 38 04                             JR      C,L1308
1304: AF                                XOR     A
1305: DD 77 FB                          LD      (IX-05h),A
1308: DD 5E 06                   L1308: LD      E,(IX+06h)
130B: DD 56 07                          LD      D,(IX+07h)
130E: DD 7E FB                          LD      A,(IX-05h)
1311: B7                                OR      A
1312: 20 07                             JR      NZ,L131B
1314: 69                                LD      L,C
1315: 60                                LD      H,B
1316: 4E                                LD      C,(HL)
1317: 23                                INC     HL
1318: 46                                LD      B,(HL)
1319: 18 03                             JR      L131E

131B: 01 00 00                   L131B: LD      BC,0000h
131E: 79                         L131E: LD      A,C
131F: 12                                LD      (DE),A
1320: 13                                INC     DE
1321: 78                                LD      A,B
1322: 12                                LD      (DE),A
1323: DD 6E FB                          LD      L,(IX-05h)
1326: DD F9                             LD      SP,IX
1328: DD E1                             POP     IX
132A: C9                                RET

                                        ; --- START PROC L132B ---
132B: CD 06 15                   L132B: CALL    L1506
132E: F5                                PUSH    AF
132F: F5                                PUSH    AF
1330: DD 6E 04                          LD      L,(IX+04h)
1333: DD 66 05                          LD      H,(IX+05h)
1336: 23                                INC     HL
1337: 23                                INC     HL
1338: 23                                INC     HL
1339: 4E                                LD      C,(HL)
133A: 06 00                             LD      B,00h
133C: 1E 00                             LD      E,00h
133E: DD 71 FD                          LD      (IX-03h),C
1341: DD 70 FE                          LD      (IX-02h),B
1344: DD 73 FF                          LD      (IX-01h),E
1347: AF                                XOR     A
1348: DD 77 FC                          LD      (IX-04h),A
134B: DD 6E 04                          LD      L,(IX+04h)
134E: DD 66 05                          LD      H,(IX+05h)
1351: 23                                INC     HL
1352: 23                                INC     HL
1353: 4E                                LD      C,(HL)
1354: 06 00                             LD      B,00h
1356: 11 00 00                          LD      DE,0000h
1359: 79                                LD      A,C
135A: DD B6 FC                          OR      (IX-04h)
135D: 4F                                LD      C,A
135E: 78                                LD      A,B
135F: DD B6 FD                          OR      (IX-03h)
1362: 47                                LD      B,A
1363: 7B                                LD      A,E
1364: DD B6 FE                          OR      (IX-02h)
1367: 5F                                LD      E,A
1368: 7A                                LD      A,D
1369: DD B6 FF                          OR      (IX-01h)
136C: DD 71 FD                          LD      (IX-03h),C
136F: DD 70 FE                          LD      (IX-02h),B
1372: DD 73 FF                          LD      (IX-01h),E
1375: AF                                XOR     A
1376: DD 77 FC                          LD      (IX-04h),A
1379: DD 6E 04                          LD      L,(IX+04h)
137C: DD 66 05                          LD      H,(IX+05h)
137F: 23                                INC     HL
1380: 4E                                LD      C,(HL)
1381: 06 00                             LD      B,00h
1383: 11 00 00                          LD      DE,0000h
1386: 79                                LD      A,C
1387: DD B6 FC                          OR      (IX-04h)
138A: 4F                                LD      C,A
138B: 78                                LD      A,B
138C: DD B6 FD                          OR      (IX-03h)
138F: 47                                LD      B,A
1390: 7B                                LD      A,E
1391: DD B6 FE                          OR      (IX-02h)
1394: 5F                                LD      E,A
1395: 7A                                LD      A,D
1396: DD B6 FF                          OR      (IX-01h)
1399: DD 71 FD                          LD      (IX-03h),C
139C: DD 70 FE                          LD      (IX-02h),B
139F: DD 73 FF                          LD      (IX-01h),E
13A2: AF                                XOR     A
13A3: DD 77 FC                          LD      (IX-04h),A
13A6: DD 6E 04                          LD      L,(IX+04h)
13A9: DD 66 05                          LD      H,(IX+05h)
13AC: 4E                                LD      C,(HL)
13AD: 06 00                             LD      B,00h
13AF: 11 00 00                          LD      DE,0000h
13B2: DD 7E FC                          LD      A,(IX-04h)
13B5: B1                                OR      C
13B6: 6F                                LD      L,A
13B7: DD 7E FD                          LD      A,(IX-03h)
13BA: B0                                OR      B
13BB: 67                                LD      H,A
13BC: DD 7E FE                          LD      A,(IX-02h)
13BF: B3                                OR      E
13C0: 5F                                LD      E,A
13C1: DD 7E FF                          LD      A,(IX-01h)
13C4: B2                                OR      D
13C5: 57                                LD      D,A
13C6: DD F9                             LD      SP,IX
13C8: DD E1                             POP     IX
13CA: C9                                RET

                                        ; --- START PROC L13CB ---
13CB: FD 21 02 00                L13CB: LD      IY,0002h
13CF: FD 39                             ADD     IY,SP
13D1: FD 6E 02                          LD      L,(IY+02h)
13D4: FD 66 03                          LD      H,(IY+03h)
13D7: E5                                PUSH    HL
13D8: FD 6E 00                          LD      L,(IY+00h)
13DB: FD 66 01                          LD      H,(IY+01h)
13DE: E5                                PUSH    HL
13DF: CD 2A 14                          CALL    L142A
13E2: F1                                POP     AF
13E3: F1                                POP     AF
13E4: 3E 01                             LD      A,01h
13E6: D3 91                             OUT     (91h),A
13E8: DB 91                      L13E8: IN      A,(91h)
13EA: 0F                                RRCA
13EB: D0                                RET     NC
13EC: 2A D5 72                          LD      HL,(72D5h)
13EF: CD A2 12                          CALL    L12A2
13F2: 18 F4                             JR      L13E8

                                        ; --- START PROC L13F4 ---
13F4: 21 02 00                   L13F4: LD      HL,0002h
13F7: 39                                ADD     HL,SP
13F8: 7E                                LD      A,(HL)
13F9: 23                                INC     HL
13FA: 66                                LD      H,(HL)
13FB: 6F                                LD      L,A
13FC: 01 92 00                          LD      BC,0092h
13FF: ED B2                             INIR
1401: ED B2                             INIR
1403: C9                                RET

                                        ; --- START PROC L1404 ---
1404: FD 21 02 00                L1404: LD      IY,0002h
1408: FD 39                             ADD     IY,SP
140A: FD 6E 02                          LD      L,(IY+02h)
140D: FD 66 03                          LD      H,(IY+03h)
1410: E5                                PUSH    HL
1411: FD 6E 00                          LD      L,(IY+00h)
1414: FD 66 01                          LD      H,(IY+01h)
1417: E5                                PUSH    HL
1418: CD CB 13                          CALL    L13CB
141B: F1                                POP     AF
141C: F1                                POP     AF
141D: 21 06 00                          LD      HL,0006h
1420: 39                                ADD     HL,SP
1421: 4E                                LD      C,(HL)
1422: 23                                INC     HL
1423: 46                                LD      B,(HL)
1424: C5                                PUSH    BC
1425: CD F4 13                          CALL    L13F4
1428: F1                                POP     AF
1429: C9                                RET

                                        ; --- START PROC L142A ---
142A: 21 02 00                   L142A: LD      HL,0002h
142D: 39                                ADD     HL,SP
142E: 01 90 04                          LD      BC,0490h
1431: ED B3                             OTIR
1433: C9                                RET

1434: 81                         L1434: DB      81h
1435: 9F                         L1435: DB      9Fh
1436: E0                                DB      0E0h
1437: FC                         L1437: DB      0FCh
1438: 40                                DB      40h     ; '@'
1439: 7E                         L1439: DB      7Eh     ; '~'
143A: 80                                DB      80h
143B: FC                         L143B: DB      0FCh
143C: 00                                DB      00h
143D: 00                         L143D: DB      00h

                                        ; --- START PROC L143E ---
143E: CD 06 15                   L143E: CALL    L1506
1441: F5                                PUSH    AF
1442: F5                                PUSH    AF
1443: DD 7E 06                          LD      A,(IX+06h)
1446: C6 FE                             ADD     A,0FEh
1448: DD 77 06                          LD      (IX+06h),A
144B: DD 7E 07                          LD      A,(IX+07h)
144E: CE FF                             ADC     A,0FFh
1450: DD 77 07                          LD      (IX+07h),A
1453: DD 7E 08                          LD      A,(IX+08h)
1456: CE FF                             ADC     A,0FFh
1458: DD 77 08                          LD      (IX+08h),A
145B: DD 7E 09                          LD      A,(IX+09h)
145E: CE FF                             ADC     A,0FFh
1460: DD 77 09                          LD      (IX+09h),A
1463: DD 4E 04                          LD      C,(IX+04h)
1466: DD 46 05                          LD      B,(IX+05h)
1469: 69                                LD      L,C
146A: 60                                LD      H,B
146B: 11 17 00                          LD      DE,0017h
146E: 19                                ADD     HL,DE
146F: 5E                                LD      E,(HL)
1470: 23                                INC     HL
1471: 56                                LD      D,(HL)
1472: 23                                INC     HL
1473: 23                                INC     HL
1474: 7E                                LD      A,(HL)
1475: 2B                                DEC     HL
1476: 6E                                LD      L,(HL)
1477: 67                                LD      H,A
1478: 7B                                LD      A,E
1479: C6 FE                             ADD     A,0FEh
147B: 5F                                LD      E,A
147C: 7A                                LD      A,D
147D: CE FF                             ADC     A,0FFh
147F: 57                                LD      D,A
1480: 7D                                LD      A,L
1481: CE FF                             ADC     A,0FFh
1483: 6F                                LD      L,A
1484: 7C                                LD      A,H
1485: CE FF                             ADC     A,0FFh
1487: 67                                LD      H,A
1488: DD 7E 06                          LD      A,(IX+06h)
148B: 93                                SUB     E
148C: DD 7E 07                          LD      A,(IX+07h)
148F: 9A                                SBC     A,D
1490: DD 7E 08                          LD      A,(IX+08h)
1493: 9D                                SBC     A,L
1494: DD 7E 09                          LD      A,(IX+09h)
1497: 9C                                SBC     A,H
1498: 38 07                             JR      C,L14A1
149A: 21 00 00                          LD      HL,0000h
149D: 5D                                LD      E,L
149E: 54                                LD      D,H
149F: 18 50                             JR      L14F1

14A1: 69                         L14A1: LD      L,C
14A2: 60                                LD      H,B
14A3: 11 2B 00                          LD      DE,002Bh
14A6: 19                                ADD     HL,DE
14A7: 7E                                LD      A,(HL)
14A8: DD 77 FC                          LD      (IX-04h),A
14AB: 23                                INC     HL
14AC: 7E                                LD      A,(HL)
14AD: DD 77 FD                          LD      (IX-03h),A
14B0: 23                                INC     HL
14B1: 7E                                LD      A,(HL)
14B2: DD 77 FE                          LD      (IX-02h),A
14B5: 23                                INC     HL
14B6: 7E                                LD      A,(HL)
14B7: DD 77 FF                          LD      (IX-01h),A
14BA: 69                                LD      L,C
14BB: 60                                LD      H,B
14BC: 11 09 00                          LD      DE,0009h
14BF: 19                                ADD     HL,DE
14C0: 4E                                LD      C,(HL)
14C1: 23                                INC     HL
14C2: 46                                LD      B,(HL)
14C3: 11 00 00                          LD      DE,0000h
14C6: DD 6E 08                          LD      L,(IX+08h)
14C9: DD 66 09                          LD      H,(IX+09h)
14CC: E5                                PUSH    HL
14CD: DD 6E 06                          LD      L,(IX+06h)
14D0: DD 66 07                          LD      H,(IX+07h)
14D3: E5                                PUSH    HL
14D4: D5                                PUSH    DE
14D5: C5                                PUSH    BC
14D6: CD 1A 50                          CALL    L501A
14D9: F1                                POP     AF
14DA: F1                                POP     AF
14DB: F1                                POP     AF
14DC: F1                                POP     AF
14DD: DD 7E FC                          LD      A,(IX-04h)
14E0: 85                                ADD     A,L
14E1: 6F                                LD      L,A
14E2: DD 7E FD                          LD      A,(IX-03h)
14E5: 8C                                ADC     A,H
14E6: 67                                LD      H,A
14E7: DD 7E FE                          LD      A,(IX-02h)
14EA: 8B                                ADC     A,E
14EB: 5F                                LD      E,A
14EC: DD 7E FF                          LD      A,(IX-01h)
14EF: 8A                                ADC     A,D
14F0: 57                                LD      D,A
14F1: DD F9                      L14F1: LD      SP,IX
14F3: DD E1                             POP     IX
14F5: C9                                RET

14F6: C9                         L14F6: DB      0C9h

                                        ; --- START PROC L14F7 ---
14F7: C1                         L14F7: POP     BC
14F8: E1                                POP     HL
14F9: E5                                PUSH    HL
14FA: C5                                PUSH    BC
14FB: AF                                XOR     A
14FC: 47                                LD      B,A
14FD: 4F                                LD      C,A
14FE: ED B1                             CPIR
1500: 21 FF FF                          LD      HL,0FFFFh
1503: ED 42                             SBC     HL,BC
1505: C9                                RET

                                        ; --- START PROC L1506 ---
1506: E1                         L1506: POP     HL
1507: DD E5                             PUSH    IX
1509: DD 21 00 00                       LD      IX,0000h
150D: DD 39                             ADD     IX,SP
150F: E9                                JP      (HL)

                                        ; --- START PROC L1510 ---
1510: CD 06 15                   L1510: CALL    L1506
1513: F5                                PUSH    AF
1514: F5                                PUSH    AF
1515: DD 7E 06                          LD      A,(IX+06h)
1518: C6 1A                             ADD     A,1Ah
151A: 4F                                LD      C,A
151B: DD 7E 07                          LD      A,(IX+07h)
151E: CE 00                             ADC     A,00h
1520: 47                                LD      B,A
1521: C5                                PUSH    BC
1522: CD F7 23                          CALL    L23F7
1525: F1                                POP     AF
1526: DD 75 FC                          LD      (IX-04h),L
1529: DD 74 FD                          LD      (IX-03h),H
152C: AF                                XOR     A
152D: DD 77 FE                          LD      (IX-02h),A
1530: DD 77 FF                          LD      (IX-01h),A
1533: DD 4E 04                          LD      C,(IX+04h)
1536: DD 46 05                          LD      B,(IX+05h)
1539: 0A                                LD      A,(BC)
153A: D6 03                             SUB     03h
153C: 20 30                             JR      NZ,L156E
153E: DD 7E 06                          LD      A,(IX+06h)
1541: C6 14                             ADD     A,14h
1543: 4F                                LD      C,A
1544: DD 7E 07                          LD      A,(IX+07h)
1547: CE 00                             ADC     A,00h
1549: 47                                LD      B,A
154A: C5                                PUSH    BC
154B: CD F7 23                          CALL    L23F7
154E: F1                                POP     AF
154F: 01 00 00                          LD      BC,0000h
1552: DD 7E FC                          LD      A,(IX-04h)
1555: B1                                OR      C
1556: DD 77 FC                          LD      (IX-04h),A
1559: DD 7E FD                          LD      A,(IX-03h)
155C: B0                                OR      B
155D: DD 77 FD                          LD      (IX-03h),A
1560: DD 7E FE                          LD      A,(IX-02h)
1563: B5                                OR      L
1564: DD 77 FE                          LD      (IX-02h),A
1567: DD 7E FF                          LD      A,(IX-01h)
156A: B4                                OR      H
156B: DD 77 FF                          LD      (IX-01h),A
156E: DD 6E FC                   L156E: LD      L,(IX-04h)
1571: DD 66 FD                          LD      H,(IX-03h)
1574: DD 5E FE                          LD      E,(IX-02h)
1577: DD 56 FF                          LD      D,(IX-01h)
157A: DD F9                             LD      SP,IX
157C: DD E1                             POP     IX
157E: C9                                RET

                                        ; --- START PROC L157F ---
157F: CD 06 15                   L157F: CALL    L1506
1582: 21 F0 FF                          LD      HL,0FFF0h
1585: 39                                ADD     HL,SP
1586: F9                                LD      SP,HL
1587: DD 4E 04                          LD      C,(IX+04h)
158A: DD 46 05                          LD      B,(IX+05h)
158D: 0A                                LD      A,(BC)
158E: DD 77 F0                          LD      (IX-10h),A
1591: 03                                INC     BC
1592: 0A                                LD      A,(BC)
1593: DD 77 F1                          LD      (IX-0Fh),A
1596: DD 7E 06                          LD      A,(IX+06h)
1599: D6 02                             SUB     02h
159B: DD 7E 07                          LD      A,(IX+07h)
159E: DE 00                             SBC     A,00h
15A0: DD 7E 08                          LD      A,(IX+08h)
15A3: DE 00                             SBC     A,00h
15A5: DD 7E 09                          LD      A,(IX+09h)
15A8: DE 00                             SBC     A,00h
15AA: 38 1F                             JR      C,L15CB
15AC: E1                                POP     HL
15AD: E5                                PUSH    HL
15AE: 11 17 00                          LD      DE,0017h
15B1: 19                                ADD     HL,DE
15B2: 4E                                LD      C,(HL)
15B3: 23                                INC     HL
15B4: 46                                LD      B,(HL)
15B5: 23                                INC     HL
15B6: 5E                                LD      E,(HL)
15B7: 23                                INC     HL
15B8: 56                                LD      D,(HL)
15B9: DD 7E 06                          LD      A,(IX+06h)
15BC: 91                                SUB     C
15BD: DD 7E 07                          LD      A,(IX+07h)
15C0: 98                                SBC     A,B
15C1: DD 7E 08                          LD      A,(IX+08h)
15C4: 9B                                SBC     A,E
15C5: DD 7E 09                          LD      A,(IX+09h)
15C8: 9A                                SBC     A,D
15C9: 38 11                             JR      C,L15DC
15CB: DD 36 F2 01                L15CB: LD      (IX-0Eh),01h
15CF: AF                                XOR     A
15D0: DD 77 F3                          LD      (IX-0Dh),A
15D3: DD 77 F4                          LD      (IX-0Ch),A
15D6: DD 77 F5                          LD      (IX-0Bh),A
15D9: C3 7C 18                          JP      L187C

15DC: DD 36 F2 FF                L15DC: LD      (IX-0Eh),0FFh
15E0: DD 36 F3 FF                       LD      (IX-0Dh),0FFh
15E4: DD 36 F4 FF                       LD      (IX-0Ch),0FFh
15E8: DD 36 F5 FF                       LD      (IX-0Bh),0FFh
15EC: E1                                POP     HL
15ED: E5                                PUSH    HL
15EE: 4E                                LD      C,(HL)
15EF: DD 7E F0                          LD      A,(IX-10h)
15F2: C6 23                             ADD     A,23h   ; '#'
15F4: DD 77 FE                          LD      (IX-02h),A
15F7: DD 7E F1                          LD      A,(IX-0Fh)
15FA: CE 00                             ADC     A,00h
15FC: DD 77 FF                          LD      (IX-01h),A
15FF: DD 7E F0                          LD      A,(IX-10h)
1602: C6 33                             ADD     A,33h   ; '3'
1604: DD 77 F6                          LD      (IX-0Ah),A
1607: DD 7E F1                          LD      A,(IX-0Fh)
160A: CE 00                             ADC     A,00h
160C: DD 77 F7                          LD      (IX-09h),A
160F: 79                                LD      A,C
1610: 3D                                DEC     A
1611: 28 0E                             JR      Z,L1621
1613: 79                                LD      A,C
1614: FE 02                             CP      02h
1616: CA 73 17                          JP      Z,L1773
1619: D6 03                             SUB     03h
161B: CA E8 17                          JP      Z,L17E8
161E: C3 6E 18                          JP      L186E

1621: DD 4E 06                   L1621: LD      C,(IX+06h)
1624: DD 46 07                          LD      B,(IX+07h)
1627: 69                                LD      L,C
1628: 60                                LD      H,B
1629: CB 3C                             SRL     H
162B: CB 1D                             RR      L
162D: 09                                ADD     HL,BC
162E: E5                                PUSH    HL
162F: DD 5E FE                          LD      E,(IX-02h)
1632: DD 56 FF                          LD      D,(IX-01h)
1635: 21 0C 00                          LD      HL,000Ch
1638: 39                                ADD     HL,SP
1639: EB                                EX      DE,HL
163A: 01 04 00                          LD      BC,0004h
163D: ED B0                             LDIR
163F: D1                                POP     DE
1640: 7A                                LD      A,D
1641: CB 3F                             SRL     A
1643: 4F                                LD      C,A
1644: 06 00                             LD      B,00h
1646: 21 00 00                          LD      HL,0000h
1649: DD 7E FA                          LD      A,(IX-06h)
164C: 81                                ADD     A,C
164D: 4F                                LD      C,A
164E: DD 7E FB                          LD      A,(IX-05h)
1651: 88                                ADC     A,B
1652: 47                                LD      B,A
1653: DD 7E FC                          LD      A,(IX-04h)
1656: 8D                                ADC     A,L
1657: 6F                                LD      L,A
1658: DD 7E FD                          LD      A,(IX-03h)
165B: 8C                                ADC     A,H
165C: 67                                LD      H,A
165D: D5                                PUSH    DE
165E: E5                                PUSH    HL
165F: C5                                PUSH    BC
1660: DD 6E F0                          LD      L,(IX-10h)
1663: DD 66 F1                          LD      H,(IX-0Fh)
1666: E5                                PUSH    HL
1667: CD 16 24                          CALL    L2416
166A: F1                                POP     AF
166B: F1                                POP     AF
166C: F1                                POP     AF
166D: 7D                                LD      A,L
166E: D1                                POP     DE
166F: B7                                OR      A
1670: C2 7C 18                          JP      NZ,L187C
1673: 4B                                LD      C,E
1674: 42                                LD      B,D
1675: 13                                INC     DE
1676: DD 73 F8                          LD      (IX-08h),E
1679: DD 72 F9                          LD      (IX-07h),D
167C: 78                                LD      A,B
167D: E6 01                             AND     01h
167F: 47                                LD      B,A
1680: 79                                LD      A,C
1681: DD 86 F6                          ADD     A,(IX-0Ah)
1684: DD 77 FC                          LD      (IX-04h),A
1687: 78                                LD      A,B
1688: DD 8E F7                          ADC     A,(IX-09h)
168B: DD 77 FD                          LD      (IX-03h),A
168E: DD 6E FC                          LD      L,(IX-04h)
1691: DD 66 FD                          LD      H,(IX-03h)
1694: 7E                                LD      A,(HL)
1695: DD 77 FD                          LD      (IX-03h),A
1698: DD 77 FA                          LD      (IX-06h),A
169B: AF                                XOR     A
169C: DD 77 FB                          LD      (IX-05h),A
169F: DD 5E FE                          LD      E,(IX-02h)
16A2: DD 56 FF                          LD      D,(IX-01h)
16A5: 21 0C 00                          LD      HL,000Ch
16A8: 39                                ADD     HL,SP
16A9: EB                                EX      DE,HL
16AA: 01 04 00                          LD      BC,0004h
16AD: ED B0                             LDIR
16AF: DD 7E F9                          LD      A,(IX-07h)
16B2: CB 3F                             SRL     A
16B4: 4F                                LD      C,A
16B5: 06 00                             LD      B,00h
16B7: 11 00 00                          LD      DE,0000h
16BA: DD 7E FC                          LD      A,(IX-04h)
16BD: 81                                ADD     A,C
16BE: 4F                                LD      C,A
16BF: DD 7E FD                          LD      A,(IX-03h)
16C2: 88                                ADC     A,B
16C3: 47                                LD      B,A
16C4: DD 7E FE                          LD      A,(IX-02h)
16C7: 8B                                ADC     A,E
16C8: 5F                                LD      E,A
16C9: DD 7E FF                          LD      A,(IX-01h)
16CC: 8A                                ADC     A,D
16CD: 57                                LD      D,A
16CE: D5                                PUSH    DE
16CF: C5                                PUSH    BC
16D0: DD 6E F0                          LD      L,(IX-10h)
16D3: DD 66 F1                          LD      H,(IX-0Fh)
16D6: E5                                PUSH    HL
16D7: CD 16 24                          CALL    L2416
16DA: F1                                POP     AF
16DB: F1                                POP     AF
16DC: F1                                POP     AF
16DD: 7D                                LD      A,L
16DE: B7                                OR      A
16DF: C2 7C 18                          JP      NZ,L187C
16E2: DD 7E F8                          LD      A,(IX-08h)
16E5: DD 77 FE                          LD      (IX-02h),A
16E8: DD 7E F9                          LD      A,(IX-07h)
16EB: E6 01                             AND     01h
16ED: DD 77 FF                          LD      (IX-01h),A
16F0: DD 7E FE                          LD      A,(IX-02h)
16F3: DD 86 F6                          ADD     A,(IX-0Ah)
16F6: DD 77 FC                          LD      (IX-04h),A
16F9: DD 7E FF                          LD      A,(IX-01h)
16FC: DD 8E F7                          ADC     A,(IX-09h)
16FF: DD 77 FD                          LD      (IX-03h),A
1702: DD 6E FC                          LD      L,(IX-04h)
1705: DD 66 FD                          LD      H,(IX-03h)
1708: 7E                                LD      A,(HL)
1709: DD 77 FF                          LD      (IX-01h),A
170C: DD 77 FE                          LD      (IX-02h),A
170F: AF                                XOR     A
1710: DD 77 FF                          LD      (IX-01h),A
1713: DD 7E FE                          LD      A,(IX-02h)
1716: DD 77 FF                          LD      (IX-01h),A
1719: DD 36 FE 00                       LD      (IX-02h),00h
171D: DD 7E FA                          LD      A,(IX-06h)
1720: DD B6 FE                          OR      (IX-02h)
1723: DD 77 FC                          LD      (IX-04h),A
1726: DD 7E FB                          LD      A,(IX-05h)
1729: DD B6 FF                          OR      (IX-01h)
172C: DD 77 FD                          LD      (IX-03h),A
172F: DD CB 06 46                       BIT     0,(IX+06h)
1733: 28 1A                             JR      Z,L174F
1735: DD 7E FC                          LD      A,(IX-04h)
1738: DD 77 FE                          LD      (IX-02h),A
173B: DD 7E FD                          LD      A,(IX-03h)
173E: DD 77 FF                          LD      (IX-01h),A
1741: 06 04                             LD      B,04h
1743: DD CB FF 3E                L1743: SRL     (IX-01h)
1747: DD CB FE 1E                       RR      (IX-02h)
174B: 10 F6                             DJNZ    L1743
174D: 18 0E                             JR      L175D

174F: DD 7E FC                   L174F: LD      A,(IX-04h)
1752: DD 77 FE                          LD      (IX-02h),A
1755: DD 7E FD                          LD      A,(IX-03h)
1758: E6 0F                             AND     0Fh
175A: DD 77 FF                          LD      (IX-01h),A
175D: DD 7E FE                   L175D: LD      A,(IX-02h)
1760: DD 77 F2                          LD      (IX-0Eh),A
1763: DD 7E FF                          LD      A,(IX-01h)
1766: DD 77 F3                          LD      (IX-0Dh),A
1769: AF                                XOR     A
176A: DD 77 F4                          LD      (IX-0Ch),A
176D: DD 77 F5                          LD      (IX-0Bh),A
1770: C3 7C 18                          JP      L187C

1773: DD 5E FE                   L1773: LD      E,(IX-02h)
1776: DD 56 FF                          LD      D,(IX-01h)
1779: 21 0C 00                          LD      HL,000Ch
177C: 39                                ADD     HL,SP
177D: EB                                EX      DE,HL
177E: 01 04 00                          LD      BC,0004h
1781: ED B0                             LDIR
1783: DD 4E 07                          LD      C,(IX+07h)
1786: DD 46 08                          LD      B,(IX+08h)
1789: DD 5E 09                          LD      E,(IX+09h)
178C: 16 00                             LD      D,00h
178E: DD 7E FC                          LD      A,(IX-04h)
1791: 81                                ADD     A,C
1792: 4F                                LD      C,A
1793: DD 7E FD                          LD      A,(IX-03h)
1796: 88                                ADC     A,B
1797: 47                                LD      B,A
1798: DD 7E FE                          LD      A,(IX-02h)
179B: 8B                                ADC     A,E
179C: 5F                                LD      E,A
179D: DD 7E FF                          LD      A,(IX-01h)
17A0: 8A                                ADC     A,D
17A1: 57                                LD      D,A
17A2: D5                                PUSH    DE
17A3: C5                                PUSH    BC
17A4: DD 6E F0                          LD      L,(IX-10h)
17A7: DD 66 F1                          LD      H,(IX-0Fh)
17AA: E5                                PUSH    HL
17AB: CD 16 24                          CALL    L2416
17AE: F1                                POP     AF
17AF: F1                                POP     AF
17B0: F1                                POP     AF
17B1: 7D                                LD      A,L
17B2: B7                                OR      A
17B3: C2 7C 18                          JP      NZ,L187C
17B6: DD 4E 06                          LD      C,(IX+06h)
17B9: DD 46 07                          LD      B,(IX+07h)
17BC: DD 6E 08                          LD      L,(IX+08h)
17BF: DD 66 09                          LD      H,(IX+09h)
17C2: CB 21                             SLA     C
17C4: CB 10                             RL      B
17C6: ED 6A                             ADC     HL,HL
17C8: 78                                LD      A,B
17C9: E6 01                             AND     01h
17CB: 47                                LD      B,A
17CC: DD 6E F6                          LD      L,(IX-0Ah)
17CF: DD 66 F7                          LD      H,(IX-09h)
17D2: 09                                ADD     HL,BC
17D3: E5                                PUSH    HL
17D4: CD F7 23                          CALL    L23F7
17D7: F1                                POP     AF
17D8: DD 75 F2                          LD      (IX-0Eh),L
17DB: DD 74 F3                          LD      (IX-0Dh),H
17DE: AF                                XOR     A
17DF: DD 77 F4                          LD      (IX-0Ch),A
17E2: DD 77 F5                          LD      (IX-0Bh),A
17E5: C3 7C 18                          JP      L187C

17E8: DD 5E FE                   L17E8: LD      E,(IX-02h)
17EB: DD 56 FF                          LD      D,(IX-01h)
17EE: 21 0C 00                          LD      HL,000Ch
17F1: 39                                ADD     HL,SP
17F2: EB                                EX      DE,HL
17F3: 01 04 00                          LD      BC,0004h
17F6: ED B0                             LDIR
17F8: DD 5E 06                          LD      E,(IX+06h)
17FB: DD 56 07                          LD      D,(IX+07h)
17FE: DD 6E 08                          LD      L,(IX+08h)
1801: DD 66 09                          LD      H,(IX+09h)
1804: 06 07                             LD      B,07h
1806: CB 3C                      L1806: SRL     H
1808: CB 1D                             RR      L
180A: CB 1A                             RR      D
180C: CB 1B                             RR      E
180E: 10 F6                             DJNZ    L1806
1810: DD 7E FC                          LD      A,(IX-04h)
1813: 83                                ADD     A,E
1814: 4F                                LD      C,A
1815: DD 7E FD                          LD      A,(IX-03h)
1818: 8A                                ADC     A,D
1819: 47                                LD      B,A
181A: DD 7E FE                          LD      A,(IX-02h)
181D: 8D                                ADC     A,L
181E: 5F                                LD      E,A
181F: DD 7E FF                          LD      A,(IX-01h)
1822: 8C                                ADC     A,H
1823: 57                                LD      D,A
1824: D5                                PUSH    DE
1825: C5                                PUSH    BC
1826: DD 6E F0                          LD      L,(IX-10h)
1829: DD 66 F1                          LD      H,(IX-0Fh)
182C: E5                                PUSH    HL
182D: CD 16 24                          CALL    L2416
1830: F1                                POP     AF
1831: F1                                POP     AF
1832: F1                                POP     AF
1833: 7D                                LD      A,L
1834: B7                                OR      A
1835: 20 45                             JR      NZ,L187C
1837: DD 5E 06                          LD      E,(IX+06h)
183A: DD 56 07                          LD      D,(IX+07h)
183D: DD 6E 08                          LD      L,(IX+08h)
1840: DD 66 09                          LD      H,(IX+09h)
1843: 06 02                             LD      B,02h
1845: CB 23                      L1845: SLA     E
1847: CB 12                             RL      D
1849: ED 6A                             ADC     HL,HL
184B: 10 F8                             DJNZ    L1845
184D: 7A                                LD      A,D
184E: E6 01                             AND     01h
1850: 57                                LD      D,A
1851: DD 6E F6                          LD      L,(IX-0Ah)
1854: DD 66 F7                          LD      H,(IX-09h)
1857: 19                                ADD     HL,DE
1858: E5                                PUSH    HL
1859: CD 2B 13                          CALL    L132B
185C: F1                                POP     AF
185D: DD 75 F2                          LD      (IX-0Eh),L
1860: DD 74 F3                          LD      (IX-0Dh),H
1863: DD 73 F4                          LD      (IX-0Ch),E
1866: 7A                                LD      A,D
1867: E6 0F                             AND     0Fh
1869: DD 77 F5                          LD      (IX-0Bh),A
186C: 18 0E                             JR      L187C

186E: DD 36 F2 01                L186E: LD      (IX-0Eh),01h
1872: AF                                XOR     A
1873: DD 77 F3                          LD      (IX-0Dh),A
1876: DD 77 F4                          LD      (IX-0Ch),A
1879: DD 77 F5                          LD      (IX-0Bh),A
187C: DD 6E F2                   L187C: LD      L,(IX-0Eh)
187F: DD 66 F3                          LD      H,(IX-0Dh)
1882: DD 5E F4                          LD      E,(IX-0Ch)
1885: DD 56 F5                          LD      D,(IX-0Bh)
1888: DD F9                             LD      SP,IX
188A: DD E1                             POP     IX
188C: C9                                RET

                                        ; --- START PROC L188D ---
188D: F5                         L188D: PUSH    AF
188E: 21 04 00                          LD      HL,0004h
1891: 39                                ADD     HL,SP
1892: 4E                                LD      C,(HL)
1893: 23                                INC     HL
1894: 46                                LD      B,(HL)
1895: C5                                PUSH    BC
1896: CD 5E 3D                          CALL    L3D5E
1899: F1                                POP     AF
189A: 7D                                LD      A,L
189B: B7                                OR      A
189C: 20 1E                             JR      NZ,L18BC
189E: 21 00 00                          LD      HL,0000h
18A1: 39                                ADD     HL,SP
18A2: EB                                EX      DE,HL
18A3: 21 04 00                          LD      HL,0004h
18A6: 39                                ADD     HL,SP
18A7: 7E                                LD      A,(HL)
18A8: 23                                INC     HL
18A9: 66                                LD      H,(HL)
18AA: 6F                                LD      L,A
18AB: E5                                PUSH    HL
18AC: D5                                PUSH    DE
18AD: E5                                PUSH    HL
18AE: CD A3 12                          CALL    L12A3
18B1: F1                                POP     AF
18B2: F1                                POP     AF
18B3: 7D                                LD      A,L
18B4: E1                                POP     HL
18B5: B7                                OR      A
18B6: 20 04                             JR      NZ,L18BC
18B8: 77                                LD      (HL),A
18B9: 23                                INC     HL
18BA: 36 00                             LD      (HL),00h
18BC: 6F                         L18BC: LD      L,A
18BD: F1                                POP     AF
18BE: C9                                RET

                                        ; --- START PROC L18BF ---
18BF: CD 06 15                   L18BF: CALL    L1506
18C2: 21 F2 FF                          LD      HL,0FFF2h
18C5: 39                                ADD     HL,SP
18C6: F9                                LD      SP,HL
18C7: DD 4E 04                          LD      C,(IX+04h)
18CA: DD 46 05                          LD      B,(IX+05h)
18CD: 59                                LD      E,C
18CE: 50                                LD      D,B
18CF: 0A                                LD      A,(BC)
18D0: DD 77 F2                          LD      (IX-0Eh),A
18D3: 03                                INC     BC
18D4: 0A                                LD      A,(BC)
18D5: DD 77 F3                          LD      (IX-0Dh),A
18D8: 0B                                DEC     BC
18D9: DD 6E 06                          LD      L,(IX+06h)
18DC: DD 66 07                          LD      H,(IX+07h)
18DF: 7E                                LD      A,(HL)
18E0: DD 77 FF                          LD      (IX-01h),A
18E3: 79                                LD      A,C
18E4: C6 06                             ADD     A,06h
18E6: DD 77 F4                          LD      (IX-0Ch),A
18E9: 78                                LD      A,B
18EA: CE 00                             ADC     A,00h
18EC: DD 77 F5                          LD      (IX-0Bh),A
18EF: DD 7E FF                          LD      A,(IX-01h)
18F2: D6 2F                             SUB     2Fh     ; '/'
18F4: 28 37                             JR      Z,L192D
18F6: DD 7E FF                          LD      A,(IX-01h)
18F9: D6 5C                             SUB     5Ch     ; '\'
18FB: 28 30                             JR      Z,L192D
18FD: E1                                POP     HL
18FE: E5                                PUSH    HL
18FF: C5                                PUSH    BC
1900: 01 13 00                          LD      BC,0013h
1903: 09                                ADD     HL,BC
1904: C1                                POP     BC
1905: 7E                                LD      A,(HL)
1906: DD 77 FC                          LD      (IX-04h),A
1909: 23                                INC     HL
190A: 7E                                LD      A,(HL)
190B: DD 77 FD                          LD      (IX-03h),A
190E: 23                                INC     HL
190F: 7E                                LD      A,(HL)
1910: DD 77 FE                          LD      (IX-02h),A
1913: 23                                INC     HL
1914: 7E                                LD      A,(HL)
1915: DD 77 FF                          LD      (IX-01h),A
1918: D5                                PUSH    DE
1919: C5                                PUSH    BC
191A: DD 5E F4                          LD      E,(IX-0Ch)
191D: DD 56 F5                          LD      D,(IX-0Bh)
1920: 21 0E 00                          LD      HL,000Eh
1923: 39                                ADD     HL,SP
1924: 01 04 00                          LD      BC,0004h
1927: ED B0                             LDIR
1929: C1                                POP     BC
192A: D1                                POP     DE
192B: 18 24                             JR      L1951

192D: 7E                         L192D: LD      A,(HL)
192E: FE 2F                             CP      2Fh     ; '/'
1930: 28 04                             JR      Z,L1936
1932: D6 5C                             SUB     5Ch     ; '\'
1934: 20 09                             JR      NZ,L193F
1936: 23                         L1936: INC     HL
1937: DD 75 06                          LD      (IX+06h),L
193A: DD 74 07                          LD      (IX+07h),H
193D: 18 EE                             JR      L192D

193F: DD 75 06                   L193F: LD      (IX+06h),L
1942: DD 74 07                          LD      (IX+07h),H
1945: 21 06 00                          LD      HL,0006h
1948: 19                                ADD     HL,DE
1949: AF                                XOR     A
194A: 77                                LD      (HL),A
194B: 23                                INC     HL
194C: 77                                LD      (HL),A
194D: 23                                INC     HL
194E: 77                                LD      (HL),A
194F: 23                                INC     HL
1950: 77                                LD      (HL),A
1951: DD 6E 06                   L1951: LD      L,(IX+06h)
1954: DD 66 07                          LD      H,(IX+07h)
1957: 6E                                LD      L,(HL)
1958: 26 00                             LD      H,00h
195A: 7D                                LD      A,L
195B: D6 20                             SUB     20h     ; ' '
195D: 7C                                LD      A,H
195E: DE 00                             SBC     A,00h
1960: 30 1B                             JR      NC,L197D
1962: 21 27 00                          LD      HL,0027h
1965: 19                                ADD     HL,DE
1966: 36 80                             LD      (HL),80h
1968: 21 00 00                          LD      HL,0000h
196B: E5                                PUSH    HL
196C: 21 00 00                          LD      HL,0000h
196F: E5                                PUSH    HL
1970: D5                                PUSH    DE
1971: CD FA 43                          CALL    L43FA
1974: F1                                POP     AF
1975: F1                                POP     AF
1976: F1                                POP     AF
1977: DD 75 FC                          LD      (IX-04h),L
197A: C3 82 1A                          JP      L1A82

197D: 21 14 00                   L197D: LD      HL,0014h
1980: 39                                ADD     HL,SP
1981: C5                                PUSH    BC
1982: D5                                PUSH    DE
1983: E5                                PUSH    HL
1984: D5                                PUSH    DE
1985: CD D1 2B                          CALL    L2BD1
1988: F1                                POP     AF
1989: F1                                POP     AF
198A: D1                                POP     DE
198B: C1                                POP     BC
198C: DD 75 FC                          LD      (IX-04h),L
198F: 7D                                LD      A,L
1990: B7                                OR      A
1991: C2 82 1A                          JP      NZ,L1A82
1994: C5                                PUSH    BC
1995: D5                                PUSH    DE
1996: D5                                PUSH    DE
1997: CD 56 3C                          CALL    L3C56
199A: F1                                POP     AF
199B: D1                                POP     DE
199C: C1                                POP     BC
199D: DD 75 FC                          LD      (IX-04h),L
19A0: 21 27 00                          LD      HL,0027h
19A3: 09                                ADD     HL,BC
19A4: 7E                                LD      A,(HL)
19A5: DD 77 FD                          LD      (IX-03h),A
19A8: E6 04                             AND     04h
19AA: DD 77 FE                          LD      (IX-02h),A
19AD: DD 36 FF 00                       LD      (IX-01h),00h
19B1: DD 7E FC                          LD      A,(IX-04h)
19B4: B7                                OR      A
19B5: 28 2F                             JR      Z,L19E6
19B7: DD 7E FC                          LD      A,(IX-04h)
19BA: D6 04                             SUB     04h
19BC: C2 82 1A                          JP      NZ,L1A82
19BF: DD CB FD 6E                       BIT     5,(IX-03h)
19C3: 28 11                             JR      Z,L19D6
19C5: DD 7E FF                          LD      A,(IX-01h)
19C8: DD B6 FE                          OR      (IX-02h)
19CB: 28 B0                             JR      Z,L197D
19CD: 36 80                             LD      (HL),80h
19CF: AF                                XOR     A
19D0: DD 77 FC                          LD      (IX-04h),A
19D3: C3 82 1A                          JP      L1A82

19D6: DD 7E FF                   L19D6: LD      A,(IX-01h)
19D9: DD B6 FE                          OR      (IX-02h)
19DC: C2 82 1A                          JP      NZ,L1A82
19DF: DD 36 FC 05                       LD      (IX-04h),05h
19E3: C3 82 1A                          JP      L1A82

19E6: DD 7E FF                   L19E6: LD      A,(IX-01h)
19E9: DD B6 FE                          OR      (IX-02h)
19EC: C2 82 1A                          JP      NZ,L1A82
19EF: 69                                LD      L,C
19F0: 60                                LD      H,B
19F1: 23                                INC     HL
19F2: 23                                INC     HL
19F3: 23                                INC     HL
19F4: 23                                INC     HL
19F5: CB 66                             BIT     4,(HL)
19F7: 20 07                             JR      NZ,L1A00
19F9: DD 36 FC 05                       LD      (IX-04h),05h
19FD: C3 82 1A                          JP      L1A82

1A00: DD 7E F2                   L1A00: LD      A,(IX-0Eh)
1A03: C6 33                             ADD     A,33h   ; '3'
1A05: DD 77 F6                          LD      (IX-0Ah),A
1A08: DD 7E F3                          LD      A,(IX-0Dh)
1A0B: CE 00                             ADC     A,00h
1A0D: DD 77 F7                          LD      (IX-09h),A
1A10: 69                                LD      L,C
1A11: 60                                LD      H,B
1A12: C5                                PUSH    BC
1A13: 01 0E 00                          LD      BC,000Eh
1A16: 09                                ADD     HL,BC
1A17: C1                                POP     BC
1A18: 7E                                LD      A,(HL)
1A19: DD 77 F8                          LD      (IX-08h),A
1A1C: 23                                INC     HL
1A1D: 7E                                LD      A,(HL)
1A1E: DD 77 F9                          LD      (IX-07h),A
1A21: 23                                INC     HL
1A22: 7E                                LD      A,(HL)
1A23: DD 77 FA                          LD      (IX-06h),A
1A26: 23                                INC     HL
1A27: 7E                                LD      A,(HL)
1A28: DD 77 FB                          LD      (IX-05h),A
1A2B: DD 7E F8                          LD      A,(IX-08h)
1A2E: DD 77 FC                          LD      (IX-04h),A
1A31: DD 7E F9                          LD      A,(IX-07h)
1A34: E6 01                             AND     01h
1A36: DD 77 FD                          LD      (IX-03h),A
1A39: DD 36 FE 00                       LD      (IX-02h),00h
1A3D: DD 36 FF 00                       LD      (IX-01h),00h
1A41: DD 7E FC                          LD      A,(IX-04h)
1A44: DD 86 F6                          ADD     A,(IX-0Ah)
1A47: 6F                                LD      L,A
1A48: DD 7E FD                          LD      A,(IX-03h)
1A4B: DD 8E F7                          ADC     A,(IX-09h)
1A4E: 67                                LD      H,A
1A4F: C5                                PUSH    BC
1A50: D5                                PUSH    DE
1A51: E5                                PUSH    HL
1A52: DD 6E F2                          LD      L,(IX-0Eh)
1A55: DD 66 F3                          LD      H,(IX-0Dh)
1A58: E5                                PUSH    HL
1A59: CD 10 15                          CALL    L1510
1A5C: F1                                POP     AF
1A5D: F1                                POP     AF
1A5E: DD 75 FC                          LD      (IX-04h),L
1A61: DD 74 FD                          LD      (IX-03h),H
1A64: DD 73 FE                          LD      (IX-02h),E
1A67: DD 72 FF                          LD      (IX-01h),D
1A6A: D1                                POP     DE
1A6B: C1                                POP     BC
1A6C: D5                                PUSH    DE
1A6D: C5                                PUSH    BC
1A6E: DD 5E F4                          LD      E,(IX-0Ch)
1A71: DD 56 F5                          LD      D,(IX-0Bh)
1A74: 21 0E 00                          LD      HL,000Eh
1A77: 39                                ADD     HL,SP
1A78: 01 04 00                          LD      BC,0004h
1A7B: ED B0                             LDIR
1A7D: C1                                POP     BC
1A7E: D1                                POP     DE
1A7F: C3 7D 19                          JP      L197D

1A82: DD 6E FC                   L1A82: LD      L,(IX-04h)
1A85: DD F9                             LD      SP,IX
1A87: DD E1                             POP     IX
1A89: C9                                RET

                                        ; --- START PROC L1A8A ---
1A8A: CD 06 15                   L1A8A: CALL    L1506
1A8D: DD 4E 04                          LD      C,(IX+04h)
1A90: DD 46 05                          LD      B,(IX+05h)
1A93: DD 7E 06                          LD      A,(IX+06h)
1A96: 02                                LD      (BC),A
1A97: 03                                INC     BC
1A98: DD 71 04                          LD      (IX+04h),C
1A9B: DD 70 05                          LD      (IX+05h),B
1A9E: 06 08                             LD      B,08h
1AA0: DD CB 09 3E                L1AA0: SRL     (IX+09h)
1AA4: DD CB 08 1E                       RR      (IX+08h)
1AA8: DD CB 07 1E                       RR      (IX+07h)
1AAC: DD CB 06 1E                       RR      (IX+06h)
1AB0: 10 EE                             DJNZ    L1AA0
1AB2: DD 4E 04                          LD      C,(IX+04h)
1AB5: DD 46 05                          LD      B,(IX+05h)
1AB8: DD 7E 06                          LD      A,(IX+06h)
1ABB: 02                                LD      (BC),A
1ABC: 03                                INC     BC
1ABD: DD 71 04                          LD      (IX+04h),C
1AC0: DD 70 05                          LD      (IX+05h),B
1AC3: 06 08                             LD      B,08h
1AC5: DD CB 09 3E                L1AC5: SRL     (IX+09h)
1AC9: DD CB 08 1E                       RR      (IX+08h)
1ACD: DD CB 07 1E                       RR      (IX+07h)
1AD1: DD CB 06 1E                       RR      (IX+06h)
1AD5: 10 EE                             DJNZ    L1AC5
1AD7: DD 4E 04                          LD      C,(IX+04h)
1ADA: DD 46 05                          LD      B,(IX+05h)
1ADD: DD 7E 06                          LD      A,(IX+06h)
1AE0: 02                                LD      (BC),A
1AE1: 03                                INC     BC
1AE2: DD 71 04                          LD      (IX+04h),C
1AE5: DD 70 05                          LD      (IX+05h),B
1AE8: 06 08                             LD      B,08h
1AEA: DD CB 09 3E                L1AEA: SRL     (IX+09h)
1AEE: DD CB 08 1E                       RR      (IX+08h)
1AF2: DD CB 07 1E                       RR      (IX+07h)
1AF6: DD CB 06 1E                       RR      (IX+06h)
1AFA: 10 EE                             DJNZ    L1AEA
1AFC: DD 4E 04                          LD      C,(IX+04h)
1AFF: DD 46 05                          LD      B,(IX+05h)
1B02: DD 7E 06                          LD      A,(IX+06h)
1B05: 02                                LD      (BC),A
1B06: DD E1                             POP     IX
1B08: C9                                RET

                                        ; --- START PROC L1B09 ---
1B09: CD 06 15                   L1B09: CALL    L1506
1B0C: 21 F7 FF                          LD      HL,0FFF7h
1B0F: 39                                ADD     HL,SP
1B10: F9                                LD      SP,HL
1B11: DD 7E 04                          LD      A,(IX+04h)
1B14: DD 77 FC                          LD      (IX-04h),A
1B17: DD 7E 05                          LD      A,(IX+05h)
1B1A: DD 77 FD                          LD      (IX-03h),A
1B1D: DD 6E FC                          LD      L,(IX-04h)
1B20: DD 66 FD                          LD      H,(IX-03h)
1B23: 7E                                LD      A,(HL)
1B24: DD 77 F7                          LD      (IX-09h),A
1B27: 23                                INC     HL
1B28: 7E                                LD      A,(HL)
1B29: DD 77 F8                          LD      (IX-08h),A
1B2C: 21 00 00                          LD      HL,0000h
1B2F: E5                                PUSH    HL
1B30: 21 00 00                          LD      HL,0000h
1B33: E5                                PUSH    HL
1B34: DD 6E FC                          LD      L,(IX-04h)
1B37: DD 66 FD                          LD      H,(IX-03h)
1B3A: E5                                PUSH    HL
1B3B: CD FA 43                          CALL    L43FA
1B3E: F1                                POP     AF
1B3F: F1                                POP     AF
1B40: F1                                POP     AF
1B41: DD 75 F9                          LD      (IX-07h),L
1B44: 7D                                LD      A,L
1B45: B7                                OR      A
1B46: C2 D2 1B                          JP      NZ,L1BD2
1B49: AF                                XOR     A
1B4A: DD 77 FE                          LD      (IX-02h),A
1B4D: DD 77 FF                          LD      (IX-01h),A
1B50: DD 7E FC                          LD      A,(IX-04h)
1B53: DD 77 FA                          LD      (IX-06h),A
1B56: DD 7E FD                          LD      A,(IX-03h)
1B59: DD 77 FB                          LD      (IX-05h),A
1B5C: DD 6E FC                   L1B5C: LD      L,(IX-04h)
1B5F: DD 66 FD                          LD      H,(IX-03h)
1B62: 11 16 00                          LD      DE,0016h
1B65: 19                                ADD     HL,DE
1B66: 4E                                LD      C,(HL)
1B67: 23                                INC     HL
1B68: 46                                LD      B,(HL)
1B69: 23                                INC     HL
1B6A: 5E                                LD      E,(HL)
1B6B: 23                                INC     HL
1B6C: 56                                LD      D,(HL)
1B6D: D5                                PUSH    DE
1B6E: C5                                PUSH    BC
1B6F: DD 6E F7                          LD      L,(IX-09h)
1B72: DD 66 F8                          LD      H,(IX-08h)
1B75: E5                                PUSH    HL
1B76: CD 16 24                          CALL    L2416
1B79: F1                                POP     AF
1B7A: F1                                POP     AF
1B7B: F1                                POP     AF
1B7C: DD 75 F9                          LD      (IX-07h),L
1B7F: 7D                                LD      A,L
1B80: B7                                OR      A
1B81: 20 4F                             JR      NZ,L1BD2
1B83: DD 6E FA                          LD      L,(IX-06h)
1B86: DD 66 FB                          LD      H,(IX-05h)
1B89: 11 1A 00                          LD      DE,001Ah
1B8C: 19                                ADD     HL,DE
1B8D: 4E                                LD      C,(HL)
1B8E: 23                                INC     HL
1B8F: 46                                LD      B,(HL)
1B90: 0A                                LD      A,(BC)
1B91: FE E5                             CP      0E5h
1B93: 28 03                             JR      Z,L1B98
1B95: B7                                OR      A
1B96: 20 1C                             JR      NZ,L1BB4
1B98: DD 34 FE                   L1B98: INC     (IX-02h)
1B9B: 20 03                             JR      NZ,L1BA0
1B9D: DD 34 FF                          INC     (IX-01h)
1BA0: DD 7E FE                   L1BA0: LD      A,(IX-02h)
1BA3: DD 96 06                          SUB     (IX+06h)
1BA6: 20 13                             JR      NZ,L1BBB
1BA8: DD 7E FF                          LD      A,(IX-01h)
1BAB: DD 96 07                          SUB     (IX+07h)
1BAE: 28 22                             JR      Z,L1BD2
1BB0: 18 09                             JR      L1BBB

1BB2: 18                         L1BB2: DB      18h
1BB3: 1E                                DB      1Eh

1BB4: AF                         L1BB4: XOR     A
1BB5: DD 77 FE                          LD      (IX-02h),A
1BB8: DD 77 FF                          LD      (IX-01h),A
1BBB: 21 01 00                   L1BBB: LD      HL,0001h
1BBE: E5                                PUSH    HL
1BBF: DD 6E FA                          LD      L,(IX-06h)
1BC2: DD 66 FB                          LD      H,(IX-05h)
1BC5: E5                                PUSH    HL
1BC6: CD 88 40                          CALL    L4088
1BC9: F1                                POP     AF
1BCA: F1                                POP     AF
1BCB: DD 75 F9                          LD      (IX-07h),L
1BCE: 7D                                LD      A,L
1BCF: B7                                OR      A
1BD0: 28 8A                             JR      Z,L1B5C
1BD2: DD 7E F9                   L1BD2: LD      A,(IX-07h)
1BD5: D6 04                             SUB     04h
1BD7: 20 04                             JR      NZ,L1BDD
1BD9: DD 36 F9 07                       LD      (IX-07h),07h
1BDD: DD 6E F9                   L1BDD: LD      L,(IX-07h)
1BE0: DD F9                             LD      SP,IX
1BE2: DD E1                             POP     IX
1BE4: C9                                RET

                                        ; --- START PROC L1BE5 ---
1BE5: CD 06 15                   L1BE5: CALL    L1506
1BE8: 21 DC FF                          LD      HL,0FFDCh
1BEB: 39                                ADD     HL,SP
1BEC: F9                                LD      SP,HL
1BED: DD 7E 06                          LD      A,(IX+06h)
1BF0: DD 77 FC                          LD      (IX-04h),A
1BF3: DD 7E 07                          LD      A,(IX+07h)
1BF6: DD 77 FD                          LD      (IX-03h),A
1BF9: DD 6E FC                          LD      L,(IX-04h)
1BFC: DD 66 FD                          LD      H,(IX-03h)
1BFF: AF                                XOR     A
1C00: 77                                LD      (HL),A
1C01: 23                                INC     HL
1C02: 77                                LD      (HL),A
1C03: DD 6E 04                          LD      L,(IX+04h)
1C06: DD 66 05                          LD      H,(IX+05h)
1C09: E5                                PUSH    HL
1C0A: CD 81 3B                          CALL    L3B81
1C0D: F1                                POP     AF
1C0E: DD 75 FE                          LD      (IX-02h),L
1C11: DD 74 FF                          LD      (IX-01h),H
1C14: DD CB FF 7E                       BIT     7,(IX-01h)
1C18: 28 05                             JR      Z,L1C1F
1C1A: 2E 0B                             LD      L,0Bh
1C1C: C3 DA 23                          JP      L23DA

1C1F: 01 CF 72                   L1C1F: LD      BC,72CFh
1C22: DD 6E FE                          LD      L,(IX-02h)
1C25: DD 66 FF                          LD      H,(IX-01h)
1C28: 29                                ADD     HL,HL
1C29: 09                                ADD     HL,BC
1C2A: 7E                                LD      A,(HL)
1C2B: DD 77 E0                          LD      (IX-20h),A
1C2E: 23                                INC     HL
1C2F: 7E                                LD      A,(HL)
1C30: DD 77 E1                          LD      (IX-1Fh),A
1C33: DD B6 E0                          OR      (IX-20h)
1C36: 20 05                             JR      NZ,L1C3D
1C38: 2E 0C                             LD      L,0Ch
1C3A: C3 DA 23                          JP      L23DA

1C3D: DD 6E FC                   L1C3D: LD      L,(IX-04h)
1C40: DD 66 FD                          LD      H,(IX-03h)
1C43: DD 7E E0                          LD      A,(IX-20h)
1C46: 77                                LD      (HL),A
1C47: 23                                INC     HL
1C48: DD 7E E1                          LD      A,(IX-1Fh)
1C4B: 77                                LD      (HL),A
1C4C: DD 7E 08                          LD      A,(IX+08h)
1C4F: E6 FE                             AND     0FEh
1C51: DD 77 08                          LD      (IX+08h),A
1C54: DD 6E E0                          LD      L,(IX-20h)
1C57: DD 66 E1                          LD      H,(IX-1Fh)
1C5A: 7E                                LD      A,(HL)
1C5B: DD 4E E0                          LD      C,(IX-20h)
1C5E: DD 46 E1                          LD      B,(IX-1Fh)
1C61: 03                                INC     BC
1C62: B7                                OR      A
1C63: 28 21                             JR      Z,L1C86
1C65: 0A                                LD      A,(BC)
1C66: C5                                PUSH    BC
1C67: F5                                PUSH    AF
1C68: 33                                INC     SP
1C69: CD 56 03                          CALL    L0356
1C6C: 33                                INC     SP
1C6D: C1                                POP     BC
1C6E: CB 45                             BIT     0,L
1C70: 20 14                             JR      NZ,L1C86
1C72: DD 7E 08                          LD      A,(IX+08h)
1C75: B7                                OR      A
1C76: 28 09                             JR      Z,L1C81
1C78: CB 55                             BIT     2,L
1C7A: 28 05                             JR      Z,L1C81
1C7C: 2E 0A                             LD      L,0Ah
1C7E: C3 DA 23                          JP      L23DA

1C81: 2E 00                      L1C81: LD      L,00h
1C83: C3 DA 23                          JP      L23DA

1C86: DD 6E E0                   L1C86: LD      L,(IX-20h)
1C89: DD 66 E1                          LD      H,(IX-1Fh)
1C8C: 36 00                             LD      (HL),00h
1C8E: DD 7E FE                          LD      A,(IX-02h)
1C91: 02                                LD      (BC),A
1C92: F5                                PUSH    AF
1C93: 33                                INC     SP
1C94: CD 43 03                          CALL    L0343
1C97: 33                                INC     SP
1C98: CB 45                             BIT     0,L
1C9A: 28 05                             JR      Z,L1CA1
1C9C: 2E 03                             LD      L,03h
1C9E: C3 DA 23                          JP      L23DA

1CA1: DD 7E 08                   L1CA1: LD      A,(IX+08h)
1CA4: B7                                OR      A
1CA5: 28 09                             JR      Z,L1CB0
1CA7: CB 55                             BIT     2,L
1CA9: 28 05                             JR      Z,L1CB0
1CAB: 2E 0A                             LD      L,0Ah
1CAD: C3 DA 23                          JP      L23DA

1CB0: 21 00 00                   L1CB0: LD      HL,0000h
1CB3: E5                                PUSH    HL
1CB4: DD 6E E0                          LD      L,(IX-20h)
1CB7: DD 66 E1                          LD      H,(IX-1Fh)
1CBA: E5                                PUSH    HL
1CBB: CD 51 3F                          CALL    L3F51
1CBE: F1                                POP     AF
1CBF: F1                                POP     AF
1CC0: 7D                                LD      A,L
1CC1: D6 04                             SUB     04h
1CC3: B4                                OR      H
1CC4: 20 05                             JR      NZ,L1CCB
1CC6: 2E 01                             LD      L,01h
1CC8: C3 DA 23                          JP      L23DA

1CCB: 7D                         L1CCB: LD      A,L
1CCC: D6 02                             SUB     02h
1CCE: 7C                                LD      A,H
1CCF: DE 00                             SBC     A,00h
1CD1: 38 05                             JR      C,L1CD8
1CD3: 2E 0D                             LD      L,0Dh
1CD5: C3 DA 23                          JP      L23DA

1CD8: DD 6E E0                   L1CD8: LD      L,(IX-20h)
1CDB: DD 66 E1                          LD      H,(IX-1Fh)
1CDE: 11 2F 00                          LD      DE,002Fh
1CE1: 19                                ADD     HL,DE
1CE2: 7E                                LD      A,(HL)
1CE3: DD 77 E2                          LD      (IX-1Eh),A
1CE6: 23                                INC     HL
1CE7: 7E                                LD      A,(HL)
1CE8: DD 77 E3                          LD      (IX-1Dh),A
1CEB: 23                                INC     HL
1CEC: 7E                                LD      A,(HL)
1CED: DD 77 E4                          LD      (IX-1Ch),A
1CF0: 23                                INC     HL
1CF1: 7E                                LD      A,(HL)
1CF2: DD 77 E5                          LD      (IX-1Bh),A
1CF5: DD 7E E0                          LD      A,(IX-20h)
1CF8: C6 33                             ADD     A,33h   ; '3'
1CFA: DD 77 E6                          LD      (IX-1Ah),A
1CFD: DD 7E E1                          LD      A,(IX-1Fh)
1D00: CE 00                             ADC     A,00h
1D02: DD 77 E7                          LD      (IX-19h),A
1D05: DD 7E E6                          LD      A,(IX-1Ah)
1D08: C6 0B                             ADD     A,0Bh
1D0A: 4F                                LD      C,A
1D0B: DD 7E E7                          LD      A,(IX-19h)
1D0E: CE 00                             ADC     A,00h
1D10: 47                                LD      B,A
1D11: C5                                PUSH    BC
1D12: CD F7 23                          CALL    L23F7
1D15: F1                                POP     AF
1D16: 7D                                LD      A,L
1D17: B7                                OR      A
1D18: 20 05                             JR      NZ,L1D1F
1D1A: 7C                                LD      A,H
1D1B: D6 02                             SUB     02h
1D1D: 28 05                             JR      Z,L1D24
1D1F: 2E 0D                      L1D1F: LD      L,0Dh
1D21: C3 DA 23                          JP      L23DA

1D24: DD 7E E6                   L1D24: LD      A,(IX-1Ah)
1D27: C6 16                             ADD     A,16h
1D29: 4F                                LD      C,A
1D2A: DD 7E E7                          LD      A,(IX-19h)
1D2D: CE 00                             ADC     A,00h
1D2F: 47                                LD      B,A
1D30: C5                                PUSH    BC
1D31: CD F7 23                          CALL    L23F7
1D34: F1                                POP     AF
1D35: 4D                                LD      C,L
1D36: 44                                LD      B,H
1D37: 11 00 00                          LD      DE,0000h
1D3A: 7A                                LD      A,D
1D3B: B3                                OR      E
1D3C: B0                                OR      B
1D3D: B1                                OR      C
1D3E: 20 13                             JR      NZ,L1D53
1D40: DD 7E E6                          LD      A,(IX-1Ah)
1D43: C6 24                             ADD     A,24h   ; '$'
1D45: 4F                                LD      C,A
1D46: DD 7E E7                          LD      A,(IX-19h)
1D49: CE 00                             ADC     A,00h
1D4B: 47                                LD      B,A
1D4C: C5                                PUSH    BC
1D4D: CD 2B 13                          CALL    L132B
1D50: F1                                POP     AF
1D51: 4D                                LD      C,L
1D52: 44                                LD      B,H
1D53: DD 7E E0                   L1D53: LD      A,(IX-20h)
1D56: C6 1B                             ADD     A,1Bh
1D58: DD 77 E8                          LD      (IX-18h),A
1D5B: DD 7E E1                          LD      A,(IX-1Fh)
1D5E: CE 00                             ADC     A,00h
1D60: DD 77 E9                          LD      (IX-17h),A
1D63: DD 6E E8                          LD      L,(IX-18h)
1D66: DD 66 E9                          LD      H,(IX-17h)
1D69: 71                                LD      (HL),C
1D6A: 23                                INC     HL
1D6B: 70                                LD      (HL),B
1D6C: 23                                INC     HL
1D6D: 73                                LD      (HL),E
1D6E: 23                                INC     HL
1D6F: 72                                LD      (HL),D
1D70: DD 7E E0                          LD      A,(IX-20h)
1D73: C6 02                             ADD     A,02h
1D75: DD 77 FE                          LD      (IX-02h),A
1D78: DD 7E E1                          LD      A,(IX-1Fh)
1D7B: CE 00                             ADC     A,00h
1D7D: DD 77 FF                          LD      (IX-01h),A
1D80: DD 6E E6                          LD      L,(IX-1Ah)
1D83: DD 66 E7                          LD      H,(IX-19h)
1D86: C5                                PUSH    BC
1D87: 01 10 00                          LD      BC,0010h
1D8A: 09                                ADD     HL,BC
1D8B: C1                                POP     BC
1D8C: 7E                                LD      A,(HL)
1D8D: DD 6E FE                          LD      L,(IX-02h)
1D90: DD 66 FF                          LD      H,(IX-01h)
1D93: 77                                LD      (HL),A
1D94: DD 6E FE                          LD      L,(IX-02h)
1D97: DD 66 FF                          LD      H,(IX-01h)
1D9A: 6E                                LD      L,(HL)
1D9B: 3D                                DEC     A
1D9C: 28 0A                             JR      Z,L1DA8
1D9E: 7D                                LD      A,L
1D9F: D6 02                             SUB     02h
1DA1: 28 05                             JR      Z,L1DA8
1DA3: 2E 0D                             LD      L,0Dh
1DA5: C3 DA 23                          JP      L23DA

1DA8: DD 75 FC                   L1DA8: LD      (IX-04h),L
1DAB: AF                                XOR     A
1DAC: DD 77 FD                          LD      (IX-03h),A
1DAF: DD 77 FE                          LD      (IX-02h),A
1DB2: DD 77 FF                          LD      (IX-01h),A
1DB5: 6F                                LD      L,A
1DB6: 67                                LD      H,A
1DB7: E5                                PUSH    HL
1DB8: DD 6E FC                          LD      L,(IX-04h)
1DBB: DD 66 FD                          LD      H,(IX-03h)
1DBE: E5                                PUSH    HL
1DBF: D5                                PUSH    DE
1DC0: C5                                PUSH    BC
1DC1: CD 1A 50                          CALL    L501A
1DC4: F1                                POP     AF
1DC5: F1                                POP     AF
1DC6: F1                                POP     AF
1DC7: F1                                POP     AF
1DC8: DD 75 EA                          LD      (IX-16h),L
1DCB: DD 74 EB                          LD      (IX-15h),H
1DCE: DD 73 EC                          LD      (IX-14h),E
1DD1: DD 72 ED                          LD      (IX-13h),D
1DD4: DD 7E E0                          LD      A,(IX-20h)
1DD7: C6 09                             ADD     A,09h
1DD9: DD 77 FA                          LD      (IX-06h),A
1DDC: DD 7E E1                          LD      A,(IX-1Fh)
1DDF: CE 00                             ADC     A,00h
1DE1: DD 77 FB                          LD      (IX-05h),A
1DE4: DD 6E E6                          LD      L,(IX-1Ah)
1DE7: DD 66 E7                          LD      H,(IX-19h)
1DEA: 11 0D 00                          LD      DE,000Dh
1DED: 19                                ADD     HL,DE
1DEE: 5E                                LD      E,(HL)
1DEF: 16 00                             LD      D,00h
1DF1: DD 6E FA                          LD      L,(IX-06h)
1DF4: DD 66 FB                          LD      H,(IX-05h)
1DF7: 73                                LD      (HL),E
1DF8: 23                                INC     HL
1DF9: 72                                LD      (HL),D
1DFA: DD 6E FA                          LD      L,(IX-06h)
1DFD: DD 66 FB                          LD      H,(IX-05h)
1E00: 4E                                LD      C,(HL)
1E01: 23                                INC     HL
1E02: 46                                LD      B,(HL)
1E03: 7A                                LD      A,D
1E04: B3                                OR      E
1E05: 28 0B                             JR      Z,L1E12
1E07: 59                                LD      E,C
1E08: 50                                LD      D,B
1E09: 1B                                DEC     DE
1E0A: 79                                LD      A,C
1E0B: A3                                AND     E
1E0C: 4F                                LD      C,A
1E0D: 78                                LD      A,B
1E0E: A2                                AND     D
1E0F: B1                                OR      C
1E10: 28 05                             JR      Z,L1E17
1E12: 2E 0D                      L1E12: LD      L,0Dh
1E14: C3 DA 23                          JP      L23DA

1E17: DD 7E E0                   L1E17: LD      A,(IX-20h)
1E1A: C6 07                             ADD     A,07h
1E1C: DD 77 EE                          LD      (IX-12h),A
1E1F: DD 7E E1                          LD      A,(IX-1Fh)
1E22: CE 00                             ADC     A,00h
1E24: DD 77 EF                          LD      (IX-11h),A
1E27: DD 7E E6                          LD      A,(IX-1Ah)
1E2A: C6 11                             ADD     A,11h
1E2C: 4F                                LD      C,A
1E2D: DD 7E E7                          LD      A,(IX-19h)
1E30: CE 00                             ADC     A,00h
1E32: 47                                LD      B,A
1E33: C5                                PUSH    BC
1E34: CD F7 23                          CALL    L23F7
1E37: F1                                POP     AF
1E38: 4D                                LD      C,L
1E39: 44                                LD      B,H
1E3A: DD 6E EE                          LD      L,(IX-12h)
1E3D: DD 66 EF                          LD      H,(IX-11h)
1E40: 71                                LD      (HL),C
1E41: 23                                INC     HL
1E42: 70                                LD      (HL),B
1E43: 79                                LD      A,C
1E44: E6 0F                             AND     0Fh
1E46: 28 05                             JR      Z,L1E4D
1E48: 2E 0D                             LD      L,0Dh
1E4A: C3 DA 23                          JP      L23DA

1E4D: DD 7E E6                   L1E4D: LD      A,(IX-1Ah)
1E50: C6 13                             ADD     A,13h
1E52: 4F                                LD      C,A
1E53: DD 7E E7                          LD      A,(IX-19h)
1E56: CE 00                             ADC     A,00h
1E58: 47                                LD      B,A
1E59: C5                                PUSH    BC
1E5A: CD F7 23                          CALL    L23F7
1E5D: F1                                POP     AF
1E5E: 4D                                LD      C,L
1E5F: 44                                LD      B,H
1E60: 11 00 00                          LD      DE,0000h
1E63: 7A                                LD      A,D
1E64: B3                                OR      E
1E65: B0                                OR      B
1E66: B1                                OR      C
1E67: 20 13                             JR      NZ,L1E7C
1E69: DD 7E E6                          LD      A,(IX-1Ah)
1E6C: C6 20                             ADD     A,20h   ; ' '
1E6E: 4F                                LD      C,A
1E6F: DD 7E E7                          LD      A,(IX-19h)
1E72: CE 00                             ADC     A,00h
1E74: 47                                LD      B,A
1E75: C5                                PUSH    BC
1E76: CD 2B 13                          CALL    L132B
1E79: F1                                POP     AF
1E7A: 4D                                LD      C,L
1E7B: 44                                LD      B,H
1E7C: DD 7E E6                   L1E7C: LD      A,(IX-1Ah)
1E7F: C6 0E                             ADD     A,0Eh
1E81: 6F                                LD      L,A
1E82: DD 7E E7                          LD      A,(IX-19h)
1E85: CE 00                             ADC     A,00h
1E87: 67                                LD      H,A
1E88: C5                                PUSH    BC
1E89: D5                                PUSH    DE
1E8A: E5                                PUSH    HL
1E8B: CD F7 23                          CALL    L23F7
1E8E: F1                                POP     AF
1E8F: D1                                POP     DE
1E90: C1                                POP     BC
1E91: DD 75 FE                          LD      (IX-02h),L
1E94: DD 74 FF                          LD      (IX-01h),H
1E97: 7C                                LD      A,H
1E98: B5                                OR      L
1E99: 20 05                             JR      NZ,L1EA0
1E9B: 2E 0D                             LD      L,0Dh
1E9D: C3 DA 23                          JP      L23DA

1EA0: DD 7E FE                   L1EA0: LD      A,(IX-02h)
1EA3: DD 77 F0                          LD      (IX-10h),A
1EA6: DD 7E FF                          LD      A,(IX-01h)
1EA9: DD 77 F1                          LD      (IX-0Fh),A
1EAC: AF                                XOR     A
1EAD: DD 77 F2                          LD      (IX-0Eh),A
1EB0: DD 77 F3                          LD      (IX-0Dh),A
1EB3: DD 7E F0                          LD      A,(IX-10h)
1EB6: DD 86 EA                          ADD     A,(IX-16h)
1EB9: DD 77 DC                          LD      (IX-24h),A
1EBC: DD 7E F1                          LD      A,(IX-0Fh)
1EBF: DD 8E EB                          ADC     A,(IX-15h)
1EC2: DD 77 DD                          LD      (IX-23h),A
1EC5: DD 7E F2                          LD      A,(IX-0Eh)
1EC8: DD 8E EC                          ADC     A,(IX-14h)
1ECB: DD 77 DE                          LD      (IX-22h),A
1ECE: DD 7E F3                          LD      A,(IX-0Dh)
1ED1: DD 8E ED                          ADC     A,(IX-13h)
1ED4: DD 77 DF                          LD      (IX-21h),A
1ED7: DD 6E EE                          LD      L,(IX-12h)
1EDA: DD 66 EF                          LD      H,(IX-11h)
1EDD: 7E                                LD      A,(HL)
1EDE: 23                                INC     HL
1EDF: 66                                LD      H,(HL)
1EE0: 6F                                LD      L,A
1EE1: 3E 04                             LD      A,04h
1EE3: CB 3C                      L1EE3: SRL     H
1EE5: CB 1D                             RR      L
1EE7: 3D                                DEC     A
1EE8: 20 F9                             JR      NZ,L1EE3
1EEA: DD 75 F6                          LD      (IX-0Ah),L
1EED: DD 74 F7                          LD      (IX-09h),H
1EF0: AF                                XOR     A
1EF1: DD 77 F8                          LD      (IX-08h),A
1EF4: DD 77 F9                          LD      (IX-07h),A
1EF7: DD 7E DC                          LD      A,(IX-24h)
1EFA: DD 86 F6                          ADD     A,(IX-0Ah)
1EFD: DD 77 FC                          LD      (IX-04h),A
1F00: DD 7E DD                          LD      A,(IX-23h)
1F03: DD 8E F7                          ADC     A,(IX-09h)
1F06: DD 77 FD                          LD      (IX-03h),A
1F09: DD 7E DE                          LD      A,(IX-22h)
1F0C: DD 8E F8                          ADC     A,(IX-08h)
1F0F: DD 77 FE                          LD      (IX-02h),A
1F12: DD 7E DF                          LD      A,(IX-21h)
1F15: DD 8E F9                          ADC     A,(IX-07h)
1F18: DD 77 FF                          LD      (IX-01h),A
1F1B: D5                                PUSH    DE
1F1C: C5                                PUSH    BC
1F1D: 21 1C 00                          LD      HL,001Ch
1F20: 39                                ADD     HL,SP
1F21: EB                                EX      DE,HL
1F22: 21 24 00                          LD      HL,0024h
1F25: 39                                ADD     HL,SP
1F26: 01 04 00                          LD      BC,0004h
1F29: ED B0                             LDIR
1F2B: C1                                POP     BC
1F2C: D1                                POP     DE
1F2D: 79                                LD      A,C
1F2E: DD 96 F4                          SUB     (IX-0Ch)
1F31: 78                                LD      A,B
1F32: DD 9E F5                          SBC     A,(IX-0Bh)
1F35: 7B                                LD      A,E
1F36: DD 9E F6                          SBC     A,(IX-0Ah)
1F39: 7A                                LD      A,D
1F3A: DD 9E F7                          SBC     A,(IX-09h)
1F3D: 30 05                             JR      NC,L1F44
1F3F: 2E 0D                             LD      L,0Dh
1F41: C3 DA 23                          JP      L23DA

1F44: 79                         L1F44: LD      A,C
1F45: DD 96 F4                          SUB     (IX-0Ch)
1F48: DD 77 FC                          LD      (IX-04h),A
1F4B: 78                                LD      A,B
1F4C: DD 9E F5                          SBC     A,(IX-0Bh)
1F4F: DD 77 FD                          LD      (IX-03h),A
1F52: 7B                                LD      A,E
1F53: DD 9E F6                          SBC     A,(IX-0Ah)
1F56: DD 77 FE                          LD      (IX-02h),A
1F59: 7A                                LD      A,D
1F5A: DD 9E F7                          SBC     A,(IX-09h)
1F5D: DD 77 FF                          LD      (IX-01h),A
1F60: DD 6E FA                          LD      L,(IX-06h)
1F63: DD 66 FB                          LD      H,(IX-05h)
1F66: 4E                                LD      C,(HL)
1F67: 23                                INC     HL
1F68: 46                                LD      B,(HL)
1F69: 11 00 00                          LD      DE,0000h
1F6C: D5                                PUSH    DE
1F6D: C5                                PUSH    BC
1F6E: DD 6E FE                          LD      L,(IX-02h)
1F71: DD 66 FF                          LD      H,(IX-01h)
1F74: E5                                PUSH    HL
1F75: DD 6E FC                          LD      L,(IX-04h)
1F78: DD 66 FD                          LD      H,(IX-03h)
1F7B: E5                                PUSH    HL
1F7C: CD 98 51                          CALL    L5198
1F7F: F1                                POP     AF
1F80: F1                                POP     AF
1F81: F1                                POP     AF
1F82: F1                                POP     AF
1F83: 4D                                LD      C,L
1F84: 44                                LD      B,H
1F85: 7A                                LD      A,D
1F86: B3                                OR      E
1F87: B0                                OR      B
1F88: B1                                OR      C
1F89: 20 05                             JR      NZ,L1F90
1F8B: 2E 0D                             LD      L,0Dh
1F8D: C3 DA 23                          JP      L23DA

1F90: AF                         L1F90: XOR     A
1F91: DD 77 F8                          LD      (IX-08h),A
1F94: DD 77 F9                          LD      (IX-07h),A
1F97: 3E F5                             LD      A,0F5h
1F99: B9                                CP      C
1F9A: 3E FF                             LD      A,0FFh
1F9C: 98                                SBC     A,B
1F9D: 21 FF 0F                          LD      HL,0FFFh
1FA0: ED 52                             SBC     HL,DE
1FA2: 38 08                             JR      C,L1FAC
1FA4: DD 36 F8 03                       LD      (IX-08h),03h
1FA8: AF                                XOR     A
1FA9: DD 77 F9                          LD      (IX-07h),A
1FAC: 3E F5                      L1FAC: LD      A,0F5h
1FAE: B9                                CP      C
1FAF: 3E FF                             LD      A,0FFh
1FB1: 98                                SBC     A,B
1FB2: 21 00 00                          LD      HL,0000h
1FB5: ED 52                             SBC     HL,DE
1FB7: 38 08                             JR      C,L1FC1
1FB9: DD 36 F8 02                       LD      (IX-08h),02h
1FBD: AF                                XOR     A
1FBE: DD 77 F9                          LD      (IX-07h),A
1FC1: 3E F5                      L1FC1: LD      A,0F5h
1FC3: B9                                CP      C
1FC4: 3E 0F                             LD      A,0Fh
1FC6: 98                                SBC     A,B
1FC7: 21 00 00                          LD      HL,0000h
1FCA: ED 52                             SBC     HL,DE
1FCC: 38 08                             JR      C,L1FD6
1FCE: DD 36 F8 01                       LD      (IX-08h),01h
1FD2: AF                                XOR     A
1FD3: DD 77 F9                          LD      (IX-07h),A
1FD6: DD 7E F9                   L1FD6: LD      A,(IX-07h)
1FD9: DD B6 F8                          OR      (IX-08h)
1FDC: 20 05                             JR      NZ,L1FE3
1FDE: 2E 0D                             LD      L,0Dh
1FE0: C3 DA 23                          JP      L23DA

1FE3: DD 7E E0                   L1FE3: LD      A,(IX-20h)
1FE6: C6 17                             ADD     A,17h
1FE8: DD 77 FA                          LD      (IX-06h),A
1FEB: DD 7E E1                          LD      A,(IX-1Fh)
1FEE: CE 00                             ADC     A,00h
1FF0: DD 77 FB                          LD      (IX-05h),A
1FF3: 79                                LD      A,C
1FF4: C6 02                             ADD     A,02h
1FF6: 4F                                LD      C,A
1FF7: 78                                LD      A,B
1FF8: CE 00                             ADC     A,00h
1FFA: 47                                LD      B,A
1FFB: 30 01                             JR      NC,L1FFE
1FFD: 13                                INC     DE
1FFE: DD 6E FA                   L1FFE: LD      L,(IX-06h)
2001: DD 66 FB                          LD      H,(IX-05h)
2004: 71                                LD      (HL),C
2005: 23                                INC     HL
2006: 70                                LD      (HL),B
2007: 23                                INC     HL
2008: 73                                LD      (HL),E
2009: 23                                INC     HL
200A: 72                                LD      (HL),D
200B: DD 7E E0                          LD      A,(IX-20h)
200E: C6 1F                             ADD     A,1Fh
2010: 5F                                LD      E,A
2011: DD 7E E1                          LD      A,(IX-1Fh)
2014: CE 00                             ADC     A,00h
2016: 57                                LD      D,A
2017: 21 06 00                          LD      HL,0006h
201A: 39                                ADD     HL,SP
201B: 01 04 00                          LD      BC,0004h
201E: ED B0                             LDIR
2020: DD 7E E0                          LD      A,(IX-20h)
2023: C6 23                             ADD     A,23h   ; '#'
2025: 4F                                LD      C,A
2026: DD 7E E1                          LD      A,(IX-1Fh)
2029: CE 00                             ADC     A,00h
202B: 47                                LD      B,A
202C: DD 7E F0                          LD      A,(IX-10h)
202F: DD 86 E2                          ADD     A,(IX-1Eh)
2032: DD 77 FC                          LD      (IX-04h),A
2035: DD 7E F1                          LD      A,(IX-0Fh)
2038: DD 8E E3                          ADC     A,(IX-1Dh)
203B: DD 77 FD                          LD      (IX-03h),A
203E: DD 7E F2                          LD      A,(IX-0Eh)
2041: DD 8E E4                          ADC     A,(IX-1Ch)
2044: DD 77 FE                          LD      (IX-02h),A
2047: DD 7E F3                          LD      A,(IX-0Dh)
204A: DD 8E E5                          ADC     A,(IX-1Bh)
204D: DD 77 FF                          LD      (IX-01h),A
2050: C5                                PUSH    BC
2051: 59                                LD      E,C
2052: 50                                LD      D,B
2053: 21 22 00                          LD      HL,0022h
2056: 39                                ADD     HL,SP
2057: 01 04 00                          LD      BC,0004h
205A: ED B0                             LDIR
205C: C1                                POP     BC
205D: DD 7E E0                          LD      A,(IX-20h)
2060: C6 2B                             ADD     A,2Bh   ; '+'
2062: 5F                                LD      E,A
2063: DD 7E E1                          LD      A,(IX-1Fh)
2066: CE 00                             ADC     A,00h
2068: 57                                LD      D,A
2069: DD 7E F4                          LD      A,(IX-0Ch)
206C: DD 86 E2                          ADD     A,(IX-1Eh)
206F: DD 77 FC                          LD      (IX-04h),A
2072: DD 7E F5                          LD      A,(IX-0Bh)
2075: DD 8E E3                          ADC     A,(IX-1Dh)
2078: DD 77 FD                          LD      (IX-03h),A
207B: DD 7E F6                          LD      A,(IX-0Ah)
207E: DD 8E E4                          ADC     A,(IX-1Ch)
2081: DD 77 FE                          LD      (IX-02h),A
2084: DD 7E F7                          LD      A,(IX-09h)
2087: DD 8E E5                          ADC     A,(IX-1Bh)
208A: DD 77 FF                          LD      (IX-01h),A
208D: C5                                PUSH    BC
208E: 21 22 00                          LD      HL,0022h
2091: 39                                ADD     HL,SP
2092: 01 04 00                          LD      BC,0004h
2095: ED B0                             LDIR
2097: C1                                POP     BC
2098: DD 7E F8                          LD      A,(IX-08h)
209B: D6 03                             SUB     03h
209D: DD B6 F9                          OR      (IX-07h)
20A0: 3E 01                             LD      A,01h
20A2: 28 01                             JR      Z,L20A5
20A4: AF                                XOR     A
20A5: DD 77 FF                   L20A5: LD      (IX-01h),A
20A8: DD 7E E0                          LD      A,(IX-20h)
20AB: C6 27                             ADD     A,27h   ; '''
20AD: 5F                                LD      E,A
20AE: DD 7E E1                          LD      A,(IX-1Fh)
20B1: CE 00                             ADC     A,00h
20B3: 57                                LD      D,A
20B4: DD 7E FF                          LD      A,(IX-01h)
20B7: B7                                OR      A
20B8: CA 3F 21                          JP      Z,L213F
20BB: DD 7E E6                          LD      A,(IX-1Ah)
20BE: C6 2A                             ADD     A,2Ah   ; '*'
20C0: 4F                                LD      C,A
20C1: DD 7E E7                          LD      A,(IX-19h)
20C4: CE 00                             ADC     A,00h
20C6: 47                                LD      B,A
20C7: D5                                PUSH    DE
20C8: C5                                PUSH    BC
20C9: CD F7 23                          CALL    L23F7
20CC: F1                                POP     AF
20CD: D1                                POP     DE
20CE: 7C                                LD      A,H
20CF: B5                                OR      L
20D0: 28 05                             JR      Z,L20D7
20D2: 2E 0D                             LD      L,0Dh
20D4: C3 DA 23                          JP      L23DA

20D7: DD 6E EE                   L20D7: LD      L,(IX-12h)
20DA: DD 66 EF                          LD      H,(IX-11h)
20DD: 7E                                LD      A,(HL)
20DE: 23                                INC     HL
20DF: B6                                OR      (HL)
20E0: 28 05                             JR      Z,L20E7
20E2: 2E 0D                             LD      L,0Dh
20E4: C3 DA 23                          JP      L23DA

20E7: DD 7E E6                   L20E7: LD      A,(IX-1Ah)
20EA: C6 2C                             ADD     A,2Ch   ; ','
20EC: 4F                                LD      C,A
20ED: DD 7E E7                          LD      A,(IX-19h)
20F0: CE 00                             ADC     A,00h
20F2: 47                                LD      B,A
20F3: D5                                PUSH    DE
20F4: C5                                PUSH    BC
20F5: CD 2B 13                          CALL    L132B
20F8: F1                                POP     AF
20F9: DD 75 F4                          LD      (IX-0Ch),L
20FC: DD 74 F5                          LD      (IX-0Bh),H
20FF: DD 73 F6                          LD      (IX-0Ah),E
2102: DD 72 F7                          LD      (IX-09h),D
2105: D1                                POP     DE
2106: 21 18 00                          LD      HL,0018h
2109: 39                                ADD     HL,SP
210A: 01 04 00                          LD      BC,0004h
210D: ED B0                             LDIR
210F: DD 6E FA                          LD      L,(IX-06h)
2112: DD 66 FB                          LD      H,(IX-05h)
2115: 4E                                LD      C,(HL)
2116: 23                                INC     HL
2117: 46                                LD      B,(HL)
2118: 23                                INC     HL
2119: 5E                                LD      E,(HL)
211A: 23                                INC     HL
211B: 56                                LD      D,(HL)
211C: DD 71 F4                          LD      (IX-0Ch),C
211F: DD 70 F5                          LD      (IX-0Bh),B
2122: DD 73 F6                          LD      (IX-0Ah),E
2125: DD 72 F7                          LD      (IX-09h),D
2128: 06 02                             LD      B,02h
212A: DD CB F4 26                L212A: SLA     (IX-0Ch)
212E: DD CB F5 16                       RL      (IX-0Bh)
2132: DD CB F6 16                       RL      (IX-0Ah)
2136: DD CB F7 16                       RL      (IX-09h)
213A: 10 EE                             DJNZ    L212A
213C: C3 0A 22                          JP      L220A

213F: DD 6E EE                   L213F: LD      L,(IX-12h)
2142: DD 66 EF                          LD      H,(IX-11h)
2145: 23                                INC     HL
2146: 7E                                LD      A,(HL)
2147: 2B                                DEC     HL
2148: 6E                                LD      L,(HL)
2149: B5                                OR      L
214A: 20 05                             JR      NZ,L2151
214C: 2E 0D                             LD      L,0Dh
214E: C3 DA 23                          JP      L23DA

2151: 69                         L2151: LD      L,C
2152: 60                                LD      H,B
2153: 4E                                LD      C,(HL)
2154: 23                                INC     HL
2155: 46                                LD      B,(HL)
2156: 23                                INC     HL
2157: 23                                INC     HL
2158: 7E                                LD      A,(HL)
2159: 2B                                DEC     HL
215A: 6E                                LD      L,(HL)
215B: 67                                LD      H,A
215C: 79                                LD      A,C
215D: DD 86 EA                          ADD     A,(IX-16h)
2160: DD 77 F4                          LD      (IX-0Ch),A
2163: 78                                LD      A,B
2164: DD 8E EB                          ADC     A,(IX-15h)
2167: DD 77 F5                          LD      (IX-0Bh),A
216A: 7D                                LD      A,L
216B: DD 8E EC                          ADC     A,(IX-14h)
216E: DD 77 F6                          LD      (IX-0Ah),A
2171: 7C                                LD      A,H
2172: DD 8E ED                          ADC     A,(IX-13h)
2175: DD 77 F7                          LD      (IX-09h),A
2178: 21 18 00                          LD      HL,0018h
217B: 39                                ADD     HL,SP
217C: 01 04 00                          LD      BC,0004h
217F: ED B0                             LDIR
2181: DD 5E FA                          LD      E,(IX-06h)
2184: DD 56 FB                          LD      D,(IX-05h)
2187: 21 18 00                          LD      HL,0018h
218A: 39                                ADD     HL,SP
218B: EB                                EX      DE,HL
218C: 01 04 00                          LD      BC,0004h
218F: ED B0                             LDIR
2191: DD 7E F8                          LD      A,(IX-08h)
2194: D6 02                             SUB     02h
2196: DD B6 F9                          OR      (IX-07h)
2199: 20 16                             JR      NZ,L21B1
219B: DD 4E F4                          LD      C,(IX-0Ch)
219E: DD 46 F5                          LD      B,(IX-0Bh)
21A1: DD 5E F6                          LD      E,(IX-0Ah)
21A4: DD 56 F7                          LD      D,(IX-09h)
21A7: CB 21                             SLA     C
21A9: CB 10                             RL      B
21AB: CB 13                             RL      E
21AD: CB 12                             RL      D
21AF: 18 4D                             JR      L21FE

21B1: DD 6E F6                   L21B1: LD      L,(IX-0Ah)
21B4: DD 66 F7                          LD      H,(IX-09h)
21B7: E5                                PUSH    HL
21B8: DD 6E F4                          LD      L,(IX-0Ch)
21BB: DD 66 F5                          LD      H,(IX-0Bh)
21BE: E5                                PUSH    HL
21BF: 21 00 00                          LD      HL,0000h
21C2: E5                                PUSH    HL
21C3: 21 03 00                          LD      HL,0003h
21C6: E5                                PUSH    HL
21C7: CD 1A 50                          CALL    L501A
21CA: F1                                POP     AF
21CB: F1                                POP     AF
21CC: F1                                POP     AF
21CD: F1                                POP     AF
21CE: CB 3A                             SRL     D
21D0: CB 1B                             RR      E
21D2: CB 1C                             RR      H
21D4: CB 1D                             RR      L
21D6: DD 7E F4                          LD      A,(IX-0Ch)
21D9: E6 01                             AND     01h
21DB: DD 77 FB                          LD      (IX-05h),A
21DE: DD 36 FC 00                       LD      (IX-04h),00h
21E2: DD 36 FD 00                       LD      (IX-03h),00h
21E6: DD 36 FE 00                       LD      (IX-02h),00h
21EA: 7D                                LD      A,L
21EB: DD 86 FB                          ADD     A,(IX-05h)
21EE: 4F                                LD      C,A
21EF: 7C                                LD      A,H
21F0: DD 8E FC                          ADC     A,(IX-04h)
21F3: 47                                LD      B,A
21F4: 7B                                LD      A,E
21F5: DD 8E FD                          ADC     A,(IX-03h)
21F8: 5F                                LD      E,A
21F9: 7A                                LD      A,D
21FA: DD 8E FE                          ADC     A,(IX-02h)
21FD: 57                                LD      D,A
21FE: DD 71 F4                   L21FE: LD      (IX-0Ch),C
2201: DD 70 F5                          LD      (IX-0Bh),B
2204: DD 73 F6                          LD      (IX-0Ah),E
2207: DD 72 F7                          LD      (IX-09h),D
220A: DD 5E E8                   L220A: LD      E,(IX-18h)
220D: DD 56 E9                          LD      D,(IX-17h)
2210: 21 1F 00                          LD      HL,001Fh
2213: 39                                ADD     HL,SP
2214: EB                                EX      DE,HL
2215: 01 04 00                          LD      BC,0004h
2218: ED B0                             LDIR
221A: DD 7E F4                          LD      A,(IX-0Ch)
221D: C6 FF                             ADD     A,0FFh
221F: DD 7E F5                          LD      A,(IX-0Bh)
2222: CE 01                             ADC     A,01h
2224: 47                                LD      B,A
2225: DD 7E F6                          LD      A,(IX-0Ah)
2228: CE 00                             ADC     A,00h
222A: 5F                                LD      E,A
222B: DD 7E F7                          LD      A,(IX-09h)
222E: CE 00                             ADC     A,00h
2230: 6F                                LD      L,A
2231: 48                                LD      C,B
2232: 43                                LD      B,E
2233: 26 00                             LD      H,00h
2235: CB 3D                             SRL     L
2237: CB 18                             RR      B
2239: CB 19                             RR      C
223B: DD 7E FB                          LD      A,(IX-05h)
223E: 91                                SUB     C
223F: DD 7E FC                          LD      A,(IX-04h)
2242: 98                                SBC     A,B
2243: DD 7E FD                          LD      A,(IX-03h)
2246: 9D                                SBC     A,L
2247: DD 7E FE                          LD      A,(IX-02h)
224A: 9C                                SBC     A,H
224B: 30 05                             JR      NC,L2252
224D: 2E 0D                             LD      L,0Dh
224F: C3 DA 23                          JP      L23DA

2252: DD 7E E0                   L2252: LD      A,(IX-20h)
2255: C6 0B                             ADD     A,0Bh
2257: DD 77 FB                          LD      (IX-05h),A
225A: DD 7E E1                          LD      A,(IX-1Fh)
225D: CE 00                             ADC     A,00h
225F: DD 77 FC                          LD      (IX-04h),A
2262: DD 7E E0                          LD      A,(IX-20h)
2265: C6 0F                             ADD     A,0Fh
2267: DD 77 FD                          LD      (IX-03h),A
226A: DD 7E E1                          LD      A,(IX-1Fh)
226D: CE 00                             ADC     A,00h
226F: DD 77 FE                          LD      (IX-02h),A
2272: DD 6E FD                          LD      L,(IX-03h)
2275: DD 66 FE                          LD      H,(IX-02h)
2278: 36 FF                             LD      (HL),0FFh
227A: 23                                INC     HL
227B: 36 FF                             LD      (HL),0FFh
227D: 23                                INC     HL
227E: 36 FF                             LD      (HL),0FFh
2280: 23                                INC     HL
2281: 36 FF                             LD      (HL),0FFh
2283: DD 6E FB                          LD      L,(IX-05h)
2286: DD 66 FC                          LD      H,(IX-04h)
2289: 36 FF                             LD      (HL),0FFh
228B: 23                                INC     HL
228C: 36 FF                             LD      (HL),0FFh
228E: 23                                INC     HL
228F: 36 FF                             LD      (HL),0FFh
2291: 23                                INC     HL
2292: 36 FF                             LD      (HL),0FFh
2294: DD 7E E0                          LD      A,(IX-20h)
2297: C6 04                             ADD     A,04h
2299: 4F                                LD      C,A
229A: DD 7E E1                          LD      A,(IX-1Fh)
229D: CE 00                             ADC     A,00h
229F: 47                                LD      B,A
22A0: 3E 80                             LD      A,80h
22A2: 02                                LD      (BC),A
22A3: DD 7E FF                          LD      A,(IX-01h)
22A6: B7                                OR      A
22A7: CA 9A 23                          JP      Z,L239A
22AA: DD 7E E6                          LD      A,(IX-1Ah)
22AD: C6 30                             ADD     A,30h   ; '0'
22AF: 5F                                LD      E,A
22B0: DD 7E E7                          LD      A,(IX-19h)
22B3: CE 00                             ADC     A,00h
22B5: 57                                LD      D,A
22B6: C5                                PUSH    BC
22B7: D5                                PUSH    DE
22B8: CD F7 23                          CALL    L23F7
22BB: F1                                POP     AF
22BC: C1                                POP     BC
22BD: 7D                                LD      A,L
22BE: 3D                                DEC     A
22BF: B4                                OR      H
22C0: C2 9A 23                          JP      NZ,L239A
22C3: DD 7E E2                          LD      A,(IX-1Eh)
22C6: C6 01                             ADD     A,01h
22C8: 5F                                LD      E,A
22C9: DD 7E E3                          LD      A,(IX-1Dh)
22CC: CE 00                             ADC     A,00h
22CE: 57                                LD      D,A
22CF: DD 7E E4                          LD      A,(IX-1Ch)
22D2: CE 00                             ADC     A,00h
22D4: 6F                                LD      L,A
22D5: DD 7E E5                          LD      A,(IX-1Bh)
22D8: CE 00                             ADC     A,00h
22DA: 67                                LD      H,A
22DB: C5                                PUSH    BC
22DC: E5                                PUSH    HL
22DD: D5                                PUSH    DE
22DE: DD 6E E0                          LD      L,(IX-20h)
22E1: DD 66 E1                          LD      H,(IX-1Fh)
22E4: E5                                PUSH    HL
22E5: CD 16 24                          CALL    L2416
22E8: F1                                POP     AF
22E9: F1                                POP     AF
22EA: F1                                POP     AF
22EB: 7D                                LD      A,L
22EC: C1                                POP     BC
22ED: B7                                OR      A
22EE: C2 9A 23                          JP      NZ,L239A
22F1: AF                                XOR     A
22F2: 02                                LD      (BC),A
22F3: DD 7E E6                          LD      A,(IX-1Ah)
22F6: C6 FE                             ADD     A,0FEh
22F8: 4F                                LD      C,A
22F9: DD 7E E7                          LD      A,(IX-19h)
22FC: CE 01                             ADC     A,01h
22FE: 47                                LD      B,A
22FF: C5                                PUSH    BC
2300: CD F7 23                          CALL    L23F7
2303: F1                                POP     AF
2304: 7D                                LD      A,L
2305: D6 55                             SUB     55h     ; 'U'
2307: C2 9A 23                          JP      NZ,L239A
230A: 7C                                LD      A,H
230B: D6 AA                             SUB     0AAh
230D: C2 9A 23                          JP      NZ,L239A
2310: DD 7E E0                          LD      A,(IX-20h)
2313: C6 33                             ADD     A,33h   ; '3'
2315: 4F                                LD      C,A
2316: DD 7E E1                          LD      A,(IX-1Fh)
2319: CE 00                             ADC     A,00h
231B: 47                                LD      B,A
231C: C5                                PUSH    BC
231D: CD 2B 13                          CALL    L132B
2320: F1                                POP     AF
2321: 7D                                LD      A,L
2322: D6 52                             SUB     52h     ; 'R'
2324: 20 74                             JR      NZ,L239A
2326: 7C                                LD      A,H
2327: D6 52                             SUB     52h     ; 'R'
2329: 20 6F                             JR      NZ,L239A
232B: 7B                                LD      A,E
232C: D6 61                             SUB     61h     ; 'a'
232E: 20 6A                             JR      NZ,L239A
2330: 7A                                LD      A,D
2331: D6 41                             SUB     41h     ; 'A'
2333: 20 65                             JR      NZ,L239A
2335: DD 7E E6                          LD      A,(IX-1Ah)
2338: C6 E4                             ADD     A,0E4h
233A: 4F                                LD      C,A
233B: DD 7E E7                          LD      A,(IX-19h)
233E: CE 01                             ADC     A,01h
2340: 47                                LD      B,A
2341: C5                                PUSH    BC
2342: CD 2B 13                          CALL    L132B
2345: F1                                POP     AF
2346: 7D                                LD      A,L
2347: D6 72                             SUB     72h     ; 'r'
2349: 20 4F                             JR      NZ,L239A
234B: 7C                                LD      A,H
234C: D6 72                             SUB     72h     ; 'r'
234E: 20 4A                             JR      NZ,L239A
2350: 7B                                LD      A,E
2351: D6 41                             SUB     41h     ; 'A'
2353: 20 45                             JR      NZ,L239A
2355: 7A                                LD      A,D
2356: D6 61                             SUB     61h     ; 'a'
2358: 20 40                             JR      NZ,L239A
235A: DD 7E E6                          LD      A,(IX-1Ah)
235D: C6 E8                             ADD     A,0E8h
235F: 4F                                LD      C,A
2360: DD 7E E7                          LD      A,(IX-19h)
2363: CE 01                             ADC     A,01h
2365: 47                                LD      B,A
2366: C5                                PUSH    BC
2367: CD 2B 13                          CALL    L132B
236A: F1                                POP     AF
236B: 4D                                LD      C,L
236C: 44                                LD      B,H
236D: DD 6E FD                          LD      L,(IX-03h)
2370: DD 66 FE                          LD      H,(IX-02h)
2373: 71                                LD      (HL),C
2374: 23                                INC     HL
2375: 70                                LD      (HL),B
2376: 23                                INC     HL
2377: 73                                LD      (HL),E
2378: 23                                INC     HL
2379: 72                                LD      (HL),D
237A: DD 7E E6                          LD      A,(IX-1Ah)
237D: C6 EC                             ADD     A,0ECh
237F: 4F                                LD      C,A
2380: DD 7E E7                          LD      A,(IX-19h)
2383: CE 01                             ADC     A,01h
2385: 47                                LD      B,A
2386: C5                                PUSH    BC
2387: CD 2B 13                          CALL    L132B
238A: F1                                POP     AF
238B: 4D                                LD      C,L
238C: 44                                LD      B,H
238D: DD 6E FB                          LD      L,(IX-05h)
2390: DD 66 FC                          LD      H,(IX-04h)
2393: 71                                LD      (HL),C
2394: 23                                INC     HL
2395: 70                                LD      (HL),B
2396: 23                                INC     HL
2397: 73                                LD      (HL),E
2398: 23                                INC     HL
2399: 72                                LD      (HL),D
239A: DD 7E F8                   L239A: LD      A,(IX-08h)
239D: DD 6E E0                          LD      L,(IX-20h)
23A0: DD 66 E1                          LD      H,(IX-1Fh)
23A3: 77                                LD      (HL),A
23A4: DD 7E E0                          LD      A,(IX-20h)
23A7: C6 05                             ADD     A,05h
23A9: 4F                                LD      C,A
23AA: DD 7E E1                          LD      A,(IX-1Fh)
23AD: CE 00                             ADC     A,00h
23AF: 47                                LD      B,A
23B0: 2A D1 72                          LD      HL,(72D1h)
23B3: 23                                INC     HL
23B4: 22 D1 72                          LD      (72D1h),HL
23B7: FD 21 D1 72                       LD      IY,72D1h
23BB: FD 7E 00                          LD      A,(IY+00h)
23BE: 02                                LD      (BC),A
23BF: 03                                INC     BC
23C0: FD 7E 01                          LD      A,(IY+01h)
23C3: 02                                LD      (BC),A
23C4: DD 7E E0                          LD      A,(IX-20h)
23C7: C6 13                             ADD     A,13h
23C9: 4F                                LD      C,A
23CA: DD 7E E1                          LD      A,(IX-1Fh)
23CD: CE 00                             ADC     A,00h
23CF: 47                                LD      B,A
23D0: AF                                XOR     A
23D1: 02                                LD      (BC),A
23D2: 03                                INC     BC
23D3: 02                                LD      (BC),A
23D4: 03                                INC     BC
23D5: 02                                LD      (BC),A
23D6: 03                                INC     BC
23D7: 02                                LD      (BC),A
23D8: 2E 00                             LD      L,00h
23DA: DD F9                      L23DA: LD      SP,IX
23DC: DD E1                             POP     IX
23DE: C9                                RET

                                        ; --- START PROC L23DF ---
23DF: D1                         L23DF: POP     DE
23E0: C1                                POP     BC
23E1: C5                                PUSH    BC
23E2: D5                                PUSH    DE
23E3: 21 06 00                          LD      HL,0006h
23E6: 39                                ADD     HL,SP
23E7: 5E                                LD      E,(HL)
23E8: 23                                INC     HL
23E9: 56                                LD      D,(HL)
23EA: 21 04 00                   L23EA: LD      HL,0004h
23ED: 39                                ADD     HL,SP
23EE: 7E                                LD      A,(HL)
23EF: 02                                LD      (BC),A
23F0: 03                                INC     BC
23F1: 1B                                DEC     DE
23F2: 7A                                LD      A,D
23F3: B3                                OR      E
23F4: 20 F4                             JR      NZ,L23EA
23F6: C9                                RET

                                        ; --- START PROC L23F7 ---
23F7: CD 06 15                   L23F7: CALL    L1506
23FA: DD 6E 04                          LD      L,(IX+04h)
23FD: DD 66 05                          LD      H,(IX+05h)
2400: 23                                INC     HL
2401: 46                                LD      B,(HL)
2402: 0E 00                             LD      C,00h
2404: DD 6E 04                          LD      L,(IX+04h)
2407: DD 66 05                          LD      H,(IX+05h)
240A: 5E                                LD      E,(HL)
240B: 16 00                             LD      D,00h
240D: 79                                LD      A,C
240E: B3                                OR      E
240F: 6F                                LD      L,A
2410: 78                                LD      A,B
2411: B2                                OR      D
2412: 67                                LD      H,A
2413: DD E1                             POP     IX
2415: C9                                RET

                                        ; --- START PROC L2416 ---
2416: CD 06 15                   L2416: CALL    L1506
2419: F5                                PUSH    AF
241A: F5                                PUSH    AF
241B: F5                                PUSH    AF
241C: 3B                                DEC     SP
241D: AF                                XOR     A
241E: DD 77 F9                          LD      (IX-07h),A
2421: DD 4E 04                          LD      C,(IX+04h)
2424: DD 46 05                          LD      B,(IX+05h)
2427: 21 2F 00                          LD      HL,002Fh
242A: 09                                ADD     HL,BC
242B: DD 75 FA                          LD      (IX-06h),L
242E: DD 74 FB                          LD      (IX-05h),H
2431: C5                                PUSH    BC
2432: DD 5E FA                          LD      E,(IX-06h)
2435: DD 56 FB                          LD      D,(IX-05h)
2438: 21 05 00                          LD      HL,0005h
243B: 39                                ADD     HL,SP
243C: EB                                EX      DE,HL
243D: 01 04 00                          LD      BC,0004h
2440: ED B0                             LDIR
2442: C1                                POP     BC
2443: DD 7E 06                          LD      A,(IX+06h)
2446: DD 96 FC                          SUB     (IX-04h)
2449: 20 18                             JR      NZ,L2463
244B: DD 7E 07                          LD      A,(IX+07h)
244E: DD 96 FD                          SUB     (IX-03h)
2451: 20 10                             JR      NZ,L2463
2453: DD 7E 08                          LD      A,(IX+08h)
2456: DD 96 FE                          SUB     (IX-02h)
2459: 20 08                             JR      NZ,L2463
245B: DD 7E 09                          LD      A,(IX+09h)
245E: DD 96 FF                          SUB     (IX-01h)
2461: 28 5E                             JR      Z,L24C1
2463: C5                         L2463: PUSH    BC
2464: C5                                PUSH    BC
2465: CD 84 2A                          CALL    L2A84
2468: F1                                POP     AF
2469: 7D                                LD      A,L
246A: C1                                POP     BC
246B: DD 77 F9                          LD      (IX-07h),A
246E: B7                                OR      A
246F: 20 50                             JR      NZ,L24C1
2471: 21 33 00                          LD      HL,0033h
2474: 09                                ADD     HL,BC
2475: EB                                EX      DE,HL
2476: 69                                LD      L,C
2477: 60                                LD      H,B
2478: 23                                INC     HL
2479: 46                                LD      B,(HL)
247A: 21 01 00                          LD      HL,0001h
247D: E5                                PUSH    HL
247E: DD 6E 08                          LD      L,(IX+08h)
2481: DD 66 09                          LD      H,(IX+09h)
2484: E5                                PUSH    HL
2485: DD 6E 06                          LD      L,(IX+06h)
2488: DD 66 07                          LD      H,(IX+07h)
248B: E5                                PUSH    HL
248C: D5                                PUSH    DE
248D: C5                                PUSH    BC
248E: 33                                INC     SP
248F: CD 64 03                          CALL    L0364
2492: FD 21 09 00                       LD      IY,0009h
2496: FD 39                             ADD     IY,SP
2498: FD F9                             LD      SP,IY
249A: 7D                                LD      A,L
249B: B7                                OR      A
249C: 28 14                             JR      Z,L24B2
249E: DD 36 06 FF                       LD      (IX+06h),0FFh
24A2: DD 36 07 FF                       LD      (IX+07h),0FFh
24A6: DD 36 08 FF                       LD      (IX+08h),0FFh
24AA: DD 36 09 FF                       LD      (IX+09h),0FFh
24AE: DD 36 F9 01                       LD      (IX-07h),01h
24B2: DD 5E FA                   L24B2: LD      E,(IX-06h)
24B5: DD 56 FB                          LD      D,(IX-05h)
24B8: 21 0D 00                          LD      HL,000Dh
24BB: 39                                ADD     HL,SP
24BC: 01 04 00                          LD      BC,0004h
24BF: ED B0                             LDIR
24C1: DD 6E F9                   L24C1: LD      L,(IX-07h)
24C4: DD F9                             LD      SP,IX
24C6: DD E1                             POP     IX
24C8: C9                                RET

                                        ; --- START PROC L24C9 ---
24C9: CD 06 15                   L24C9: CALL    L1506
24CC: 21 EE FF                          LD      HL,0FFEEh
24CF: 39                                ADD     HL,SP
24D0: F9                                LD      SP,HL
24D1: DD 7E 04                          LD      A,(IX+04h)
24D4: DD 77 EE                          LD      (IX-12h),A
24D7: DD 7E 05                          LD      A,(IX+05h)
24DA: DD 77 EF                          LD      (IX-11h),A
24DD: E1                                POP     HL
24DE: E5                                PUSH    HL
24DF: 4E                                LD      C,(HL)
24E0: 23                                INC     HL
24E1: 46                                LD      B,(HL)
24E2: DD 7E 06                          LD      A,(IX+06h)
24E5: D6 02                             SUB     02h
24E7: DD 7E 07                          LD      A,(IX+07h)
24EA: DE 00                             SBC     A,00h
24EC: DD 7E 08                          LD      A,(IX+08h)
24EF: DE 00                             SBC     A,00h
24F1: DD 7E 09                          LD      A,(IX+09h)
24F4: DE 00                             SBC     A,00h
24F6: 38 2D                             JR      C,L2525
24F8: 21 17 00                          LD      HL,0017h
24FB: 09                                ADD     HL,BC
24FC: EB                                EX      DE,HL
24FD: D5                                PUSH    DE
24FE: C5                                PUSH    BC
24FF: 21 12 00                          LD      HL,0012h
2502: 39                                ADD     HL,SP
2503: EB                                EX      DE,HL
2504: 01 04 00                          LD      BC,0004h
2507: ED B0                             LDIR
2509: C1                                POP     BC
250A: D1                                POP     DE
250B: DD 7E 06                          LD      A,(IX+06h)
250E: DD 96 FC                          SUB     (IX-04h)
2511: DD 7E 07                          LD      A,(IX+07h)
2514: DD 9E FD                          SBC     A,(IX-03h)
2517: DD 7E 08                          LD      A,(IX+08h)
251A: DD 9E FE                          SBC     A,(IX-02h)
251D: DD 7E 09                          LD      A,(IX+09h)
2520: DD 9E FF                          SBC     A,(IX-01h)
2523: 38 05                             JR      C,L252A
2525: 2E 02                      L2525: LD      L,02h
2527: C3 A8 26                          JP      L26A8

252A: DD 7E 0D                   L252A: LD      A,(IX+0Dh)
252D: DD B6 0C                          OR      (IX+0Ch)
2530: DD B6 0B                          OR      (IX+0Bh)
2533: DD B6 0A                          OR      (IX+0Ah)
2536: 28 2B                             JR      Z,L2563
2538: C5                                PUSH    BC
2539: D5                                PUSH    DE
253A: 21 FF FF                          LD      HL,0FFFFh
253D: E5                                PUSH    HL
253E: 21 FF FF                          LD      HL,0FFFFh
2541: E5                                PUSH    HL
2542: DD 6E 0C                          LD      L,(IX+0Ch)
2545: DD 66 0D                          LD      H,(IX+0Dh)
2548: E5                                PUSH    HL
2549: DD 6E 0A                          LD      L,(IX+0Ah)
254C: DD 66 0B                          LD      H,(IX+0Bh)
254F: E5                                PUSH    HL
2550: C5                                PUSH    BC
2551: CD F0 26                          CALL    L26F0
2554: FD 21 0A 00                       LD      IY,000Ah
2558: FD 39                             ADD     IY,SP
255A: FD F9                             LD      SP,IY
255C: D1                                POP     DE
255D: C1                                POP     BC
255E: 7D                                LD      A,L
255F: B7                                OR      A
2560: C2 A8 26                          JP      NZ,L26A8
2563: DD 73 F0                   L2563: LD      (IX-10h),E
2566: DD 72 F1                          LD      (IX-0Fh),D
2569: C5                         L2569: PUSH    BC
256A: DD 6E 08                          LD      L,(IX+08h)
256D: DD 66 09                          LD      H,(IX+09h)
2570: E5                                PUSH    HL
2571: DD 6E 06                          LD      L,(IX+06h)
2574: DD 66 07                          LD      H,(IX+07h)
2577: E5                                PUSH    HL
2578: DD 6E EE                          LD      L,(IX-12h)
257B: DD 66 EF                          LD      H,(IX-11h)
257E: E5                                PUSH    HL
257F: CD 7F 15                          CALL    L157F
2582: F1                                POP     AF
2583: F1                                POP     AF
2584: F1                                POP     AF
2585: C1                                POP     BC
2586: DD 75 F2                          LD      (IX-0Eh),L
2589: DD 74 F3                          LD      (IX-0Dh),H
258C: DD 73 F4                          LD      (IX-0Ch),E
258F: DD 72 F5                          LD      (IX-0Bh),D
2592: 7A                                LD      A,D
2593: DD B6 F4                          OR      (IX-0Ch)
2596: DD B6 F3                          OR      (IX-0Dh)
2599: DD B6 F2                          OR      (IX-0Eh)
259C: CA A6 26                          JP      Z,L26A6
259F: DD 7E F2                          LD      A,(IX-0Eh)
25A2: 3D                                DEC     A
25A3: DD B6 F3                          OR      (IX-0Dh)
25A6: DD B6 F4                          OR      (IX-0Ch)
25A9: DD B6 F5                          OR      (IX-0Bh)
25AC: 20 05                             JR      NZ,L25B3
25AE: 2E 02                             LD      L,02h
25B0: C3 A8 26                          JP      L26A8

25B3: DD 7E F2                   L25B3: LD      A,(IX-0Eh)
25B6: DD A6 F3                          AND     (IX-0Dh)
25B9: DD A6 F4                          AND     (IX-0Ch)
25BC: DD A6 F5                          AND     (IX-0Bh)
25BF: 3C                                INC     A
25C0: 20 05                             JR      NZ,L25C7
25C2: 2E 01                             LD      L,01h
25C4: C3 A8 26                          JP      L26A8

25C7: C5                         L25C7: PUSH    BC
25C8: 21 00 00                          LD      HL,0000h
25CB: E5                                PUSH    HL
25CC: 21 00 00                          LD      HL,0000h
25CF: E5                                PUSH    HL
25D0: DD 6E 08                          LD      L,(IX+08h)
25D3: DD 66 09                          LD      H,(IX+09h)
25D6: E5                                PUSH    HL
25D7: DD 6E 06                          LD      L,(IX+06h)
25DA: DD 66 07                          LD      H,(IX+07h)
25DD: E5                                PUSH    HL
25DE: C5                                PUSH    BC
25DF: CD F0 26                          CALL    L26F0
25E2: FD 21 0A 00                       LD      IY,000Ah
25E6: FD 39                             ADD     IY,SP
25E8: FD F9                             LD      SP,IY
25EA: C1                                POP     BC
25EB: 7D                                LD      A,L
25EC: B7                                OR      A
25ED: C2 A8 26                          JP      NZ,L26A8
25F0: 21 0F 00                          LD      HL,000Fh
25F3: 09                                ADD     HL,BC
25F4: DD 75 F6                          LD      (IX-0Ah),L
25F7: DD 74 F7                          LD      (IX-09h),H
25FA: C5                                PUSH    BC
25FB: DD 5E F6                          LD      E,(IX-0Ah)
25FE: DD 56 F7                          LD      D,(IX-09h)
2601: 21 0C 00                          LD      HL,000Ch
2604: 39                                ADD     HL,SP
2605: EB                                EX      DE,HL
2606: 01 04 00                          LD      BC,0004h
2609: ED B0                             LDIR
260B: C1                                POP     BC
260C: DD 6E F0                          LD      L,(IX-10h)
260F: DD 66 F1                          LD      H,(IX-0Fh)
2612: 5E                                LD      E,(HL)
2613: 23                                INC     HL
2614: 56                                LD      D,(HL)
2615: 23                                INC     HL
2616: 23                                INC     HL
2617: 7E                                LD      A,(HL)
2618: 2B                                DEC     HL
2619: 6E                                LD      L,(HL)
261A: 67                                LD      H,A
261B: 7B                                LD      A,E
261C: C6 FE                             ADD     A,0FEh
261E: 5F                                LD      E,A
261F: 7A                                LD      A,D
2620: CE FF                             ADC     A,0FFh
2622: 57                                LD      D,A
2623: 7D                                LD      A,L
2624: CE FF                             ADC     A,0FFh
2626: 6F                                LD      L,A
2627: 7C                                LD      A,H
2628: CE FF                             ADC     A,0FFh
262A: 67                                LD      H,A
262B: DD 7E F8                          LD      A,(IX-08h)
262E: 93                                SUB     E
262F: DD 7E F9                          LD      A,(IX-07h)
2632: 9A                                SBC     A,D
2633: DD 7E FA                          LD      A,(IX-06h)
2636: 9D                                SBC     A,L
2637: DD 7E FB                          LD      A,(IX-05h)
263A: 9C                                SBC     A,H
263B: 30 37                             JR      NC,L2674
263D: DD 7E F8                          LD      A,(IX-08h)
2640: C6 01                             ADD     A,01h
2642: DD 77 FC                          LD      (IX-04h),A
2645: DD 7E F9                          LD      A,(IX-07h)
2648: CE 00                             ADC     A,00h
264A: DD 77 FD                          LD      (IX-03h),A
264D: DD 7E FA                          LD      A,(IX-06h)
2650: CE 00                             ADC     A,00h
2652: DD 77 FE                          LD      (IX-02h),A
2655: DD 7E FB                          LD      A,(IX-05h)
2658: CE 00                             ADC     A,00h
265A: DD 77 FF                          LD      (IX-01h),A
265D: C5                                PUSH    BC
265E: DD 5E F6                          LD      E,(IX-0Ah)
2661: DD 56 F7                          LD      D,(IX-09h)
2664: 21 10 00                          LD      HL,0010h
2667: 39                                ADD     HL,SP
2668: 01 04 00                          LD      BC,0004h
266B: ED B0                             LDIR
266D: C1                                POP     BC
266E: 21 04 00                          LD      HL,0004h
2671: 09                                ADD     HL,BC
2672: CB C6                             SET     0,(HL)
2674: C5                         L2674: PUSH    BC
2675: 21 1A 00                          LD      HL,001Ah
2678: 39                                ADD     HL,SP
2679: EB                                EX      DE,HL
267A: 21 06 00                          LD      HL,0006h
267D: 39                                ADD     HL,SP
267E: 01 04 00                          LD      BC,0004h
2681: ED B0                             LDIR
2683: C1                                POP     BC
2684: DD 6E F0                          LD      L,(IX-10h)
2687: DD 66 F1                          LD      H,(IX-0Fh)
268A: 5E                                LD      E,(HL)
268B: 23                                INC     HL
268C: 56                                LD      D,(HL)
268D: 23                                INC     HL
268E: 23                                INC     HL
268F: 7E                                LD      A,(HL)
2690: 2B                                DEC     HL
2691: 6E                                LD      L,(HL)
2692: 67                                LD      H,A
2693: DD 7E F2                          LD      A,(IX-0Eh)
2696: 93                                SUB     E
2697: DD 7E F3                          LD      A,(IX-0Dh)
269A: 9A                                SBC     A,D
269B: DD 7E F4                          LD      A,(IX-0Ch)
269E: 9D                                SBC     A,L
269F: DD 7E F5                          LD      A,(IX-0Bh)
26A2: 9C                                SBC     A,H
26A3: DA 69 25                          JP      C,L2569
26A6: 2E 00                      L26A6: LD      L,00h
26A8: DD F9                      L26A8: LD      SP,IX
26AA: DD E1                             POP     IX
26AC: C9                                RET

                                        ; --- START PROC L26AD ---
26AD: CD 06 15                   L26AD: CALL    L1506
26B0: DD 5E 08                          LD      E,(IX+08h)
26B3: DD 56 09                          LD      D,(IX+09h)
26B6: DD 7E 06                          LD      A,(IX+06h)
26B9: C6 1A                             ADD     A,1Ah
26BB: 4F                                LD      C,A
26BC: DD 7E 07                          LD      A,(IX+07h)
26BF: CE 00                             ADC     A,00h
26C1: 47                                LD      B,A
26C2: D5                                PUSH    DE
26C3: C5                                PUSH    BC
26C4: CD 33 3D                          CALL    L3D33
26C7: F1                                POP     AF
26C8: F1                                POP     AF
26C9: DD 4E 04                          LD      C,(IX+04h)
26CC: DD 46 05                          LD      B,(IX+05h)
26CF: 0A                                LD      A,(BC)
26D0: D6 03                             SUB     03h
26D2: 20 19                             JR      NZ,L26ED
26D4: DD 5E 0A                          LD      E,(IX+0Ah)
26D7: DD 56 0B                          LD      D,(IX+0Bh)
26DA: DD 7E 06                          LD      A,(IX+06h)
26DD: C6 14                             ADD     A,14h
26DF: 4F                                LD      C,A
26E0: DD 7E 07                          LD      A,(IX+07h)
26E3: CE 00                             ADC     A,00h
26E5: 47                                LD      B,A
26E6: D5                                PUSH    DE
26E7: C5                                PUSH    BC
26E8: CD 33 3D                          CALL    L3D33
26EB: F1                                POP     AF
26EC: F1                                POP     AF
26ED: DD E1                      L26ED: POP     IX
26EF: C9                                RET

                                        ; --- START PROC L26F0 ---
26F0: CD 06 15                   L26F0: CALL    L1506
26F3: 21 F0 FF                          LD      HL,0FFF0h
26F6: 39                                ADD     HL,SP
26F7: F9                                LD      SP,HL
26F8: DD 36 FB 02                       LD      (IX-05h),02h
26FC: DD 7E 06                          LD      A,(IX+06h)
26FF: D6 02                             SUB     02h
2701: DD 7E 07                          LD      A,(IX+07h)
2704: DE 00                             SBC     A,00h
2706: DD 7E 08                          LD      A,(IX+08h)
2709: DE 00                             SBC     A,00h
270B: DD 7E 09                          LD      A,(IX+09h)
270E: DE 00                             SBC     A,00h
2710: DA 7C 2A                          JP      C,L2A7C
2713: DD 7E 04                          LD      A,(IX+04h)
2716: DD 77 F0                          LD      (IX-10h),A
2719: DD 7E 05                          LD      A,(IX+05h)
271C: DD 77 F1                          LD      (IX-0Fh),A
271F: E1                                POP     HL
2720: E5                                PUSH    HL
2721: 11 17 00                          LD      DE,0017h
2724: 19                                ADD     HL,DE
2725: 4E                                LD      C,(HL)
2726: 23                                INC     HL
2727: 46                                LD      B,(HL)
2728: 23                                INC     HL
2729: 5E                                LD      E,(HL)
272A: 23                                INC     HL
272B: 56                                LD      D,(HL)
272C: DD 7E 06                          LD      A,(IX+06h)
272F: 91                                SUB     C
2730: DD 7E 07                          LD      A,(IX+07h)
2733: 98                                SBC     A,B
2734: DD 7E 08                          LD      A,(IX+08h)
2737: 9B                                SBC     A,E
2738: DD 7E 09                          LD      A,(IX+09h)
273B: 9A                                SBC     A,D
273C: D2 7C 2A                          JP      NC,L2A7C
273F: E1                                POP     HL
2740: E5                                PUSH    HL
2741: 5E                                LD      E,(HL)
2742: DD 7E F0                          LD      A,(IX-10h)
2745: C6 23                             ADD     A,23h   ; '#'
2747: DD 77 F2                          LD      (IX-0Eh),A
274A: DD 7E F1                          LD      A,(IX-0Fh)
274D: CE 00                             ADC     A,00h
274F: DD 77 F3                          LD      (IX-0Dh),A
2752: DD 7E F0                          LD      A,(IX-10h)
2755: C6 33                             ADD     A,33h   ; '3'
2757: DD 77 F4                          LD      (IX-0Ch),A
275A: DD 7E F1                          LD      A,(IX-0Fh)
275D: CE 00                             ADC     A,00h
275F: DD 77 F5                          LD      (IX-0Bh),A
2762: C1                                POP     BC
2763: C5                                PUSH    BC
2764: 03                                INC     BC
2765: 03                                INC     BC
2766: 03                                INC     BC
2767: 7B                                LD      A,E
2768: 3D                                DEC     A
2769: 28 0E                             JR      Z,L2779
276B: 7B                                LD      A,E
276C: FE 02                             CP      02h
276E: CA 02 29                          JP      Z,L2902
2771: D6 03                             SUB     03h
2773: CA 8C 29                          JP      Z,L298C
2776: C3 7C 2A                          JP      L2A7C

2779: DD 5E 06                   L2779: LD      E,(IX+06h)
277C: DD 56 07                          LD      D,(IX+07h)
277F: 6B                                LD      L,E
2780: 62                                LD      H,D
2781: CB 3C                             SRL     H
2783: CB 1D                             RR      L
2785: 19                                ADD     HL,DE
2786: DD 75 FE                          LD      (IX-02h),L
2789: DD 74 FF                          LD      (IX-01h),H
278C: C5                                PUSH    BC
278D: DD 5E F2                          LD      E,(IX-0Eh)
2790: DD 56 F3                          LD      D,(IX-0Dh)
2793: 21 0C 00                          LD      HL,000Ch
2796: 39                                ADD     HL,SP
2797: EB                                EX      DE,HL
2798: 01 04 00                          LD      BC,0004h
279B: ED B0                             LDIR
279D: C1                                POP     BC
279E: DD 7E FF                          LD      A,(IX-01h)
27A1: CB 3F                             SRL     A
27A3: 5F                                LD      E,A
27A4: 16 00                             LD      D,00h
27A6: 21 00 00                          LD      HL,0000h
27A9: DD 7E FA                          LD      A,(IX-06h)
27AC: 83                                ADD     A,E
27AD: 5F                                LD      E,A
27AE: DD 7E FB                          LD      A,(IX-05h)
27B1: 8A                                ADC     A,D
27B2: 57                                LD      D,A
27B3: DD 7E FC                          LD      A,(IX-04h)
27B6: 8D                                ADC     A,L
27B7: 6F                                LD      L,A
27B8: DD 7E FD                          LD      A,(IX-03h)
27BB: 8C                                ADC     A,H
27BC: 67                                LD      H,A
27BD: C5                                PUSH    BC
27BE: E5                                PUSH    HL
27BF: D5                                PUSH    DE
27C0: DD 6E F0                          LD      L,(IX-10h)
27C3: DD 66 F1                          LD      H,(IX-0Fh)
27C6: E5                                PUSH    HL
27C7: CD 16 24                          CALL    L2416
27CA: F1                                POP     AF
27CB: F1                                POP     AF
27CC: F1                                POP     AF
27CD: C1                                POP     BC
27CE: DD 75 FB                          LD      (IX-05h),L
27D1: 7D                                LD      A,L
27D2: B7                                OR      A
27D3: C2 7C 2A                          JP      NZ,L2A7C
27D6: DD 5E FE                          LD      E,(IX-02h)
27D9: DD 56 FF                          LD      D,(IX-01h)
27DC: DD 7E FE                          LD      A,(IX-02h)
27DF: C6 01                             ADD     A,01h
27E1: DD 77 F6                          LD      (IX-0Ah),A
27E4: DD 7E FF                          LD      A,(IX-01h)
27E7: CE 00                             ADC     A,00h
27E9: DD 77 F7                          LD      (IX-09h),A
27EC: 7A                                LD      A,D
27ED: E6 01                             AND     01h
27EF: 57                                LD      D,A
27F0: 7B                                LD      A,E
27F1: DD 86 F4                          ADD     A,(IX-0Ch)
27F4: DD 77 F8                          LD      (IX-08h),A
27F7: 7A                                LD      A,D
27F8: DD 8E F5                          ADC     A,(IX-0Bh)
27FB: DD 77 F9                          LD      (IX-07h),A
27FE: DD 7E F8                          LD      A,(IX-08h)
2801: DD 77 FA                          LD      (IX-06h),A
2804: DD 7E F9                          LD      A,(IX-07h)
2807: DD 77 FB                          LD      (IX-05h),A
280A: DD 7E 06                          LD      A,(IX+06h)
280D: E6 01                             AND     01h
280F: DD 77 FC                          LD      (IX-04h),A
2812: DD 36 FD 00                       LD      (IX-03h),00h
2816: DD 36 FE 00                       LD      (IX-02h),00h
281A: DD 36 FF 00                       LD      (IX-01h),00h
281E: DD 5E 0A                          LD      E,(IX+0Ah)
2821: DD 7E FF                          LD      A,(IX-01h)
2824: DD B6 FE                          OR      (IX-02h)
2827: DD B6 FD                          OR      (IX-03h)
282A: DD B6 FC                          OR      (IX-04h)
282D: 28 1C                             JR      Z,L284B
282F: DD 6E F8                          LD      L,(IX-08h)
2832: DD 66 F9                          LD      H,(IX-07h)
2835: 7E                                LD      A,(HL)
2836: E6 0F                             AND     0Fh
2838: 6F                                LD      L,A
2839: 26 00                             LD      H,00h
283B: 7B                                LD      A,E
283C: 87                                ADD     A,A
283D: 87                                ADD     A,A
283E: 87                                ADD     A,A
283F: 87                                ADD     A,A
2840: 5F                                LD      E,A
2841: 17                                RLA
2842: 9F                                SBC     A,A
2843: 57                                LD      D,A
2844: 7D                                LD      A,L
2845: B3                                OR      E
2846: 5F                                LD      E,A
2847: 7C                                LD      A,H
2848: B2                                OR      D
2849: 18 01                             JR      L284C

284B: AF                         L284B: XOR     A
284C: DD 6E FA                   L284C: LD      L,(IX-06h)
284F: DD 66 FB                          LD      H,(IX-05h)
2852: 73                                LD      (HL),E
2853: 3E 01                             LD      A,01h
2855: 02                                LD      (BC),A
2856: C5                                PUSH    BC
2857: DD 5E F2                          LD      E,(IX-0Eh)
285A: DD 56 F3                          LD      D,(IX-0Dh)
285D: 21 0A 00                          LD      HL,000Ah
2860: 39                                ADD     HL,SP
2861: EB                                EX      DE,HL
2862: 01 04 00                          LD      BC,0004h
2865: ED B0                             LDIR
2867: C1                                POP     BC
2868: DD 7E F7                          LD      A,(IX-09h)
286B: CB 3F                             SRL     A
286D: 5F                                LD      E,A
286E: 16 00                             LD      D,00h
2870: 21 00 00                          LD      HL,0000h
2873: 7B                                LD      A,E
2874: DD 86 F8                          ADD     A,(IX-08h)
2877: 5F                                LD      E,A
2878: 7A                                LD      A,D
2879: DD 8E F9                          ADC     A,(IX-07h)
287C: 57                                LD      D,A
287D: 7D                                LD      A,L
287E: DD 8E FA                          ADC     A,(IX-06h)
2881: 6F                                LD      L,A
2882: 7C                                LD      A,H
2883: DD 8E FB                          ADC     A,(IX-05h)
2886: 67                                LD      H,A
2887: C5                                PUSH    BC
2888: E5                                PUSH    HL
2889: D5                                PUSH    DE
288A: DD 6E F0                          LD      L,(IX-10h)
288D: DD 66 F1                          LD      H,(IX-0Fh)
2890: E5                                PUSH    HL
2891: CD 16 24                          CALL    L2416
2894: F1                                POP     AF
2895: F1                                POP     AF
2896: F1                                POP     AF
2897: C1                                POP     BC
2898: DD 75 FB                          LD      (IX-05h),L
289B: 7D                                LD      A,L
289C: B7                                OR      A
289D: C2 7C 2A                          JP      NZ,L2A7C
28A0: DD 5E F6                          LD      E,(IX-0Ah)
28A3: DD 7E F7                          LD      A,(IX-09h)
28A6: E6 01                             AND     01h
28A8: 57                                LD      D,A
28A9: DD 6E F4                          LD      L,(IX-0Ch)
28AC: DD 66 F5                          LD      H,(IX-0Bh)
28AF: 19                                ADD     HL,DE
28B0: EB                                EX      DE,HL
28B1: DD 73 F7                          LD      (IX-09h),E
28B4: DD 72 F8                          LD      (IX-08h),D
28B7: DD 7E 0A                          LD      A,(IX+0Ah)
28BA: DD 77 F9                          LD      (IX-07h),A
28BD: DD 7E 0B                          LD      A,(IX+0Bh)
28C0: DD 77 FA                          LD      (IX-06h),A
28C3: DD 7E FF                          LD      A,(IX-01h)
28C6: DD B6 FE                          OR      (IX-02h)
28C9: DD B6 FD                          OR      (IX-03h)
28CC: DD B6 FC                          OR      (IX-04h)
28CF: 28 11                             JR      Z,L28E2
28D1: DD 5E F9                          LD      E,(IX-07h)
28D4: DD 56 FA                          LD      D,(IX-06h)
28D7: 3E 04                             LD      A,04h
28D9: CB 3A                      L28D9: SRL     D
28DB: CB 1B                             RR      E
28DD: 3D                                DEC     A
28DE: 20 F9                             JR      NZ,L28D9
28E0: 18 13                             JR      L28F5

28E2: 1A                         L28E2: LD      A,(DE)
28E3: E6 F0                             AND     0F0h
28E5: 5F                                LD      E,A
28E6: 16 00                             LD      D,00h
28E8: DD 7E FA                          LD      A,(IX-06h)
28EB: E6 0F                             AND     0Fh
28ED: 6F                                LD      L,A
28EE: 26 00                             LD      H,00h
28F0: 7B                                LD      A,E
28F1: B5                                OR      L
28F2: 5F                                LD      E,A
28F3: 7A                                LD      A,D
28F4: B4                                OR      H
28F5: DD 6E F7                   L28F5: LD      L,(IX-09h)
28F8: DD 66 F8                          LD      H,(IX-08h)
28FB: 73                                LD      (HL),E
28FC: 3E 01                             LD      A,01h
28FE: 02                                LD      (BC),A
28FF: C3 7C 2A                          JP      L2A7C

2902: C5                         L2902: PUSH    BC
2903: DD 5E F2                          LD      E,(IX-0Eh)
2906: DD 56 F3                          LD      D,(IX-0Dh)
2909: 21 0E 00                          LD      HL,000Eh
290C: 39                                ADD     HL,SP
290D: EB                                EX      DE,HL
290E: 01 04 00                          LD      BC,0004h
2911: ED B0                             LDIR
2913: C1                                POP     BC
2914: DD 5E 07                          LD      E,(IX+07h)
2917: DD 56 08                          LD      D,(IX+08h)
291A: DD 6E 09                          LD      L,(IX+09h)
291D: 26 00                             LD      H,00h
291F: 7B                                LD      A,E
2920: DD 86 FC                          ADD     A,(IX-04h)
2923: 5F                                LD      E,A
2924: 7A                                LD      A,D
2925: DD 8E FD                          ADC     A,(IX-03h)
2928: 57                                LD      D,A
2929: 7D                                LD      A,L
292A: DD 8E FE                          ADC     A,(IX-02h)
292D: 6F                                LD      L,A
292E: 7C                                LD      A,H
292F: DD 8E FF                          ADC     A,(IX-01h)
2932: 67                                LD      H,A
2933: C5                                PUSH    BC
2934: E5                                PUSH    HL
2935: D5                                PUSH    DE
2936: DD 6E F0                          LD      L,(IX-10h)
2939: DD 66 F1                          LD      H,(IX-0Fh)
293C: E5                                PUSH    HL
293D: CD 16 24                          CALL    L2416
2940: F1                                POP     AF
2941: F1                                POP     AF
2942: F1                                POP     AF
2943: C1                                POP     BC
2944: DD 75 FB                          LD      (IX-05h),L
2947: 7D                                LD      A,L
2948: B7                                OR      A
2949: C2 7C 2A                          JP      NZ,L2A7C
294C: DD 7E 0A                          LD      A,(IX+0Ah)
294F: DD 77 FE                          LD      (IX-02h),A
2952: DD 7E 0B                          LD      A,(IX+0Bh)
2955: DD 77 FF                          LD      (IX-01h),A
2958: DD 6E 06                          LD      L,(IX+06h)
295B: DD 66 07                          LD      H,(IX+07h)
295E: DD 5E 08                          LD      E,(IX+08h)
2961: DD 56 09                          LD      D,(IX+09h)
2964: 29                                ADD     HL,HL
2965: CB 13                             RL      E
2967: CB 12                             RL      D
2969: 7C                                LD      A,H
296A: E6 01                             AND     01h
296C: 67                                LD      H,A
296D: 7D                                LD      A,L
296E: DD 86 F4                          ADD     A,(IX-0Ch)
2971: 6F                                LD      L,A
2972: 7C                                LD      A,H
2973: DD 8E F5                          ADC     A,(IX-0Bh)
2976: 67                                LD      H,A
2977: C5                                PUSH    BC
2978: DD 5E FE                          LD      E,(IX-02h)
297B: DD 56 FF                          LD      D,(IX-01h)
297E: D5                                PUSH    DE
297F: E5                                PUSH    HL
2980: CD 33 3D                          CALL    L3D33
2983: F1                                POP     AF
2984: F1                                POP     AF
2985: C1                                POP     BC
2986: 3E 01                             LD      A,01h
2988: 02                                LD      (BC),A
2989: C3 7C 2A                          JP      L2A7C

298C: C5                         L298C: PUSH    BC
298D: DD 5E F2                          LD      E,(IX-0Eh)
2990: DD 56 F3                          LD      D,(IX-0Dh)
2993: 21 0E 00                          LD      HL,000Eh
2996: 39                                ADD     HL,SP
2997: EB                                EX      DE,HL
2998: 01 04 00                          LD      BC,0004h
299B: ED B0                             LDIR
299D: C1                                POP     BC
299E: DD 5E 06                          LD      E,(IX+06h)
29A1: DD 56 07                          LD      D,(IX+07h)
29A4: DD 6E 08                          LD      L,(IX+08h)
29A7: DD 66 09                          LD      H,(IX+09h)
29AA: 3E 07                             LD      A,07h
29AC: CB 3C                      L29AC: SRL     H
29AE: CB 1D                             RR      L
29B0: CB 1A                             RR      D
29B2: CB 1B                             RR      E
29B4: 3D                                DEC     A
29B5: 20 F5                             JR      NZ,L29AC
29B7: 7B                                LD      A,E
29B8: DD 86 FC                          ADD     A,(IX-04h)
29BB: 5F                                LD      E,A
29BC: 7A                                LD      A,D
29BD: DD 8E FD                          ADC     A,(IX-03h)
29C0: 57                                LD      D,A
29C1: 7D                                LD      A,L
29C2: DD 8E FE                          ADC     A,(IX-02h)
29C5: 6F                                LD      L,A
29C6: 7C                                LD      A,H
29C7: DD 8E FF                          ADC     A,(IX-01h)
29CA: 67                                LD      H,A
29CB: C5                                PUSH    BC
29CC: E5                                PUSH    HL
29CD: D5                                PUSH    DE
29CE: DD 6E F0                          LD      L,(IX-10h)
29D1: DD 66 F1                          LD      H,(IX-0Fh)
29D4: E5                                PUSH    HL
29D5: CD 16 24                          CALL    L2416
29D8: F1                                POP     AF
29D9: F1                                POP     AF
29DA: F1                                POP     AF
29DB: C1                                POP     BC
29DC: DD 75 FB                          LD      (IX-05h),L
29DF: 7D                                LD      A,L
29E0: B7                                OR      A
29E1: C2 7C 2A                          JP      NZ,L2A7C
29E4: DD 7E 0A                          LD      A,(IX+0Ah)
29E7: DD 77 F7                          LD      (IX-09h),A
29EA: DD 7E 0B                          LD      A,(IX+0Bh)
29ED: DD 77 F8                          LD      (IX-08h),A
29F0: DD 7E 0C                          LD      A,(IX+0Ch)
29F3: DD 77 F9                          LD      (IX-07h),A
29F6: DD 7E 0D                          LD      A,(IX+0Dh)
29F9: E6 0F                             AND     0Fh
29FB: DD 77 FA                          LD      (IX-06h),A
29FE: DD 6E 06                          LD      L,(IX+06h)
2A01: DD 66 07                          LD      H,(IX+07h)
2A04: DD 5E 08                          LD      E,(IX+08h)
2A07: DD 56 09                          LD      D,(IX+09h)
2A0A: 3E 02                             LD      A,02h
2A0C: 29                         L2A0C: ADD     HL,HL
2A0D: CB 13                             RL      E
2A0F: CB 12                             RL      D
2A11: 3D                                DEC     A
2A12: 20 F8                             JR      NZ,L2A0C
2A14: 7C                                LD      A,H
2A15: E6 01                             AND     01h
2A17: 67                                LD      H,A
2A18: 7D                                LD      A,L
2A19: DD 86 F4                          ADD     A,(IX-0Ch)
2A1C: DD 77 FE                          LD      (IX-02h),A
2A1F: 7C                                LD      A,H
2A20: DD 8E F5                          ADC     A,(IX-0Bh)
2A23: DD 77 FF                          LD      (IX-01h),A
2A26: C5                                PUSH    BC
2A27: DD 6E FE                          LD      L,(IX-02h)
2A2A: DD 66 FF                          LD      H,(IX-01h)
2A2D: E5                                PUSH    HL
2A2E: CD 2B 13                          CALL    L132B
2A31: F1                                POP     AF
2A32: C1                                POP     BC
2A33: 21 00 00                          LD      HL,0000h
2A36: 1E 00                             LD      E,00h
2A38: 7A                                LD      A,D
2A39: E6 F0                             AND     0F0h
2A3B: F5                                PUSH    AF
2A3C: DD 7E F7                          LD      A,(IX-09h)
2A3F: B5                                OR      L
2A40: 6F                                LD      L,A
2A41: DD 7E F8                          LD      A,(IX-08h)
2A44: B4                                OR      H
2A45: 67                                LD      H,A
2A46: DD 7E F9                          LD      A,(IX-07h)
2A49: B3                                OR      E
2A4A: 5F                                LD      E,A
2A4B: F1                                POP     AF
2A4C: DD B6 FA                          OR      (IX-06h)
2A4F: 57                                LD      D,A
2A50: DD 75 0A                          LD      (IX+0Ah),L
2A53: DD 74 0B                          LD      (IX+0Bh),H
2A56: DD 73 0C                          LD      (IX+0Ch),E
2A59: DD 72 0D                          LD      (IX+0Dh),D
2A5C: C5                                PUSH    BC
2A5D: DD 6E 0C                          LD      L,(IX+0Ch)
2A60: DD 66 0D                          LD      H,(IX+0Dh)
2A63: E5                                PUSH    HL
2A64: DD 6E 0A                          LD      L,(IX+0Ah)
2A67: DD 66 0B                          LD      H,(IX+0Bh)
2A6A: E5                                PUSH    HL
2A6B: DD 6E FE                          LD      L,(IX-02h)
2A6E: DD 66 FF                          LD      H,(IX-01h)
2A71: E5                                PUSH    HL
2A72: CD 8A 1A                          CALL    L1A8A
2A75: F1                                POP     AF
2A76: F1                                POP     AF
2A77: F1                                POP     AF
2A78: C1                                POP     BC
2A79: 3E 01                             LD      A,01h
2A7B: 02                                LD      (BC),A
2A7C: DD 6E FB                   L2A7C: LD      L,(IX-05h)
2A7F: DD F9                             LD      SP,IX
2A81: DD E1                             POP     IX
2A83: C9                                RET

                                        ; --- START PROC L2A84 ---
2A84: CD 06 15                   L2A84: CALL    L1506
2A87: 21 EF FF                          LD      HL,0FFEFh
2A8A: 39                                ADD     HL,SP
2A8B: F9                                LD      SP,HL
2A8C: AF                                XOR     A
2A8D: DD 77 EF                          LD      (IX-11h),A
2A90: DD 4E 04                          LD      C,(IX+04h)
2A93: DD 46 05                          LD      B,(IX+05h)
2A96: 59                                LD      E,C
2A97: 50                                LD      D,B
2A98: 13                                INC     DE
2A99: 13                                INC     DE
2A9A: 13                                INC     DE
2A9B: 1A                                LD      A,(DE)
2A9C: B7                                OR      A
2A9D: CA C9 2B                          JP      Z,L2BC9
2AA0: 21 2F 00                          LD      HL,002Fh
2AA3: 09                                ADD     HL,BC
2AA4: DD 75 FE                          LD      (IX-02h),L
2AA7: DD 74 FF                          LD      (IX-01h),H
2AAA: D5                                PUSH    DE
2AAB: C5                                PUSH    BC
2AAC: DD 5E FE                          LD      E,(IX-02h)
2AAF: DD 56 FF                          LD      D,(IX-01h)
2AB2: 21 0E 00                          LD      HL,000Eh
2AB5: 39                                ADD     HL,SP
2AB6: EB                                EX      DE,HL
2AB7: 01 04 00                          LD      BC,0004h
2ABA: ED B0                             LDIR
2ABC: C1                                POP     BC
2ABD: D1                                POP     DE
2ABE: 21 33 00                          LD      HL,0033h
2AC1: 09                                ADD     HL,BC
2AC2: DD 75 F0                          LD      (IX-10h),L
2AC5: DD 74 F1                          LD      (IX-0Fh),H
2AC8: 21 01 00                          LD      HL,0001h
2ACB: 09                                ADD     HL,BC
2ACC: DD 75 F2                          LD      (IX-0Eh),L
2ACF: DD 74 F3                          LD      (IX-0Dh),H
2AD2: 7E                                LD      A,(HL)
2AD3: DD 77 FD                          LD      (IX-03h),A
2AD6: C5                                PUSH    BC
2AD7: D5                                PUSH    DE
2AD8: 21 01 00                          LD      HL,0001h
2ADB: E5                                PUSH    HL
2ADC: DD 6E FB                          LD      L,(IX-05h)
2ADF: DD 66 FC                          LD      H,(IX-04h)
2AE2: E5                                PUSH    HL
2AE3: DD 6E F9                          LD      L,(IX-07h)
2AE6: DD 66 FA                          LD      H,(IX-06h)
2AE9: E5                                PUSH    HL
2AEA: DD 6E F0                          LD      L,(IX-10h)
2AED: DD 66 F1                          LD      H,(IX-0Fh)
2AF0: E5                                PUSH    HL
2AF1: DD 7E FD                          LD      A,(IX-03h)
2AF4: F5                                PUSH    AF
2AF5: 33                                INC     SP
2AF6: CD EE 03                          CALL    L03EE
2AF9: FD 21 09 00                       LD      IY,0009h
2AFD: FD 39                             ADD     IY,SP
2AFF: FD F9                             LD      SP,IY
2B01: 7D                                LD      A,L
2B02: D1                                POP     DE
2B03: C1                                POP     BC
2B04: B7                                OR      A
2B05: C2 C5 2B                          JP      NZ,L2BC5
2B08: AF                                XOR     A
2B09: 12                                LD      (DE),A
2B0A: C5                                PUSH    BC
2B0B: DD 5E FE                          LD      E,(IX-02h)
2B0E: DD 56 FF                          LD      D,(IX-01h)
2B11: 21 07 00                          LD      HL,0007h
2B14: 39                                ADD     HL,SP
2B15: EB                                EX      DE,HL
2B16: 01 04 00                          LD      BC,0004h
2B19: ED B0                             LDIR
2B1B: C1                                POP     BC
2B1C: 69                                LD      L,C
2B1D: 60                                LD      H,B
2B1E: 11 23 00                          LD      DE,0023h
2B21: 19                                ADD     HL,DE
2B22: 5E                                LD      E,(HL)
2B23: 23                                INC     HL
2B24: 56                                LD      D,(HL)
2B25: 23                                INC     HL
2B26: 23                                INC     HL
2B27: 7E                                LD      A,(HL)
2B28: 2B                                DEC     HL
2B29: 6E                                LD      L,(HL)
2B2A: 67                                LD      H,A
2B2B: DD 7E F4                          LD      A,(IX-0Ch)
2B2E: 93                                SUB     E
2B2F: DD 77 F8                          LD      (IX-08h),A
2B32: DD 7E F5                          LD      A,(IX-0Bh)
2B35: 9A                                SBC     A,D
2B36: DD 77 F9                          LD      (IX-07h),A
2B39: DD 7E F6                          LD      A,(IX-0Ah)
2B3C: 9D                                SBC     A,L
2B3D: DD 77 FA                          LD      (IX-06h),A
2B40: DD 7E F7                          LD      A,(IX-09h)
2B43: 9C                                SBC     A,H
2B44: DD 77 FB                          LD      (IX-05h),A
2B47: 69                                LD      L,C
2B48: 60                                LD      H,B
2B49: 11 1B 00                          LD      DE,001Bh
2B4C: 19                                ADD     HL,DE
2B4D: 7E                                LD      A,(HL)
2B4E: DD 77 FC                          LD      (IX-04h),A
2B51: 23                                INC     HL
2B52: 7E                                LD      A,(HL)
2B53: DD 77 FD                          LD      (IX-03h),A
2B56: 23                                INC     HL
2B57: 7E                                LD      A,(HL)
2B58: DD 77 FE                          LD      (IX-02h),A
2B5B: 23                                INC     HL
2B5C: 7E                                LD      A,(HL)
2B5D: DD 77 FF                          LD      (IX-01h),A
2B60: DD 7E F8                          LD      A,(IX-08h)
2B63: DD 96 FC                          SUB     (IX-04h)
2B66: DD 7E F9                          LD      A,(IX-07h)
2B69: DD 9E FD                          SBC     A,(IX-03h)
2B6C: DD 7E FA                          LD      A,(IX-06h)
2B6F: DD 9E FE                          SBC     A,(IX-02h)
2B72: DD 7E FB                          LD      A,(IX-05h)
2B75: DD 9E FF                          SBC     A,(IX-01h)
2B78: 30 4F                             JR      NC,L2BC9
2B7A: 69                                LD      L,C
2B7B: 60                                LD      H,B
2B7C: 23                                INC     HL
2B7D: 23                                INC     HL
2B7E: 7E                                LD      A,(HL)
2B7F: D6 02                             SUB     02h
2B81: 20 46                             JR      NZ,L2BC9
2B83: DD 7E F4                          LD      A,(IX-0Ch)
2B86: DD 86 FC                          ADD     A,(IX-04h)
2B89: 4F                                LD      C,A
2B8A: DD 7E F5                          LD      A,(IX-0Bh)
2B8D: DD 8E FD                          ADC     A,(IX-03h)
2B90: 47                                LD      B,A
2B91: DD 7E F6                          LD      A,(IX-0Ah)
2B94: DD 8E FE                          ADC     A,(IX-02h)
2B97: 5F                                LD      E,A
2B98: DD 7E F7                          LD      A,(IX-09h)
2B9B: DD 8E FF                          ADC     A,(IX-01h)
2B9E: 57                                LD      D,A
2B9F: DD 6E F2                          LD      L,(IX-0Eh)
2BA2: DD 66 F3                          LD      H,(IX-0Dh)
2BA5: 7E                                LD      A,(HL)
2BA6: DD 77 FF                          LD      (IX-01h),A
2BA9: 21 01 00                          LD      HL,0001h
2BAC: E5                                PUSH    HL
2BAD: D5                                PUSH    DE
2BAE: C5                                PUSH    BC
2BAF: DD 6E F0                          LD      L,(IX-10h)
2BB2: DD 66 F1                          LD      H,(IX-0Fh)
2BB5: E5                                PUSH    HL
2BB6: DD 7E FF                          LD      A,(IX-01h)
2BB9: F5                                PUSH    AF
2BBA: 33                                INC     SP
2BBB: CD EE 03                          CALL    L03EE
2BBE: 21 09 00                          LD      HL,0009h
2BC1: 39                                ADD     HL,SP
2BC2: F9                                LD      SP,HL
2BC3: 18 04                             JR      L2BC9

2BC5: DD 36 EF 01                L2BC5: LD      (IX-11h),01h
2BC9: DD 6E EF                   L2BC9: LD      L,(IX-11h)
2BCC: DD F9                             LD      SP,IX
2BCE: DD E1                             POP     IX
2BD0: C9                                RET

                                        ; --- START PROC L2BD1 ---
2BD1: CD 06 15                   L2BD1: CALL    L1506
2BD4: 21 F2 FF                          LD      HL,0FFF2h
2BD7: 39                                ADD     HL,SP
2BD8: F9                                LD      SP,HL
2BD9: DD 5E 06                          LD      E,(IX+06h)
2BDC: DD 56 07                          LD      D,(IX+07h)
2BDF: 1A                                LD      A,(DE)
2BE0: DD 77 F2                          LD      (IX-0Eh),A
2BE3: 13                                INC     DE
2BE4: 1A                                LD      A,(DE)
2BE5: DD 77 F3                          LD      (IX-0Dh),A
2BE8: 1B                                DEC     DE
2BE9: DD 4E 04                          LD      C,(IX+04h)
2BEC: DD 46 05                          LD      B,(IX+05h)
2BEF: 21 1C 00                          LD      HL,001Ch
2BF2: 09                                ADD     HL,BC
2BF3: DD 75 F4                          LD      (IX-0Ch),L
2BF6: DD 74 F5                          LD      (IX-0Bh),H
2BF9: 4D                                LD      C,L
2BFA: 44                                LD      B,H
2BFB: D5                                PUSH    DE
2BFC: 21 0B 00                          LD      HL,000Bh
2BFF: E5                                PUSH    HL
2C00: 2E 20                             LD      L,20h   ; ' '
2C02: E5                                PUSH    HL
2C03: C5                                PUSH    BC
2C04: CD DF 23                          CALL    L23DF
2C07: F1                                POP     AF
2C08: F1                                POP     AF
2C09: F1                                POP     AF
2C0A: D1                                POP     DE
2C0B: AF                                XOR     A
2C0C: DD 77 F6                          LD      (IX-0Ah),A
2C0F: DD 77 F7                          LD      (IX-09h),A
2C12: AF                                XOR     A
2C13: DD 77 FE                          LD      (IX-02h),A
2C16: DD 77 FF                          LD      (IX-01h),A
2C19: DD 36 F8 08                       LD      (IX-08h),08h
2C1D: AF                                XOR     A
2C1E: DD 77 F9                          LD      (IX-07h),A
2C21: E1                                POP     HL
2C22: E5                                PUSH    HL
2C23: 6E                                LD      L,(HL)
2C24: DD 7E F4                          LD      A,(IX-0Ch)
2C27: C6 0B                             ADD     A,0Bh
2C29: 4F                                LD      C,A
2C2A: DD 7E F5                          LD      A,(IX-0Bh)
2C2D: CE 00                             ADC     A,00h
2C2F: 47                                LD      B,A
2C30: 7D                                LD      A,L
2C31: D6 2E                             SUB     2Eh     ; '.'
2C33: C2 E0 2C                          JP      NZ,L2CE0
2C36: AF                                XOR     A
2C37: DD 77 FC                          LD      (IX-04h),A
2C3A: DD 77 FD                          LD      (IX-03h),A
2C3D: AF                                XOR     A
2C3E: DD 77 FE                          LD      (IX-02h),A
2C41: DD 77 FF                          LD      (IX-01h),A
2C44: DD 7E F2                   L2C44: LD      A,(IX-0Eh)
2C47: DD 86 FE                          ADD     A,(IX-02h)
2C4A: 6F                                LD      L,A
2C4B: DD 7E F3                          LD      A,(IX-0Dh)
2C4E: DD 8E FF                          ADC     A,(IX-01h)
2C51: 67                                LD      H,A
2C52: DD 34 FE                          INC     (IX-02h)
2C55: 20 03                             JR      NZ,L2C5A
2C57: DD 34 FF                          INC     (IX-01h)
2C5A: 7E                         L2C5A: LD      A,(HL)
2C5B: DD 77 FB                          LD      (IX-05h),A
2C5E: D6 2E                             SUB     2Eh     ; '.'
2C60: 20 28                             JR      NZ,L2C8A
2C62: DD 7E FE                          LD      A,(IX-02h)
2C65: D6 03                             SUB     03h
2C67: DD 7E FF                          LD      A,(IX-01h)
2C6A: DE 00                             SBC     A,00h
2C6C: 30 1C                             JR      NC,L2C8A
2C6E: DD 7E F4                          LD      A,(IX-0Ch)
2C71: DD 86 FC                          ADD     A,(IX-04h)
2C74: 6F                                LD      L,A
2C75: DD 7E F5                          LD      A,(IX-0Bh)
2C78: DD 8E FD                          ADC     A,(IX-03h)
2C7B: DD 34 FC                          INC     (IX-04h)
2C7E: 20 03                             JR      NZ,L2C83
2C80: DD 34 FD                          INC     (IX-03h)
2C83: 67                         L2C83: LD      H,A
2C84: DD 7E FB                          LD      A,(IX-05h)
2C87: 77                                LD      (HL),A
2C88: 18 BA                             JR      L2C44

2C8A: DD 6E FE                   L2C8A: LD      L,(IX-02h)
2C8D: DD 66 FF                          LD      H,(IX-01h)
2C90: 3E 20                             LD      A,20h   ; ' '
2C92: DD 96 FB                          SUB     (IX-05h)
2C95: 3E 00                             LD      A,00h
2C97: 17                                RLA
2C98: DD 77 FF                          LD      (IX-01h),A
2C9B: DD 7E FB                          LD      A,(IX-05h)
2C9E: D6 2F                             SUB     2Fh     ; '/'
2CA0: 28 12                             JR      Z,L2CB4
2CA2: DD 7E FB                          LD      A,(IX-05h)
2CA5: D6 5C                             SUB     5Ch     ; '\'
2CA7: 28 0B                             JR      Z,L2CB4
2CA9: DD 7E FF                          LD      A,(IX-01h)
2CAC: B7                                OR      A
2CAD: 28 05                             JR      Z,L2CB4
2CAF: 2E 06                             LD      L,06h
2CB1: C3 BD 2E                          JP      L2EBD

2CB4: DD 7E F2                   L2CB4: LD      A,(IX-0Eh)
2CB7: 85                                ADD     A,L
2CB8: DD 77 FD                          LD      (IX-03h),A
2CBB: DD 7E F3                          LD      A,(IX-0Dh)
2CBE: 8C                                ADC     A,H
2CBF: DD 77 FE                          LD      (IX-02h),A
2CC2: DD 7E FD                          LD      A,(IX-03h)
2CC5: 12                                LD      (DE),A
2CC6: 13                                INC     DE
2CC7: DD 7E FE                          LD      A,(IX-02h)
2CCA: 12                                LD      (DE),A
2CCB: DD CB FF 46                       BIT     0,(IX-01h)
2CCF: 20 05                             JR      NZ,L2CD6
2CD1: 11 24 00                          LD      DE,0024h
2CD4: 18 03                             JR      L2CD9

2CD6: 11 20 00                   L2CD6: LD      DE,0020h
2CD9: 7B                         L2CD9: LD      A,E
2CDA: 02                                LD      (BC),A
2CDB: 2E 00                             LD      L,00h
2CDD: C3 BD 2E                          JP      L2EBD

2CE0: DD 6E FE                   L2CE0: LD      L,(IX-02h)
2CE3: DD 66 FF                          LD      H,(IX-01h)
2CE6: DD 34 FE                          INC     (IX-02h)
2CE9: 20 03                             JR      NZ,L2CEE
2CEB: DD 34 FF                          INC     (IX-01h)
2CEE: DD 7E F2                   L2CEE: LD      A,(IX-0Eh)
2CF1: 85                                ADD     A,L
2CF2: 6F                                LD      L,A
2CF3: DD 7E F3                          LD      A,(IX-0Dh)
2CF6: 8C                                ADC     A,H
2CF7: 67                                LD      H,A
2CF8: 7E                                LD      A,(HL)
2CF9: DD 77 FA                          LD      (IX-06h),A
2CFC: 3E 20                             LD      A,20h   ; ' '
2CFE: DD 96 FA                          SUB     (IX-06h)
2D01: 3E 00                             LD      A,00h
2D03: 17                                RLA
2D04: DD 77 FD                          LD      (IX-03h),A
2D07: CB 47                             BIT     0,A
2D09: CA 73 2E                          JP      Z,L2E73
2D0C: DD 7E FA                          LD      A,(IX-06h)
2D0F: D6 2F                             SUB     2Fh     ; '/'
2D11: 28 07                             JR      Z,L2D1A
2D13: DD 7E FA                          LD      A,(IX-06h)
2D16: D6 5C                             SUB     5Ch     ; '\'
2D18: 20 22                             JR      NZ,L2D3C
2D1A: DD 7E F2                   L2D1A: LD      A,(IX-0Eh)
2D1D: DD 86 FE                          ADD     A,(IX-02h)
2D20: 6F                                LD      L,A
2D21: DD 7E F3                          LD      A,(IX-0Dh)
2D24: DD 8E FF                          ADC     A,(IX-01h)
2D27: 67                                LD      H,A
2D28: 7E                                LD      A,(HL)
2D29: FE 2F                             CP      2Fh     ; '/'
2D2B: 28 05                             JR      Z,L2D32
2D2D: D6 5C                             SUB     5Ch     ; '\'
2D2F: C2 73 2E                          JP      NZ,L2E73
2D32: DD 34 FE                   L2D32: INC     (IX-02h)
2D35: 20 E3                             JR      NZ,L2D1A
2D37: DD 34 FF                          INC     (IX-01h)
2D3A: 18 DE                             JR      L2D1A

2D3C: DD 7E FA                   L2D3C: LD      A,(IX-06h)
2D3F: D6 2E                             SUB     2Eh     ; '.'
2D41: 3E 01                             LD      A,01h
2D43: 28 01                             JR      Z,L2D46
2D45: AF                                XOR     A
2D46: 6F                         L2D46: LD      L,A
2D47: B7                                OR      A
2D48: 20 0E                             JR      NZ,L2D58
2D4A: DD 7E F6                          LD      A,(IX-0Ah)
2D4D: DD 96 F8                          SUB     (IX-08h)
2D50: DD 7E F7                          LD      A,(IX-09h)
2D53: DD 9E F9                          SBC     A,(IX-07h)
2D56: 38 26                             JR      C,L2D7E
2D58: DD 7E F8                   L2D58: LD      A,(IX-08h)
2D5B: D6 0B                             SUB     0Bh
2D5D: DD B6 F9                          OR      (IX-07h)
2D60: 28 04                             JR      Z,L2D66
2D62: CB 45                             BIT     0,L
2D64: 20 05                             JR      NZ,L2D6B
2D66: 2E 06                      L2D66: LD      L,06h
2D68: C3 BD 2E                          JP      L2EBD

2D6B: DD 36 F6 08                L2D6B: LD      (IX-0Ah),08h
2D6F: AF                                XOR     A
2D70: DD 77 F7                          LD      (IX-09h),A
2D73: DD 36 F8 0B                       LD      (IX-08h),0Bh
2D77: AF                                XOR     A
2D78: DD 77 F9                          LD      (IX-07h),A
2D7B: C3 E0 2C                          JP      L2CE0

2D7E: C5                         L2D7E: PUSH    BC
2D7F: D5                                PUSH    DE
2D80: DD 7E FA                          LD      A,(IX-06h)
2D83: F5                                PUSH    AF
2D84: 33                                INC     SP
2D85: CD 22 47                          CALL    L4722
2D88: 33                                INC     SP
2D89: D1                                POP     DE
2D8A: C1                                POP     BC
2D8B: DD 7E F6                          LD      A,(IX-0Ah)
2D8E: C6 01                             ADD     A,01h
2D90: DD 77 FC                          LD      (IX-04h),A
2D93: DD 7E F7                          LD      A,(IX-09h)
2D96: CE 00                             ADC     A,00h
2D98: DD 77 FD                          LD      (IX-03h),A
2D9B: 7C                                LD      A,H
2D9C: B5                                OR      L
2D9D: CA 1E 2E                          JP      Z,L2E1E
2DA0: DD 6E FE                          LD      L,(IX-02h)
2DA3: DD 66 FF                          LD      H,(IX-01h)
2DA6: DD 34 FE                          INC     (IX-02h)
2DA9: 20 03                             JR      NZ,L2DAE
2DAB: DD 34 FF                          INC     (IX-01h)
2DAE: DD 7E F2                   L2DAE: LD      A,(IX-0Eh)
2DB1: 85                                ADD     A,L
2DB2: 6F                                LD      L,A
2DB3: DD 7E F3                          LD      A,(IX-0Dh)
2DB6: 8C                                ADC     A,H
2DB7: 67                                LD      H,A
2DB8: 7E                                LD      A,(HL)
2DB9: DD 77 FB                          LD      (IX-05h),A
2DBC: C5                                PUSH    BC
2DBD: D5                                PUSH    DE
2DBE: DD 7E FB                          LD      A,(IX-05h)
2DC1: F5                                PUSH    AF
2DC2: 33                                INC     SP
2DC3: CD E5 3E                          CALL    L3EE5
2DC6: 33                                INC     SP
2DC7: D1                                POP     DE
2DC8: C1                                POP     BC
2DC9: 7C                                LD      A,H
2DCA: B5                                OR      L
2DCB: 28 11                             JR      Z,L2DDE
2DCD: DD 6E F8                          LD      L,(IX-08h)
2DD0: DD 66 F9                          LD      H,(IX-07h)
2DD3: 2B                                DEC     HL
2DD4: DD 7E F6                          LD      A,(IX-0Ah)
2DD7: 95                                SUB     L
2DD8: DD 7E F7                          LD      A,(IX-09h)
2DDB: 9C                                SBC     A,H
2DDC: 38 05                             JR      C,L2DE3
2DDE: 2E 06                      L2DDE: LD      L,06h
2DE0: C3 BD 2E                          JP      L2EBD

2DE3: DD 6E F6                   L2DE3: LD      L,(IX-0Ah)
2DE6: DD 66 F7                          LD      H,(IX-09h)
2DE9: DD 7E F4                          LD      A,(IX-0Ch)
2DEC: 85                                ADD     A,L
2DED: 6F                                LD      L,A
2DEE: DD 7E F5                          LD      A,(IX-0Bh)
2DF1: 8C                                ADC     A,H
2DF2: 67                                LD      H,A
2DF3: DD 7E FA                          LD      A,(IX-06h)
2DF6: 77                                LD      (HL),A
2DF7: DD 6E FC                          LD      L,(IX-04h)
2DFA: DD 66 FD                          LD      H,(IX-03h)
2DFD: DD 7E FC                          LD      A,(IX-04h)
2E00: C6 01                             ADD     A,01h
2E02: DD 77 F6                          LD      (IX-0Ah),A
2E05: DD 7E FD                          LD      A,(IX-03h)
2E08: CE 00                             ADC     A,00h
2E0A: DD 77 F7                          LD      (IX-09h),A
2E0D: DD 7E F4                          LD      A,(IX-0Ch)
2E10: 85                                ADD     A,L
2E11: 6F                                LD      L,A
2E12: DD 7E F5                          LD      A,(IX-0Bh)
2E15: 8C                                ADC     A,H
2E16: 67                                LD      H,A
2E17: DD 7E FB                          LD      A,(IX-05h)
2E1A: 77                                LD      (HL),A
2E1B: C3 E0 2C                          JP      L2CE0

2E1E: DD 6E FA                   L2E1E: LD      L,(IX-06h)
2E21: 26 00                             LD      H,00h
2E23: C5                                PUSH    BC
2E24: D5                                PUSH    DE
2E25: E5                                PUSH    HL
2E26: 21 C2 2E                          LD      HL,2EC2h
2E29: E5                                PUSH    HL
2E2A: CD 30 3F                          CALL    L3F30
2E2D: F1                                POP     AF
2E2E: F1                                POP     AF
2E2F: D1                                POP     DE
2E30: C1                                POP     BC
2E31: 7C                                LD      A,H
2E32: B5                                OR      L
2E33: 28 05                             JR      Z,L2E3A
2E35: 2E 06                             LD      L,06h
2E37: C3 BD 2E                          JP      L2EBD

2E3A: DD 7E FA                   L2E3A: LD      A,(IX-06h)
2E3D: D6 61                             SUB     61h     ; 'a'
2E3F: 38 0F                             JR      C,L2E50
2E41: 3E 7A                             LD      A,7Ah   ; 'z'
2E43: DD 96 FA                          SUB     (IX-06h)
2E46: 38 08                             JR      C,L2E50
2E48: DD 7E FA                          LD      A,(IX-06h)
2E4B: C6 E0                             ADD     A,0E0h
2E4D: DD 77 FA                          LD      (IX-06h),A
2E50: DD 6E F6                   L2E50: LD      L,(IX-0Ah)
2E53: DD 66 F7                          LD      H,(IX-09h)
2E56: DD 7E FC                          LD      A,(IX-04h)
2E59: DD 77 F6                          LD      (IX-0Ah),A
2E5C: DD 7E FD                          LD      A,(IX-03h)
2E5F: DD 77 F7                          LD      (IX-09h),A
2E62: 7D                                LD      A,L
2E63: DD 86 F4                          ADD     A,(IX-0Ch)
2E66: 6F                                LD      L,A
2E67: 7C                                LD      A,H
2E68: DD 8E F5                          ADC     A,(IX-0Bh)
2E6B: 67                                LD      H,A
2E6C: DD 7E FA                          LD      A,(IX-06h)
2E6F: 77                                LD      (HL),A
2E70: C3 E0 2C                          JP      L2CE0

2E73: DD 7E F2                   L2E73: LD      A,(IX-0Eh)
2E76: DD 86 FE                          ADD     A,(IX-02h)
2E79: DD 77 FB                          LD      (IX-05h),A
2E7C: DD 7E F3                          LD      A,(IX-0Dh)
2E7F: DD 8E FF                          ADC     A,(IX-01h)
2E82: DD 77 FC                          LD      (IX-04h),A
2E85: DD 7E FB                          LD      A,(IX-05h)
2E88: 12                                LD      (DE),A
2E89: 13                                INC     DE
2E8A: DD 7E FC                          LD      A,(IX-04h)
2E8D: 12                                LD      (DE),A
2E8E: DD 7E F7                          LD      A,(IX-09h)
2E91: DD B6 F6                          OR      (IX-0Ah)
2E94: 20 04                             JR      NZ,L2E9A
2E96: 2E 06                             LD      L,06h
2E98: 18 23                             JR      L2EBD

2E9A: DD 6E F4                   L2E9A: LD      L,(IX-0Ch)
2E9D: DD 66 F5                          LD      H,(IX-0Bh)
2EA0: 7E                                LD      A,(HL)
2EA1: D6 E5                             SUB     0E5h
2EA3: 20 06                             JR      NZ,L2EAB
2EA5: D1                                POP     DE
2EA6: E1                                POP     HL
2EA7: E5                                PUSH    HL
2EA8: D5                                PUSH    DE
2EA9: 36 05                             LD      (HL),05h
2EAB: DD CB FD 46                L2EAB: BIT     0,(IX-03h)
2EAF: 20 05                             JR      NZ,L2EB6
2EB1: 11 04 00                          LD      DE,0004h
2EB4: 18 03                             JR      L2EB9

2EB6: 11 00 00                   L2EB6: LD      DE,0000h
2EB9: 7B                         L2EB9: LD      A,E
2EBA: 02                                LD      (BC),A
2EBB: 2E 00                             LD      L,00h
2EBD: DD F9                      L2EBD: LD      SP,IX
2EBF: DD E1                             POP     IX
2EC1: C9                                RET

2EC2: 22                         L2EC2: DB      22h     ; '"'
2EC3: 2A 2B 2C 3A 3B 3C 3D 3E           DB      "*+,:;<=>?[]|"
2ECB: 3F 5B 5D 7C
2ECF: 7F                                DB      7Fh
2ED0: 00                                DB      00h

                                        ; --- START PROC L2ED1 ---
2ED1: FD 21 02 00                L2ED1: LD      IY,0002h
2ED5: FD 39                             ADD     IY,SP
2ED7: FD 7E 00                          LD      A,(IY+00h)
2EDA: C6 30                             ADD     A,30h   ; '0'
2EDC: 47                                LD      B,A
2EDD: 3E 39                             LD      A,39h   ; '9'
2EDF: 90                                SUB     B
2EE0: 30 10                             JR      NC,L2EF2
2EE2: 78                                LD      A,B
2EE3: C6 07                             ADD     A,07h
2EE5: 47                                LD      B,A
2EE6: FD 23                             INC     IY
2EE8: FD CB 00 46                       BIT     0,(IY+00h)
2EEC: 28 04                             JR      Z,L2EF2
2EEE: 78                                LD      A,B
2EEF: C6 20                             ADD     A,20h   ; ' '
2EF1: 47                                LD      B,A
2EF2: FD 21 06 00                L2EF2: LD      IY,0006h
2EF6: FD 39                             ADD     IY,SP
2EF8: FD 6E 00                          LD      L,(IY+00h)
2EFB: FD 66 01                          LD      H,(IY+01h)
2EFE: E5                                PUSH    HL
2EFF: C5                                PUSH    BC
2F00: 33                                INC     SP
2F01: FD 2B                             DEC     IY
2F03: FD 2B                             DEC     IY
2F05: FD 6E 00                          LD      L,(IY+00h)
2F08: FD 66 01                          LD      H,(IY+01h)
2F0B: CD A2 12                          CALL    L12A2
2F0E: F1                                POP     AF
2F0F: 33                                INC     SP
2F10: C9                                RET

                                        ; --- START PROC L2F11 ---
2F11: DD E5                      L2F11: PUSH    IX
2F13: DD 21 00 00                       LD      IX,0000h
2F17: DD 39                             ADD     IX,SP
2F19: DD 46 04                          LD      B,(IX+04h)
2F1C: CB 38                             SRL     B
2F1E: CB 38                             SRL     B
2F20: CB 38                             SRL     B
2F22: CB 38                             SRL     B
2F24: DD 6E 08                          LD      L,(IX+08h)
2F27: DD 66 09                          LD      H,(IX+09h)
2F2A: E5                                PUSH    HL
2F2B: DD 6E 06                          LD      L,(IX+06h)
2F2E: DD 66 07                          LD      H,(IX+07h)
2F31: E5                                PUSH    HL
2F32: DD 7E 05                          LD      A,(IX+05h)
2F35: F5                                PUSH    AF
2F36: 33                                INC     SP
2F37: C5                                PUSH    BC
2F38: 33                                INC     SP
2F39: CD D1 2E                          CALL    L2ED1
2F3C: 21 06 00                          LD      HL,0006h
2F3F: 39                                ADD     HL,SP
2F40: F9                                LD      SP,HL
2F41: DD 7E 04                          LD      A,(IX+04h)
2F44: E6 0F                             AND     0Fh
2F46: 47                                LD      B,A
2F47: DD 6E 08                          LD      L,(IX+08h)
2F4A: DD 66 09                          LD      H,(IX+09h)
2F4D: E5                                PUSH    HL
2F4E: DD 6E 06                          LD      L,(IX+06h)
2F51: DD 66 07                          LD      H,(IX+07h)
2F54: E5                                PUSH    HL
2F55: DD 7E 05                          LD      A,(IX+05h)
2F58: F5                                PUSH    AF
2F59: 33                                INC     SP
2F5A: C5                                PUSH    BC
2F5B: 33                                INC     SP
2F5C: CD D1 2E                          CALL    L2ED1
2F5F: 21 06 00                          LD      HL,0006h
2F62: 39                                ADD     HL,SP
2F63: F9                                LD      SP,HL
2F64: DD E1                             POP     IX
2F66: C9                                RET

                                        ; --- START PROC L2F67 ---
2F67: DD E5                      L2F67: PUSH    IX
2F69: DD 21 00 00                       LD      IX,0000h
2F6D: DD 39                             ADD     IX,SP
2F6F: 21 F9 FF                          LD      HL,0FFF9h
2F72: 39                                ADD     HL,SP
2F73: F9                                LD      SP,HL
2F74: DD 5E 04                          LD      E,(IX+04h)
2F77: DD 56 05                          LD      D,(IX+05h)
2F7A: D5                                PUSH    DE
2F7B: 21 05 00                          LD      HL,0005h
2F7E: 39                                ADD     HL,SP
2F7F: EB                                EX      DE,HL
2F80: 01 04 00                          LD      BC,0004h
2F83: ED B0                             LDIR
2F85: D1                                POP     DE
2F86: 21 04 00                          LD      HL,0004h
2F89: 19                                ADD     HL,DE
2F8A: 4D                                LD      C,L
2F8B: 44                                LD      B,H
2F8C: DD 36 FA 20                       LD      (IX-06h),20h    ; ' '
2F90: 0A                         L2F90: LD      A,(BC)
2F91: 87                                ADD     A,A
2F92: DD 77 F9                          LD      (IX-07h),A
2F95: DD 7E FF                          LD      A,(IX-01h)
2F98: CB 07                             RLC     A
2F9A: E6 01                             AND     01h
2F9C: DD 77 FB                          LD      (IX-05h),A
2F9F: DD 7E F9                          LD      A,(IX-07h)
2FA2: DD B6 FB                          OR      (IX-05h)
2FA5: DD 77 FB                          LD      (IX-05h),A
2FA8: 02                                LD      (BC),A
2FA9: DD CB FC 26                       SLA     (IX-04h)
2FAD: DD CB FD 16                       RL      (IX-03h)
2FB1: DD CB FE 16                       RL      (IX-02h)
2FB5: DD CB FF 16                       RL      (IX-01h)
2FB9: DD 7E FB                          LD      A,(IX-05h)
2FBC: DD 96 06                          SUB     (IX+06h)
2FBF: 38 1F                             JR      C,L2FE0
2FC1: 0A                                LD      A,(BC)
2FC2: DD 96 06                          SUB     (IX+06h)
2FC5: 02                                LD      (BC),A
2FC6: DD 7E FC                          LD      A,(IX-04h)
2FC9: F6 01                             OR      01h
2FCB: DD 77 FC                          LD      (IX-04h),A
2FCE: DD 7E FD                          LD      A,(IX-03h)
2FD1: DD 77 FD                          LD      (IX-03h),A
2FD4: DD 7E FE                          LD      A,(IX-02h)
2FD7: DD 77 FE                          LD      (IX-02h),A
2FDA: DD 7E FF                          LD      A,(IX-01h)
2FDD: DD 77 FF                          LD      (IX-01h),A
2FE0: DD 35 FA                   L2FE0: DEC     (IX-06h)
2FE3: DD 7E FA                          LD      A,(IX-06h)
2FE6: B7                                OR      A
2FE7: 20 A7                             JR      NZ,L2F90
2FE9: 21 03 00                          LD      HL,0003h
2FEC: 39                                ADD     HL,SP
2FED: 01 04 00                          LD      BC,0004h
2FF0: ED B0                             LDIR
2FF2: DD F9                             LD      SP,IX
2FF4: DD E1                             POP     IX
2FF6: C9                                RET

                                        ; --- START PROC L2FF7 ---
2FF7: DD E5                      L2FF7: PUSH    IX
2FF9: DD 21 00 00                       LD      IX,0000h
2FFD: DD 39                             ADD     IX,SP
2FFF: 21 CD FF                          LD      HL,0FFCDh
3002: 39                                ADD     HL,SP
3003: F9                                LD      SP,HL
3004: AF                                XOR     A
3005: DD 77 FA                          LD      (IX-06h),A
3008: DD 77 FB                          LD      (IX-05h),A
300B: 21 08 00                          LD      HL,0008h
300E: 39                                ADD     HL,SP
300F: DD 75 E0                          LD      (IX-20h),L
3012: DD 74 E1                          LD      (IX-1Fh),H
3015: 21 12 00                          LD      HL,0012h
3018: 39                                ADD     HL,SP
3019: DD 75 E2                          LD      (IX-1Eh),L
301C: DD 74 E3                          LD      (IX-1Dh),H
301F: 21 08 00                          LD      HL,0008h
3022: 39                                ADD     HL,SP
3023: DD 75 E4                          LD      (IX-1Ch),L
3026: DD 74 E5                          LD      (IX-1Bh),H
3029: DD 7E E4                          LD      A,(IX-1Ch)
302C: C6 04                             ADD     A,04h
302E: DD 77 E6                          LD      (IX-1Ah),A
3031: DD 7E E5                          LD      A,(IX-1Bh)
3034: CE 00                             ADC     A,00h
3036: DD 77 E7                          LD      (IX-19h),A
3039: DD 7E E6                          LD      A,(IX-1Ah)
303C: DD 77 E8                          LD      (IX-18h),A
303F: DD 7E E7                          LD      A,(IX-19h)
3042: DD 77 E9                          LD      (IX-17h),A
3045: DD 7E E6                          LD      A,(IX-1Ah)
3048: DD 77 EA                          LD      (IX-16h),A
304B: DD 7E E7                          LD      A,(IX-19h)
304E: DD 77 EB                          LD      (IX-15h),A
3051: DD 6E 08                   L3051: LD      L,(IX+08h)
3054: DD 66 09                          LD      H,(IX+09h)
3057: 5E                                LD      E,(HL)
3058: 23                                INC     HL
3059: DD 75 08                          LD      (IX+08h),L
305C: DD 74 09                          LD      (IX+09h),H
305F: DD 73 FF                          LD      (IX-01h),E
3062: 7B                                LD      A,E
3063: B7                                OR      A
3064: CA 51 3B                          JP      Z,L3B51
3067: DD 7E FF                          LD      A,(IX-01h)
306A: D6 25                             SUB     25h     ; '%'
306C: C2 2E 3B                          JP      NZ,L3B2E
306F: AF                                XOR     A
3070: DD 77 EC                          LD      (IX-14h),A
3073: AF                                XOR     A
3074: DD 77 ED                          LD      (IX-13h),A
3077: AF                                XOR     A
3078: DD 77 EE                          LD      (IX-12h),A
307B: AF                                XOR     A
307C: DD 77 EF                          LD      (IX-11h),A
307F: AF                                XOR     A
3080: DD 77 F0                          LD      (IX-10h),A
3083: AF                                XOR     A
3084: DD 77 F1                          LD      (IX-0Fh),A
3087: AF                                XOR     A
3088: DD 77 F2                          LD      (IX-0Eh),A
308B: AF                                XOR     A
308C: DD 77 F3                          LD      (IX-0Dh),A
308F: AF                                XOR     A
3090: DD 77 F4                          LD      (IX-0Ch),A
3093: AF                                XOR     A
3094: DD 77 FC                          LD      (IX-04h),A
3097: DD 77 FD                          LD      (IX-03h),A
309A: DD 36 F5 FF                       LD      (IX-0Bh),0FFh
309E: DD 36 F6 FF                       LD      (IX-0Ah),0FFh
30A2: DD 7E 08                          LD      A,(IX+08h)
30A5: DD 77 F8                          LD      (IX-08h),A
30A8: DD 7E 09                          LD      A,(IX+09h)
30AB: DD 77 F9                          LD      (IX-07h),A
30AE: DD 6E F8                   L30AE: LD      L,(IX-08h)
30B1: DD 66 F9                          LD      H,(IX-07h)
30B4: 7E                                LD      A,(HL)
30B5: DD 77 FF                          LD      (IX-01h),A
30B8: DD 34 F8                          INC     (IX-08h)
30BB: 20 03                             JR      NZ,L30C0
30BD: DD 34 F9                          INC     (IX-07h)
30C0: DD 7E F8                   L30C0: LD      A,(IX-08h)
30C3: DD 77 08                          LD      (IX+08h),A
30C6: DD 7E F9                          LD      A,(IX-07h)
30C9: DD 77 09                          LD      (IX+09h),A
30CC: DD 7E FF                          LD      A,(IX-01h)
30CF: D6 25                             SUB     25h     ; '%'
30D1: 20 23                             JR      NZ,L30F6
30D3: DD 6E 06                          LD      L,(IX+06h)
30D6: DD 66 07                          LD      H,(IX+07h)
30D9: E5                                PUSH    HL
30DA: DD 7E FF                          LD      A,(IX-01h)
30DD: F5                                PUSH    AF
30DE: 33                                INC     SP
30DF: DD 6E 04                          LD      L,(IX+04h)
30E2: DD 66 05                          LD      H,(IX+05h)
30E5: CD A2 12                          CALL    L12A2
30E8: F1                                POP     AF
30E9: 33                                INC     SP
30EA: DD 34 FA                          INC     (IX-06h)
30ED: C2 51 30                          JP      NZ,L3051
30F0: DD 34 FB                          INC     (IX-05h)
30F3: C3 51 30                          JP      L3051

30F6: DD 7E FF                   L30F6: LD      A,(IX-01h)
30F9: D6 30                             SUB     30h     ; '0'
30FB: 38 73                             JR      C,L3170
30FD: 3E 39                             LD      A,39h   ; '9'
30FF: DD 96 FF                          SUB     (IX-01h)
3102: 38 6C                             JR      C,L3170
3104: DD 7E F5                          LD      A,(IX-0Bh)
3107: DD A6 F6                          AND     (IX-0Ah)
310A: 3C                                INC     A
310B: 20 42                             JR      NZ,L314F
310D: DD 4E FC                          LD      C,(IX-04h)
3110: DD 46 FD                          LD      B,(IX-03h)
3113: 69                                LD      L,C
3114: 60                                LD      H,B
3115: 29                                ADD     HL,HL
3116: 29                                ADD     HL,HL
3117: 09                                ADD     HL,BC
3118: 29                                ADD     HL,HL
3119: DD 75 D3                          LD      (IX-2Dh),L
311C: DD 74 D4                          LD      (IX-2Ch),H
311F: DD 7E FF                          LD      A,(IX-01h)
3122: DD 77 FE                          LD      (IX-02h),A
3125: AF                                XOR     A
3126: DD 77 FF                          LD      (IX-01h),A
3129: DD 4E FE                          LD      C,(IX-02h)
312C: DD 46 FF                          LD      B,(IX-01h)
312F: DD 6E D3                          LD      L,(IX-2Dh)
3132: DD 66 D4                          LD      H,(IX-2Ch)
3135: 09                                ADD     HL,BC
3136: 7D                                LD      A,L
3137: C6 D0                             ADD     A,0D0h
3139: DD 77 FC                          LD      (IX-04h),A
313C: 7C                                LD      A,H
313D: CE FF                             ADC     A,0FFh
313F: DD 77 FD                          LD      (IX-03h),A
3142: DD B6 FC                          OR      (IX-04h)
3145: C2 AE 30                          JP      NZ,L30AE
3148: DD 36 ED 01                       LD      (IX-13h),01h
314C: C3 AE 30                          JP      L30AE

314F: DD 4E F5                   L314F: LD      C,(IX-0Bh)
3152: DD 46 F6                          LD      B,(IX-0Ah)
3155: 69                                LD      L,C
3156: 60                                LD      H,B
3157: 29                                ADD     HL,HL
3158: 29                                ADD     HL,HL
3159: 09                                ADD     HL,BC
315A: 29                                ADD     HL,HL
315B: DD 4E FF                          LD      C,(IX-01h)
315E: 06 00                             LD      B,00h
3160: 09                                ADD     HL,BC
3161: 7D                                LD      A,L
3162: C6 D0                             ADD     A,0D0h
3164: DD 77 F5                          LD      (IX-0Bh),A
3167: 7C                                LD      A,H
3168: CE FF                             ADC     A,0FFh
316A: DD 77 F6                          LD      (IX-0Ah),A
316D: C3 AE 30                          JP      L30AE

3170: DD 7E FF                   L3170: LD      A,(IX-01h)
3173: D6 2E                             SUB     2Eh     ; '.'
3175: 20 14                             JR      NZ,L318B
3177: DD 7E F5                          LD      A,(IX-0Bh)
317A: DD A6 F6                          AND     (IX-0Ah)
317D: 3C                                INC     A
317E: C2 AE 30                          JP      NZ,L30AE
3181: AF                                XOR     A
3182: DD 77 F5                          LD      (IX-0Bh),A
3185: DD 77 F6                          LD      (IX-0Ah),A
3188: C3 AE 30                          JP      L30AE

318B: DD 7E FF                   L318B: LD      A,(IX-01h)
318E: D6 61                             SUB     61h     ; 'a'
3190: 38 15                             JR      C,L31A7
3192: 3E 7A                             LD      A,7Ah   ; 'z'
3194: DD 96 FF                          SUB     (IX-01h)
3197: 38 0E                             JR      C,L31A7
3199: DD 7E FF                          LD      A,(IX-01h)
319C: E6 DF                             AND     0DFh
319E: DD 77 FF                          LD      (IX-01h),A
31A1: DD 36 F7 01                       LD      (IX-09h),01h
31A5: 18 04                             JR      L31AB

31A7: AF                         L31A7: XOR     A
31A8: DD 77 F7                          LD      (IX-09h),A
31AB: DD 7E FF                   L31AB: LD      A,(IX-01h)
31AE: D6 20                             SUB     20h     ; ' '
31B0: CA 4A 32                          JP      Z,L324A
31B3: DD 7E FF                          LD      A,(IX-01h)
31B6: D6 2B                             SUB     2Bh     ; '+'
31B8: CA 43 32                          JP      Z,L3243
31BB: DD 7E FF                          LD      A,(IX-01h)
31BE: D6 2D                             SUB     2Dh     ; '-'
31C0: 28 7A                             JR      Z,L323C
31C2: DD 7E FF                          LD      A,(IX-01h)
31C5: D6 42                             SUB     42h     ; 'B'
31C7: CA 51 32                          JP      Z,L3251
31CA: DD 7E FF                          LD      A,(IX-01h)
31CD: D6 43                             SUB     43h     ; 'C'
31CF: CA 5F 32                          JP      Z,L325F
31D2: DD 7E FF                          LD      A,(IX-01h)
31D5: D6 44                             SUB     44h     ; 'D'
31D7: CA BD 34                          JP      Z,L34BD
31DA: DD 7E FF                          LD      A,(IX-01h)
31DD: D6 46                             SUB     46h     ; 'F'
31DF: CA D9 34                          JP      Z,L34D9
31E2: DD 7E FF                          LD      A,(IX-01h)
31E5: D6 48                             SUB     48h     ; 'H'
31E7: CA AE 30                          JP      Z,L30AE
31EA: DD 7E FF                          LD      A,(IX-01h)
31ED: D6 49                             SUB     49h     ; 'I'
31EF: CA BD 34                          JP      Z,L34BD
31F2: DD 7E FF                          LD      A,(IX-01h)
31F5: D6 4A                             SUB     4Ah     ; 'J'
31F7: CA AE 30                          JP      Z,L30AE
31FA: DD 7E FF                          LD      A,(IX-01h)
31FD: D6 4C                             SUB     4Ch     ; 'L'
31FF: 28 57                             JR      Z,L3258
3201: DD 7E FF                          LD      A,(IX-01h)
3204: D6 4F                             SUB     4Fh     ; 'O'
3206: CA C7 34                          JP      Z,L34C7
3209: DD 7E FF                          LD      A,(IX-01h)
320C: D6 50                             SUB     50h     ; 'P'
320E: CA 14 34                          JP      Z,L3414
3211: DD 7E FF                          LD      A,(IX-01h)
3214: D6 53                             SUB     53h     ; 'S'
3216: CA A7 32                          JP      Z,L32A7
3219: DD 7E FF                          LD      A,(IX-01h)
321C: D6 54                             SUB     54h     ; 'T'
321E: CA AE 30                          JP      Z,L30AE
3221: DD 7E FF                          LD      A,(IX-01h)
3224: D6 55                             SUB     55h     ; 'U'
3226: CA CD 34                          JP      Z,L34CD
3229: DD 7E FF                          LD      A,(IX-01h)
322C: D6 58                             SUB     58h     ; 'X'
322E: CA D3 34                          JP      Z,L34D3
3231: DD 7E FF                          LD      A,(IX-01h)
3234: D6 5A                             SUB     5Ah     ; 'Z'
3236: CA AE 30                          JP      Z,L30AE
3239: C3 DF 34                          JP      L34DF

323C: DD 36 EC 01                L323C: LD      (IX-14h),01h
3240: C3 AE 30                          JP      L30AE

3243: DD 36 EE 01                L3243: LD      (IX-12h),01h
3247: C3 AE 30                          JP      L30AE

324A: DD 36 EF 01                L324A: LD      (IX-11h),01h
324E: C3 AE 30                          JP      L30AE

3251: DD 36 F1 01                L3251: LD      (IX-0Fh),01h
3255: C3 AE 30                          JP      L30AE

3258: DD 36 F2 01                L3258: LD      (IX-0Eh),01h
325C: C3 AE 30                          JP      L30AE

325F: DD CB F1 46                L325F: BIT     0,(IX-0Fh)
3263: 28 11                             JR      Z,L3276
3265: DD 6E 0A                          LD      L,(IX+0Ah)
3268: DD 66 0B                          LD      H,(IX+0Bh)
326B: 23                                INC     HL
326C: DD 75 0A                          LD      (IX+0Ah),L
326F: DD 74 0B                          LD      (IX+0Bh),H
3272: 2B                                DEC     HL
3273: 46                                LD      B,(HL)
3274: 18 11                             JR      L3287

3276: DD 6E 0A                   L3276: LD      L,(IX+0Ah)
3279: DD 66 0B                          LD      H,(IX+0Bh)
327C: 23                                INC     HL
327D: 23                                INC     HL
327E: DD 75 0A                          LD      (IX+0Ah),L
3281: DD 74 0B                          LD      (IX+0Bh),H
3284: 2B                                DEC     HL
3285: 2B                                DEC     HL
3286: 46                                LD      B,(HL)
3287: DD 6E 06                   L3287: LD      L,(IX+06h)
328A: DD 66 07                          LD      H,(IX+07h)
328D: E5                                PUSH    HL
328E: C5                                PUSH    BC
328F: 33                                INC     SP
3290: DD 6E 04                          LD      L,(IX+04h)
3293: DD 66 05                          LD      H,(IX+05h)
3296: CD A2 12                          CALL    L12A2
3299: F1                                POP     AF
329A: 33                                INC     SP
329B: DD 34 FA                          INC     (IX-06h)
329E: C2 0C 35                          JP      NZ,L350C
32A1: DD 34 FB                          INC     (IX-05h)
32A4: C3 0C 35                          JP      L350C

32A7: 21 08 00                   L32A7: LD      HL,0008h
32AA: 39                                ADD     HL,SP
32AB: DD 75 F8                          LD      (IX-08h),L
32AE: DD 74 F9                          LD      (IX-07h),H
32B1: DD 6E 0A                          LD      L,(IX+0Ah)
32B4: DD 66 0B                          LD      H,(IX+0Bh)
32B7: 23                                INC     HL
32B8: 23                                INC     HL
32B9: DD 75 0A                          LD      (IX+0Ah),L
32BC: DD 74 0B                          LD      (IX+0Bh),H
32BF: 2B                                DEC     HL
32C0: 2B                                DEC     HL
32C1: 4E                                LD      C,(HL)
32C2: 23                                INC     HL
32C3: 46                                LD      B,(HL)
32C4: DD 6E F8                          LD      L,(IX-08h)
32C7: DD 66 F9                          LD      H,(IX-07h)
32CA: 71                                LD      (HL),C
32CB: 23                                INC     HL
32CC: 70                                LD      (HL),B
32CD: C5                                PUSH    BC
32CE: CD F7 14                          CALL    L14F7
32D1: F1                                POP     AF
32D2: 4D                                LD      C,L
32D3: 44                                LD      B,H
32D4: DD 7E F5                          LD      A,(IX-0Bh)
32D7: DD A6 F6                          AND     (IX-0Ah)
32DA: 3C                                INC     A
32DB: 20 06                             JR      NZ,L32E3
32DD: DD 71 F5                          LD      (IX-0Bh),C
32E0: DD 70 F6                          LD      (IX-0Ah),B
32E3: DD CB EC 46                L32E3: BIT     0,(IX-14h)
32E7: 20 67                             JR      NZ,L3350
32E9: 79                                LD      A,C
32EA: DD 96 FC                          SUB     (IX-04h)
32ED: 78                                LD      A,B
32EE: DD 9E FD                          SBC     A,(IX-03h)
32F1: 30 5D                             JR      NC,L3350
32F3: DD 7E FC                          LD      A,(IX-04h)
32F6: 91                                SUB     C
32F7: DD 77 FE                          LD      (IX-02h),A
32FA: DD 7E FD                          LD      A,(IX-03h)
32FD: 98                                SBC     A,B
32FE: DD 77 FF                          LD      (IX-01h),A
3301: DD 5E FA                          LD      E,(IX-06h)
3304: DD 56 FB                          LD      D,(IX-05h)
3307: DD 6E FE                   L3307: LD      L,(IX-02h)
330A: DD 66 FF                          LD      H,(IX-01h)
330D: DD 7E FE                          LD      A,(IX-02h)
3310: C6 FF                             ADD     A,0FFh
3312: DD 77 FE                          LD      (IX-02h),A
3315: DD 7E FF                          LD      A,(IX-01h)
3318: CE FF                             ADC     A,0FFh
331A: DD 77 FF                          LD      (IX-01h),A
331D: 7C                                LD      A,H
331E: B5                                OR      L
331F: 28 1D                             JR      Z,L333E
3321: C5                                PUSH    BC
3322: D5                                PUSH    DE
3323: DD 6E 06                          LD      L,(IX+06h)
3326: DD 66 07                          LD      H,(IX+07h)
3329: E5                                PUSH    HL
332A: 3E 20                             LD      A,20h   ; ' '
332C: F5                                PUSH    AF
332D: 33                                INC     SP
332E: DD 6E 04                          LD      L,(IX+04h)
3331: DD 66 05                          LD      H,(IX+05h)
3334: CD A2 12                          CALL    L12A2
3337: F1                                POP     AF
3338: 33                                INC     SP
3339: D1                                POP     DE
333A: C1                                POP     BC
333B: 13                                INC     DE
333C: 18 C9                             JR      L3307

333E: DD 73 FA                   L333E: LD      (IX-06h),E
3341: DD 72 FB                          LD      (IX-05h),D
3344: DD 7E FE                          LD      A,(IX-02h)
3347: DD 77 FC                          LD      (IX-04h),A
334A: DD 7E FF                          LD      A,(IX-01h)
334D: DD 77 FD                          LD      (IX-03h),A
3350: DD 7E F5                   L3350: LD      A,(IX-0Bh)
3353: DD 77 FE                          LD      (IX-02h),A
3356: DD 7E F6                          LD      A,(IX-0Ah)
3359: DD 77 FF                          LD      (IX-01h),A
335C: DD 5E FA                          LD      E,(IX-06h)
335F: DD 56 FB                          LD      D,(IX-05h)
3362: DD 6E F8                   L3362: LD      L,(IX-08h)
3365: DD 66 F9                          LD      H,(IX-07h)
3368: 7E                                LD      A,(HL)
3369: 23                                INC     HL
336A: 66                                LD      H,(HL)
336B: 6F                                LD      L,A
336C: 7E                                LD      A,(HL)
336D: DD 77 FB                          LD      (IX-05h),A
3370: B7                                OR      A
3371: 28 5A                             JR      Z,L33CD
3373: AF                                XOR     A
3374: DD BE FE                          CP      (IX-02h)
3377: DD 9E FF                          SBC     A,(IX-01h)
337A: E2 7F 33                          JP      PO,L337F
337D: EE 80                             XOR     80h
337F: F2 CD 33                   L337F: JP      P,L33CD
3382: DD 6E FE                          LD      L,(IX-02h)
3385: DD 66 FF                          LD      H,(IX-01h)
3388: 2B                                DEC     HL
3389: DD 75 FE                          LD      (IX-02h),L
338C: DD 74 FF                          LD      (IX-01h),H
338F: C5                                PUSH    BC
3390: D5                                PUSH    DE
3391: DD 6E 06                          LD      L,(IX+06h)
3394: DD 66 07                          LD      H,(IX+07h)
3397: E5                                PUSH    HL
3398: DD 7E FB                          LD      A,(IX-05h)
339B: F5                                PUSH    AF
339C: 33                                INC     SP
339D: DD 6E 04                          LD      L,(IX+04h)
33A0: DD 66 05                          LD      H,(IX+05h)
33A3: CD A2 12                          CALL    L12A2
33A6: F1                                POP     AF
33A7: 33                                INC     SP
33A8: D1                                POP     DE
33A9: C1                                POP     BC
33AA: 13                                INC     DE
33AB: DD 6E F8                          LD      L,(IX-08h)
33AE: DD 66 F9                          LD      H,(IX-07h)
33B1: 7E                                LD      A,(HL)
33B2: 23                                INC     HL
33B3: 66                                LD      H,(HL)
33B4: 6F                                LD      L,A
33B5: 23                                INC     HL
33B6: DD 75 FA                          LD      (IX-06h),L
33B9: DD 74 FB                          LD      (IX-05h),H
33BC: DD 6E F8                          LD      L,(IX-08h)
33BF: DD 66 F9                          LD      H,(IX-07h)
33C2: DD 7E FA                          LD      A,(IX-06h)
33C5: 77                                LD      (HL),A
33C6: 23                                INC     HL
33C7: DD 7E FB                          LD      A,(IX-05h)
33CA: 77                                LD      (HL),A
33CB: 18 95                             JR      L3362

33CD: DD 73 FA                   L33CD: LD      (IX-06h),E
33D0: DD 72 FB                          LD      (IX-05h),D
33D3: DD CB EC 46                       BIT     0,(IX-14h)
33D7: CA 0C 35                          JP      Z,L350C
33DA: 79                                LD      A,C
33DB: DD 96 FC                          SUB     (IX-04h)
33DE: 78                                LD      A,B
33DF: DD 9E FD                          SBC     A,(IX-03h)
33E2: D2 0C 35                          JP      NC,L350C
33E5: DD 7E FC                          LD      A,(IX-04h)
33E8: 91                                SUB     C
33E9: 4F                                LD      C,A
33EA: DD 7E FD                          LD      A,(IX-03h)
33ED: 98                                SBC     A,B
33EE: 47                                LD      B,A
33EF: 69                         L33EF: LD      L,C
33F0: 60                                LD      H,B
33F1: 0B                                DEC     BC
33F2: 7C                                LD      A,H
33F3: B5                                OR      L
33F4: CA 00 35                          JP      Z,L3500
33F7: C5                                PUSH    BC
33F8: D5                                PUSH    DE
33F9: DD 6E 06                          LD      L,(IX+06h)
33FC: DD 66 07                          LD      H,(IX+07h)
33FF: E5                                PUSH    HL
3400: 3E 20                             LD      A,20h   ; ' '
3402: F5                                PUSH    AF
3403: 33                                INC     SP
3404: DD 6E 04                          LD      L,(IX+04h)
3407: DD 66 05                          LD      H,(IX+05h)
340A: CD A2 12                          CALL    L12A2
340D: F1                                POP     AF
340E: 33                                INC     SP
340F: D1                                POP     DE
3410: C1                                POP     BC
3411: 13                                INC     DE
3412: 18 DB                             JR      L33EF

3414: 21 08 00                   L3414: LD      HL,0008h
3417: 39                                ADD     HL,SP
3418: EB                                EX      DE,HL
3419: DD 6E 0A                          LD      L,(IX+0Ah)
341C: DD 66 0B                          LD      H,(IX+0Bh)
341F: 23                                INC     HL
3420: 23                                INC     HL
3421: DD 75 0A                          LD      (IX+0Ah),L
3424: DD 74 0B                          LD      (IX+0Bh),H
3427: 2B                                DEC     HL
3428: 2B                                DEC     HL
3429: 4E                                LD      C,(HL)
342A: 23                                INC     HL
342B: 46                                LD      B,(HL)
342C: 79                                LD      A,C
342D: 12                                LD      (DE),A
342E: 13                                INC     DE
342F: 78                                LD      A,B
3430: 12                                LD      (DE),A
3431: DD 6E 06                          LD      L,(IX+06h)
3434: DD 66 07                          LD      H,(IX+07h)
3437: E5                                PUSH    HL
3438: 3E 30                             LD      A,30h   ; '0'
343A: F5                                PUSH    AF
343B: 33                                INC     SP
343C: DD 6E 04                          LD      L,(IX+04h)
343F: DD 66 05                          LD      H,(IX+05h)
3442: CD A2 12                          CALL    L12A2
3445: F1                                POP     AF
3446: 33                                INC     SP
3447: DD 4E FA                          LD      C,(IX-06h)
344A: DD 46 FB                          LD      B,(IX-05h)
344D: 03                                INC     BC
344E: C5                                PUSH    BC
344F: DD 6E 06                          LD      L,(IX+06h)
3452: DD 66 07                          LD      H,(IX+07h)
3455: E5                                PUSH    HL
3456: 3E 78                             LD      A,78h   ; 'x'
3458: F5                                PUSH    AF
3459: 33                                INC     SP
345A: DD 6E 04                          LD      L,(IX+04h)
345D: DD 66 05                          LD      H,(IX+05h)
3460: CD A2 12                          CALL    L12A2
3463: F1                                POP     AF
3464: 33                                INC     SP
3465: C1                                POP     BC
3466: 03                                INC     BC
3467: 21 09 00                          LD      HL,0009h
346A: 39                                ADD     HL,SP
346B: 56                                LD      D,(HL)
346C: C5                                PUSH    BC
346D: DD 6E 06                          LD      L,(IX+06h)
3470: DD 66 07                          LD      H,(IX+07h)
3473: E5                                PUSH    HL
3474: DD 6E 04                          LD      L,(IX+04h)
3477: DD 66 05                          LD      H,(IX+05h)
347A: E5                                PUSH    HL
347B: DD 7E F7                          LD      A,(IX-09h)
347E: F5                                PUSH    AF
347F: 33                                INC     SP
3480: D5                                PUSH    DE
3481: 33                                INC     SP
3482: CD 11 2F                          CALL    L2F11
3485: 21 06 00                          LD      HL,0006h
3488: 39                                ADD     HL,SP
3489: F9                                LD      SP,HL
348A: C1                                POP     BC
348B: 03                                INC     BC
348C: 03                                INC     BC
348D: DD 6E E0                          LD      L,(IX-20h)
3490: DD 66 E1                          LD      H,(IX-1Fh)
3493: 56                                LD      D,(HL)
3494: C5                                PUSH    BC
3495: DD 6E 06                          LD      L,(IX+06h)
3498: DD 66 07                          LD      H,(IX+07h)
349B: E5                                PUSH    HL
349C: DD 6E 04                          LD      L,(IX+04h)
349F: DD 66 05                          LD      H,(IX+05h)
34A2: E5                                PUSH    HL
34A3: DD 7E F7                          LD      A,(IX-09h)
34A6: F5                                PUSH    AF
34A7: 33                                INC     SP
34A8: D5                                PUSH    DE
34A9: 33                                INC     SP
34AA: CD 11 2F                          CALL    L2F11
34AD: 21 06 00                          LD      HL,0006h
34B0: 39                                ADD     HL,SP
34B1: F9                                LD      SP,HL
34B2: C1                                POP     BC
34B3: 03                                INC     BC
34B4: 03                                INC     BC
34B5: DD 71 FA                          LD      (IX-06h),C
34B8: DD 70 FB                          LD      (IX-05h),B
34BB: 18 4F                             JR      L350C

34BD: DD 36 F0 01                L34BD: LD      (IX-10h),01h
34C1: DD 36 F4 0A                       LD      (IX-0Ch),0Ah
34C5: 18 45                             JR      L350C

34C7: DD 36 F4 08                L34C7: LD      (IX-0Ch),08h
34CB: 18 3F                             JR      L350C

34CD: DD 36 F4 0A                L34CD: LD      (IX-0Ch),0Ah
34D1: 18 39                             JR      L350C

34D3: DD 36 F4 10                L34D3: LD      (IX-0Ch),10h
34D7: 18 33                             JR      L350C

34D9: DD 36 F3 01                L34D9: LD      (IX-0Dh),01h
34DD: 18 2D                             JR      L350C

34DF: DD 6E 06                   L34DF: LD      L,(IX+06h)
34E2: DD 66 07                          LD      H,(IX+07h)
34E5: E5                                PUSH    HL
34E6: DD 7E FF                          LD      A,(IX-01h)
34E9: F5                                PUSH    AF
34EA: 33                                INC     SP
34EB: DD 6E 04                          LD      L,(IX+04h)
34EE: DD 66 05                          LD      H,(IX+05h)
34F1: CD A2 12                          CALL    L12A2
34F4: F1                                POP     AF
34F5: 33                                INC     SP
34F6: DD 34 FA                          INC     (IX-06h)
34F9: 20 11                             JR      NZ,L350C
34FB: DD 34 FB                          INC     (IX-05h)
34FE: 18 0C                             JR      L350C

3500: DD 73 FA                   L3500: LD      (IX-06h),E
3503: DD 72 FB                          LD      (IX-05h),D
3506: DD 71 FC                          LD      (IX-04h),C
3509: DD 70 FD                          LD      (IX-03h),B
350C: DD CB F3 46                L350C: BIT     0,(IX-0Dh)
3510: CA C8 35                          JP      Z,L35C8
3513: 21 08 00                          LD      HL,0008h
3516: 39                                ADD     HL,SP
3517: DD 75 F8                          LD      (IX-08h),L
351A: DD 74 F9                          LD      (IX-07h),H
351D: DD 7E 0A                          LD      A,(IX+0Ah)
3520: C6 04                             ADD     A,04h
3522: DD 77 FC                          LD      (IX-04h),A
3525: DD 7E 0B                          LD      A,(IX+0Bh)
3528: CE 00                             ADC     A,00h
352A: DD 77 FD                          LD      (IX-03h),A
352D: DD 7E FC                          LD      A,(IX-04h)
3530: DD 77 0A                          LD      (IX+0Ah),A
3533: DD 7E FD                          LD      A,(IX-03h)
3536: DD 77 0B                          LD      (IX+0Bh),A
3539: DD 7E FC                          LD      A,(IX-04h)
353C: C6 FC                             ADD     A,0FCh
353E: DD 77 FE                          LD      (IX-02h),A
3541: DD 7E FD                          LD      A,(IX-03h)
3544: CE FF                             ADC     A,0FFh
3546: DD 77 FF                          LD      (IX-01h),A
3549: DD 5E FE                          LD      E,(IX-02h)
354C: DD 56 FF                          LD      D,(IX-01h)
354F: 21 2F 00                          LD      HL,002Fh
3552: 39                                ADD     HL,SP
3553: EB                                EX      DE,HL
3554: 01 04 00                          LD      BC,0004h
3557: ED B0                             LDIR
3559: DD 5E F8                          LD      E,(IX-08h)
355C: DD 56 F9                          LD      D,(IX-07h)
355F: 21 2F 00                          LD      HL,002Fh
3562: 39                                ADD     HL,SP
3563: 01 04 00                          LD      BC,0004h
3566: ED B0                             LDIR
3568: 21 08 00                          LD      HL,0008h
356B: 39                                ADD     HL,SP
356C: DD 75 FC                          LD      (IX-04h),L
356F: DD 74 FD                          LD      (IX-03h),H
3572: 36 5C                             LD      (HL),5Ch        ; '\'
3574: 23                                INC     HL
3575: 36 3B                             LD      (HL),3Bh        ; ';'
3577: DD 7E FA                          LD      A,(IX-06h)
357A: DD 77 FE                          LD      (IX-02h),A
357D: DD 7E FB                          LD      A,(IX-05h)
3580: DD 77 FF                          LD      (IX-01h),A
3583: DD 6E FC                   L3583: LD      L,(IX-04h)
3586: DD 66 FD                          LD      H,(IX-03h)
3589: 4E                                LD      C,(HL)
358A: 23                                INC     HL
358B: 46                                LD      B,(HL)
358C: 59                                LD      E,C
358D: 50                                LD      D,B
358E: 13                                INC     DE
358F: DD 6E FC                          LD      L,(IX-04h)
3592: DD 66 FD                          LD      H,(IX-03h)
3595: 73                                LD      (HL),E
3596: 23                                INC     HL
3597: 72                                LD      (HL),D
3598: 0A                                LD      A,(BC)
3599: 47                                LD      B,A
359A: B7                                OR      A
359B: CA 51 30                          JP      Z,L3051
359E: DD 6E 06                          LD      L,(IX+06h)
35A1: DD 66 07                          LD      H,(IX+07h)
35A4: E5                                PUSH    HL
35A5: C5                                PUSH    BC
35A6: 33                                INC     SP
35A7: DD 6E 04                          LD      L,(IX+04h)
35AA: DD 66 05                          LD      H,(IX+05h)
35AD: CD A2 12                          CALL    L12A2
35B0: F1                                POP     AF
35B1: 33                                INC     SP
35B2: DD 34 FE                          INC     (IX-02h)
35B5: 20 03                             JR      NZ,L35BA
35B7: DD 34 FF                          INC     (IX-01h)
35BA: DD 7E FE                   L35BA: LD      A,(IX-02h)
35BD: DD 77 FA                          LD      (IX-06h),A
35C0: DD 7E FF                          LD      A,(IX-01h)
35C3: DD 77 FB                          LD      (IX-05h),A
35C6: 18 BB                             JR      L3583

35C8: DD 7E F4                   L35C8: LD      A,(IX-0Ch)
35CB: B7                                OR      A
35CC: CA 51 30                          JP      Z,L3051
35CF: DD 7E E2                          LD      A,(IX-1Eh)
35D2: DD 77 F8                          LD      (IX-08h),A
35D5: DD 7E E3                          LD      A,(IX-1Dh)
35D8: DD 77 F9                          LD      (IX-07h),A
35DB: DD CB F1 46                       BIT     0,(IX-0Fh)
35DF: CA 6A 36                          JP      Z,L366A
35E2: 21 08 00                          LD      HL,0008h
35E5: 39                                ADD     HL,SP
35E6: DD 75 FE                          LD      (IX-02h),L
35E9: DD 74 FF                          LD      (IX-01h),H
35EC: DD 7E 0A                          LD      A,(IX+0Ah)
35EF: C6 01                             ADD     A,01h
35F1: DD 77 F5                          LD      (IX-0Bh),A
35F4: DD 7E 0B                          LD      A,(IX+0Bh)
35F7: CE 00                             ADC     A,00h
35F9: DD 77 F6                          LD      (IX-0Ah),A
35FC: DD 7E F5                          LD      A,(IX-0Bh)
35FF: DD 77 0A                          LD      (IX+0Ah),A
3602: DD 7E F6                          LD      A,(IX-0Ah)
3605: DD 77 0B                          LD      (IX+0Bh),A
3608: DD 6E F5                          LD      L,(IX-0Bh)
360B: DD 66 F6                          LD      H,(IX-0Ah)
360E: 2B                                DEC     HL
360F: 7E                                LD      A,(HL)
3610: DD 77 F6                          LD      (IX-0Ah),A
3613: DD 77 D1                          LD      (IX-2Fh),A
3616: AF                                XOR     A
3617: DD 77 D2                          LD      (IX-2Eh),A
361A: DD 77 D3                          LD      (IX-2Dh),A
361D: DD 77 D4                          LD      (IX-2Ch),A
3620: DD 5E FE                          LD      E,(IX-02h)
3623: DD 56 FF                          LD      D,(IX-01h)
3626: 21 04 00                          LD      HL,0004h
3629: 39                                ADD     HL,SP
362A: 01 04 00                          LD      BC,0004h
362D: ED B0                             LDIR
362F: DD CB F0 46                       BIT     0,(IX-10h)
3633: C2 69 37                          JP      NZ,L3769
3636: DD 5E FE                          LD      E,(IX-02h)
3639: DD 56 FF                          LD      D,(IX-01h)
363C: 21 00 00                          LD      HL,0000h
363F: 39                                ADD     HL,SP
3640: EB                                EX      DE,HL
3641: 01 04 00                          LD      BC,0004h
3644: ED B0                             LDIR
3646: DD 7E CD                          LD      A,(IX-33h)
3649: DD 77 D1                          LD      (IX-2Fh),A
364C: DD 36 D2 00                       LD      (IX-2Eh),00h
3650: DD 36 D3 00                       LD      (IX-2Dh),00h
3654: DD 36 D4 00                       LD      (IX-2Ch),00h
3658: DD 5E FE                          LD      E,(IX-02h)
365B: DD 56 FF                          LD      D,(IX-01h)
365E: 21 04 00                          LD      HL,0004h
3661: 39                                ADD     HL,SP
3662: 01 04 00                          LD      BC,0004h
3665: ED B0                             LDIR
3667: C3 69 37                          JP      L3769

366A: DD CB F2 46                L366A: BIT     0,(IX-0Eh)
366E: 28 58                             JR      Z,L36C8
3670: 21 08 00                          LD      HL,0008h
3673: 39                                ADD     HL,SP
3674: DD 75 F5                          LD      (IX-0Bh),L
3677: DD 74 F6                          LD      (IX-0Ah),H
367A: DD 7E 0A                          LD      A,(IX+0Ah)
367D: C6 04                             ADD     A,04h
367F: DD 77 F2                          LD      (IX-0Eh),A
3682: DD 7E 0B                          LD      A,(IX+0Bh)
3685: CE 00                             ADC     A,00h
3687: DD 77 F3                          LD      (IX-0Dh),A
368A: DD 7E F2                          LD      A,(IX-0Eh)
368D: DD 77 0A                          LD      (IX+0Ah),A
3690: DD 7E F3                          LD      A,(IX-0Dh)
3693: DD 77 0B                          LD      (IX+0Bh),A
3696: DD 7E F2                          LD      A,(IX-0Eh)
3699: C6 FC                             ADD     A,0FCh
369B: DD 77 FE                          LD      (IX-02h),A
369E: DD 7E F3                          LD      A,(IX-0Dh)
36A1: CE FF                             ADC     A,0FFh
36A3: DD 77 FF                          LD      (IX-01h),A
36A6: DD 5E FE                          LD      E,(IX-02h)
36A9: DD 56 FF                          LD      D,(IX-01h)
36AC: 21 04 00                          LD      HL,0004h
36AF: 39                                ADD     HL,SP
36B0: EB                                EX      DE,HL
36B1: 01 04 00                          LD      BC,0004h
36B4: ED B0                             LDIR
36B6: DD 5E F5                          LD      E,(IX-0Bh)
36B9: DD 56 F6                          LD      D,(IX-0Ah)
36BC: 21 04 00                          LD      HL,0004h
36BF: 39                                ADD     HL,SP
36C0: 01 04 00                          LD      BC,0004h
36C3: ED B0                             LDIR
36C5: C3 69 37                          JP      L3769

36C8: 21 08 00                   L36C8: LD      HL,0008h
36CB: 39                                ADD     HL,SP
36CC: DD 75 FE                          LD      (IX-02h),L
36CF: DD 74 FF                          LD      (IX-01h),H
36D2: DD 7E 0A                          LD      A,(IX+0Ah)
36D5: C6 02                             ADD     A,02h
36D7: DD 77 F2                          LD      (IX-0Eh),A
36DA: DD 7E 0B                          LD      A,(IX+0Bh)
36DD: CE 00                             ADC     A,00h
36DF: DD 77 F3                          LD      (IX-0Dh),A
36E2: DD 7E F2                          LD      A,(IX-0Eh)
36E5: DD 77 0A                          LD      (IX+0Ah),A
36E8: DD 7E F3                          LD      A,(IX-0Dh)
36EB: DD 77 0B                          LD      (IX+0Bh),A
36EE: DD 7E F2                          LD      A,(IX-0Eh)
36F1: C6 FE                             ADD     A,0FEh
36F3: DD 77 F5                          LD      (IX-0Bh),A
36F6: DD 7E F3                          LD      A,(IX-0Dh)
36F9: CE FF                             ADC     A,0FFh
36FB: DD 77 F6                          LD      (IX-0Ah),A
36FE: DD 6E F5                          LD      L,(IX-0Bh)
3701: DD 66 F6                          LD      H,(IX-0Ah)
3704: 7E                                LD      A,(HL)
3705: DD 77 F5                          LD      (IX-0Bh),A
3708: 23                                INC     HL
3709: 7E                                LD      A,(HL)
370A: DD 77 F6                          LD      (IX-0Ah),A
370D: DD 7E F5                          LD      A,(IX-0Bh)
3710: DD 77 D1                          LD      (IX-2Fh),A
3713: DD 7E F6                          LD      A,(IX-0Ah)
3716: DD 77 D2                          LD      (IX-2Eh),A
3719: 17                                RLA
371A: 9F                                SBC     A,A
371B: DD 77 D3                          LD      (IX-2Dh),A
371E: DD 77 D4                          LD      (IX-2Ch),A
3721: DD 5E FE                          LD      E,(IX-02h)
3724: DD 56 FF                          LD      D,(IX-01h)
3727: 21 04 00                          LD      HL,0004h
372A: 39                                ADD     HL,SP
372B: 01 04 00                          LD      BC,0004h
372E: ED B0                             LDIR
3730: DD CB F0 46                       BIT     0,(IX-10h)
3734: 20 33                             JR      NZ,L3769
3736: DD 5E FE                          LD      E,(IX-02h)
3739: DD 56 FF                          LD      D,(IX-01h)
373C: 21 00 00                          LD      HL,0000h
373F: 39                                ADD     HL,SP
3740: EB                                EX      DE,HL
3741: 01 04 00                          LD      BC,0004h
3744: ED B0                             LDIR
3746: DD 7E CD                          LD      A,(IX-33h)
3749: DD 77 D1                          LD      (IX-2Fh),A
374C: DD 7E CE                          LD      A,(IX-32h)
374F: DD 77 D2                          LD      (IX-2Eh),A
3752: DD 36 D3 00                       LD      (IX-2Dh),00h
3756: DD 36 D4 00                       LD      (IX-2Ch),00h
375A: DD 5E FE                          LD      E,(IX-02h)
375D: DD 56 FF                          LD      D,(IX-01h)
3760: 21 04 00                          LD      HL,0004h
3763: 39                                ADD     HL,SP
3764: 01 04 00                          LD      BC,0004h
3767: ED B0                             LDIR
3769: DD CB F0 46                L3769: BIT     0,(IX-10h)
376D: 28 5F                             JR      Z,L37CE
376F: 21 08 00                          LD      HL,0008h
3772: 39                                ADD     HL,SP
3773: DD 75 FE                          LD      (IX-02h),L
3776: DD 74 FF                          LD      (IX-01h),H
3779: EB                                EX      DE,HL
377A: 21 04 00                          LD      HL,0004h
377D: 39                                ADD     HL,SP
377E: EB                                EX      DE,HL
377F: 01 04 00                          LD      BC,0004h
3782: ED B0                             LDIR
3784: DD CB D4 7E                       BIT     7,(IX-2Ch)
3788: 28 40                             JR      Z,L37CA
378A: DD 5E FE                          LD      E,(IX-02h)
378D: DD 56 FF                          LD      D,(IX-01h)
3790: 21 00 00                          LD      HL,0000h
3793: 39                                ADD     HL,SP
3794: EB                                EX      DE,HL
3795: 01 04 00                          LD      BC,0004h
3798: ED B0                             LDIR
379A: AF                                XOR     A
379B: DD 96 CD                          SUB     (IX-33h)
379E: DD 77 D1                          LD      (IX-2Fh),A
37A1: 3E 00                             LD      A,00h
37A3: DD 9E CE                          SBC     A,(IX-32h)
37A6: DD 77 D2                          LD      (IX-2Eh),A
37A9: 3E 00                             LD      A,00h
37AB: DD 9E CF                          SBC     A,(IX-31h)
37AE: DD 77 D3                          LD      (IX-2Dh),A
37B1: 3E 00                             LD      A,00h
37B3: DD 9E D0                          SBC     A,(IX-30h)
37B6: DD 77 D4                          LD      (IX-2Ch),A
37B9: DD 5E FE                          LD      E,(IX-02h)
37BC: DD 56 FF                          LD      D,(IX-01h)
37BF: 21 04 00                          LD      HL,0004h
37C2: 39                                ADD     HL,SP
37C3: 01 04 00                          LD      BC,0004h
37C6: ED B0                             LDIR
37C8: 18 04                             JR      L37CE

37CA: AF                         L37CA: XOR     A
37CB: DD 77 F0                          LD      (IX-10h),A
37CE: DD 36 FF 01                L37CE: LD      (IX-01h),01h
37D2: DD 4E F8                          LD      C,(IX-08h)
37D5: DD 46 F9                          LD      B,(IX-07h)
37D8: AF                                XOR     A
37D9: DD 77 F8                          LD      (IX-08h),A
37DC: DD 77 F9                          LD      (IX-07h),A
37DF: 21 0C 00                   L37DF: LD      HL,000Ch
37E2: 39                                ADD     HL,SP
37E3: 36 00                             LD      (HL),00h
37E5: DD 5E E4                          LD      E,(IX-1Ch)
37E8: DD 56 E5                          LD      D,(IX-1Bh)
37EB: C5                                PUSH    BC
37EC: DD 7E F4                          LD      A,(IX-0Ch)
37EF: F5                                PUSH    AF
37F0: 33                                INC     SP
37F1: D5                                PUSH    DE
37F2: CD 67 2F                          CALL    L2F67
37F5: F1                                POP     AF
37F6: 33                                INC     SP
37F7: C1                                POP     BC
37F8: DD CB FF 46                       BIT     0,(IX-01h)
37FC: 20 21                             JR      NZ,L381F
37FE: DD 6E E8                          LD      L,(IX-18h)
3801: DD 66 E9                          LD      H,(IX-17h)
3804: 7E                                LD      A,(HL)
3805: 87                                ADD     A,A
3806: 87                                ADD     A,A
3807: 87                                ADD     A,A
3808: 87                                ADD     A,A
3809: 5F                                LD      E,A
380A: DD 6E E8                          LD      L,(IX-18h)
380D: DD 66 E9                          LD      H,(IX-17h)
3810: 7E                                LD      A,(HL)
3811: 07                                RLCA
3812: 07                                RLCA
3813: 07                                RLCA
3814: 07                                RLCA
3815: E6 0F                             AND     0Fh
3817: B3                                OR      E
3818: 5F                                LD      E,A
3819: 0A                                LD      A,(BC)
381A: B3                                OR      E
381B: 02                                LD      (BC),A
381C: 0B                                DEC     BC
381D: 18 08                             JR      L3827

381F: DD 6E E6                   L381F: LD      L,(IX-1Ah)
3822: DD 66 E7                          LD      H,(IX-19h)
3825: 7E                                LD      A,(HL)
3826: 02                                LD      (BC),A
3827: DD 34 F8                   L3827: INC     (IX-08h)
382A: 20 03                             JR      NZ,L382F
382C: DD 34 F9                          INC     (IX-07h)
382F: DD 7E FF                   L382F: LD      A,(IX-01h)
3832: EE 01                             XOR     01h
3834: DD 77 FF                          LD      (IX-01h),A
3837: DD 6E E4                          LD      L,(IX-1Ch)
383A: DD 66 E5                          LD      H,(IX-1Bh)
383D: 5E                                LD      E,(HL)
383E: 23                                INC     HL
383F: 56                                LD      D,(HL)
3840: 23                                INC     HL
3841: 23                                INC     HL
3842: 7E                                LD      A,(HL)
3843: 2B                                DEC     HL
3844: 6E                                LD      L,(HL)
3845: B5                                OR      L
3846: B2                                OR      D
3847: B3                                OR      E
3848: 20 95                             JR      NZ,L37DF
384A: DD 71 F3                          LD      (IX-0Dh),C
384D: DD 70 F4                          LD      (IX-0Ch),B
3850: DD 7E F8                          LD      A,(IX-08h)
3853: DD 77 F5                          LD      (IX-0Bh),A
3856: DD 7E F9                          LD      A,(IX-07h)
3859: DD 77 F6                          LD      (IX-0Ah),A
385C: DD 7E FD                          LD      A,(IX-03h)
385F: DD B6 FC                          OR      (IX-04h)
3862: 20 08                             JR      NZ,L386C
3864: DD 36 FC 01                       LD      (IX-04h),01h
3868: AF                                XOR     A
3869: DD 77 FD                          LD      (IX-03h),A
386C: DD CB ED 46                L386C: BIT     0,(IX-13h)
3870: 20 6C                             JR      NZ,L38DE
3872: DD CB EC 46                       BIT     0,(IX-14h)
3876: 20 66                             JR      NZ,L38DE
3878: DD 7E FC                          LD      A,(IX-04h)
387B: DD 77 F8                          LD      (IX-08h),A
387E: DD 7E FD                          LD      A,(IX-03h)
3881: DD 77 F9                          LD      (IX-07h),A
3884: DD 7E F5                   L3884: LD      A,(IX-0Bh)
3887: DD 77 FE                          LD      (IX-02h),A
388A: DD 34 FE                          INC     (IX-02h)
388D: DD 7E FE                          LD      A,(IX-02h)
3890: DD 77 FD                          LD      (IX-03h),A
3893: AF                                XOR     A
3894: DD 77 FE                          LD      (IX-02h),A
3897: DD 7E FD                          LD      A,(IX-03h)
389A: DD 96 F8                          SUB     (IX-08h)
389D: DD 7E FE                          LD      A,(IX-02h)
38A0: DD 9E F9                          SBC     A,(IX-07h)
38A3: 30 2D                             JR      NC,L38D2
38A5: DD 6E 06                          LD      L,(IX+06h)
38A8: DD 66 07                          LD      H,(IX+07h)
38AB: E5                                PUSH    HL
38AC: 3E 20                             LD      A,20h   ; ' '
38AE: F5                                PUSH    AF
38AF: 33                                INC     SP
38B0: DD 6E 04                          LD      L,(IX+04h)
38B3: DD 66 05                          LD      H,(IX+05h)
38B6: CD A2 12                          CALL    L12A2
38B9: F1                                POP     AF
38BA: 33                                INC     SP
38BB: DD 34 FA                          INC     (IX-06h)
38BE: 20 03                             JR      NZ,L38C3
38C0: DD 34 FB                          INC     (IX-05h)
38C3: DD 6E F8                   L38C3: LD      L,(IX-08h)
38C6: DD 66 F9                          LD      H,(IX-07h)
38C9: 2B                                DEC     HL
38CA: DD 75 F8                          LD      (IX-08h),L
38CD: DD 74 F9                          LD      (IX-07h),H
38D0: 18 B2                             JR      L3884

38D2: DD 7E F8                   L38D2: LD      A,(IX-08h)
38D5: DD 77 FC                          LD      (IX-04h),A
38D8: DD 7E F9                          LD      A,(IX-07h)
38DB: DD 77 FD                          LD      (IX-03h),A
38DE: DD CB F0 46                L38DE: BIT     0,(IX-10h)
38E2: 28 2D                             JR      Z,L3911
38E4: DD 6E 06                          LD      L,(IX+06h)
38E7: DD 66 07                          LD      H,(IX+07h)
38EA: E5                                PUSH    HL
38EB: 3E 2D                             LD      A,2Dh   ; '-'
38ED: F5                                PUSH    AF
38EE: 33                                INC     SP
38EF: DD 6E 04                          LD      L,(IX+04h)
38F2: DD 66 05                          LD      H,(IX+05h)
38F5: CD A2 12                          CALL    L12A2
38F8: F1                                POP     AF
38F9: 33                                INC     SP
38FA: DD 34 FA                          INC     (IX-06h)
38FD: 20 03                             JR      NZ,L3902
38FF: DD 34 FB                          INC     (IX-05h)
3902: DD 6E FC                   L3902: LD      L,(IX-04h)
3905: DD 66 FD                          LD      H,(IX-03h)
3908: 2B                                DEC     HL
3909: DD 75 FC                          LD      (IX-04h),L
390C: DD 74 FD                          LD      (IX-03h),H
390F: 18 6C                             JR      L397D

3911: DD 7E F6                   L3911: LD      A,(IX-0Ah)
3914: DD B6 F5                          OR      (IX-0Bh)
3917: 28 64                             JR      Z,L397D
3919: DD CB EE 46                       BIT     0,(IX-12h)
391D: 28 2D                             JR      Z,L394C
391F: DD 6E 06                          LD      L,(IX+06h)
3922: DD 66 07                          LD      H,(IX+07h)
3925: E5                                PUSH    HL
3926: 3E 2B                             LD      A,2Bh   ; '+'
3928: F5                                PUSH    AF
3929: 33                                INC     SP
392A: DD 6E 04                          LD      L,(IX+04h)
392D: DD 66 05                          LD      H,(IX+05h)
3930: CD A2 12                          CALL    L12A2
3933: F1                                POP     AF
3934: 33                                INC     SP
3935: DD 34 FA                          INC     (IX-06h)
3938: 20 03                             JR      NZ,L393D
393A: DD 34 FB                          INC     (IX-05h)
393D: DD 6E FC                   L393D: LD      L,(IX-04h)
3940: DD 66 FD                          LD      H,(IX-03h)
3943: 2B                                DEC     HL
3944: DD 75 FC                          LD      (IX-04h),L
3947: DD 74 FD                          LD      (IX-03h),H
394A: 18 31                             JR      L397D

394C: DD CB EF 46                L394C: BIT     0,(IX-11h)
3950: 28 2B                             JR      Z,L397D
3952: DD 6E 06                          LD      L,(IX+06h)
3955: DD 66 07                          LD      H,(IX+07h)
3958: E5                                PUSH    HL
3959: 3E 20                             LD      A,20h   ; ' '
395B: F5                                PUSH    AF
395C: 33                                INC     SP
395D: DD 6E 04                          LD      L,(IX+04h)
3960: DD 66 05                          LD      H,(IX+05h)
3963: CD A2 12                          CALL    L12A2
3966: F1                                POP     AF
3967: 33                                INC     SP
3968: DD 34 FA                          INC     (IX-06h)
396B: 20 03                             JR      NZ,L3970
396D: DD 34 FB                          INC     (IX-05h)
3970: DD 6E FC                   L3970: LD      L,(IX-04h)
3973: DD 66 FD                          LD      H,(IX-03h)
3976: 2B                                DEC     HL
3977: DD 75 FC                          LD      (IX-04h),L
397A: DD 74 FD                          LD      (IX-03h),H
397D: DD CB EC 46                L397D: BIT     0,(IX-14h)
3981: 20 62                             JR      NZ,L39E5
3983: DD 7E FC                          LD      A,(IX-04h)
3986: DD 77 F8                          LD      (IX-08h),A
3989: DD 7E FD                          LD      A,(IX-03h)
398C: DD 77 F9                          LD      (IX-07h),A
398F: DD 4E F8                   L398F: LD      C,(IX-08h)
3992: DD 46 F9                          LD      B,(IX-07h)
3995: DD 6E F8                          LD      L,(IX-08h)
3998: DD 66 F9                          LD      H,(IX-07h)
399B: 2B                                DEC     HL
399C: DD 75 F8                          LD      (IX-08h),L
399F: DD 74 F9                          LD      (IX-07h),H
39A2: DD 7E F5                          LD      A,(IX-0Bh)
39A5: 91                                SUB     C
39A6: DD 7E F6                          LD      A,(IX-0Ah)
39A9: 98                                SBC     A,B
39AA: 30 62                             JR      NC,L3A0E
39AC: DD CB ED 46                       BIT     0,(IX-13h)
39B0: 28 0A                             JR      Z,L39BC
39B2: DD 36 FD 30                       LD      (IX-03h),30h    ; '0'
39B6: AF                                XOR     A
39B7: DD 77 FE                          LD      (IX-02h),A
39BA: 18 08                             JR      L39C4

39BC: DD 36 FD 20                L39BC: LD      (IX-03h),20h    ; ' '
39C0: AF                                XOR     A
39C1: DD 77 FE                          LD      (IX-02h),A
39C4: DD 46 FD                   L39C4: LD      B,(IX-03h)
39C7: DD 6E 06                          LD      L,(IX+06h)
39CA: DD 66 07                          LD      H,(IX+07h)
39CD: E5                                PUSH    HL
39CE: C5                                PUSH    BC
39CF: 33                                INC     SP
39D0: DD 6E 04                          LD      L,(IX+04h)
39D3: DD 66 05                          LD      H,(IX+05h)
39D6: CD A2 12                          CALL    L12A2
39D9: F1                                POP     AF
39DA: 33                                INC     SP
39DB: DD 34 FA                          INC     (IX-06h)
39DE: 20 AF                             JR      NZ,L398F
39E0: DD 34 FB                          INC     (IX-05h)
39E3: 18 AA                             JR      L398F

39E5: DD 7E F5                   L39E5: LD      A,(IX-0Bh)
39E8: DD 96 FC                          SUB     (IX-04h)
39EB: DD 7E F6                          LD      A,(IX-0Ah)
39EE: DD 9E FD                          SBC     A,(IX-03h)
39F1: 30 14                             JR      NC,L3A07
39F3: DD 7E FC                          LD      A,(IX-04h)
39F6: DD 96 F5                          SUB     (IX-0Bh)
39F9: DD 77 F8                          LD      (IX-08h),A
39FC: DD 7E FD                          LD      A,(IX-03h)
39FF: DD 9E F6                          SBC     A,(IX-0Ah)
3A02: DD 77 F9                          LD      (IX-07h),A
3A05: 18 07                             JR      L3A0E

3A07: AF                         L3A07: XOR     A
3A08: DD 77 F8                          LD      (IX-08h),A
3A0B: DD 77 F9                          LD      (IX-07h),A
3A0E: DD 7E F3                   L3A0E: LD      A,(IX-0Dh)
3A11: DD 77 FD                          LD      (IX-03h),A
3A14: DD 7E F4                          LD      A,(IX-0Ch)
3A17: DD 77 FE                          LD      (IX-02h),A
3A1A: DD 7E FA                          LD      A,(IX-06h)
3A1D: DD 77 F3                          LD      (IX-0Dh),A
3A20: DD 7E FB                          LD      A,(IX-05h)
3A23: DD 77 F4                          LD      (IX-0Ch),A
3A26: DD 7E F5                          LD      A,(IX-0Bh)
3A29: DD 77 FB                          LD      (IX-05h),A
3A2C: DD 7E F6                          LD      A,(IX-0Ah)
3A2F: DD 77 FC                          LD      (IX-04h),A
3A32: DD 7E FB                   L3A32: LD      A,(IX-05h)
3A35: DD 77 F5                          LD      (IX-0Bh),A
3A38: DD 7E FC                          LD      A,(IX-04h)
3A3B: DD 77 F6                          LD      (IX-0Ah),A
3A3E: DD 6E FB                          LD      L,(IX-05h)
3A41: DD 66 FC                          LD      H,(IX-04h)
3A44: 2B                                DEC     HL
3A45: DD 75 FB                          LD      (IX-05h),L
3A48: DD 74 FC                          LD      (IX-04h),H
3A4B: DD 7E F6                          LD      A,(IX-0Ah)
3A4E: DD B6 F5                          OR      (IX-0Bh)
3A51: 28 6C                             JR      Z,L3ABF
3A53: DD 7E FF                          LD      A,(IX-01h)
3A56: EE 01                             XOR     01h
3A58: DD 77 FF                          LD      (IX-01h),A
3A5B: DD CB FF 46                       BIT     0,(IX-01h)
3A5F: 20 1E                             JR      NZ,L3A7F
3A61: DD 34 FD                          INC     (IX-03h)
3A64: 20 03                             JR      NZ,L3A69
3A66: DD 34 FE                          INC     (IX-02h)
3A69: DD 6E FD                   L3A69: LD      L,(IX-03h)
3A6C: DD 66 FE                          LD      H,(IX-02h)
3A6F: 7E                                LD      A,(HL)
3A70: 07                                RLCA
3A71: 07                                RLCA
3A72: 07                                RLCA
3A73: 07                                RLCA
3A74: E6 0F                             AND     0Fh
3A76: DD 6E E6                          LD      L,(IX-1Ah)
3A79: DD 66 E7                          LD      H,(IX-19h)
3A7C: 77                                LD      (HL),A
3A7D: 18 10                             JR      L3A8F

3A7F: DD 6E FD                   L3A7F: LD      L,(IX-03h)
3A82: DD 66 FE                          LD      H,(IX-02h)
3A85: 7E                                LD      A,(HL)
3A86: E6 0F                             AND     0Fh
3A88: DD 6E E6                          LD      L,(IX-1Ah)
3A8B: DD 66 E7                          LD      H,(IX-19h)
3A8E: 77                                LD      (HL),A
3A8F: DD 6E EA                   L3A8F: LD      L,(IX-16h)
3A92: DD 66 EB                          LD      H,(IX-15h)
3A95: 46                                LD      B,(HL)
3A96: DD 6E 06                          LD      L,(IX+06h)
3A99: DD 66 07                          LD      H,(IX+07h)
3A9C: E5                                PUSH    HL
3A9D: DD 6E 04                          LD      L,(IX+04h)
3AA0: DD 66 05                          LD      H,(IX+05h)
3AA3: E5                                PUSH    HL
3AA4: DD 7E F7                          LD      A,(IX-09h)
3AA7: F5                                PUSH    AF
3AA8: 33                                INC     SP
3AA9: C5                                PUSH    BC
3AAA: 33                                INC     SP
3AAB: CD D1 2E                          CALL    L2ED1
3AAE: 21 06 00                          LD      HL,0006h
3AB1: 39                                ADD     HL,SP
3AB2: F9                                LD      SP,HL
3AB3: DD 34 F3                          INC     (IX-0Dh)
3AB6: C2 32 3A                          JP      NZ,L3A32
3AB9: DD 34 F4                          INC     (IX-0Ch)
3ABC: C3 32 3A                          JP      L3A32

3ABF: DD 7E F3                   L3ABF: LD      A,(IX-0Dh)
3AC2: DD 77 FA                          LD      (IX-06h),A
3AC5: DD 7E F4                          LD      A,(IX-0Ch)
3AC8: DD 77 FB                          LD      (IX-05h),A
3ACB: DD CB EC 46                       BIT     0,(IX-14h)
3ACF: CA 51 30                          JP      Z,L3051
3AD2: DD 7E F3                          LD      A,(IX-0Dh)
3AD5: DD 77 FE                          LD      (IX-02h),A
3AD8: DD 7E F4                          LD      A,(IX-0Ch)
3ADB: DD 77 FF                          LD      (IX-01h),A
3ADE: DD 7E F8                          LD      A,(IX-08h)
3AE1: DD 77 FC                          LD      (IX-04h),A
3AE4: DD 7E F9                          LD      A,(IX-07h)
3AE7: DD 77 FD                          LD      (IX-03h),A
3AEA: DD 4E FC                   L3AEA: LD      C,(IX-04h)
3AED: DD 46 FD                          LD      B,(IX-03h)
3AF0: DD 6E FC                          LD      L,(IX-04h)
3AF3: DD 66 FD                          LD      H,(IX-03h)
3AF6: 2B                                DEC     HL
3AF7: DD 75 FC                          LD      (IX-04h),L
3AFA: DD 74 FD                          LD      (IX-03h),H
3AFD: 78                                LD      A,B
3AFE: B1                                OR      C
3AFF: CA 51 30                          JP      Z,L3051
3B02: DD 6E 06                          LD      L,(IX+06h)
3B05: DD 66 07                          LD      H,(IX+07h)
3B08: E5                                PUSH    HL
3B09: 3E 20                             LD      A,20h   ; ' '
3B0B: F5                                PUSH    AF
3B0C: 33                                INC     SP
3B0D: DD 6E 04                          LD      L,(IX+04h)
3B10: DD 66 05                          LD      H,(IX+05h)
3B13: CD A2 12                          CALL    L12A2
3B16: F1                                POP     AF
3B17: 33                                INC     SP
3B18: DD 34 FE                          INC     (IX-02h)
3B1B: 20 03                             JR      NZ,L3B20
3B1D: DD 34 FF                          INC     (IX-01h)
3B20: DD 7E FE                   L3B20: LD      A,(IX-02h)
3B23: DD 77 FA                          LD      (IX-06h),A
3B26: DD 7E FF                          LD      A,(IX-01h)
3B29: DD 77 FB                          LD      (IX-05h),A
3B2C: 18 BC                             JR      L3AEA

3B2E: DD 6E 06                   L3B2E: LD      L,(IX+06h)
3B31: DD 66 07                          LD      H,(IX+07h)
3B34: E5                                PUSH    HL
3B35: DD 7E FF                          LD      A,(IX-01h)
3B38: F5                                PUSH    AF
3B39: 33                                INC     SP
3B3A: DD 6E 04                          LD      L,(IX+04h)
3B3D: DD 66 05                          LD      H,(IX+05h)
3B40: CD A2 12                          CALL    L12A2
3B43: F1                                POP     AF
3B44: 33                                INC     SP
3B45: DD 34 FA                          INC     (IX-06h)
3B48: C2 51 30                          JP      NZ,L3051
3B4B: DD 34 FB                          INC     (IX-05h)
3B4E: C3 51 30                          JP      L3051

3B51: DD 6E FA                   L3B51: LD      L,(IX-06h)
3B54: DD 66 FB                          LD      H,(IX-05h)
3B57: DD F9                             LD      SP,IX
3B59: DD E1                             POP     IX
3B5B: C9                                RET

3B5C: 3C 4E 4F 20 46 4C 4F 41    L3B5C: DB      "<NO FLOAT>"
3B64: 54 3E
3B66: 00                                DB      00h

                                        ; --- START PROC L3B67 ---
3B67: F1                         L3B67: POP     AF
3B68: C1                                POP     BC
3B69: D1                                POP     DE
3B6A: D5                                PUSH    DE
3B6B: C5                                PUSH    BC
3B6C: F5                                PUSH    AF
3B6D: AF                                XOR     A
3B6E: 6F                                LD      L,A
3B6F: B0                                OR      B
3B70: 06 10                             LD      B,10h
3B72: 20 04                             JR      NZ,L3B78
3B74: 06 08                             LD      B,08h
3B76: 79                                LD      A,C
3B77: 29                         L3B77: ADD     HL,HL
3B78: CB 11                      L3B78: RL      C
3B7A: 17                                RLA
3B7B: 30 01                             JR      NC,L3B7E
3B7D: 19                                ADD     HL,DE
3B7E: 10 F7                      L3B7E: DJNZ    L3B77
3B80: C9                                RET

                                        ; --- START PROC L3B81 ---
3B81: CD 06 15                   L3B81: CALL    L1506
3B84: 21 F6 FF                          LD      HL,0FFF6h
3B87: 39                                ADD     HL,SP
3B88: F9                                LD      SP,HL
3B89: 21 FF FF                          LD      HL,0FFFFh
3B8C: E3                                EX      (SP),HL
3B8D: DD 7E 04                          LD      A,(IX+04h)
3B90: DD 77 F8                          LD      (IX-08h),A
3B93: DD 7E 05                          LD      A,(IX+05h)
3B96: DD 77 F9                          LD      (IX-07h),A
3B99: DD 6E F8                          LD      L,(IX-08h)
3B9C: DD 66 F9                          LD      H,(IX-07h)
3B9F: 7E                                LD      A,(HL)
3BA0: DD 77 FE                          LD      (IX-02h),A
3BA3: 23                                INC     HL
3BA4: 7E                                LD      A,(HL)
3BA5: DD 77 FF                          LD      (IX-01h),A
3BA8: DD 5E FE                          LD      E,(IX-02h)
3BAB: DD 56 FF                          LD      D,(IX-01h)
3BAE: 7A                                LD      A,D
3BAF: B3                                OR      E
3BB0: 20 06                             JR      NZ,L3BB8
3BB2: 21 FF FF                          LD      HL,0FFFFh
3BB5: C3 51 3C                          JP      L3C51

3BB8: DD 6E FE                   L3BB8: LD      L,(IX-02h)
3BBB: DD 66 FF                          LD      H,(IX-01h)
3BBE: 7E                                LD      A,(HL)
3BBF: DD 34 FE                          INC     (IX-02h)
3BC2: 20 03                             JR      NZ,L3BC7
3BC4: DD 34 FF                          INC     (IX-01h)
3BC7: 6F                         L3BC7: LD      L,A
3BC8: 06 00                             LD      B,00h
3BCA: D6 3A                             SUB     3Ah     ; ':'
3BCC: 3E 01                             LD      A,01h
3BCE: 28 01                             JR      Z,L3BD1
3BD0: AF                                XOR     A
3BD1: 4F                         L3BD1: LD      C,A
3BD2: 7D                                LD      A,L
3BD3: D6 21                             SUB     21h     ; '!'
3BD5: 78                                LD      A,B
3BD6: DE 00                             SBC     A,00h
3BD8: 38 04                             JR      C,L3BDE
3BDA: CB 41                             BIT     0,C
3BDC: 28 DA                             JR      Z,L3BB8
3BDE: DD 7E FE                   L3BDE: LD      A,(IX-02h)
3BE1: DD 77 FA                          LD      (IX-06h),A
3BE4: DD 7E FF                          LD      A,(IX-01h)
3BE7: DD 77 FB                          LD      (IX-05h),A
3BEA: 79                                LD      A,C
3BEB: B7                                OR      A
3BEC: 28 5A                             JR      Z,L3C48
3BEE: DD 36 FC 01                       LD      (IX-04h),01h
3BF2: AF                                XOR     A
3BF3: DD 77 FD                          LD      (IX-03h),A
3BF6: 1A                                LD      A,(DE)
3BF7: 4F                                LD      C,A
3BF8: D6 30                             SUB     30h     ; '0'
3BFA: 38 20                             JR      C,L3C1C
3BFC: 3E 39                             LD      A,39h   ; '9'
3BFE: 91                                SUB     C
3BFF: 38 1B                             JR      C,L3C1C
3C01: 13                                INC     DE
3C02: 13                                INC     DE
3C03: DD 6E FE                          LD      L,(IX-02h)
3C06: DD 66 FF                          LD      H,(IX-01h)
3C09: BF                                CP      A
3C0A: ED 52                             SBC     HL,DE
3C0C: 20 0E                             JR      NZ,L3C1C
3C0E: 06 00                             LD      B,00h
3C10: 79                                LD      A,C
3C11: C6 D0                             ADD     A,0D0h
3C13: DD 77 FC                          LD      (IX-04h),A
3C16: 78                                LD      A,B
3C17: CE FF                             ADC     A,0FFh
3C19: DD 77 FD                          LD      (IX-03h),A
3C1C: DD 7E FC                   L3C1C: LD      A,(IX-04h)
3C1F: D6 01                             SUB     01h
3C21: DD 7E FD                          LD      A,(IX-03h)
3C24: 17                                RLA
3C25: 3F                                CCF
3C26: 1F                                RRA
3C27: DE 80                             SBC     A,80h
3C29: 30 19                             JR      NC,L3C44
3C2B: DD 7E FC                          LD      A,(IX-04h)
3C2E: DD 77 F6                          LD      (IX-0Ah),A
3C31: DD 7E FD                          LD      A,(IX-03h)
3C34: DD 77 F7                          LD      (IX-09h),A
3C37: C1                                POP     BC
3C38: E1                                POP     HL
3C39: E5                                PUSH    HL
3C3A: C5                                PUSH    BC
3C3B: DD 7E FA                          LD      A,(IX-06h)
3C3E: 77                                LD      (HL),A
3C3F: 23                                INC     HL
3C40: DD 7E FB                          LD      A,(IX-05h)
3C43: 77                                LD      (HL),A
3C44: E1                         L3C44: POP     HL
3C45: E5                                PUSH    HL
3C46: 18 09                             JR      L3C51

3C48: FD 21 D3 72                L3C48: LD      IY,72D3h
3C4C: FD 6E 00                          LD      L,(IY+00h)
3C4F: 26 00                             LD      H,00h
3C51: DD F9                      L3C51: LD      SP,IX
3C53: DD E1                             POP     IX
3C55: C9                                RET

                                        ; --- START PROC L3C56 ---
3C56: CD 06 15                   L3C56: CALL    L1506
3C59: F5                                PUSH    AF
3C5A: F5                                PUSH    AF
3C5B: F5                                PUSH    AF
3C5C: 3B                                DEC     SP
3C5D: DD 4E 04                          LD      C,(IX+04h)
3C60: DD 46 05                          LD      B,(IX+05h)
3C63: 0A                                LD      A,(BC)
3C64: DD 77 F9                          LD      (IX-07h),A
3C67: 03                                INC     BC
3C68: 0A                                LD      A,(BC)
3C69: DD 77 FA                          LD      (IX-06h),A
3C6C: 0B                                DEC     BC
3C6D: C5                                PUSH    BC
3C6E: 21 00 00                          LD      HL,0000h
3C71: E5                                PUSH    HL
3C72: 21 00 00                          LD      HL,0000h
3C75: E5                                PUSH    HL
3C76: C5                                PUSH    BC
3C77: CD FA 43                          CALL    L43FA
3C7A: F1                                POP     AF
3C7B: F1                                POP     AF
3C7C: F1                                POP     AF
3C7D: C1                                POP     BC
3C7E: 7D                                LD      A,L
3C7F: B7                                OR      A
3C80: C2 2E 3D                          JP      NZ,L3D2E
3C83: DD 71 FB                          LD      (IX-05h),C
3C86: DD 70 FC                          LD      (IX-04h),B
3C89: DD 71 FD                          LD      (IX-03h),C
3C8C: DD 70 FE                          LD      (IX-02h),B
3C8F: DD 6E FD                   L3C8F: LD      L,(IX-03h)
3C92: DD 66 FE                          LD      H,(IX-02h)
3C95: 11 16 00                          LD      DE,0016h
3C98: 19                                ADD     HL,DE
3C99: 4E                                LD      C,(HL)
3C9A: 23                                INC     HL
3C9B: 46                                LD      B,(HL)
3C9C: 23                                INC     HL
3C9D: 5E                                LD      E,(HL)
3C9E: 23                                INC     HL
3C9F: 56                                LD      D,(HL)
3CA0: D5                                PUSH    DE
3CA1: C5                                PUSH    BC
3CA2: DD 6E F9                          LD      L,(IX-07h)
3CA5: DD 66 FA                          LD      H,(IX-06h)
3CA8: E5                                PUSH    HL
3CA9: CD 16 24                          CALL    L2416
3CAC: F1                                POP     AF
3CAD: F1                                POP     AF
3CAE: F1                                POP     AF
3CAF: DD 75 FF                          LD      (IX-01h),L
3CB2: 7D                                LD      A,L
3CB3: B7                                OR      A
3CB4: 20 75                             JR      NZ,L3D2B
3CB6: DD 7E FB                          LD      A,(IX-05h)
3CB9: C6 1A                             ADD     A,1Ah
3CBB: 4F                                LD      C,A
3CBC: DD 7E FC                          LD      A,(IX-04h)
3CBF: CE 00                             ADC     A,00h
3CC1: 47                                LD      B,A
3CC2: 69                                LD      L,C
3CC3: 60                                LD      H,B
3CC4: 7E                                LD      A,(HL)
3CC5: 23                                INC     HL
3CC6: 66                                LD      H,(HL)
3CC7: 6F                                LD      L,A
3CC8: 7E                                LD      A,(HL)
3CC9: B7                                OR      A
3CCA: 20 06                             JR      NZ,L3CD2
3CCC: DD 36 FF 04                       LD      (IX-01h),04h
3CD0: 18 59                             JR      L3D2B

3CD2: DD 7E FB                   L3CD2: LD      A,(IX-05h)
3CD5: C6 04                             ADD     A,04h
3CD7: 5F                                LD      E,A
3CD8: DD 7E FC                          LD      A,(IX-04h)
3CDB: CE 00                             ADC     A,00h
3CDD: 57                                LD      D,A
3CDE: C5                                PUSH    BC
3CDF: 01 0B 00                          LD      BC,000Bh
3CE2: 09                                ADD     HL,BC
3CE3: C1                                POP     BC
3CE4: 7E                                LD      A,(HL)
3CE5: E6 3F                             AND     3Fh     ; '?'
3CE7: 12                                LD      (DE),A
3CE8: 69                                LD      L,C
3CE9: 60                                LD      H,B
3CEA: 4E                                LD      C,(HL)
3CEB: 23                                INC     HL
3CEC: 46                                LD      B,(HL)
3CED: 69                                LD      L,C
3CEE: 60                                LD      H,B
3CEF: 11 0B 00                          LD      DE,000Bh
3CF2: 19                                ADD     HL,DE
3CF3: CB 5E                             BIT     3,(HL)
3CF5: 20 1C                             JR      NZ,L3D13
3CF7: DD 7E FB                          LD      A,(IX-05h)
3CFA: C6 1C                             ADD     A,1Ch
3CFC: 5F                                LD      E,A
3CFD: DD 7E FC                          LD      A,(IX-04h)
3D00: CE 00                             ADC     A,00h
3D02: 57                                LD      D,A
3D03: 21 0B 00                          LD      HL,000Bh
3D06: E5                                PUSH    HL
3D07: D5                                PUSH    DE
3D08: C5                                PUSH    BC
3D09: CD AB 43                          CALL    L43AB
3D0C: F1                                POP     AF
3D0D: F1                                POP     AF
3D0E: F1                                POP     AF
3D0F: 7C                                LD      A,H
3D10: B5                                OR      L
3D11: 28 18                             JR      Z,L3D2B
3D13: 21 00 00                   L3D13: LD      HL,0000h
3D16: E5                                PUSH    HL
3D17: DD 6E FB                          LD      L,(IX-05h)
3D1A: DD 66 FC                          LD      H,(IX-04h)
3D1D: E5                                PUSH    HL
3D1E: CD 88 40                          CALL    L4088
3D21: F1                                POP     AF
3D22: F1                                POP     AF
3D23: DD 75 FF                          LD      (IX-01h),L
3D26: 7D                                LD      A,L
3D27: B7                                OR      A
3D28: CA 8F 3C                          JP      Z,L3C8F
3D2B: DD 6E FF                   L3D2B: LD      L,(IX-01h)
3D2E: DD F9                      L3D2E: LD      SP,IX
3D30: DD E1                             POP     IX
3D32: C9                                RET

                                        ; --- START PROC L3D33 ---
3D33: CD 06 15                   L3D33: CALL    L1506
3D36: DD 4E 04                          LD      C,(IX+04h)
3D39: DD 46 05                          LD      B,(IX+05h)
3D3C: DD 7E 06                          LD      A,(IX+06h)
3D3F: 02                                LD      (BC),A
3D40: 03                                INC     BC
3D41: DD 71 04                          LD      (IX+04h),C
3D44: DD 70 05                          LD      (IX+05h),B
3D47: DD 7E 07                          LD      A,(IX+07h)
3D4A: DD 77 06                          LD      (IX+06h),A
3D4D: DD 36 07 00                       LD      (IX+07h),00h
3D51: DD 4E 04                          LD      C,(IX+04h)
3D54: DD 46 05                          LD      B,(IX+05h)
3D57: DD 7E 06                          LD      A,(IX+06h)
3D5A: 02                                LD      (BC),A
3D5B: DD E1                             POP     IX
3D5D: C9                                RET

                                        ; --- START PROC L3D5E ---
3D5E: CD 06 15                   L3D5E: CALL    L1506
3D61: 21 F6 FF                          LD      HL,0FFF6h
3D64: 39                                ADD     HL,SP
3D65: F9                                LD      SP,HL
3D66: 21 00 00                          LD      HL,0000h
3D69: 39                                ADD     HL,SP
3D6A: DD 5E 04                          LD      E,(IX+04h)
3D6D: DD 56 05                          LD      D,(IX+05h)
3D70: D5                                PUSH    DE
3D71: E5                                PUSH    HL
3D72: D5                                PUSH    DE
3D73: CD A3 12                          CALL    L12A3
3D76: F1                                POP     AF
3D77: F1                                POP     AF
3D78: 7D                                LD      A,L
3D79: D1                                POP     DE
3D7A: 4F                                LD      C,A
3D7B: B7                                OR      A
3D7C: C2 DF 3E                          JP      NZ,L3EDF
3D7F: 21 0E 00                          LD      HL,000Eh
3D82: 19                                ADD     HL,DE
3D83: DD 75 F8                          LD      (IX-08h),L
3D86: DD 74 F9                          LD      (IX-07h),H
3D89: 7E                                LD      A,(HL)
3D8A: CB 77                             BIT     6,A
3D8C: CA DF 3E                          JP      Z,L3EDF
3D8F: 07                                RLCA
3D90: 30 66                             JR      NC,L3DF8
3D92: 6B                                LD      L,E
3D93: 62                                LD      H,D
3D94: 01 18 00                          LD      BC,0018h
3D97: 09                                ADD     HL,BC
3D98: 7E                                LD      A,(HL)
3D99: DD 77 FA                          LD      (IX-06h),A
3D9C: 23                                INC     HL
3D9D: 7E                                LD      A,(HL)
3D9E: DD 77 FB                          LD      (IX-05h),A
3DA1: 23                                INC     HL
3DA2: 7E                                LD      A,(HL)
3DA3: DD 77 FC                          LD      (IX-04h),A
3DA6: 23                                INC     HL
3DA7: 7E                                LD      A,(HL)
3DA8: DD 77 FD                          LD      (IX-03h),A
3DAB: 21 22 00                          LD      HL,0022h
3DAE: 19                                ADD     HL,DE
3DAF: DD 75 FE                          LD      (IX-02h),L
3DB2: DD 74 FF                          LD      (IX-01h),H
3DB5: E1                                POP     HL
3DB6: E5                                PUSH    HL
3DB7: 23                                INC     HL
3DB8: 46                                LD      B,(HL)
3DB9: D5                                PUSH    DE
3DBA: 21 01 00                          LD      HL,0001h
3DBD: E5                                PUSH    HL
3DBE: DD 6E FC                          LD      L,(IX-04h)
3DC1: DD 66 FD                          LD      H,(IX-03h)
3DC4: E5                                PUSH    HL
3DC5: DD 6E FA                          LD      L,(IX-06h)
3DC8: DD 66 FB                          LD      H,(IX-05h)
3DCB: E5                                PUSH    HL
3DCC: DD 6E FE                          LD      L,(IX-02h)
3DCF: DD 66 FF                          LD      H,(IX-01h)
3DD2: E5                                PUSH    HL
3DD3: C5                                PUSH    BC
3DD4: 33                                INC     SP
3DD5: CD EE 03                          CALL    L03EE
3DD8: FD 21 09 00                       LD      IY,0009h
3DDC: FD 39                             ADD     IY,SP
3DDE: FD F9                             LD      SP,IY
3DE0: 7D                                LD      A,L
3DE1: D1                                POP     DE
3DE2: B7                                OR      A
3DE3: 28 05                             JR      Z,L3DEA
3DE5: 2E 01                             LD      L,01h
3DE7: C3 E0 3E                          JP      L3EE0

3DEA: DD 6E F8                   L3DEA: LD      L,(IX-08h)
3DED: DD 66 F9                          LD      H,(IX-07h)
3DF0: 7E                                LD      A,(HL)
3DF1: CB BF                             RES     7,A
3DF3: C1                                POP     BC
3DF4: E1                                POP     HL
3DF5: E5                                PUSH    HL
3DF6: C5                                PUSH    BC
3DF7: 77                                LD      (HL),A
3DF8: 6B                         L3DF8: LD      L,E
3DF9: 62                                LD      H,D
3DFA: 01 1C 00                          LD      BC,001Ch
3DFD: 09                                ADD     HL,BC
3DFE: 4E                                LD      C,(HL)
3DFF: 23                                INC     HL
3E00: 46                                LD      B,(HL)
3E01: 23                                INC     HL
3E02: 23                                INC     HL
3E03: 7E                                LD      A,(HL)
3E04: 2B                                DEC     HL
3E05: 6E                                LD      L,(HL)
3E06: 67                                LD      H,A
3E07: D5                                PUSH    DE
3E08: E5                                PUSH    HL
3E09: C5                                PUSH    BC
3E0A: DD 6E F6                          LD      L,(IX-0Ah)
3E0D: DD 66 F7                          LD      H,(IX-09h)
3E10: E5                                PUSH    HL
3E11: CD 16 24                          CALL    L2416
3E14: F1                                POP     AF
3E15: F1                                POP     AF
3E16: F1                                POP     AF
3E17: 7D                                LD      A,L
3E18: D1                                POP     DE
3E19: 4F                                LD      C,A
3E1A: B7                                OR      A
3E1B: C2 DF 3E                          JP      NZ,L3EDF
3E1E: 6B                                LD      L,E
3E1F: 62                                LD      H,D
3E20: 01 20 00                          LD      BC,0020h
3E23: 09                                ADD     HL,BC
3E24: 4E                                LD      C,(HL)
3E25: 23                                INC     HL
3E26: 46                                LD      B,(HL)
3E27: 21 0B 00                          LD      HL,000Bh
3E2A: 09                                ADD     HL,BC
3E2B: CB EE                             SET     5,(HL)
3E2D: 6B                                LD      L,E
3E2E: 62                                LD      H,D
3E2F: C5                                PUSH    BC
3E30: 01 06 00                          LD      BC,0006h
3E33: 09                                ADD     HL,BC
3E34: C1                                POP     BC
3E35: 7E                                LD      A,(HL)
3E36: DD 77 FA                          LD      (IX-06h),A
3E39: 23                                INC     HL
3E3A: 7E                                LD      A,(HL)
3E3B: DD 77 FB                          LD      (IX-05h),A
3E3E: 23                                INC     HL
3E3F: 7E                                LD      A,(HL)
3E40: DD 77 FC                          LD      (IX-04h),A
3E43: 23                                INC     HL
3E44: 7E                                LD      A,(HL)
3E45: DD 77 FD                          LD      (IX-03h),A
3E48: 1A                                LD      A,(DE)
3E49: DD 77 FE                          LD      (IX-02h),A
3E4C: 13                                INC     DE
3E4D: 1A                                LD      A,(DE)
3E4E: DD 77 FF                          LD      (IX-01h),A
3E51: 1B                                DEC     DE
3E52: C5                                PUSH    BC
3E53: D5                                PUSH    DE
3E54: DD 6E FC                          LD      L,(IX-04h)
3E57: DD 66 FD                          LD      H,(IX-03h)
3E5A: E5                                PUSH    HL
3E5B: DD 6E FA                          LD      L,(IX-06h)
3E5E: DD 66 FB                          LD      H,(IX-05h)
3E61: E5                                PUSH    HL
3E62: C5                                PUSH    BC
3E63: DD 6E FE                          LD      L,(IX-02h)
3E66: DD 66 FF                          LD      H,(IX-01h)
3E69: E5                                PUSH    HL
3E6A: CD AD 26                          CALL    L26AD
3E6D: F1                                POP     AF
3E6E: F1                                POP     AF
3E6F: F1                                POP     AF
3E70: F1                                POP     AF
3E71: D1                                POP     DE
3E72: C1                                POP     BC
3E73: EB                                EX      DE,HL
3E74: 11 0A 00                          LD      DE,000Ah
3E77: 19                                ADD     HL,DE
3E78: 5E                                LD      E,(HL)
3E79: 23                                INC     HL
3E7A: 56                                LD      D,(HL)
3E7B: 23                                INC     HL
3E7C: 23                                INC     HL
3E7D: 7E                                LD      A,(HL)
3E7E: 2B                                DEC     HL
3E7F: 6E                                LD      L,(HL)
3E80: 67                                LD      H,A
3E81: 79                                LD      A,C
3E82: C6 1C                             ADD     A,1Ch
3E84: DD 77 FE                          LD      (IX-02h),A
3E87: 78                                LD      A,B
3E88: CE 00                             ADC     A,00h
3E8A: DD 77 FF                          LD      (IX-01h),A
3E8D: C5                                PUSH    BC
3E8E: E5                                PUSH    HL
3E8F: D5                                PUSH    DE
3E90: DD 6E FE                          LD      L,(IX-02h)
3E93: DD 66 FF                          LD      H,(IX-01h)
3E96: E5                                PUSH    HL
3E97: CD 8A 1A                          CALL    L1A8A
3E9A: F1                                POP     AF
3E9B: F1                                POP     AF
3E9C: F1                                POP     AF
3E9D: C1                                POP     BC
3E9E: 21 16 00                          LD      HL,0016h
3EA1: 09                                ADD     HL,BC
3EA2: EB                                EX      DE,HL
3EA3: C5                                PUSH    BC
3EA4: 21 21 50                          LD      HL,5021h
3EA7: E5                                PUSH    HL
3EA8: 21 00 00                          LD      HL,0000h
3EAB: E5                                PUSH    HL
3EAC: D5                                PUSH    DE
3EAD: CD 8A 1A                          CALL    L1A8A
3EB0: F1                                POP     AF
3EB1: F1                                POP     AF
3EB2: F1                                POP     AF
3EB3: C1                                POP     BC
3EB4: 21 12 00                          LD      HL,0012h
3EB7: 09                                ADD     HL,BC
3EB8: 01 00 00                          LD      BC,0000h
3EBB: C5                                PUSH    BC
3EBC: E5                                PUSH    HL
3EBD: CD 33 3D                          CALL    L3D33
3EC0: F1                                POP     AF
3EC1: F1                                POP     AF
3EC2: E1                                POP     HL
3EC3: E5                                PUSH    HL
3EC4: 23                                INC     HL
3EC5: 23                                INC     HL
3EC6: 23                                INC     HL
3EC7: 36 01                             LD      (HL),01h
3EC9: E1                                POP     HL
3ECA: E5                                PUSH    HL
3ECB: E5                                PUSH    HL
3ECC: CD 9B 48                          CALL    L489B
3ECF: F1                                POP     AF
3ED0: 4D                                LD      C,L
3ED1: DD 6E F8                          LD      L,(IX-08h)
3ED4: DD 66 F9                          LD      H,(IX-07h)
3ED7: 7E                                LD      A,(HL)
3ED8: CB B7                             RES     6,A
3EDA: D1                                POP     DE
3EDB: E1                                POP     HL
3EDC: E5                                PUSH    HL
3EDD: D5                                PUSH    DE
3EDE: 77                                LD      (HL),A
3EDF: 69                         L3EDF: LD      L,C
3EE0: DD F9                      L3EE0: LD      SP,IX
3EE2: DD E1                             POP     IX
3EE4: C9                                RET

                                        ; --- START PROC L3EE5 ---
3EE5: CD 06 15                   L3EE5: CALL    L1506
3EE8: 21 38 14                          LD      HL,1438h
3EEB: DD 7E 04                          LD      A,(IX+04h)
3EEE: 96                                SUB     (HL)
3EEF: 38 39                             JR      C,L3F2A
3EF1: 3A 39 14                          LD      A,(L1439)
3EF4: DD 96 04                          SUB     (IX+04h)
3EF7: 38 05                             JR      C,L3EFE
3EF9: 21 01 00                          LD      HL,0001h
3EFC: 18 2F                             JR      L3F2D

3EFE: 21 3A 14                   L3EFE: LD      HL,143Ah
3F01: DD 7E 04                          LD      A,(IX+04h)
3F04: 96                                SUB     (HL)
3F05: 38 0D                             JR      C,L3F14
3F07: 3A 3B 14                          LD      A,(L143B)
3F0A: DD 96 04                          SUB     (IX+04h)
3F0D: 38 05                             JR      C,L3F14
3F0F: 21 01 00                          LD      HL,0001h
3F12: 18 19                             JR      L3F2D

3F14: 21 3C 14                   L3F14: LD      HL,143Ch
3F17: DD 7E 04                          LD      A,(IX+04h)
3F1A: 96                                SUB     (HL)
3F1B: 38 0D                             JR      C,L3F2A
3F1D: 3A 3D 14                          LD      A,(L143D)
3F20: DD 96 04                          SUB     (IX+04h)
3F23: 38 05                             JR      C,L3F2A
3F25: 21 01 00                          LD      HL,0001h
3F28: 18 03                             JR      L3F2D

3F2A: 21 00 00                   L3F2A: LD      HL,0000h
3F2D: DD E1                      L3F2D: POP     IX
3F2F: C9                                RET

                                        ; --- START PROC L3F30 ---
3F30: D1                         L3F30: POP     DE
3F31: C1                                POP     BC
3F32: C5                                PUSH    BC
3F33: D5                                PUSH    DE
3F34: 0A                         L3F34: LD      A,(BC)
3F35: 5F                                LD      E,A
3F36: 16 00                             LD      D,00h
3F38: B7                                OR      A
3F39: 28 14                             JR      Z,L3F4F
3F3B: FD 21 04 00                       LD      IY,0004h
3F3F: FD 39                             ADD     IY,SP
3F41: FD 6E 00                          LD      L,(IY+00h)
3F44: FD 66 01                          LD      H,(IY+01h)
3F47: BF                                CP      A
3F48: ED 52                             SBC     HL,DE
3F4A: 28 03                             JR      Z,L3F4F
3F4C: 03                                INC     BC
3F4D: 18 E5                             JR      L3F34

3F4F: EB                         L3F4F: EX      DE,HL
3F50: C9                                RET

                                        ; --- START PROC L3F51 ---
3F51: CD 06 15                   L3F51: CALL    L1506
3F54: 21 E6 FF                          LD      HL,0FFE6h
3F57: 39                                ADD     HL,SP
3F58: F9                                LD      SP,HL
3F59: 21 00 00                          LD      HL,0000h
3F5C: E5                                PUSH    HL
3F5D: 21 00 00                          LD      HL,0000h
3F60: E5                                PUSH    HL
3F61: DD 6E 04                          LD      L,(IX+04h)
3F64: DD 66 05                          LD      H,(IX+05h)
3F67: E5                                PUSH    HL
3F68: CD 6E 4A                          CALL    L4A6E
3F6B: F1                                POP     AF
3F6C: F1                                POP     AF
3F6D: F1                                POP     AF
3F6E: 7D                                LD      A,L
3F6F: D6 02                             SUB     02h
3F71: B4                                OR      H
3F72: 28 12                             JR      Z,L3F86
3F74: 7D                                LD      A,L
3F75: D6 03                             SUB     03h
3F77: 7C                                LD      A,H
3F78: DE 00                             SBC     A,00h
3F7A: D2 83 40                          JP      NC,L4083
3F7D: DD 7E 07                          LD      A,(IX+07h)
3F80: DD B6 06                          OR      (IX+06h)
3F83: CA 83 40                          JP      Z,L4083
3F86: 21 00 00                   L3F86: LD      HL,0000h
3F89: 39                                ADD     HL,SP
3F8A: 4D                                LD      C,L
3F8B: 44                                LD      B,H
3F8C: DD 7E 04                          LD      A,(IX+04h)
3F8F: DD 77 F6                          LD      (IX-0Ah),A
3F92: DD 7E 05                          LD      A,(IX+05h)
3F95: DD 77 F7                          LD      (IX-09h),A
3F98: DD 7E F6                          LD      A,(IX-0Ah)
3F9B: C6 33                             ADD     A,33h   ; '3'
3F9D: DD 77 F8                          LD      (IX-08h),A
3FA0: DD 7E F7                          LD      A,(IX-09h)
3FA3: CE 00                             ADC     A,00h
3FA5: DD 77 F9                          LD      (IX-07h),A
3FA8: 11 00 00                          LD      DE,0000h
3FAB: 6B                         L3FAB: LD      L,E
3FAC: 62                                LD      H,D
3FAD: 29                                ADD     HL,HL
3FAE: 29                                ADD     HL,HL
3FAF: 09                                ADD     HL,BC
3FB0: DD 75 FA                          LD      (IX-06h),L
3FB3: DD 74 FB                          LD      (IX-05h),H
3FB6: 6B                                LD      L,E
3FB7: 62                                LD      H,D
3FB8: 29                                ADD     HL,HL
3FB9: 29                                ADD     HL,HL
3FBA: 29                                ADD     HL,HL
3FBB: 29                                ADD     HL,HL
3FBC: D5                                PUSH    DE
3FBD: 11 C6 01                          LD      DE,01C6h
3FC0: 19                                ADD     HL,DE
3FC1: D1                                POP     DE
3FC2: 7D                                LD      A,L
3FC3: DD 86 F8                          ADD     A,(IX-08h)
3FC6: 6F                                LD      L,A
3FC7: 7C                                LD      A,H
3FC8: DD 8E F9                          ADC     A,(IX-07h)
3FCB: 67                                LD      H,A
3FCC: C5                                PUSH    BC
3FCD: D5                                PUSH    DE
3FCE: E5                                PUSH    HL
3FCF: CD 2B 13                          CALL    L132B
3FD2: F1                                POP     AF
3FD3: DD 75 FC                          LD      (IX-04h),L
3FD6: DD 74 FD                          LD      (IX-03h),H
3FD9: DD 73 FE                          LD      (IX-02h),E
3FDC: DD 72 FF                          LD      (IX-01h),D
3FDF: D1                                POP     DE
3FE0: C1                                POP     BC
3FE1: D5                                PUSH    DE
3FE2: C5                                PUSH    BC
3FE3: DD 5E FA                          LD      E,(IX-06h)
3FE6: DD 56 FB                          LD      D,(IX-05h)
3FE9: 21 1A 00                          LD      HL,001Ah
3FEC: 39                                ADD     HL,SP
3FED: 01 04 00                          LD      BC,0004h
3FF0: ED B0                             LDIR
3FF2: C1                                POP     BC
3FF3: D1                                POP     DE
3FF4: 13                                INC     DE
3FF5: 7B                                LD      A,E
3FF6: D6 04                             SUB     04h
3FF8: 7A                                LD      A,D
3FF9: DE 00                             SBC     A,00h
3FFB: 38 AE                             JR      C,L3FAB
3FFD: DD 7E 07                          LD      A,(IX+07h)
4000: DD B6 06                          OR      (IX+06h)
4003: 28 09                             JR      Z,L400E
4005: DD 5E 06                          LD      E,(IX+06h)
4008: DD 56 07                          LD      D,(IX+07h)
400B: 1B                                DEC     DE
400C: 18 03                             JR      L4011

400E: 11 00 00                   L400E: LD      DE,0000h
4011: DD 73 FE                   L4011: LD      (IX-02h),E
4014: DD 72 FF                          LD      (IX-01h),D
4017: DD 6E FE                   L4017: LD      L,(IX-02h)
401A: DD 66 FF                          LD      H,(IX-01h)
401D: 29                                ADD     HL,HL
401E: 29                                ADD     HL,HL
401F: 09                                ADD     HL,BC
4020: EB                                EX      DE,HL
4021: C5                                PUSH    BC
4022: 21 16 00                          LD      HL,0016h
4025: 39                                ADD     HL,SP
4026: EB                                EX      DE,HL
4027: 01 04 00                          LD      BC,0004h
402A: ED B0                             LDIR
402C: C1                                POP     BC
402D: DD 7E FD                          LD      A,(IX-03h)
4030: DD B6 FC                          OR      (IX-04h)
4033: DD B6 FB                          OR      (IX-05h)
4036: DD B6 FA                          OR      (IX-06h)
4039: 28 20                             JR      Z,L405B
403B: C5                                PUSH    BC
403C: DD 6E FC                          LD      L,(IX-04h)
403F: DD 66 FD                          LD      H,(IX-03h)
4042: E5                                PUSH    HL
4043: DD 6E FA                          LD      L,(IX-06h)
4046: DD 66 FB                          LD      H,(IX-05h)
4049: E5                                PUSH    HL
404A: DD 6E F6                          LD      L,(IX-0Ah)
404D: DD 66 F7                          LD      H,(IX-09h)
4050: E5                                PUSH    HL
4051: CD 6E 4A                          CALL    L4A6E
4054: F1                                POP     AF
4055: F1                                POP     AF
4056: F1                                POP     AF
4057: C1                                POP     BC
4058: EB                                EX      DE,HL
4059: 18 03                             JR      L405E

405B: 11 03 00                   L405B: LD      DE,0003h
405E: DD 7E 07                   L405E: LD      A,(IX+07h)
4061: DD B6 06                          OR      (IX+06h)
4064: 20 1C                             JR      NZ,L4082
4066: 7B                                LD      A,E
4067: D6 02                             SUB     02h
4069: 7A                                LD      A,D
406A: DE 00                             SBC     A,00h
406C: 38 14                             JR      C,L4082
406E: DD 34 FE                          INC     (IX-02h)
4071: 20 03                             JR      NZ,L4076
4073: DD 34 FF                          INC     (IX-01h)
4076: DD 7E FE                   L4076: LD      A,(IX-02h)
4079: D6 04                             SUB     04h
407B: DD 7E FF                          LD      A,(IX-01h)
407E: DE 00                             SBC     A,00h
4080: 38 95                             JR      C,L4017
4082: EB                         L4082: EX      DE,HL
4083: DD F9                      L4083: LD      SP,IX
4085: DD E1                             POP     IX
4087: C9                                RET

                                        ; --- START PROC L4088 ---
4088: CD 06 15                   L4088: CALL    L1506
408B: 21 E6 FF                          LD      HL,0FFE6h
408E: 39                                ADD     HL,SP
408F: F9                                LD      SP,HL
4090: DD 7E 04                          LD      A,(IX+04h)
4093: DD 77 E6                          LD      (IX-1Ah),A
4096: DD 7E 05                          LD      A,(IX+05h)
4099: DD 77 E7                          LD      (IX-19h),A
409C: E1                                POP     HL
409D: E5                                PUSH    HL
409E: 7E                                LD      A,(HL)
409F: DD 77 E8                          LD      (IX-18h),A
40A2: 23                                INC     HL
40A3: 7E                                LD      A,(HL)
40A4: DD 77 E9                          LD      (IX-17h),A
40A7: DD 7E E6                          LD      A,(IX-1Ah)
40AA: C6 0E                             ADD     A,0Eh
40AC: DD 77 EA                          LD      (IX-16h),A
40AF: DD 7E E7                          LD      A,(IX-19h)
40B2: CE 00                             ADC     A,00h
40B4: DD 77 EB                          LD      (IX-15h),A
40B7: DD 6E EA                          LD      L,(IX-16h)
40BA: DD 66 EB                          LD      H,(IX-15h)
40BD: 5E                                LD      E,(HL)
40BE: 23                                INC     HL
40BF: 56                                LD      D,(HL)
40C0: 23                                INC     HL
40C1: 23                                INC     HL
40C2: 7E                                LD      A,(HL)
40C3: 2B                                DEC     HL
40C4: 6E                                LD      L,(HL)
40C5: 67                                LD      H,A
40C6: 7B                                LD      A,E
40C7: C6 20                             ADD     A,20h   ; ' '
40C9: DD 77 EC                          LD      (IX-14h),A
40CC: 7A                                LD      A,D
40CD: CE 00                             ADC     A,00h
40CF: DD 77 ED                          LD      (IX-13h),A
40D2: 7D                                LD      A,L
40D3: CE 00                             ADC     A,00h
40D5: DD 77 EE                          LD      (IX-12h),A
40D8: 7C                                LD      A,H
40D9: CE 00                             ADC     A,00h
40DB: DD 77 EF                          LD      (IX-11h),A
40DE: DD 7E E6                          LD      A,(IX-1Ah)
40E1: C6 16                             ADD     A,16h
40E3: DD 77 F0                          LD      (IX-10h),A
40E6: DD 7E E7                          LD      A,(IX-19h)
40E9: CE 00                             ADC     A,00h
40EB: DD 77 F1                          LD      (IX-0Fh),A
40EE: DD 7E EE                          LD      A,(IX-12h)
40F1: D6 20                             SUB     20h     ; ' '
40F3: DD 7E EF                          LD      A,(IX-11h)
40F6: DE 00                             SBC     A,00h
40F8: 38 0E                             JR      C,L4108
40FA: DD 6E F0                          LD      L,(IX-10h)
40FD: DD 66 F1                          LD      H,(IX-0Fh)
4100: AF                                XOR     A
4101: 77                                LD      (HL),A
4102: 23                                INC     HL
4103: 77                                LD      (HL),A
4104: 23                                INC     HL
4105: 77                                LD      (HL),A
4106: 23                                INC     HL
4107: 77                                LD      (HL),A
4108: DD 5E F0                   L4108: LD      E,(IX-10h)
410B: DD 56 F1                          LD      D,(IX-0Fh)
410E: 21 16 00                          LD      HL,0016h
4111: 39                                ADD     HL,SP
4112: EB                                EX      DE,HL
4113: 01 04 00                          LD      BC,0004h
4116: ED B0                             LDIR
4118: DD 7E FF                          LD      A,(IX-01h)
411B: DD B6 FE                          OR      (IX-02h)
411E: DD B6 FD                          OR      (IX-03h)
4121: DD B6 FC                          OR      (IX-04h)
4124: 20 05                             JR      NZ,L412B
4126: 2E 04                             LD      L,04h
4128: C3 A6 43                          JP      L43A6

412B: DD 7E EC                   L412B: LD      A,(IX-14h)
412E: DD 77 F2                          LD      (IX-0Eh),A
4131: DD 7E ED                          LD      A,(IX-13h)
4134: E6 01                             AND     01h
4136: DD 77 F3                          LD      (IX-0Dh),A
4139: DD 36 F4 00                       LD      (IX-0Ch),00h
413D: DD 36 F5 00                       LD      (IX-0Bh),00h
4141: 3E 00                             LD      A,00h
4143: DD B6 F4                          OR      (IX-0Ch)
4146: DD B6 F3                          OR      (IX-0Dh)
4149: DD B6 F2                          OR      (IX-0Eh)
414C: C2 54 43                          JP      NZ,L4354
414F: DD 7E FC                          LD      A,(IX-04h)
4152: C6 01                             ADD     A,01h
4154: 4F                                LD      C,A
4155: DD 7E FD                          LD      A,(IX-03h)
4158: CE 00                             ADC     A,00h
415A: 47                                LD      B,A
415B: DD 7E FE                          LD      A,(IX-02h)
415E: CE 00                             ADC     A,00h
4160: 5F                                LD      E,A
4161: DD 7E FF                          LD      A,(IX-01h)
4164: CE 00                             ADC     A,00h
4166: 57                                LD      D,A
4167: DD 6E F0                          LD      L,(IX-10h)
416A: DD 66 F1                          LD      H,(IX-0Fh)
416D: 71                                LD      (HL),C
416E: 23                                INC     HL
416F: 70                                LD      (HL),B
4170: 23                                INC     HL
4171: 73                                LD      (HL),E
4172: 23                                INC     HL
4173: 72                                LD      (HL),D
4174: DD 7E E6                          LD      A,(IX-1Ah)
4177: C6 12                             ADD     A,12h
4179: DD 77 F6                          LD      (IX-0Ah),A
417C: DD 7E E7                          LD      A,(IX-19h)
417F: CE 00                             ADC     A,00h
4181: DD 77 F7                          LD      (IX-09h),A
4184: DD 5E F6                          LD      E,(IX-0Ah)
4187: DD 56 F7                          LD      D,(IX-09h)
418A: 21 12 00                          LD      HL,0012h
418D: 39                                ADD     HL,SP
418E: EB                                EX      DE,HL
418F: 01 04 00                          LD      BC,0004h
4192: ED B0                             LDIR
4194: DD 7E FB                          LD      A,(IX-05h)
4197: DD B6 FA                          OR      (IX-06h)
419A: DD B6 F9                          OR      (IX-07h)
419D: DD B6 F8                          OR      (IX-08h)
41A0: 20 5B                             JR      NZ,L41FD
41A2: DD 4E EC                          LD      C,(IX-14h)
41A5: DD 46 ED                          LD      B,(IX-13h)
41A8: DD 5E EE                          LD      E,(IX-12h)
41AB: DD 56 EF                          LD      D,(IX-11h)
41AE: 3E 05                             LD      A,05h
41B0: CB 3A                      L41B0: SRL     D
41B2: CB 1B                             RR      E
41B4: CB 18                             RR      B
41B6: CB 19                             RR      C
41B8: 3D                                DEC     A
41B9: 20 F5                             JR      NZ,L41B0
41BB: DD 6E E8                          LD      L,(IX-18h)
41BE: DD 66 E9                          LD      H,(IX-17h)
41C1: C5                                PUSH    BC
41C2: 01 07 00                          LD      BC,0007h
41C5: 09                                ADD     HL,BC
41C6: C1                                POP     BC
41C7: 7E                                LD      A,(HL)
41C8: 23                                INC     HL
41C9: 66                                LD      H,(HL)
41CA: DD 77 FC                          LD      (IX-04h),A
41CD: DD 74 FD                          LD      (IX-03h),H
41D0: AF                                XOR     A
41D1: DD 77 FE                          LD      (IX-02h),A
41D4: DD 77 FF                          LD      (IX-01h),A
41D7: 79                                LD      A,C
41D8: DD 96 FC                          SUB     (IX-04h)
41DB: 78                                LD      A,B
41DC: DD 9E FD                          SBC     A,(IX-03h)
41DF: 7B                                LD      A,E
41E0: DD 9E FE                          SBC     A,(IX-02h)
41E3: 7A                                LD      A,D
41E4: DD 9E FF                          SBC     A,(IX-01h)
41E7: DA 54 43                          JP      C,L4354
41EA: DD 6E F0                          LD      L,(IX-10h)
41ED: DD 66 F1                          LD      H,(IX-0Fh)
41F0: AF                                XOR     A
41F1: 77                                LD      (HL),A
41F2: 23                                INC     HL
41F3: 77                                LD      (HL),A
41F4: 23                                INC     HL
41F5: 77                                LD      (HL),A
41F6: 23                                INC     HL
41F7: 77                                LD      (HL),A
41F8: 2E 04                             LD      L,04h
41FA: C3 A6 43                          JP      L43A6

41FD: DD 4E ED                   L41FD: LD      C,(IX-13h)
4200: DD 46 EE                          LD      B,(IX-12h)
4203: DD 5E EF                          LD      E,(IX-11h)
4206: 16 00                             LD      D,00h
4208: CB 3B                             SRL     E
420A: CB 18                             RR      B
420C: CB 19                             RR      C
420E: DD 6E E8                          LD      L,(IX-18h)
4211: DD 66 E9                          LD      H,(IX-17h)
4214: C5                                PUSH    BC
4215: 01 0A 00                          LD      BC,000Ah
4218: 09                                ADD     HL,BC
4219: C1                                POP     BC
421A: 7E                                LD      A,(HL)
421B: 2B                                DEC     HL
421C: 6E                                LD      L,(HL)
421D: 67                                LD      H,A
421E: 2B                                DEC     HL
421F: DD 75 FC                          LD      (IX-04h),L
4222: DD 74 FD                          LD      (IX-03h),H
4225: AF                                XOR     A
4226: DD 77 FE                          LD      (IX-02h),A
4229: DD 77 FF                          LD      (IX-01h),A
422C: 79                                LD      A,C
422D: DD A6 FC                          AND     (IX-04h)
4230: 4F                                LD      C,A
4231: 78                                LD      A,B
4232: DD A6 FD                          AND     (IX-03h)
4235: 47                                LD      B,A
4236: 7B                                LD      A,E
4237: DD A6 FE                          AND     (IX-02h)
423A: 5F                                LD      E,A
423B: 7A                                LD      A,D
423C: DD A6 FF                          AND     (IX-01h)
423F: B3                                OR      E
4240: B0                                OR      B
4241: B1                                OR      C
4242: C2 54 43                          JP      NZ,L4354
4245: DD 6E FA                          LD      L,(IX-06h)
4248: DD 66 FB                          LD      H,(IX-05h)
424B: E5                                PUSH    HL
424C: DD 6E F8                          LD      L,(IX-08h)
424F: DD 66 F9                          LD      H,(IX-07h)
4252: E5                                PUSH    HL
4253: DD 6E E6                          LD      L,(IX-1Ah)
4256: DD 66 E7                          LD      H,(IX-19h)
4259: E5                                PUSH    HL
425A: CD 7F 15                          CALL    L157F
425D: F1                                POP     AF
425E: F1                                POP     AF
425F: F1                                POP     AF
4260: 4D                                LD      C,L
4261: 44                                LD      B,H
4262: 3E 01                             LD      A,01h
4264: B9                                CP      C
4265: 3E 00                             LD      A,00h
4267: 98                                SBC     A,B
4268: 21 00 00                          LD      HL,0000h
426B: ED 52                             SBC     HL,DE
426D: 38 05                             JR      C,L4274
426F: 2E 02                             LD      L,02h
4271: C3 A6 43                          JP      L43A6

4274: 79                         L4274: LD      A,C
4275: A0                                AND     B
4276: A3                                AND     E
4277: A2                                AND     D
4278: 3C                                INC     A
4279: 20 05                             JR      NZ,L4280
427B: 2E 01                             LD      L,01h
427D: C3 A6 43                          JP      L43A6

4280: DD 6E E8                   L4280: LD      L,(IX-18h)
4283: DD 66 E9                          LD      H,(IX-17h)
4286: C5                                PUSH    BC
4287: 01 17 00                          LD      BC,0017h
428A: 09                                ADD     HL,BC
428B: C1                                POP     BC
428C: 7E                                LD      A,(HL)
428D: DD 77 FC                          LD      (IX-04h),A
4290: 23                                INC     HL
4291: 7E                                LD      A,(HL)
4292: DD 77 FD                          LD      (IX-03h),A
4295: 23                                INC     HL
4296: 7E                                LD      A,(HL)
4297: DD 77 FE                          LD      (IX-02h),A
429A: 23                                INC     HL
429B: 7E                                LD      A,(HL)
429C: DD 77 FF                          LD      (IX-01h),A
429F: 79                                LD      A,C
42A0: DD 96 FC                          SUB     (IX-04h)
42A3: 78                                LD      A,B
42A4: DD 9E FD                          SBC     A,(IX-03h)
42A7: 7B                                LD      A,E
42A8: DD 9E FE                          SBC     A,(IX-02h)
42AB: 7A                                LD      A,D
42AC: DD 9E FF                          SBC     A,(IX-01h)
42AF: 38 78                             JR      C,L4329
42B1: DD 7E 07                          LD      A,(IX+07h)
42B4: DD B6 06                          OR      (IX+06h)
42B7: 20 13                             JR      NZ,L42CC
42B9: DD 6E F0                          LD      L,(IX-10h)
42BC: DD 66 F1                          LD      H,(IX-0Fh)
42BF: AF                                XOR     A
42C0: 77                                LD      (HL),A
42C1: 23                                INC     HL
42C2: 77                                LD      (HL),A
42C3: 23                                INC     HL
42C4: 77                                LD      (HL),A
42C5: 23                                INC     HL
42C6: 77                                LD      (HL),A
42C7: 2E 04                             LD      L,04h
42C9: C3 A6 43                          JP      L43A6

42CC: DD 6E F6                   L42CC: LD      L,(IX-0Ah)
42CF: DD 66 F7                          LD      H,(IX-09h)
42D2: 4E                                LD      C,(HL)
42D3: 23                                INC     HL
42D4: 46                                LD      B,(HL)
42D5: 23                                INC     HL
42D6: 5E                                LD      E,(HL)
42D7: 23                                INC     HL
42D8: 56                                LD      D,(HL)
42D9: D5                                PUSH    DE
42DA: C5                                PUSH    BC
42DB: DD 6E E6                          LD      L,(IX-1Ah)
42DE: DD 66 E7                          LD      H,(IX-19h)
42E1: E5                                PUSH    HL
42E2: CD 34 4B                          CALL    L4B34
42E5: F1                                POP     AF
42E6: F1                                POP     AF
42E7: F1                                POP     AF
42E8: 4D                                LD      C,L
42E9: 44                                LD      B,H
42EA: 7A                                LD      A,D
42EB: B3                                OR      E
42EC: B0                                OR      B
42ED: B1                                OR      C
42EE: 20 05                             JR      NZ,L42F5
42F0: 2E 07                             LD      L,07h
42F2: C3 A6 43                          JP      L43A6

42F5: 79                         L42F5: LD      A,C
42F6: 3D                                DEC     A
42F7: B0                                OR      B
42F8: B3                                OR      E
42F9: B2                                OR      D
42FA: 20 05                             JR      NZ,L4301
42FC: 2E 02                             LD      L,02h
42FE: C3 A6 43                          JP      L43A6

4301: 79                         L4301: LD      A,C
4302: A0                                AND     B
4303: A3                                AND     E
4304: A2                                AND     D
4305: 3C                                INC     A
4306: 20 05                             JR      NZ,L430D
4308: 2E 01                             LD      L,01h
430A: C3 A6 43                          JP      L43A6

430D: C5                         L430D: PUSH    BC
430E: D5                                PUSH    DE
430F: D5                                PUSH    DE
4310: C5                                PUSH    BC
4311: DD 6E E8                          LD      L,(IX-18h)
4314: DD 66 E9                          LD      H,(IX-17h)
4317: E5                                PUSH    HL
4318: CD 5E 47                          CALL    L475E
431B: F1                                POP     AF
431C: F1                                POP     AF
431D: F1                                POP     AF
431E: 7D                                LD      A,L
431F: D1                                POP     DE
4320: C1                                POP     BC
4321: B7                                OR      A
4322: 28 05                             JR      Z,L4329
4324: 2E 01                             LD      L,01h
4326: C3 A6 43                          JP      L43A6

4329: DD 6E F6                   L4329: LD      L,(IX-0Ah)
432C: DD 66 F7                          LD      H,(IX-09h)
432F: 71                                LD      (HL),C
4330: 23                                INC     HL
4331: 70                                LD      (HL),B
4332: 23                                INC     HL
4333: 73                                LD      (HL),E
4334: 23                                INC     HL
4335: 72                                LD      (HL),D
4336: D5                                PUSH    DE
4337: C5                                PUSH    BC
4338: DD 6E E8                          LD      L,(IX-18h)
433B: DD 66 E9                          LD      H,(IX-17h)
433E: E5                                PUSH    HL
433F: CD 3E 14                          CALL    L143E
4342: F1                                POP     AF
4343: F1                                POP     AF
4344: F1                                POP     AF
4345: 4D                                LD      C,L
4346: 44                                LD      B,H
4347: DD 6E F0                          LD      L,(IX-10h)
434A: DD 66 F1                          LD      H,(IX-0Fh)
434D: 71                                LD      (HL),C
434E: 23                                INC     HL
434F: 70                                LD      (HL),B
4350: 23                                INC     HL
4351: 73                                LD      (HL),E
4352: 23                                INC     HL
4353: 72                                LD      (HL),D
4354: DD 5E EA                   L4354: LD      E,(IX-16h)
4357: DD 56 EB                          LD      D,(IX-15h)
435A: 21 06 00                          LD      HL,0006h
435D: 39                                ADD     HL,SP
435E: 01 04 00                          LD      BC,0004h
4361: ED B0                             LDIR
4363: DD 7E E6                          LD      A,(IX-1Ah)
4366: C6 1A                             ADD     A,1Ah
4368: DD 77 FE                          LD      (IX-02h),A
436B: DD 7E E7                          LD      A,(IX-19h)
436E: CE 00                             ADC     A,00h
4370: DD 77 FF                          LD      (IX-01h),A
4373: DD 7E E8                          LD      A,(IX-18h)
4376: C6 33                             ADD     A,33h   ; '3'
4378: DD 77 FC                          LD      (IX-04h),A
437B: DD 7E E9                          LD      A,(IX-17h)
437E: CE 00                             ADC     A,00h
4380: DD 77 FD                          LD      (IX-03h),A
4383: DD 7E FC                          LD      A,(IX-04h)
4386: DD 86 F2                          ADD     A,(IX-0Eh)
4389: DD 77 FA                          LD      (IX-06h),A
438C: DD 7E FD                          LD      A,(IX-03h)
438F: DD 8E F3                          ADC     A,(IX-0Dh)
4392: DD 77 FB                          LD      (IX-05h),A
4395: DD 6E FE                          LD      L,(IX-02h)
4398: DD 66 FF                          LD      H,(IX-01h)
439B: DD 7E FA                          LD      A,(IX-06h)
439E: 77                                LD      (HL),A
439F: 23                                INC     HL
43A0: DD 7E FB                          LD      A,(IX-05h)
43A3: 77                                LD      (HL),A
43A4: 2E 00                             LD      L,00h
43A6: DD F9                      L43A6: LD      SP,IX
43A8: DD E1                             POP     IX
43AA: C9                                RET

                                        ; --- START PROC L43AB ---
43AB: CD 06 15                   L43AB: CALL    L1506
43AE: F5                                PUSH    AF
43AF: F5                                PUSH    AF
43B0: DD 4E 04                          LD      C,(IX+04h)
43B3: DD 46 05                          LD      B,(IX+05h)
43B6: DD 7E 06                          LD      A,(IX+06h)
43B9: DD 77 FE                          LD      (IX-02h),A
43BC: DD 7E 07                          LD      A,(IX+07h)
43BF: DD 77 FF                          LD      (IX-01h),A
43C2: DD 5E 08                          LD      E,(IX+08h)
43C5: DD 56 09                          LD      D,(IX+09h)
43C8: 0A                         L43C8: LD      A,(BC)
43C9: 03                                INC     BC
43CA: DD 77 FC                          LD      (IX-04h),A
43CD: AF                                XOR     A
43CE: DD 77 FD                          LD      (IX-03h),A
43D1: DD 6E FE                          LD      L,(IX-02h)
43D4: DD 66 FF                          LD      H,(IX-01h)
43D7: 6E                                LD      L,(HL)
43D8: DD 34 FE                          INC     (IX-02h)
43DB: 20 03                             JR      NZ,L43E0
43DD: DD 34 FF                          INC     (IX-01h)
43E0: 26 00                      L43E0: LD      H,00h
43E2: DD 7E FC                          LD      A,(IX-04h)
43E5: 95                                SUB     L
43E6: 6F                                LD      L,A
43E7: DD 7E FD                          LD      A,(IX-03h)
43EA: 9C                                SBC     A,H
43EB: 67                                LD      H,A
43EC: 1B                                DEC     DE
43ED: 7A                                LD      A,D
43EE: B3                                OR      E
43EF: 28 04                             JR      Z,L43F5
43F1: 7C                                LD      A,H
43F2: B5                                OR      L
43F3: 28 D3                             JR      Z,L43C8
43F5: DD F9                      L43F5: LD      SP,IX
43F7: DD E1                             POP     IX
43F9: C9                                RET

                                        ; --- START PROC L43FA ---
43FA: CD 06 15                   L43FA: CALL    L1506
43FD: 21 EE FF                          LD      HL,0FFEEh
4400: 39                                ADD     HL,SP
4401: F9                                LD      SP,HL
4402: DD 7E 04                          LD      A,(IX+04h)
4405: DD 77 EE                          LD      (IX-12h),A
4408: DD 7E 05                          LD      A,(IX+05h)
440B: DD 77 EF                          LD      (IX-11h),A
440E: DD 7E EE                          LD      A,(IX-12h)
4411: DD 77 F0                          LD      (IX-10h),A
4414: DD 7E EF                          LD      A,(IX-11h)
4417: DD 77 F1                          LD      (IX-0Fh),A
441A: E1                                POP     HL
441B: E5                                PUSH    HL
441C: 7E                                LD      A,(HL)
441D: DD 77 F2                          LD      (IX-0Eh),A
4420: 23                                INC     HL
4421: 7E                                LD      A,(HL)
4422: DD 77 F3                          LD      (IX-0Dh),A
4425: DD 7E 08                          LD      A,(IX+08h)
4428: D6 20                             SUB     20h     ; ' '
442A: DD 7E 09                          LD      A,(IX+09h)
442D: DE 00                             SBC     A,00h
442F: 30 07                             JR      NC,L4438
4431: DD 7E 06                          LD      A,(IX+06h)
4434: E6 1F                             AND     1Fh
4436: 28 05                             JR      Z,L443D
4438: 2E 02                      L4438: LD      L,02h
443A: C3 1D 47                          JP      L471D

443D: DD 7E EE                   L443D: LD      A,(IX-12h)
4440: C6 0E                             ADD     A,0Eh
4442: 5F                                LD      E,A
4443: DD 7E EF                          LD      A,(IX-11h)
4446: CE 00                             ADC     A,00h
4448: 57                                LD      D,A
4449: 21 18 00                          LD      HL,0018h
444C: 39                                ADD     HL,SP
444D: 01 04 00                          LD      BC,0004h
4450: ED B0                             LDIR
4452: DD 7E EE                          LD      A,(IX-12h)
4455: DD 77 FE                          LD      (IX-02h),A
4458: DD 7E EF                          LD      A,(IX-11h)
445B: DD 77 FF                          LD      (IX-01h),A
445E: DD 6E FE                          LD      L,(IX-02h)
4461: DD 66 FF                          LD      H,(IX-01h)
4464: 11 06 00                          LD      DE,0006h
4467: 19                                ADD     HL,DE
4468: 7E                                LD      A,(HL)
4469: DD 77 F4                          LD      (IX-0Ch),A
446C: 23                                INC     HL
446D: 7E                                LD      A,(HL)
446E: DD 77 F5                          LD      (IX-0Bh),A
4471: 23                                INC     HL
4472: 7E                                LD      A,(HL)
4473: DD 77 F6                          LD      (IX-0Ah),A
4476: 23                                INC     HL
4477: 7E                                LD      A,(HL)
4478: DD 77 F7                          LD      (IX-09h),A
447B: DD 7E F2                          LD      A,(IX-0Eh)
447E: C6 27                             ADD     A,27h   ; '''
4480: DD 77 FE                          LD      (IX-02h),A
4483: DD 7E F3                          LD      A,(IX-0Dh)
4486: CE 00                             ADC     A,00h
4488: DD 77 FF                          LD      (IX-01h),A
448B: DD 7E F7                          LD      A,(IX-09h)
448E: DD B6 F6                          OR      (IX-0Ah)
4491: DD B6 F5                          OR      (IX-0Bh)
4494: DD B6 F4                          OR      (IX-0Ch)
4497: 20 1B                             JR      NZ,L44B4
4499: DD 6E F2                          LD      L,(IX-0Eh)
449C: DD 66 F3                          LD      H,(IX-0Dh)
449F: 7E                                LD      A,(HL)
44A0: D6 03                             SUB     03h
44A2: 38 10                             JR      C,L44B4
44A4: DD 5E FE                          LD      E,(IX-02h)
44A7: DD 56 FF                          LD      D,(IX-01h)
44AA: 21 06 00                          LD      HL,0006h
44AD: 39                                ADD     HL,SP
44AE: EB                                EX      DE,HL
44AF: 01 04 00                          LD      BC,0004h
44B2: ED B0                             LDIR
44B4: DD 7E EE                   L44B4: LD      A,(IX-12h)
44B7: C6 16                             ADD     A,16h
44B9: DD 77 F8                          LD      (IX-08h),A
44BC: DD 7E EF                          LD      A,(IX-11h)
44BF: CE 00                             ADC     A,00h
44C1: DD 77 F9                          LD      (IX-07h),A
44C4: DD 7E F7                          LD      A,(IX-09h)
44C7: DD B6 F6                          OR      (IX-0Ah)
44CA: DD B6 F5                          OR      (IX-0Bh)
44CD: DD B6 F4                          OR      (IX-0Ch)
44D0: 20 69                             JR      NZ,L453B
44D2: DD 4E 06                          LD      C,(IX+06h)
44D5: DD 46 07                          LD      B,(IX+07h)
44D8: DD 5E 08                          LD      E,(IX+08h)
44DB: DD 56 09                          LD      D,(IX+09h)
44DE: 3E 05                             LD      A,05h
44E0: CB 3A                      L44E0: SRL     D
44E2: CB 1B                             RR      E
44E4: CB 18                             RR      B
44E6: CB 19                             RR      C
44E8: 3D                                DEC     A
44E9: 20 F5                             JR      NZ,L44E0
44EB: DD 6E F2                          LD      L,(IX-0Eh)
44EE: DD 66 F3                          LD      H,(IX-0Dh)
44F1: C5                                PUSH    BC
44F2: 01 07 00                          LD      BC,0007h
44F5: 09                                ADD     HL,BC
44F6: C1                                POP     BC
44F7: 7E                                LD      A,(HL)
44F8: 23                                INC     HL
44F9: 66                                LD      H,(HL)
44FA: DD 77 FA                          LD      (IX-06h),A
44FD: DD 74 FB                          LD      (IX-05h),H
4500: AF                                XOR     A
4501: DD 77 FC                          LD      (IX-04h),A
4504: DD 77 FD                          LD      (IX-03h),A
4507: 79                                LD      A,C
4508: DD 96 FA                          SUB     (IX-06h)
450B: 78                                LD      A,B
450C: DD 9E FB                          SBC     A,(IX-05h)
450F: 7B                                LD      A,E
4510: DD 9E FC                          SBC     A,(IX-04h)
4513: 7A                                LD      A,D
4514: DD 9E FD                          SBC     A,(IX-03h)
4517: 38 05                             JR      C,L451E
4519: 2E 02                             LD      L,02h
451B: C3 1D 47                          JP      L471D

451E: DD 6E FE                   L451E: LD      L,(IX-02h)
4521: DD 66 FF                          LD      H,(IX-01h)
4524: 4E                                LD      C,(HL)
4525: 23                                INC     HL
4526: 46                                LD      B,(HL)
4527: 23                                INC     HL
4528: 5E                                LD      E,(HL)
4529: 23                                INC     HL
452A: 56                                LD      D,(HL)
452B: DD 6E F8                          LD      L,(IX-08h)
452E: DD 66 F9                          LD      H,(IX-07h)
4531: 71                                LD      (HL),C
4532: 23                                INC     HL
4533: 70                                LD      (HL),B
4534: 23                                INC     HL
4535: 73                                LD      (HL),E
4536: 23                                INC     HL
4537: 72                                LD      (HL),D
4538: C3 54 46                          JP      L4654

453B: DD 6E F2                   L453B: LD      L,(IX-0Eh)
453E: DD 66 F3                          LD      H,(IX-0Dh)
4541: 11 09 00                          LD      DE,0009h
4544: 19                                ADD     HL,DE
4545: 4E                                LD      C,(HL)
4546: 23                                INC     HL
4547: 46                                LD      B,(HL)
4548: 1E 00                             LD      E,00h
454A: DD 71 FB                          LD      (IX-05h),C
454D: DD 70 FC                          LD      (IX-04h),B
4550: DD 73 FD                          LD      (IX-03h),E
4553: AF                                XOR     A
4554: DD 77 FA                          LD      (IX-06h),A
4557: DD CB FB 26                       SLA     (IX-05h)
455B: DD CB FC 16                       RL      (IX-04h)
455F: DD CB FD 16                       RL      (IX-03h)
4563: DD 7E F2                          LD      A,(IX-0Eh)
4566: DD 77 FE                          LD      (IX-02h),A
4569: DD 7E F3                          LD      A,(IX-0Dh)
456C: DD 77 FF                          LD      (IX-01h),A
456F: DD 7E 06                   L456F: LD      A,(IX+06h)
4572: DD 96 FA                          SUB     (IX-06h)
4575: DD 7E 07                          LD      A,(IX+07h)
4578: DD 9E FB                          SBC     A,(IX-05h)
457B: DD 7E 08                          LD      A,(IX+08h)
457E: DD 9E FC                          SBC     A,(IX-04h)
4581: DD 7E 09                          LD      A,(IX+09h)
4584: DD 9E FD                          SBC     A,(IX-03h)
4587: DA 2A 46                          JP      C,L462A
458A: DD 6E F6                          LD      L,(IX-0Ah)
458D: DD 66 F7                          LD      H,(IX-09h)
4590: E5                                PUSH    HL
4591: DD 6E F4                          LD      L,(IX-0Ch)
4594: DD 66 F5                          LD      H,(IX-0Bh)
4597: E5                                PUSH    HL
4598: DD 6E F0                          LD      L,(IX-10h)
459B: DD 66 F1                          LD      H,(IX-0Fh)
459E: E5                                PUSH    HL
459F: CD 7F 15                          CALL    L157F
45A2: F1                                POP     AF
45A3: F1                                POP     AF
45A4: F1                                POP     AF
45A5: DD 75 F4                          LD      (IX-0Ch),L
45A8: DD 74 F5                          LD      (IX-0Bh),H
45AB: DD 73 F6                          LD      (IX-0Ah),E
45AE: DD 72 F7                          LD      (IX-09h),D
45B1: DD 7E F4                          LD      A,(IX-0Ch)
45B4: DD A6 F5                          AND     (IX-0Bh)
45B7: DD A6 F6                          AND     (IX-0Ah)
45BA: DD A6 F7                          AND     (IX-09h)
45BD: 3C                                INC     A
45BE: 20 05                             JR      NZ,L45C5
45C0: 2E 01                             LD      L,01h
45C2: C3 1D 47                          JP      L471D

45C5: DD 7E F4                   L45C5: LD      A,(IX-0Ch)
45C8: D6 02                             SUB     02h
45CA: DD 7E F5                          LD      A,(IX-0Bh)
45CD: DE 00                             SBC     A,00h
45CF: DD 7E F6                          LD      A,(IX-0Ah)
45D2: DE 00                             SBC     A,00h
45D4: DD 7E F7                          LD      A,(IX-09h)
45D7: DE 00                             SBC     A,00h
45D9: 38 23                             JR      C,L45FE
45DB: DD 6E FE                          LD      L,(IX-02h)
45DE: DD 66 FF                          LD      H,(IX-01h)
45E1: 11 17 00                          LD      DE,0017h
45E4: 19                                ADD     HL,DE
45E5: 4E                                LD      C,(HL)
45E6: 23                                INC     HL
45E7: 46                                LD      B,(HL)
45E8: 23                                INC     HL
45E9: 5E                                LD      E,(HL)
45EA: 23                                INC     HL
45EB: 56                                LD      D,(HL)
45EC: DD 7E F4                          LD      A,(IX-0Ch)
45EF: 91                                SUB     C
45F0: DD 7E F5                          LD      A,(IX-0Bh)
45F3: 98                                SBC     A,B
45F4: DD 7E F6                          LD      A,(IX-0Ah)
45F7: 9B                                SBC     A,E
45F8: DD 7E F7                          LD      A,(IX-09h)
45FB: 9A                                SBC     A,D
45FC: 38 05                             JR      C,L4603
45FE: 2E 02                      L45FE: LD      L,02h
4600: C3 1D 47                          JP      L471D

4603: DD 7E 06                   L4603: LD      A,(IX+06h)
4606: DD 96 FA                          SUB     (IX-06h)
4609: DD 77 06                          LD      (IX+06h),A
460C: DD 7E 07                          LD      A,(IX+07h)
460F: DD 9E FB                          SBC     A,(IX-05h)
4612: DD 77 07                          LD      (IX+07h),A
4615: DD 7E 08                          LD      A,(IX+08h)
4618: DD 9E FC                          SBC     A,(IX-04h)
461B: DD 77 08                          LD      (IX+08h),A
461E: DD 7E 09                          LD      A,(IX+09h)
4621: DD 9E FD                          SBC     A,(IX-03h)
4624: DD 77 09                          LD      (IX+09h),A
4627: C3 6F 45                          JP      L456F

462A: DD 6E F6                   L462A: LD      L,(IX-0Ah)
462D: DD 66 F7                          LD      H,(IX-09h)
4630: E5                                PUSH    HL
4631: DD 6E F4                          LD      L,(IX-0Ch)
4634: DD 66 F5                          LD      H,(IX-0Bh)
4637: E5                                PUSH    HL
4638: DD 6E F2                          LD      L,(IX-0Eh)
463B: DD 66 F3                          LD      H,(IX-0Dh)
463E: E5                                PUSH    HL
463F: CD 3E 14                          CALL    L143E
4642: F1                                POP     AF
4643: F1                                POP     AF
4644: F1                                POP     AF
4645: 4D                                LD      C,L
4646: 44                                LD      B,H
4647: DD 6E F8                          LD      L,(IX-08h)
464A: DD 66 F9                          LD      H,(IX-07h)
464D: 71                                LD      (HL),C
464E: 23                                INC     HL
464F: 70                                LD      (HL),B
4650: 23                                INC     HL
4651: 73                                LD      (HL),E
4652: 23                                INC     HL
4653: 72                                LD      (HL),D
4654: DD 7E EE                   L4654: LD      A,(IX-12h)
4657: C6 12                             ADD     A,12h
4659: 5F                                LD      E,A
465A: DD 7E EF                          LD      A,(IX-11h)
465D: CE 00                             ADC     A,00h
465F: 57                                LD      D,A
4660: 21 06 00                          LD      HL,0006h
4663: 39                                ADD     HL,SP
4664: 01 04 00                          LD      BC,0004h
4667: ED B0                             LDIR
4669: DD 6E F8                          LD      L,(IX-08h)
466C: DD 66 F9                          LD      H,(IX-07h)
466F: 4E                                LD      C,(HL)
4670: 23                                INC     HL
4671: 46                                LD      B,(HL)
4672: 23                                INC     HL
4673: 5E                                LD      E,(HL)
4674: 23                                INC     HL
4675: 56                                LD      D,(HL)
4676: 7A                                LD      A,D
4677: B3                                OR      E
4678: B0                                OR      B
4679: B1                                OR      C
467A: 20 05                             JR      NZ,L4681
467C: 2E 02                             LD      L,02h
467E: C3 1D 47                          JP      L471D

4681: DD 7E 07                   L4681: LD      A,(IX+07h)
4684: DD 77 FC                          LD      (IX-04h),A
4687: DD 7E 08                          LD      A,(IX+08h)
468A: DD 77 FD                          LD      (IX-03h),A
468D: DD 7E 09                          LD      A,(IX+09h)
4690: DD 77 FE                          LD      (IX-02h),A
4693: AF                                XOR     A
4694: DD 77 FF                          LD      (IX-01h),A
4697: DD CB FE 3E                       SRL     (IX-02h)
469B: DD CB FD 1E                       RR      (IX-03h)
469F: DD CB FC 1E                       RR      (IX-04h)
46A3: 79                                LD      A,C
46A4: DD 86 FC                          ADD     A,(IX-04h)
46A7: 4F                                LD      C,A
46A8: 78                                LD      A,B
46A9: DD 8E FD                          ADC     A,(IX-03h)
46AC: 47                                LD      B,A
46AD: 7B                                LD      A,E
46AE: DD 8E FE                          ADC     A,(IX-02h)
46B1: 5F                                LD      E,A
46B2: 7A                                LD      A,D
46B3: DD 8E FF                          ADC     A,(IX-01h)
46B6: 57                                LD      D,A
46B7: DD 6E F8                          LD      L,(IX-08h)
46BA: DD 66 F9                          LD      H,(IX-07h)
46BD: 71                                LD      (HL),C
46BE: 23                                INC     HL
46BF: 70                                LD      (HL),B
46C0: 23                                INC     HL
46C1: 73                                LD      (HL),E
46C2: 23                                INC     HL
46C3: 72                                LD      (HL),D
46C4: DD 7E EE                          LD      A,(IX-12h)
46C7: C6 1A                             ADD     A,1Ah
46C9: DD 77 FE                          LD      (IX-02h),A
46CC: DD 7E EF                          LD      A,(IX-11h)
46CF: CE 00                             ADC     A,00h
46D1: DD 77 FF                          LD      (IX-01h),A
46D4: DD 7E F2                          LD      A,(IX-0Eh)
46D7: C6 33                             ADD     A,33h   ; '3'
46D9: DD 77 FC                          LD      (IX-04h),A
46DC: DD 7E F3                          LD      A,(IX-0Dh)
46DF: CE 00                             ADC     A,00h
46E1: DD 77 FD                          LD      (IX-03h),A
46E4: DD 7E 06                          LD      A,(IX+06h)
46E7: DD 77 F6                          LD      (IX-0Ah),A
46EA: DD 7E 07                          LD      A,(IX+07h)
46ED: E6 01                             AND     01h
46EF: DD 77 F7                          LD      (IX-09h),A
46F2: DD 36 F8 00                       LD      (IX-08h),00h
46F6: DD 36 F9 00                       LD      (IX-07h),00h
46FA: DD 7E FC                          LD      A,(IX-04h)
46FD: DD 86 F6                          ADD     A,(IX-0Ah)
4700: DD 77 FA                          LD      (IX-06h),A
4703: DD 7E FD                          LD      A,(IX-03h)
4706: DD 8E F7                          ADC     A,(IX-09h)
4709: DD 77 FB                          LD      (IX-05h),A
470C: DD 6E FE                          LD      L,(IX-02h)
470F: DD 66 FF                          LD      H,(IX-01h)
4712: DD 7E FA                          LD      A,(IX-06h)
4715: 77                                LD      (HL),A
4716: 23                                INC     HL
4717: DD 7E FB                          LD      A,(IX-05h)
471A: 77                                LD      (HL),A
471B: 2E 00                             LD      L,00h
471D: DD F9                      L471D: LD      SP,IX
471F: DD E1                             POP     IX
4721: C9                                RET

                                        ; --- START PROC L4722 ---
4722: 21 34 14                   L4722: LD      HL,1434h
4725: 4E                                LD      C,(HL)
4726: FD 21 02 00                       LD      IY,0002h
472A: FD 39                             ADD     IY,SP
472C: FD 7E 00                          LD      A,(IY+00h)
472F: 91                                SUB     C
4730: 38 28                             JR      C,L475A
4732: 3A 35 14                          LD      A,(L1435)
4735: FD 96 00                          SUB     (IY+00h)
4738: 38 04                             JR      C,L473E
473A: 21 01 00                          LD      HL,0001h
473D: C9                                RET

473E: 21 36 14                   L473E: LD      HL,1436h
4741: 4E                                LD      C,(HL)
4742: FD 21 02 00                       LD      IY,0002h
4746: FD 39                             ADD     IY,SP
4748: FD 7E 00                          LD      A,(IY+00h)
474B: 91                                SUB     C
474C: 38 0C                             JR      C,L475A
474E: 3A 37 14                          LD      A,(L1437)
4751: FD 96 00                          SUB     (IY+00h)
4754: 38 04                             JR      C,L475A
4756: 21 01 00                          LD      HL,0001h
4759: C9                                RET

475A: 21 00 00                   L475A: LD      HL,0000h
475D: C9                                RET

                                        ; --- START PROC L475E ---
475E: CD 06 15                   L475E: CALL    L1506
4761: 21 ED FF                          LD      HL,0FFEDh
4764: 39                                ADD     HL,SP
4765: F9                                LD      SP,HL
4766: DD 6E 04                          LD      L,(IX+04h)
4769: DD 66 05                          LD      H,(IX+05h)
476C: E5                                PUSH    HL
476D: CD 84 2A                          CALL    L2A84
4770: F1                                POP     AF
4771: 7D                                LD      A,L
4772: B7                                OR      A
4773: 28 05                             JR      Z,L477A
4775: 2E 01                             LD      L,01h
4777: C3 96 48                          JP      L4896

477A: DD 6E 08                   L477A: LD      L,(IX+08h)
477D: DD 66 09                          LD      H,(IX+09h)
4780: E5                                PUSH    HL
4781: DD 6E 06                          LD      L,(IX+06h)
4784: DD 66 07                          LD      H,(IX+07h)
4787: E5                                PUSH    HL
4788: DD 6E 04                          LD      L,(IX+04h)
478B: DD 66 05                          LD      H,(IX+05h)
478E: E5                                PUSH    HL
478F: CD 3E 14                          CALL    L143E
4792: F1                                POP     AF
4793: F1                                POP     AF
4794: F1                                POP     AF
4795: DD 75 F1                          LD      (IX-0Fh),L
4798: DD 74 F2                          LD      (IX-0Eh),H
479B: DD 73 F3                          LD      (IX-0Dh),E
479E: DD 72 F4                          LD      (IX-0Ch),D
47A1: DD 4E 04                          LD      C,(IX+04h)
47A4: DD 46 05                          LD      B,(IX+05h)
47A7: 21 2F 00                          LD      HL,002Fh
47AA: 09                                ADD     HL,BC
47AB: EB                                EX      DE,HL
47AC: C5                                PUSH    BC
47AD: 21 06 00                          LD      HL,0006h
47B0: 39                                ADD     HL,SP
47B1: 01 04 00                          LD      BC,0004h
47B4: ED B0                             LDIR
47B6: C1                                POP     BC
47B7: 21 33 00                          LD      HL,0033h
47BA: 09                                ADD     HL,BC
47BB: DD 75 FE                          LD      (IX-02h),L
47BE: DD 74 FF                          LD      (IX-01h),H
47C1: E5                                PUSH    HL
47C2: C5                                PUSH    BC
47C3: 11 00 02                          LD      DE,0200h
47C6: D5                                PUSH    DE
47C7: 11 00 00                          LD      DE,0000h
47CA: D5                                PUSH    DE
47CB: DD 5E FE                          LD      E,(IX-02h)
47CE: DD 56 FF                          LD      D,(IX-01h)
47D1: D5                                PUSH    DE
47D2: CD DF 23                          CALL    L23DF
47D5: F1                                POP     AF
47D6: F1                                POP     AF
47D7: F1                                POP     AF
47D8: C1                                POP     BC
47D9: E1                                POP     HL
47DA: DD 75 F5                          LD      (IX-0Bh),L
47DD: DD 74 F6                          LD      (IX-0Ah),H
47E0: DD 71 F7                          LD      (IX-09h),C
47E3: DD 70 F8                          LD      (IX-08h),B
47E6: 21 09 00                          LD      HL,0009h
47E9: 09                                ADD     HL,BC
47EA: EB                                EX      DE,HL
47EB: AF                                XOR     A
47EC: DD 77 FE                          LD      (IX-02h),A
47EF: DD 77 FF                          LD      (IX-01h),A
47F2: 6B                         L47F2: LD      L,E
47F3: 62                                LD      H,D
47F4: 7E                                LD      A,(HL)
47F5: 23                                INC     HL
47F6: 66                                LD      H,(HL)
47F7: 6F                                LD      L,A
47F8: DD 4E FE                          LD      C,(IX-02h)
47FB: DD 46 FF                          LD      B,(IX-01h)
47FE: 79                                LD      A,C
47FF: 95                                SUB     L
4800: 78                                LD      A,B
4801: 9C                                SBC     A,H
4802: D2 84 48                          JP      NC,L4884
4805: DD 7E FE                          LD      A,(IX-02h)
4808: DD 77 ED                          LD      (IX-13h),A
480B: DD 7E FF                          LD      A,(IX-01h)
480E: DD 77 EE                          LD      (IX-12h),A
4811: AF                                XOR     A
4812: DD 77 EF                          LD      (IX-11h),A
4815: DD 77 F0                          LD      (IX-10h),A
4818: DD 7E ED                          LD      A,(IX-13h)
481B: DD 86 F1                          ADD     A,(IX-0Fh)
481E: DD 77 F9                          LD      (IX-07h),A
4821: DD 7E EE                          LD      A,(IX-12h)
4824: DD 8E F2                          ADC     A,(IX-0Eh)
4827: DD 77 FA                          LD      (IX-06h),A
482A: DD 7E EF                          LD      A,(IX-11h)
482D: DD 8E F3                          ADC     A,(IX-0Dh)
4830: DD 77 FB                          LD      (IX-05h),A
4833: DD 7E F0                          LD      A,(IX-10h)
4836: DD 8E F4                          ADC     A,(IX-0Ch)
4839: DD 77 FC                          LD      (IX-04h),A
483C: DD 6E F7                          LD      L,(IX-09h)
483F: DD 66 F8                          LD      H,(IX-08h)
4842: 23                                INC     HL
4843: 7E                                LD      A,(HL)
4844: DD 77 FD                          LD      (IX-03h),A
4847: C5                                PUSH    BC
4848: D5                                PUSH    DE
4849: 21 01 00                          LD      HL,0001h
484C: E5                                PUSH    HL
484D: DD 6E FB                          LD      L,(IX-05h)
4850: DD 66 FC                          LD      H,(IX-04h)
4853: E5                                PUSH    HL
4854: DD 6E F9                          LD      L,(IX-07h)
4857: DD 66 FA                          LD      H,(IX-06h)
485A: E5                                PUSH    HL
485B: DD 6E F5                          LD      L,(IX-0Bh)
485E: DD 66 F6                          LD      H,(IX-0Ah)
4861: E5                                PUSH    HL
4862: DD 7E FD                          LD      A,(IX-03h)
4865: F5                                PUSH    AF
4866: 33                                INC     SP
4867: CD EE 03                          CALL    L03EE
486A: FD 21 09 00                       LD      IY,0009h
486E: FD 39                             ADD     IY,SP
4870: FD F9                             LD      SP,IY
4872: 7D                                LD      A,L
4873: D1                                POP     DE
4874: C1                                POP     BC
4875: B7                                OR      A
4876: 20 0C                             JR      NZ,L4884
4878: DD 34 FE                          INC     (IX-02h)
487B: C2 F2 47                          JP      NZ,L47F2
487E: DD 34 FF                          INC     (IX-01h)
4881: C3 F2 47                          JP      L47F2

4884: EB                         L4884: EX      DE,HL
4885: 5E                                LD      E,(HL)
4886: 23                                INC     HL
4887: 56                                LD      D,(HL)
4888: EB                                EX      DE,HL
4889: BF                                CP      A
488A: ED 42                             SBC     HL,BC
488C: 20 05                             JR      NZ,L4893
488E: 21 00 00                          LD      HL,0000h
4891: 18 03                             JR      L4896

4893: 21 01 00                   L4893: LD      HL,0001h
4896: DD F9                      L4896: LD      SP,IX
4898: DD E1                             POP     IX
489A: C9                                RET

                                        ; --- START PROC L489B ---
489B: CD 06 15                   L489B: CALL    L1506
489E: 21 F5 FF                          LD      HL,0FFF5h
48A1: 39                                ADD     HL,SP
48A2: F9                                LD      SP,HL
48A3: DD 6E 04                          LD      L,(IX+04h)
48A6: DD 66 05                          LD      H,(IX+05h)
48A9: E5                                PUSH    HL
48AA: CD 84 2A                          CALL    L2A84
48AD: F1                                POP     AF
48AE: 7D                                LD      A,L
48AF: DD 77 F5                          LD      (IX-0Bh),A
48B2: B7                                OR      A
48B3: C2 66 4A                          JP      NZ,L4A66
48B6: DD 4E 04                          LD      C,(IX+04h)
48B9: DD 46 05                          LD      B,(IX+05h)
48BC: 0A                                LD      A,(BC)
48BD: 5F                                LD      E,A
48BE: 21 01 00                          LD      HL,0001h
48C1: 09                                ADD     HL,BC
48C2: DD 75 F6                          LD      (IX-0Ah),L
48C5: DD 74 F7                          LD      (IX-09h),H
48C8: 7B                                LD      A,E
48C9: D6 03                             SUB     03h
48CB: C2 49 4A                          JP      NZ,L4A49
48CE: 21 04 00                          LD      HL,0004h
48D1: 09                                ADD     HL,BC
48D2: DD 75 F8                          LD      (IX-08h),L
48D5: DD 74 F9                          LD      (IX-07h),H
48D8: 7E                                LD      A,(HL)
48D9: 3D                                DEC     A
48DA: C2 49 4A                          JP      NZ,L4A49
48DD: 21 33 00                          LD      HL,0033h
48E0: 09                                ADD     HL,BC
48E1: EB                                EX      DE,HL
48E2: DD 73 FE                          LD      (IX-02h),E
48E5: DD 72 FF                          LD      (IX-01h),D
48E8: C5                                PUSH    BC
48E9: D5                                PUSH    DE
48EA: 21 00 02                          LD      HL,0200h
48ED: E5                                PUSH    HL
48EE: 26 00                             LD      H,00h
48F0: E5                                PUSH    HL
48F1: DD 6E FE                          LD      L,(IX-02h)
48F4: DD 66 FF                          LD      H,(IX-01h)
48F7: E5                                PUSH    HL
48F8: CD DF 23                          CALL    L23DF
48FB: F1                                POP     AF
48FC: F1                                POP     AF
48FD: F1                                POP     AF
48FE: D1                                POP     DE
48FF: C1                                POP     BC
4900: 21 31 02                          LD      HL,0231h
4903: 09                                ADD     HL,BC
4904: DD 75 FE                          LD      (IX-02h),L
4907: DD 74 FF                          LD      (IX-01h),H
490A: C5                                PUSH    BC
490B: D5                                PUSH    DE
490C: 21 55 AA                          LD      HL,0AA55h
490F: E5                                PUSH    HL
4910: DD 6E FE                          LD      L,(IX-02h)
4913: DD 66 FF                          LD      H,(IX-01h)
4916: E5                                PUSH    HL
4917: CD 33 3D                          CALL    L3D33
491A: F1                                POP     AF
491B: F1                                POP     AF
491C: D1                                POP     DE
491D: D5                                PUSH    DE
491E: 21 61 41                          LD      HL,4161h
4921: E5                                PUSH    HL
4922: 21 52 52                          LD      HL,5252h
4925: E5                                PUSH    HL
4926: D5                                PUSH    DE
4927: CD 8A 1A                          CALL    L1A8A
492A: F1                                POP     AF
492B: F1                                POP     AF
492C: F1                                POP     AF
492D: D1                                POP     DE
492E: C1                                POP     BC
492F: 21 17 02                          LD      HL,0217h
4932: 09                                ADD     HL,BC
4933: DD 75 FE                          LD      (IX-02h),L
4936: DD 74 FF                          LD      (IX-01h),H
4939: C5                                PUSH    BC
493A: D5                                PUSH    DE
493B: 21 41 61                          LD      HL,6141h
493E: E5                                PUSH    HL
493F: 21 72 72                          LD      HL,7272h
4942: E5                                PUSH    HL
4943: DD 6E FE                          LD      L,(IX-02h)
4946: DD 66 FF                          LD      H,(IX-01h)
4949: E5                                PUSH    HL
494A: CD 8A 1A                          CALL    L1A8A
494D: F1                                POP     AF
494E: F1                                POP     AF
494F: F1                                POP     AF
4950: D1                                POP     DE
4951: C1                                POP     BC
4952: 69                                LD      L,C
4953: 60                                LD      H,B
4954: C5                                PUSH    BC
4955: 01 0F 00                          LD      BC,000Fh
4958: 09                                ADD     HL,BC
4959: C1                                POP     BC
495A: 7E                                LD      A,(HL)
495B: DD 77 FA                          LD      (IX-06h),A
495E: 23                                INC     HL
495F: 7E                                LD      A,(HL)
4960: DD 77 FB                          LD      (IX-05h),A
4963: 23                                INC     HL
4964: 7E                                LD      A,(HL)
4965: DD 77 FC                          LD      (IX-04h),A
4968: 23                                INC     HL
4969: 7E                                LD      A,(HL)
496A: DD 77 FD                          LD      (IX-03h),A
496D: 21 1B 02                          LD      HL,021Bh
4970: 09                                ADD     HL,BC
4971: DD 75 FE                          LD      (IX-02h),L
4974: DD 74 FF                          LD      (IX-01h),H
4977: C5                                PUSH    BC
4978: D5                                PUSH    DE
4979: DD 6E FC                          LD      L,(IX-04h)
497C: DD 66 FD                          LD      H,(IX-03h)
497F: E5                                PUSH    HL
4980: DD 6E FA                          LD      L,(IX-06h)
4983: DD 66 FB                          LD      H,(IX-05h)
4986: E5                                PUSH    HL
4987: DD 6E FE                          LD      L,(IX-02h)
498A: DD 66 FF                          LD      H,(IX-01h)
498D: E5                                PUSH    HL
498E: CD 8A 1A                          CALL    L1A8A
4991: F1                                POP     AF
4992: F1                                POP     AF
4993: F1                                POP     AF
4994: D1                                POP     DE
4995: C1                                POP     BC
4996: 69                                LD      L,C
4997: 60                                LD      H,B
4998: C5                                PUSH    BC
4999: 01 0B 00                          LD      BC,000Bh
499C: 09                                ADD     HL,BC
499D: C1                                POP     BC
499E: 7E                                LD      A,(HL)
499F: DD 77 FA                          LD      (IX-06h),A
49A2: 23                                INC     HL
49A3: 7E                                LD      A,(HL)
49A4: DD 77 FB                          LD      (IX-05h),A
49A7: 23                                INC     HL
49A8: 7E                                LD      A,(HL)
49A9: DD 77 FC                          LD      (IX-04h),A
49AC: 23                                INC     HL
49AD: 7E                                LD      A,(HL)
49AE: DD 77 FD                          LD      (IX-03h),A
49B1: 21 1F 02                          LD      HL,021Fh
49B4: 09                                ADD     HL,BC
49B5: DD 75 FE                          LD      (IX-02h),L
49B8: DD 74 FF                          LD      (IX-01h),H
49BB: C5                                PUSH    BC
49BC: D5                                PUSH    DE
49BD: DD 6E FC                          LD      L,(IX-04h)
49C0: DD 66 FD                          LD      H,(IX-03h)
49C3: E5                                PUSH    HL
49C4: DD 6E FA                          LD      L,(IX-06h)
49C7: DD 66 FB                          LD      H,(IX-05h)
49CA: E5                                PUSH    HL
49CB: DD 6E FE                          LD      L,(IX-02h)
49CE: DD 66 FF                          LD      H,(IX-01h)
49D1: E5                                PUSH    HL
49D2: CD 8A 1A                          CALL    L1A8A
49D5: F1                                POP     AF
49D6: F1                                POP     AF
49D7: F1                                POP     AF
49D8: D1                                POP     DE
49D9: C1                                POP     BC
49DA: 21 2F 00                          LD      HL,002Fh
49DD: 09                                ADD     HL,BC
49DE: DD 75 FA                          LD      (IX-06h),L
49E1: DD 74 FB                          LD      (IX-05h),H
49E4: 69                                LD      L,C
49E5: 60                                LD      H,B
49E6: 01 1F 00                          LD      BC,001Fh
49E9: 09                                ADD     HL,BC
49EA: 4E                                LD      C,(HL)
49EB: 23                                INC     HL
49EC: 46                                LD      B,(HL)
49ED: 23                                INC     HL
49EE: 23                                INC     HL
49EF: 7E                                LD      A,(HL)
49F0: 2B                                DEC     HL
49F1: 6E                                LD      L,(HL)
49F2: 67                                LD      H,A
49F3: 79                                LD      A,C
49F4: C6 01                             ADD     A,01h
49F6: DD 77 FC                          LD      (IX-04h),A
49F9: 78                                LD      A,B
49FA: CE 00                             ADC     A,00h
49FC: DD 77 FD                          LD      (IX-03h),A
49FF: 7D                                LD      A,L
4A00: CE 00                             ADC     A,00h
4A02: DD 77 FE                          LD      (IX-02h),A
4A05: 7C                                LD      A,H
4A06: CE 00                             ADC     A,00h
4A08: DD 77 FF                          LD      (IX-01h),A
4A0B: D5                                PUSH    DE
4A0C: DD 5E FA                          LD      E,(IX-06h)
4A0F: DD 56 FB                          LD      D,(IX-05h)
4A12: 21 09 00                          LD      HL,0009h
4A15: 39                                ADD     HL,SP
4A16: 01 04 00                          LD      BC,0004h
4A19: ED B0                             LDIR
4A1B: D1                                POP     DE
4A1C: DD 6E F6                          LD      L,(IX-0Ah)
4A1F: DD 66 F7                          LD      H,(IX-09h)
4A22: 4E                                LD      C,(HL)
4A23: 21 01 00                          LD      HL,0001h
4A26: E5                                PUSH    HL
4A27: DD 6E FE                          LD      L,(IX-02h)
4A2A: DD 66 FF                          LD      H,(IX-01h)
4A2D: E5                                PUSH    HL
4A2E: DD 6E FC                          LD      L,(IX-04h)
4A31: DD 66 FD                          LD      H,(IX-03h)
4A34: E5                                PUSH    HL
4A35: D5                                PUSH    DE
4A36: 79                                LD      A,C
4A37: F5                                PUSH    AF
4A38: 33                                INC     SP
4A39: CD EE 03                          CALL    L03EE
4A3C: 21 09 00                          LD      HL,0009h
4A3F: 39                                ADD     HL,SP
4A40: F9                                LD      SP,HL
4A41: DD 6E F8                          LD      L,(IX-08h)
4A44: DD 66 F9                          LD      H,(IX-07h)
4A47: 36 00                             LD      (HL),00h
4A49: DD 6E F6                   L4A49: LD      L,(IX-0Ah)
4A4C: DD 66 F7                          LD      H,(IX-09h)
4A4F: 46                                LD      B,(HL)
4A50: 21 00 00                          LD      HL,0000h
4A53: E5                                PUSH    HL
4A54: AF                                XOR     A
4A55: F5                                PUSH    AF
4A56: 33                                INC     SP
4A57: C5                                PUSH    BC
4A58: 33                                INC     SP
4A59: CD F1 03                          CALL    L03F1
4A5C: F1                                POP     AF
4A5D: F1                                POP     AF
4A5E: 7D                                LD      A,L
4A5F: B7                                OR      A
4A60: 28 04                             JR      Z,L4A66
4A62: DD 36 F5 01                       LD      (IX-0Bh),01h
4A66: DD 6E F5                   L4A66: LD      L,(IX-0Bh)
4A69: DD F9                             LD      SP,IX
4A6B: DD E1                             POP     IX
4A6D: C9                                RET

                                        ; --- START PROC L4A6E ---
4A6E: CD 06 15                   L4A6E: CALL    L1506
4A71: DD 4E 04                          LD      C,(IX+04h)
4A74: DD 46 05                          LD      B,(IX+05h)
4A77: 59                                LD      E,C
4A78: 50                                LD      D,B
4A79: 13                                INC     DE
4A7A: 13                                INC     DE
4A7B: 13                                INC     DE
4A7C: AF                                XOR     A
4A7D: 12                                LD      (DE),A
4A7E: 21 2F 00                          LD      HL,002Fh
4A81: 09                                ADD     HL,BC
4A82: 36 FF                             LD      (HL),0FFh
4A84: 23                                INC     HL
4A85: 36 FF                             LD      (HL),0FFh
4A87: 23                                INC     HL
4A88: 36 FF                             LD      (HL),0FFh
4A8A: 23                                INC     HL
4A8B: 36 FF                             LD      (HL),0FFh
4A8D: C5                                PUSH    BC
4A8E: DD 6E 08                          LD      L,(IX+08h)
4A91: DD 66 09                          LD      H,(IX+09h)
4A94: E5                                PUSH    HL
4A95: DD 6E 06                          LD      L,(IX+06h)
4A98: DD 66 07                          LD      H,(IX+07h)
4A9B: E5                                PUSH    HL
4A9C: C5                                PUSH    BC
4A9D: CD 16 24                          CALL    L2416
4AA0: F1                                POP     AF
4AA1: F1                                POP     AF
4AA2: F1                                POP     AF
4AA3: 5D                                LD      E,L
4AA4: C1                                POP     BC
4AA5: 7B                                LD      A,E
4AA6: B7                                OR      A
4AA7: 28 05                             JR      Z,L4AAE
4AA9: 21 04 00                          LD      HL,0004h
4AAC: 18 6D                             JR      L4B1B

4AAE: 59                         L4AAE: LD      E,C
4AAF: 50                                LD      D,B
4AB0: 21 31 02                          LD      HL,0231h
4AB3: 09                                ADD     HL,BC
4AB4: C5                                PUSH    BC
4AB5: D5                                PUSH    DE
4AB6: E5                                PUSH    HL
4AB7: CD F7 23                          CALL    L23F7
4ABA: F1                                POP     AF
4ABB: D1                                POP     DE
4ABC: C1                                POP     BC
4ABD: 7D                                LD      A,L
4ABE: D6 55                             SUB     55h     ; 'U'
4AC0: 20 05                             JR      NZ,L4AC7
4AC2: 7C                                LD      A,H
4AC3: D6 AA                             SUB     0AAh
4AC5: 28 05                             JR      Z,L4ACC
4AC7: 21 03 00                   L4AC7: LD      HL,0003h
4ACA: 18 4F                             JR      L4B1B

4ACC: EB                         L4ACC: EX      DE,HL
4ACD: 11 33 00                          LD      DE,0033h
4AD0: 19                                ADD     HL,DE
4AD1: 7E                                LD      A,(HL)
4AD2: FE E9                             CP      0E9h
4AD4: 28 08                             JR      Z,L4ADE
4AD6: FE EB                             CP      0EBh
4AD8: 28 04                             JR      Z,L4ADE
4ADA: D6 E8                             SUB     0E8h
4ADC: 20 3A                             JR      NZ,L4B18
4ADE: 21 69 00                   L4ADE: LD      HL,0069h
4AE1: 09                                ADD     HL,BC
4AE2: C5                                PUSH    BC
4AE3: 11 03 00                          LD      DE,0003h
4AE6: D5                                PUSH    DE
4AE7: 11 2A 4B                          LD      DE,4B2Ah
4AEA: D5                                PUSH    DE
4AEB: E5                                PUSH    HL
4AEC: CD AB 43                          CALL    L43AB
4AEF: F1                                POP     AF
4AF0: F1                                POP     AF
4AF1: F1                                POP     AF
4AF2: C1                                POP     BC
4AF3: 7C                                LD      A,H
4AF4: B5                                OR      L
4AF5: 20 05                             JR      NZ,L4AFC
4AF7: 21 00 00                          LD      HL,0000h
4AFA: 18 1F                             JR      L4B1B

4AFC: 21 85 00                   L4AFC: LD      HL,0085h
4AFF: 09                                ADD     HL,BC
4B00: 01 05 00                          LD      BC,0005h
4B03: C5                                PUSH    BC
4B04: 01 2E 4B                          LD      BC,4B2Eh
4B07: C5                                PUSH    BC
4B08: E5                                PUSH    HL
4B09: CD AB 43                          CALL    L43AB
4B0C: F1                                POP     AF
4B0D: F1                                POP     AF
4B0E: F1                                POP     AF
4B0F: 7C                                LD      A,H
4B10: B5                                OR      L
4B11: 20 05                             JR      NZ,L4B18
4B13: 21 00 00                          LD      HL,0000h
4B16: 18 03                             JR      L4B1B

4B18: 21 02 00                   L4B18: LD      HL,0002h
4B1B: DD E1                      L4B1B: POP     IX
4B1D: C9                                RET

4B1E: EB                         L4B1E: DB      0EBh
4B1F: 76                                DB      76h     ; 'v'
4B20: 90                                DB      90h
4B21: 45 58 46 41 54 20 20 20           DB      "EXFAT   "
4B29: 00                                DB      00h
4B2A: 46                                DB      46h     ; 'F'
4B2B: 41                                DB      41h     ; 'A'
4B2C: 54                                DB      54h     ; 'T'
4B2D: 00                                DB      00h
4B2E: 46 41 54 33 32                    DB      "FAT32"
4B33: 00                                DB      00h

                                        ; --- START PROC L4B34 ---
4B34: CD 06 15                   L4B34: CALL    L1506
4B37: 21 E9 FF                          LD      HL,0FFE9h
4B3A: 39                                ADD     HL,SP
4B3B: F9                                LD      SP,HL
4B3C: DD 7E 04                          LD      A,(IX+04h)
4B3F: DD 77 FE                          LD      (IX-02h),A
4B42: DD 7E 05                          LD      A,(IX+05h)
4B45: DD 77 FF                          LD      (IX-01h),A
4B48: DD 6E FE                          LD      L,(IX-02h)
4B4B: DD 66 FF                          LD      H,(IX-01h)
4B4E: 7E                                LD      A,(HL)
4B4F: DD 77 ED                          LD      (IX-13h),A
4B52: 23                                INC     HL
4B53: 7E                                LD      A,(HL)
4B54: DD 77 EE                          LD      (IX-12h),A
4B57: DD 7E ED                          LD      A,(IX-13h)
4B5A: C6 0B                             ADD     A,0Bh
4B5C: DD 77 EF                          LD      (IX-11h),A
4B5F: DD 7E EE                          LD      A,(IX-12h)
4B62: CE 00                             ADC     A,00h
4B64: DD 77 F0                          LD      (IX-10h),A
4B67: DD 7E ED                          LD      A,(IX-13h)
4B6A: C6 17                             ADD     A,17h
4B6C: DD 77 F1                          LD      (IX-0Fh),A
4B6F: DD 7E EE                          LD      A,(IX-12h)
4B72: CE 00                             ADC     A,00h
4B74: DD 77 F2                          LD      (IX-0Eh),A
4B77: DD 7E 09                          LD      A,(IX+09h)
4B7A: DD B6 08                          OR      (IX+08h)
4B7D: DD B6 07                          OR      (IX+07h)
4B80: DD B6 06                          OR      (IX+06h)
4B83: 20 5A                             JR      NZ,L4BDF
4B85: DD 5E EF                          LD      E,(IX-11h)
4B88: DD 56 F0                          LD      D,(IX-10h)
4B8B: 21 0A 00                          LD      HL,000Ah
4B8E: 39                                ADD     HL,SP
4B8F: EB                                EX      DE,HL
4B90: 01 04 00                          LD      BC,0004h
4B93: ED B0                             LDIR
4B95: DD 7E F6                          LD      A,(IX-0Ah)
4B98: DD B6 F5                          OR      (IX-0Bh)
4B9B: DD B6 F4                          OR      (IX-0Ch)
4B9E: DD B6 F3                          OR      (IX-0Dh)
4BA1: 28 2B                             JR      Z,L4BCE
4BA3: DD 5E F1                          LD      E,(IX-0Fh)
4BA6: DD 56 F2                          LD      D,(IX-0Eh)
4BA9: 21 13 00                          LD      HL,0013h
4BAC: 39                                ADD     HL,SP
4BAD: EB                                EX      DE,HL
4BAE: 01 04 00                          LD      BC,0004h
4BB1: ED B0                             LDIR
4BB3: DD 7E F3                          LD      A,(IX-0Dh)
4BB6: DD 96 FC                          SUB     (IX-04h)
4BB9: DD 7E F4                          LD      A,(IX-0Ch)
4BBC: DD 9E FD                          SBC     A,(IX-03h)
4BBF: DD 7E F5                          LD      A,(IX-0Bh)
4BC2: DD 9E FE                          SBC     A,(IX-02h)
4BC5: DD 7E F6                          LD      A,(IX-0Ah)
4BC8: DD 9E FF                          SBC     A,(IX-01h)
4BCB: DA 98 4C                          JP      C,L4C98
4BCE: DD 36 F3 01                L4BCE: LD      (IX-0Dh),01h
4BD2: AF                                XOR     A
4BD3: DD 77 F4                          LD      (IX-0Ch),A
4BD6: DD 77 F5                          LD      (IX-0Bh),A
4BD9: DD 77 F6                          LD      (IX-0Ah),A
4BDC: C3 98 4C                          JP      L4C98

4BDF: DD 6E 08                   L4BDF: LD      L,(IX+08h)
4BE2: DD 66 09                          LD      H,(IX+09h)
4BE5: E5                                PUSH    HL
4BE6: DD 6E 06                          LD      L,(IX+06h)
4BE9: DD 66 07                          LD      H,(IX+07h)
4BEC: E5                                PUSH    HL
4BED: DD 6E FE                          LD      L,(IX-02h)
4BF0: DD 66 FF                          LD      H,(IX-01h)
4BF3: E5                                PUSH    HL
4BF4: CD 7F 15                          CALL    L157F
4BF7: F1                                POP     AF
4BF8: F1                                POP     AF
4BF9: F1                                POP     AF
4BFA: DD 75 FC                          LD      (IX-04h),L
4BFD: DD 74 FD                          LD      (IX-03h),H
4C00: DD 73 FE                          LD      (IX-02h),E
4C03: DD 72 FF                          LD      (IX-01h),D
4C06: 21 0F 00                          LD      HL,000Fh
4C09: 39                                ADD     HL,SP
4C0A: EB                                EX      DE,HL
4C0B: 21 13 00                          LD      HL,0013h
4C0E: 39                                ADD     HL,SP
4C0F: 01 04 00                          LD      BC,0004h
4C12: ED B0                             LDIR
4C14: DD 7E F8                          LD      A,(IX-08h)
4C17: D6 02                             SUB     02h
4C19: DD 7E F9                          LD      A,(IX-07h)
4C1C: DE 00                             SBC     A,00h
4C1E: DD 7E FA                          LD      A,(IX-06h)
4C21: DE 00                             SBC     A,00h
4C23: DD 7E FB                          LD      A,(IX-05h)
4C26: DE 00                             SBC     A,00h
4C28: 30 09                             JR      NC,L4C33
4C2A: 21 01 00                          LD      HL,0001h
4C2D: 11 00 00                          LD      DE,0000h
4C30: C3 15 50                          JP      L5015

4C33: DD 7E F8                   L4C33: LD      A,(IX-08h)
4C36: DD A6 F9                          AND     (IX-07h)
4C39: DD A6 FA                          AND     (IX-06h)
4C3C: DD A6 FB                          AND     (IX-05h)
4C3F: 3C                                INC     A
4C40: 20 0F                             JR      NZ,L4C51
4C42: DD 6E F8                          LD      L,(IX-08h)
4C45: DD 66 F9                          LD      H,(IX-07h)
4C48: DD 5E FA                          LD      E,(IX-06h)
4C4B: DD 56 FB                          LD      D,(IX-05h)
4C4E: C3 15 50                          JP      L5015

4C51: DD 5E F1                   L4C51: LD      E,(IX-0Fh)
4C54: DD 56 F2                          LD      D,(IX-0Eh)
4C57: 21 13 00                          LD      HL,0013h
4C5A: 39                                ADD     HL,SP
4C5B: EB                                EX      DE,HL
4C5C: 01 04 00                          LD      BC,0004h
4C5F: ED B0                             LDIR
4C61: DD 7E F8                          LD      A,(IX-08h)
4C64: DD 96 FC                          SUB     (IX-04h)
4C67: DD 7E F9                          LD      A,(IX-07h)
4C6A: DD 9E FD                          SBC     A,(IX-03h)
4C6D: DD 7E FA                          LD      A,(IX-06h)
4C70: DD 9E FE                          SBC     A,(IX-02h)
4C73: DD 7E FB                          LD      A,(IX-05h)
4C76: DD 9E FF                          SBC     A,(IX-01h)
4C79: 30 0F                             JR      NC,L4C8A
4C7B: DD 6E F8                          LD      L,(IX-08h)
4C7E: DD 66 F9                          LD      H,(IX-07h)
4C81: DD 5E FA                          LD      E,(IX-06h)
4C84: DD 56 FB                          LD      D,(IX-05h)
4C87: C3 15 50                          JP      L5015

4C8A: 21 0A 00                   L4C8A: LD      HL,000Ah
4C8D: 39                                ADD     HL,SP
4C8E: EB                                EX      DE,HL
4C8F: 21 1D 00                          LD      HL,001Dh
4C92: 39                                ADD     HL,SP
4C93: 01 04 00                          LD      BC,0004h
4C96: ED B0                             LDIR
4C98: DD 7E ED                   L4C98: LD      A,(IX-13h)
4C9B: C6 0F                             ADD     A,0Fh
4C9D: DD 77 F7                          LD      (IX-09h),A
4CA0: DD 7E EE                          LD      A,(IX-12h)
4CA3: CE 00                             ADC     A,00h
4CA5: DD 77 F8                          LD      (IX-08h),A
4CA8: DD 6E F7                          LD      L,(IX-09h)
4CAB: DD 66 F8                          LD      H,(IX-08h)
4CAE: 4E                                LD      C,(HL)
4CAF: 23                                INC     HL
4CB0: 46                                LD      B,(HL)
4CB1: 23                                INC     HL
4CB2: 5E                                LD      E,(HL)
4CB3: 23                                INC     HL
4CB4: 56                                LD      D,(HL)
4CB5: 7A                                LD      A,D
4CB6: B3                                OR      E
4CB7: B0                                OR      B
4CB8: B1                                OR      C
4CB9: 20 08                             JR      NZ,L4CC3
4CBB: 21 00 00                          LD      HL,0000h
4CBE: 5D                                LD      E,L
4CBF: 54                                LD      D,H
4CC0: C3 15 50                          JP      L5015

4CC3: AF                         L4CC3: XOR     A
4CC4: DD 77 FC                          LD      (IX-04h),A
4CC7: DD 77 FD                          LD      (IX-03h),A
4CCA: DD 77 FE                          LD      (IX-02h),A
4CCD: DD 77 FF                          LD      (IX-01h),A
4CD0: DD 7E 06                          LD      A,(IX+06h)
4CD3: DD 96 F3                          SUB     (IX-0Dh)
4CD6: C2 D7 4D                          JP      NZ,L4DD7
4CD9: DD 7E 07                          LD      A,(IX+07h)
4CDC: DD 96 F4                          SUB     (IX-0Ch)
4CDF: C2 D7 4D                          JP      NZ,L4DD7
4CE2: DD 7E 08                          LD      A,(IX+08h)
4CE5: DD 96 F5                          SUB     (IX-0Bh)
4CE8: C2 D7 4D                          JP      NZ,L4DD7
4CEB: DD 7E 09                          LD      A,(IX+09h)
4CEE: DD 96 F6                          SUB     (IX-0Ah)
4CF1: C2 D7 4D                          JP      NZ,L4DD7
4CF4: DD 7E F3                          LD      A,(IX-0Dh)
4CF7: C6 01                             ADD     A,01h
4CF9: DD 77 FC                          LD      (IX-04h),A
4CFC: DD 7E F4                          LD      A,(IX-0Ch)
4CFF: CE 00                             ADC     A,00h
4D01: DD 77 FD                          LD      (IX-03h),A
4D04: DD 7E F5                          LD      A,(IX-0Bh)
4D07: CE 00                             ADC     A,00h
4D09: DD 77 FE                          LD      (IX-02h),A
4D0C: DD 7E F6                          LD      A,(IX-0Ah)
4D0F: CE 00                             ADC     A,00h
4D11: DD 77 FF                          LD      (IX-01h),A
4D14: DD 6E F1                          LD      L,(IX-0Fh)
4D17: DD 66 F2                          LD      H,(IX-0Eh)
4D1A: 4E                                LD      C,(HL)
4D1B: 23                                INC     HL
4D1C: 46                                LD      B,(HL)
4D1D: 23                                INC     HL
4D1E: 5E                                LD      E,(HL)
4D1F: 23                                INC     HL
4D20: 56                                LD      D,(HL)
4D21: DD 7E FC                          LD      A,(IX-04h)
4D24: 91                                SUB     C
4D25: DD 7E FD                          LD      A,(IX-03h)
4D28: 98                                SBC     A,B
4D29: DD 7E FE                          LD      A,(IX-02h)
4D2C: 9B                                SBC     A,E
4D2D: DD 7E FF                          LD      A,(IX-01h)
4D30: 9A                                SBC     A,D
4D31: 38 0E                             JR      C,L4D41
4D33: DD 36 FC 02                       LD      (IX-04h),02h
4D37: AF                                XOR     A
4D38: DD 77 FD                          LD      (IX-03h),A
4D3B: DD 77 FE                          LD      (IX-02h),A
4D3E: DD 77 FF                          LD      (IX-01h),A
4D41: DD 6E FE                   L4D41: LD      L,(IX-02h)
4D44: DD 66 FF                          LD      H,(IX-01h)
4D47: E5                                PUSH    HL
4D48: DD 6E FC                          LD      L,(IX-04h)
4D4B: DD 66 FD                          LD      H,(IX-03h)
4D4E: E5                                PUSH    HL
4D4F: DD 6E 04                          LD      L,(IX+04h)
4D52: DD 66 05                          LD      H,(IX+05h)
4D55: E5                                PUSH    HL
4D56: CD 7F 15                          CALL    L157F
4D59: F1                                POP     AF
4D5A: F1                                POP     AF
4D5B: F1                                POP     AF
4D5C: 4D                                LD      C,L
4D5D: 44                                LD      B,H
4D5E: 79                                LD      A,C
4D5F: 3D                                DEC     A
4D60: B0                                OR      B
4D61: B3                                OR      E
4D62: B2                                OR      D
4D63: 28 07                             JR      Z,L4D6C
4D65: 79                                LD      A,C
4D66: A0                                AND     B
4D67: A3                                AND     E
4D68: A2                                AND     D
4D69: 3C                                INC     A
4D6A: 20 05                             JR      NZ,L4D71
4D6C: 69                         L4D6C: LD      L,C
4D6D: 60                                LD      H,B
4D6E: C3 15 50                          JP      L5015

4D71: 7A                         L4D71: LD      A,D
4D72: B3                                OR      E
4D73: B0                                OR      B
4D74: B1                                OR      C
4D75: 28 60                             JR      Z,L4DD7
4D77: DD 5E EF                          LD      E,(IX-11h)
4D7A: DD 56 F0                          LD      D,(IX-10h)
4D7D: 21 13 00                          LD      HL,0013h
4D80: 39                                ADD     HL,SP
4D81: EB                                EX      DE,HL
4D82: 01 04 00                          LD      BC,0004h
4D85: ED B0                             LDIR
4D87: DD 7E FC                          LD      A,(IX-04h)
4D8A: D6 02                             SUB     02h
4D8C: DD 7E FD                          LD      A,(IX-03h)
4D8F: DE 00                             SBC     A,00h
4D91: DD 7E FE                          LD      A,(IX-02h)
4D94: DE 00                             SBC     A,00h
4D96: DD 7E FF                          LD      A,(IX-01h)
4D99: DE 00                             SBC     A,00h
4D9B: 38 2D                             JR      C,L4DCA
4D9D: DD 6E F1                          LD      L,(IX-0Fh)
4DA0: DD 66 F2                          LD      H,(IX-0Eh)
4DA3: 4E                                LD      C,(HL)
4DA4: 23                                INC     HL
4DA5: 46                                LD      B,(HL)
4DA6: 23                                INC     HL
4DA7: 5E                                LD      E,(HL)
4DA8: 23                                INC     HL
4DA9: 56                                LD      D,(HL)
4DAA: DD 7E FC                          LD      A,(IX-04h)
4DAD: 91                                SUB     C
4DAE: DD 7E FD                          LD      A,(IX-03h)
4DB1: 98                                SBC     A,B
4DB2: DD 7E FE                          LD      A,(IX-02h)
4DB5: 9B                                SBC     A,E
4DB6: DD 7E FF                          LD      A,(IX-01h)
4DB9: 9A                                SBC     A,D
4DBA: 30 0E                             JR      NC,L4DCA
4DBC: 21 0A 00                          LD      HL,000Ah
4DBF: 39                                ADD     HL,SP
4DC0: EB                                EX      DE,HL
4DC1: 21 13 00                          LD      HL,0013h
4DC4: 39                                ADD     HL,SP
4DC5: 01 04 00                          LD      BC,0004h
4DC8: ED B0                             LDIR
4DCA: AF                         L4DCA: XOR     A
4DCB: DD 77 FC                          LD      (IX-04h),A
4DCE: DD 77 FD                          LD      (IX-03h),A
4DD1: DD 77 FE                          LD      (IX-02h),A
4DD4: DD 77 FF                          LD      (IX-01h),A
4DD7: DD 7E FF                   L4DD7: LD      A,(IX-01h)
4DDA: DD B6 FE                          OR      (IX-02h)
4DDD: DD B6 FD                          OR      (IX-03h)
4DE0: DD B6 FC                          OR      (IX-04h)
4DE3: C2 C4 4E                          JP      NZ,L4EC4
4DE6: 21 13 00                          LD      HL,0013h
4DE9: 39                                ADD     HL,SP
4DEA: EB                                EX      DE,HL
4DEB: 21 0A 00                          LD      HL,000Ah
4DEE: 39                                ADD     HL,SP
4DEF: 01 04 00                          LD      BC,0004h
4DF2: ED B0                             LDIR
4DF4: DD 7E F3                          LD      A,(IX-0Dh)
4DF7: D6 02                             SUB     02h
4DF9: DD 7E F4                          LD      A,(IX-0Ch)
4DFC: DE 00                             SBC     A,00h
4DFE: DD 7E F5                          LD      A,(IX-0Bh)
4E01: DE 00                             SBC     A,00h
4E03: DD 7E F6                          LD      A,(IX-0Ah)
4E06: DE 00                             SBC     A,00h
4E08: 3E 00                             LD      A,00h
4E0A: 17                                RLA
4E0B: DD 77 F9                          LD      (IX-07h),A
4E0E: DD 7E F1                          LD      A,(IX-0Fh)
4E11: DD 77 FA                          LD      (IX-06h),A
4E14: DD 7E F2                          LD      A,(IX-0Eh)
4E17: DD 77 FB                          LD      (IX-05h),A
4E1A: DD 34 FC                   L4E1A: INC     (IX-04h)
4E1D: 20 0D                             JR      NZ,L4E2C
4E1F: DD 34 FD                          INC     (IX-03h)
4E22: 20 08                             JR      NZ,L4E2C
4E24: DD 34 FE                          INC     (IX-02h)
4E27: 20 03                             JR      NZ,L4E2C
4E29: DD 34 FF                          INC     (IX-01h)
4E2C: DD 6E FA                   L4E2C: LD      L,(IX-06h)
4E2F: DD 66 FB                          LD      H,(IX-05h)
4E32: 4E                                LD      C,(HL)
4E33: 23                                INC     HL
4E34: 46                                LD      B,(HL)
4E35: 23                                INC     HL
4E36: 5E                                LD      E,(HL)
4E37: 23                                INC     HL
4E38: 56                                LD      D,(HL)
4E39: DD 7E FC                          LD      A,(IX-04h)
4E3C: 91                                SUB     C
4E3D: DD 7E FD                          LD      A,(IX-03h)
4E40: 98                                SBC     A,B
4E41: DD 7E FE                          LD      A,(IX-02h)
4E44: 9B                                SBC     A,E
4E45: DD 7E FF                          LD      A,(IX-01h)
4E48: 9A                                SBC     A,D
4E49: 38 1C                             JR      C,L4E67
4E4B: DD 36 FC 02                       LD      (IX-04h),02h
4E4F: AF                                XOR     A
4E50: DD 77 FD                          LD      (IX-03h),A
4E53: DD 77 FE                          LD      (IX-02h),A
4E56: DD 77 FF                          LD      (IX-01h),A
4E59: DD 7E F9                          LD      A,(IX-07h)
4E5C: B7                                OR      A
4E5D: 28 08                             JR      Z,L4E67
4E5F: 21 00 00                          LD      HL,0000h
4E62: 5D                                LD      E,L
4E63: 54                                LD      D,H
4E64: C3 15 50                          JP      L5015

4E67: DD 6E FE                   L4E67: LD      L,(IX-02h)
4E6A: DD 66 FF                          LD      H,(IX-01h)
4E6D: E5                                PUSH    HL
4E6E: DD 6E FC                          LD      L,(IX-04h)
4E71: DD 66 FD                          LD      H,(IX-03h)
4E74: E5                                PUSH    HL
4E75: DD 6E 04                          LD      L,(IX+04h)
4E78: DD 66 05                          LD      H,(IX+05h)
4E7B: E5                                PUSH    HL
4E7C: CD 7F 15                          CALL    L157F
4E7F: F1                                POP     AF
4E80: F1                                POP     AF
4E81: F1                                POP     AF
4E82: 7A                                LD      A,D
4E83: B3                                OR      E
4E84: B4                                OR      H
4E85: B5                                OR      L
4E86: 28 3C                             JR      Z,L4EC4
4E88: 7D                                LD      A,L
4E89: 3D                                DEC     A
4E8A: B4                                OR      H
4E8B: B3                                OR      E
4E8C: B2                                OR      D
4E8D: CA 15 50                          JP      Z,L5015
4E90: 7D                                LD      A,L
4E91: A4                                AND     H
4E92: A3                                AND     E
4E93: A2                                AND     D
4E94: 3C                                INC     A
4E95: CA 15 50                          JP      Z,L5015
4E98: DD 7E FC                          LD      A,(IX-04h)
4E9B: DD 96 F3                          SUB     (IX-0Dh)
4E9E: C2 1A 4E                          JP      NZ,L4E1A
4EA1: DD 7E FD                          LD      A,(IX-03h)
4EA4: DD 96 F4                          SUB     (IX-0Ch)
4EA7: C2 1A 4E                          JP      NZ,L4E1A
4EAA: DD 7E FE                          LD      A,(IX-02h)
4EAD: DD 96 F5                          SUB     (IX-0Bh)
4EB0: C2 1A 4E                          JP      NZ,L4E1A
4EB3: DD 7E FF                          LD      A,(IX-01h)
4EB6: DD 96 F6                          SUB     (IX-0Ah)
4EB9: C2 1A 4E                          JP      NZ,L4E1A
4EBC: 21 00 00                          LD      HL,0000h
4EBF: 5D                                LD      E,L
4EC0: 54                                LD      D,H
4EC1: C3 15 50                          JP      L5015

4EC4: 21 FF FF                   L4EC4: LD      HL,0FFFFh
4EC7: E5                                PUSH    HL
4EC8: 21 FF FF                          LD      HL,0FFFFh
4ECB: E5                                PUSH    HL
4ECC: DD 6E FE                          LD      L,(IX-02h)
4ECF: DD 66 FF                          LD      H,(IX-01h)
4ED2: E5                                PUSH    HL
4ED3: DD 6E FC                          LD      L,(IX-04h)
4ED6: DD 66 FD                          LD      H,(IX-03h)
4ED9: E5                                PUSH    HL
4EDA: DD 6E ED                          LD      L,(IX-13h)
4EDD: DD 66 EE                          LD      H,(IX-12h)
4EE0: E5                                PUSH    HL
4EE1: CD F0 26                          CALL    L26F0
4EE4: FD 21 0A 00                       LD      IY,000Ah
4EE8: FD 39                             ADD     IY,SP
4EEA: FD F9                             LD      SP,IY
4EEC: DD 75 FB                          LD      (IX-05h),L
4EEF: 7D                                LD      A,L
4EF0: B7                                OR      A
4EF1: 20 3F                             JR      NZ,L4F32
4EF3: DD 7E 09                          LD      A,(IX+09h)
4EF6: DD B6 08                          OR      (IX+08h)
4EF9: DD B6 07                          OR      (IX+07h)
4EFC: DD B6 06                          OR      (IX+06h)
4EFF: 28 31                             JR      Z,L4F32
4F01: DD 6E FE                          LD      L,(IX-02h)
4F04: DD 66 FF                          LD      H,(IX-01h)
4F07: E5                                PUSH    HL
4F08: DD 6E FC                          LD      L,(IX-04h)
4F0B: DD 66 FD                          LD      H,(IX-03h)
4F0E: E5                                PUSH    HL
4F0F: DD 6E 08                          LD      L,(IX+08h)
4F12: DD 66 09                          LD      H,(IX+09h)
4F15: E5                                PUSH    HL
4F16: DD 6E 06                          LD      L,(IX+06h)
4F19: DD 66 07                          LD      H,(IX+07h)
4F1C: E5                                PUSH    HL
4F1D: DD 6E ED                          LD      L,(IX-13h)
4F20: DD 66 EE                          LD      H,(IX-12h)
4F23: E5                                PUSH    HL
4F24: CD F0 26                          CALL    L26F0
4F27: FD 21 0A 00                       LD      IY,000Ah
4F2B: FD 39                             ADD     IY,SP
4F2D: FD F9                             LD      SP,IY
4F2F: DD 75 FB                          LD      (IX-05h),L
4F32: DD 7E FB                   L4F32: LD      A,(IX-05h)
4F35: B7                                OR      A
4F36: C2 E3 4F                          JP      NZ,L4FE3
4F39: DD 5E EF                          LD      E,(IX-11h)
4F3C: DD 56 F0                          LD      D,(IX-10h)
4F3F: 21 13 00                          LD      HL,0013h
4F42: 39                                ADD     HL,SP
4F43: 01 04 00                          LD      BC,0004h
4F46: ED B0                             LDIR
4F48: DD 5E F7                          LD      E,(IX-09h)
4F4B: DD 56 F8                          LD      D,(IX-08h)
4F4E: 21 00 00                          LD      HL,0000h
4F51: 39                                ADD     HL,SP
4F52: EB                                EX      DE,HL
4F53: 01 04 00                          LD      BC,0004h
4F56: ED B0                             LDIR
4F58: DD 5E F1                          LD      E,(IX-0Fh)
4F5B: DD 56 F2                          LD      D,(IX-0Eh)
4F5E: 21 0A 00                          LD      HL,000Ah
4F61: 39                                ADD     HL,SP
4F62: EB                                EX      DE,HL
4F63: 01 04 00                          LD      BC,0004h
4F66: ED B0                             LDIR
4F68: DD 7E F3                          LD      A,(IX-0Dh)
4F6B: C6 FE                             ADD     A,0FEh
4F6D: DD 77 EF                          LD      (IX-11h),A
4F70: DD 7E F4                          LD      A,(IX-0Ch)
4F73: CE FF                             ADC     A,0FFh
4F75: DD 77 F0                          LD      (IX-10h),A
4F78: DD 7E F5                          LD      A,(IX-0Bh)
4F7B: CE FF                             ADC     A,0FFh
4F7D: DD 77 F1                          LD      (IX-0Fh),A
4F80: DD 7E F6                          LD      A,(IX-0Ah)
4F83: CE FF                             ADC     A,0FFh
4F85: DD 77 F2                          LD      (IX-0Eh),A
4F88: DD 7E EF                          LD      A,(IX-11h)
4F8B: DD 96 E9                          SUB     (IX-17h)
4F8E: DD 7E F0                          LD      A,(IX-10h)
4F91: DD 9E EA                          SBC     A,(IX-16h)
4F94: DD 7E F1                          LD      A,(IX-0Fh)
4F97: DD 9E EB                          SBC     A,(IX-15h)
4F9A: DD 7E F2                          LD      A,(IX-0Eh)
4F9D: DD 9E EC                          SBC     A,(IX-14h)
4FA0: 38 2F                             JR      C,L4FD1
4FA2: DD 7E E9                          LD      A,(IX-17h)
4FA5: C6 FF                             ADD     A,0FFh
4FA7: DD 77 F3                          LD      (IX-0Dh),A
4FAA: DD 7E EA                          LD      A,(IX-16h)
4FAD: CE FF                             ADC     A,0FFh
4FAF: DD 77 F4                          LD      (IX-0Ch),A
4FB2: DD 7E EB                          LD      A,(IX-15h)
4FB5: CE FF                             ADC     A,0FFh
4FB7: DD 77 F5                          LD      (IX-0Bh),A
4FBA: DD 7E EC                          LD      A,(IX-14h)
4FBD: CE FF                             ADC     A,0FFh
4FBF: DD 77 F6                          LD      (IX-0Ah),A
4FC2: DD 5E F7                          LD      E,(IX-09h)
4FC5: DD 56 F8                          LD      D,(IX-08h)
4FC8: 21 0A 00                          LD      HL,000Ah
4FCB: 39                                ADD     HL,SP
4FCC: 01 04 00                          LD      BC,0004h
4FCF: ED B0                             LDIR
4FD1: DD 7E ED                   L4FD1: LD      A,(IX-13h)
4FD4: C6 04                             ADD     A,04h
4FD6: 4F                                LD      C,A
4FD7: DD 7E EE                          LD      A,(IX-12h)
4FDA: CE 00                             ADC     A,00h
4FDC: 47                                LD      B,A
4FDD: 0A                                LD      A,(BC)
4FDE: CB C7                             SET     0,A
4FE0: 02                                LD      (BC),A
4FE1: 18 26                             JR      L5009

4FE3: DD 7E FB                   L4FE3: LD      A,(IX-05h)
4FE6: 3D                                DEC     A
4FE7: 20 12                             JR      NZ,L4FFB
4FE9: DD 36 FC FF                       LD      (IX-04h),0FFh
4FED: DD 36 FD FF                       LD      (IX-03h),0FFh
4FF1: DD 36 FE FF                       LD      (IX-02h),0FFh
4FF5: DD 36 FF FF                       LD      (IX-01h),0FFh
4FF9: 18 0E                             JR      L5009

4FFB: DD 36 FC 01                L4FFB: LD      (IX-04h),01h
4FFF: AF                                XOR     A
5000: DD 77 FD                          LD      (IX-03h),A
5003: DD 77 FE                          LD      (IX-02h),A
5006: DD 77 FF                          LD      (IX-01h),A
5009: DD 6E FC                   L5009: LD      L,(IX-04h)
500C: DD 66 FD                          LD      H,(IX-03h)
500F: DD 5E FE                          LD      E,(IX-02h)
5012: DD 56 FF                          LD      D,(IX-01h)
5015: DD F9                      L5015: LD      SP,IX
5017: DD E1                             POP     IX
5019: C9                                RET

                                        ; --- START PROC L501A ---
501A: DD E5                      L501A: PUSH    IX
501C: DD 21 00 00                       LD      IX,0000h
5020: DD 39                             ADD     IX,SP
5022: 21 F8 FF                          LD      HL,0FFF8h
5025: 39                                ADD     HL,SP
5026: F9                                LD      SP,HL
5027: 21 0C 00                          LD      HL,000Ch
502A: 39                                ADD     HL,SP
502B: EB                                EX      DE,HL
502C: 4B                                LD      C,E
502D: 42                                LD      B,D
502E: 03                                INC     BC
502F: 03                                INC     BC
5030: DD 71 FE                          LD      (IX-02h),C
5033: DD 70 FF                          LD      (IX-01h),B
5036: 6B                                LD      L,E
5037: 62                                LD      H,D
5038: 23                                INC     HL
5039: 23                                INC     HL
503A: 4E                                LD      C,(HL)
503B: 23                                INC     HL
503C: 46                                LD      B,(HL)
503D: 21 10 00                          LD      HL,0010h
5040: 39                                ADD     HL,SP
5041: E3                                EX      (SP),HL
5042: E1                                POP     HL
5043: E5                                PUSH    HL
5044: 7E                                LD      A,(HL)
5045: 23                                INC     HL
5046: 66                                LD      H,(HL)
5047: 6F                                LD      L,A
5048: D5                                PUSH    DE
5049: E5                                PUSH    HL
504A: C5                                PUSH    BC
504B: CD 67 3B                          CALL    L3B67
504E: F1                                POP     AF
504F: F1                                POP     AF
5050: 4D                                LD      C,L
5051: 44                                LD      B,H
5052: D1                                POP     DE
5053: DD 6E FE                          LD      L,(IX-02h)
5056: DD 66 FF                          LD      H,(IX-01h)
5059: 71                                LD      (HL),C
505A: 23                                INC     HL
505B: 70                                LD      (HL),B
505C: 4B                                LD      C,E
505D: 42                                LD      B,D
505E: 03                                INC     BC
505F: 03                                INC     BC
5060: DD 71 FC                          LD      (IX-04h),C
5063: DD 70 FD                          LD      (IX-03h),B
5066: 6B                                LD      L,E
5067: 62                                LD      H,D
5068: 23                                INC     HL
5069: 23                                INC     HL
506A: 7E                                LD      A,(HL)
506B: DD 77 FE                          LD      (IX-02h),A
506E: 23                                INC     HL
506F: 7E                                LD      A,(HL)
5070: DD 77 FF                          LD      (IX-01h),A
5073: E1                                POP     HL
5074: E5                                PUSH    HL
5075: 23                                INC     HL
5076: 23                                INC     HL
5077: 4E                                LD      C,(HL)
5078: 23                                INC     HL
5079: 46                                LD      B,(HL)
507A: 6B                                LD      L,E
507B: 62                                LD      H,D
507C: 7E                                LD      A,(HL)
507D: 23                                INC     HL
507E: 66                                LD      H,(HL)
507F: 6F                                LD      L,A
5080: D5                                PUSH    DE
5081: E5                                PUSH    HL
5082: C5                                PUSH    BC
5083: CD 67 3B                          CALL    L3B67
5086: F1                                POP     AF
5087: F1                                POP     AF
5088: D1                                POP     DE
5089: DD 7E FE                          LD      A,(IX-02h)
508C: 85                                ADD     A,L
508D: 4F                                LD      C,A
508E: DD 7E FF                          LD      A,(IX-01h)
5091: 8C                                ADC     A,H
5092: 47                                LD      B,A
5093: DD 6E FC                          LD      L,(IX-04h)
5096: DD 66 FD                          LD      H,(IX-03h)
5099: 71                                LD      (HL),C
509A: 23                                INC     HL
509B: 70                                LD      (HL),B
509C: 4B                                LD      C,E
509D: 42                                LD      B,D
509E: 03                                INC     BC
509F: 03                                INC     BC
50A0: DD 71 FD                          LD      (IX-03h),C
50A3: DD 70 FE                          LD      (IX-02h),B
50A6: 6B                                LD      L,E
50A7: 62                                LD      H,D
50A8: 23                                INC     HL
50A9: 23                                INC     HL
50AA: 4E                                LD      C,(HL)
50AB: 23                                INC     HL
50AC: 46                                LD      B,(HL)
50AD: 6B                                LD      L,E
50AE: 62                                LD      H,D
50AF: 23                                INC     HL
50B0: 7E                                LD      A,(HL)
50B1: DD 77 FF                          LD      (IX-01h),A
50B4: E1                                POP     HL
50B5: E5                                PUSH    HL
50B6: 23                                INC     HL
50B7: 66                                LD      H,(HL)
50B8: D5                                PUSH    DE
50B9: C5                                PUSH    BC
50BA: DD 5E FF                          LD      E,(IX-01h)
50BD: 2E 00                             LD      L,00h
50BF: 55                                LD      D,L
50C0: 06 08                             LD      B,08h
50C2: 29                         L50C2: ADD     HL,HL
50C3: 30 01                             JR      NC,L50C6
50C5: 19                                ADD     HL,DE
50C6: 10 FA                      L50C6: DJNZ    L50C2
50C8: C1                                POP     BC
50C9: D1                                POP     DE
50CA: 09                                ADD     HL,BC
50CB: 4D                                LD      C,L
50CC: 44                                LD      B,H
50CD: DD 6E FD                          LD      L,(IX-03h)
50D0: DD 66 FE                          LD      H,(IX-02h)
50D3: 71                                LD      (HL),C
50D4: 23                                INC     HL
50D5: 70                                LD      (HL),B
50D6: E1                                POP     HL
50D7: E5                                PUSH    HL
50D8: 4E                                LD      C,(HL)
50D9: 6B                                LD      L,E
50DA: 62                                LD      H,D
50DB: 23                                INC     HL
50DC: 66                                LD      H,(HL)
50DD: D5                                PUSH    DE
50DE: 59                                LD      E,C
50DF: 2E 00                             LD      L,00h
50E1: 55                                LD      D,L
50E2: 06 08                             LD      B,08h
50E4: 29                         L50E4: ADD     HL,HL
50E5: 30 01                             JR      NC,L50E8
50E7: 19                                ADD     HL,DE
50E8: 10 FA                      L50E8: DJNZ    L50E4
50EA: D1                                POP     DE
50EB: DD 75 FA                          LD      (IX-06h),L
50EE: DD 74 FB                          LD      (IX-05h),H
50F1: C1                                POP     BC
50F2: C5                                PUSH    BC
50F3: 03                                INC     BC
50F4: DD 71 FE                          LD      (IX-02h),C
50F7: DD 70 FF                          LD      (IX-01h),B
50FA: 6B                                LD      L,E
50FB: 62                                LD      H,D
50FC: 4E                                LD      C,(HL)
50FD: E1                                POP     HL
50FE: E5                                PUSH    HL
50FF: 23                                INC     HL
5100: 66                                LD      H,(HL)
5101: D5                                PUSH    DE
5102: 59                                LD      E,C
5103: 2E 00                             LD      L,00h
5105: 55                                LD      D,L
5106: 06 08                             LD      B,08h
5108: 29                         L5108: ADD     HL,HL
5109: 30 01                             JR      NC,L510C
510B: 19                                ADD     HL,DE
510C: 10 FA                      L510C: DJNZ    L5108
510E: D1                                POP     DE
510F: 4D                                LD      C,L
5110: 44                                LD      B,H
5111: DD 6E FE                          LD      L,(IX-02h)
5114: DD 66 FF                          LD      H,(IX-01h)
5117: 71                                LD      (HL),C
5118: 23                                INC     HL
5119: 70                                LD      (HL),B
511A: C1                                POP     BC
511B: C5                                PUSH    BC
511C: 03                                INC     BC
511D: 03                                INC     BC
511E: 03                                INC     BC
511F: DD 71 FC                          LD      (IX-04h),C
5122: DD 70 FD                          LD      (IX-03h),B
5125: C1                                POP     BC
5126: C5                                PUSH    BC
5127: 03                                INC     BC
5128: DD 71 FE                          LD      (IX-02h),C
512B: DD 70 FF                          LD      (IX-01h),B
512E: E1                                POP     HL
512F: E5                                PUSH    HL
5130: 23                                INC     HL
5131: 4E                                LD      C,(HL)
5132: 23                                INC     HL
5133: 46                                LD      B,(HL)
5134: 79                                LD      A,C
5135: DD 86 FA                          ADD     A,(IX-06h)
5138: 4F                                LD      C,A
5139: 78                                LD      A,B
513A: DD 8E FB                          ADC     A,(IX-05h)
513D: 47                                LD      B,A
513E: DD 6E FE                          LD      L,(IX-02h)
5141: DD 66 FF                          LD      H,(IX-01h)
5144: 71                                LD      (HL),C
5145: 23                                INC     HL
5146: 70                                LD      (HL),B
5147: 79                                LD      A,C
5148: DD 96 FA                          SUB     (IX-06h)
514B: 78                                LD      A,B
514C: DD 9E FB                          SBC     A,(IX-05h)
514F: 3E 00                             LD      A,00h
5151: 17                                RLA
5152: DD 6E FC                          LD      L,(IX-04h)
5155: DD 66 FD                          LD      H,(IX-03h)
5158: 77                                LD      (HL),A
5159: 4B                                LD      C,E
515A: 42                                LD      B,D
515B: 1A                                LD      A,(DE)
515C: 5F                                LD      E,A
515D: E1                                POP     HL
515E: E5                                PUSH    HL
515F: 66                                LD      H,(HL)
5160: C5                                PUSH    BC
5161: 2E 00                             LD      L,00h
5163: 55                                LD      D,L
5164: 06 08                             LD      B,08h
5166: 29                         L5166: ADD     HL,HL
5167: 30 01                             JR      NC,L516A
5169: 19                                ADD     HL,DE
516A: 10 FA                      L516A: DJNZ    L5166
516C: C1                                POP     BC
516D: EB                                EX      DE,HL
516E: 7B                                LD      A,E
516F: 02                                LD      (BC),A
5170: 03                                INC     BC
5171: 7A                                LD      A,D
5172: 02                                LD      (BC),A
5173: C1                                POP     BC
5174: C5                                PUSH    BC
5175: AF                                XOR     A
5176: 02                                LD      (BC),A
5177: DD 7E 04                          LD      A,(IX+04h)
517A: DD 86 08                          ADD     A,(IX+08h)
517D: 6F                                LD      L,A
517E: DD 7E 05                          LD      A,(IX+05h)
5181: DD 8E 09                          ADC     A,(IX+09h)
5184: 67                                LD      H,A
5185: DD 7E 06                          LD      A,(IX+06h)
5188: DD 8E 0A                          ADC     A,(IX+0Ah)
518B: 5F                                LD      E,A
518C: DD 7E 07                          LD      A,(IX+07h)
518F: DD 8E 0B                          ADC     A,(IX+0Bh)
5192: 57                                LD      D,A
5193: DD F9                             LD      SP,IX
5195: DD E1                             POP     IX
5197: C9                                RET

                                        ; --- START PROC L5198 ---
5198: DD E5                      L5198: PUSH    IX
519A: DD 21 00 00                       LD      IX,0000h
519E: DD 39                             ADD     IX,SP
51A0: 3B                                DEC     SP
51A1: 01 00 00                          LD      BC,0000h
51A4: 11 00 00                          LD      DE,0000h
51A7: DD 36 FF 20                       LD      (IX-01h),20h    ; ' '
51AB: DD 7E 07                   L51AB: LD      A,(IX+07h)
51AE: CB 07                             RLC     A
51B0: E6 01                             AND     01h
51B2: 6F                                LD      L,A
51B3: DD CB 04 26                       SLA     (IX+04h)
51B7: DD CB 05 16                       RL      (IX+05h)
51BB: DD CB 06 16                       RL      (IX+06h)
51BF: DD CB 07 16                       RL      (IX+07h)
51C3: CB 21                             SLA     C
51C5: CB 10                             RL      B
51C7: CB 13                             RL      E
51C9: CB 12                             RL      D
51CB: CB 45                             BIT     0,L
51CD: 28 02                             JR      Z,L51D1
51CF: CB C1                             SET     0,C
51D1: 79                         L51D1: LD      A,C
51D2: DD 96 08                          SUB     (IX+08h)
51D5: 78                                LD      A,B
51D6: DD 9E 09                          SBC     A,(IX+09h)
51D9: 7B                                LD      A,E
51DA: DD 9E 0A                          SBC     A,(IX+0Ah)
51DD: 7A                                LD      A,D
51DE: DD 9E 0B                          SBC     A,(IX+0Bh)
51E1: 38 2E                             JR      C,L5211
51E3: 79                                LD      A,C
51E4: DD 96 08                          SUB     (IX+08h)
51E7: 4F                                LD      C,A
51E8: 78                                LD      A,B
51E9: DD 9E 09                          SBC     A,(IX+09h)
51EC: 47                                LD      B,A
51ED: 7B                                LD      A,E
51EE: DD 9E 0A                          SBC     A,(IX+0Ah)
51F1: 5F                                LD      E,A
51F2: 7A                                LD      A,D
51F3: DD 9E 0B                          SBC     A,(IX+0Bh)
51F6: 57                                LD      D,A
51F7: DD 7E 04                          LD      A,(IX+04h)
51FA: F6 01                             OR      01h
51FC: DD 77 04                          LD      (IX+04h),A
51FF: DD 7E 05                          LD      A,(IX+05h)
5202: DD 77 05                          LD      (IX+05h),A
5205: DD 7E 06                          LD      A,(IX+06h)
5208: DD 77 06                          LD      (IX+06h),A
520B: DD 7E 07                          LD      A,(IX+07h)
520E: DD 77 07                          LD      (IX+07h),A
5211: DD 35 FF                   L5211: DEC     (IX-01h)
5214: DD 7E FF                          LD      A,(IX-01h)
5217: B7                                OR      A
5218: 20 91                             JR      NZ,L51AB
521A: DD 6E 04                          LD      L,(IX+04h)
521D: DD 66 05                          LD      H,(IX+05h)
5220: DD 5E 06                          LD      E,(IX+06h)
5223: DD 56 07                          LD      D,(IX+07h)
5226: 33                                INC     SP
5227: DD E1                             POP     IX
5229: C9                                RET

522A: 01                         L522A: DB      01h
522B: F6                                DB      0F6h
522C: 14                                DB      14h

                                        ; --- START PROC L522D ---
522D: 21 00 70                   L522D: LD      HL,7000h
5230: AF                                XOR     A
5231: 77                                LD      (HL),A
5232: 01 D3 02                          LD      BC,02D3h
5235: 78                                LD      A,B
5236: B1                                OR      C
5237: 28 05                             JR      Z,L523E
5239: 11 01 70                          LD      DE,7001h
523C: ED B0                             LDIR
523E: 01 03 00                   L523E: LD      BC,0003h
5241: 78                                LD      A,B
5242: B1                                OR      C
5243: 28 08                             JR      Z,L524D
5245: 11 D4 72                          LD      DE,72D4h
5248: 21 2A 52                          LD      HL,522Ah
524B: ED B0                             LDIR
                                        ; --- START PROC L524D ---
524D: C9                         L524D: RET


references to external address 72B3h:
        09C1 LD (72B3h),SP

references to external address 72C1h:
        09C5 LD SP,72C1h
        09D0 LD SP,(72C1h)

references to external address 72D1h:
        23B0 LD HL,(72D1h)
        23B4 LD (72D1h),HL
        23B7 LD IY,72D1h

references to external address 72D5h:
        024B LD IY,72D5h
        1035 LD HL,(72D5h)
        11DC LD HL,(72D5h)
        13EC LD HL,(72D5h)

possible references to internal address 0000:
        0112 LD IX,0000h
        016F LD HL,0000h
        01BC LD BC,0000h
        034E LD HL,0000h
        035C LD HL,0000h
        0366 LD IX,0000h
        0957 LD HL,0000h
        0A5A LD HL,0000h
        0A67 LD HL,0000h
        0B5B LD HL,0000h
        0B7E LD HL,0000h
        0B82 LD HL,0000h
        0BA3 LD HL,0000h
        0BA7 LD HL,0000h
        0BEB LD HL,0000h
        0BEF LD HL,0000h
        0FD3 LD IY,0000h
        0FEB LD IX,0000h
        1056 LD HL,0000h
        119F LD IY,0000h
        11B5 LD IX,0000h
        1270 LD IX,0000h
        131B LD BC,0000h
        1356 LD DE,0000h
        1383 LD DE,0000h
        13AF LD DE,0000h
        149A LD HL,0000h
        14C3 LD DE,0000h
        1509 LD IX,0000h
        154F LD BC,0000h
        1646 LD HL,0000h
        16B7 LD DE,0000h
        189E LD HL,0000h
        1968 LD HL,0000h
        196C LD HL,0000h
        1B2C LD HL,0000h
        1B30 LD HL,0000h
        1CB0 LD HL,0000h
        1D37 LD DE,0000h
        1E60 LD DE,0000h
        1F69 LD DE,0000h
        1FB2 LD HL,0000h
        1FC7 LD HL,0000h
        21BF LD HL,0000h
        25C8 LD HL,0000h
        25CC LD HL,0000h
        27A6 LD HL,0000h
        2870 LD HL,0000h
        2A33 LD HL,0000h
        2EB6 LD DE,0000h
        2F13 LD IX,0000h
        2F69 LD IX,0000h
        2FF9 LD IX,0000h
        363C LD HL,0000h
        373C LD HL,0000h
        3790 LD HL,0000h
        3C6E LD HL,0000h
        3C72 LD HL,0000h
        3D13 LD HL,0000h
        3D66 LD HL,0000h
        3EA8 LD HL,0000h
        3EB8 LD BC,0000h
        3F2A LD HL,0000h
        3F59 LD HL,0000h
        3F5D LD HL,0000h
        3F86 LD HL,0000h
        3FA8 LD DE,0000h
        400E LD DE,0000h
        4268 LD HL,0000h
        475A LD HL,0000h
        47C7 LD DE,0000h
        488E LD HL,0000h
        4A50 LD HL,0000h
        4AF7 LD HL,0000h
        4B13 LD HL,0000h
        4C2D LD DE,0000h
        4CBB LD HL,0000h
        4E5F LD HL,0000h
        4EBC LD HL,0000h
        4F4E LD HL,0000h
        501C LD IX,0000h
        519A LD IX,0000h
        51A1 LD BC,0000h
        51A4 LD DE,0000h

possible references to internal address 0001:
        06EC LD HL,0001h
        082C LD HL,0001h
        0872 LD HL,0001h
        0F94 LD HL,0001h
        110A LD HL,0001h
        1BBB LD HL,0001h
        247A LD HL,0001h
        2AC8 LD HL,0001h
        2AD8 LD HL,0001h
        2BA9 LD HL,0001h
        3DBA LD HL,0001h
        3EF9 LD HL,0001h
        3F0F LD HL,0001h
        3F25 LD HL,0001h
        473A LD HL,0001h
        4756 LD HL,0001h
        4849 LD HL,0001h
        4893 LD HL,0001h
        48BE LD HL,0001h
        4A23 LD HL,0001h
        4C2A LD HL,0001h

possible references to internal address 0002:
        0352 LD HL,0002h
        0360 LD HL,0002h
        13CB LD IY,0002h
        13F4 LD HL,0002h
        1404 LD IY,0002h
        142A LD HL,0002h
        2ED1 LD IY,0002h
        4726 LD IY,0002h
        4742 LD IY,0002h
        4B18 LD HL,0002h

possible references to internal address 0003:
        21C3 LD HL,0003h
        2FE9 LD HL,0003h
        405B LD DE,0003h
        4AC7 LD HL,0003h
        4AE3 LD DE,0003h
        523E LD BC,0003h

possible references to internal address 0004:
        037A LD BC,0004h
        041E LD HL,0004h
        04BF LD BC,0004h
        0559 LD BC,0004h
        0653 LD BC,0004h
        077B LD BC,0004h
        08B3 LD BC,0004h
        08C3 LD BC,0004h
        0950 LD BC,0004h
        097A LD BC,0004h
        0E53 LD BC,0004h
        0E63 LD BC,0004h
        0F14 LD BC,0004h
        127B LD HL,0004h
        163A LD BC,0004h
        16AA LD BC,0004h
        177E LD BC,0004h
        17F3 LD BC,0004h
        188E LD HL,0004h
        18A3 LD HL,0004h
        1924 LD BC,0004h
        1A78 LD BC,0004h
        1F26 LD BC,0004h
        201B LD BC,0004h
        2057 LD BC,0004h
        2092 LD BC,0004h
        210A LD BC,0004h
        217C LD BC,0004h
        218C LD BC,0004h
        2215 LD BC,0004h
        23EA LD HL,0004h
        243D LD BC,0004h
        24BC LD BC,0004h
        2504 LD BC,0004h
        2606 LD BC,0004h
        2668 LD BC,0004h
        266E LD HL,0004h
        267E LD BC,0004h
        2798 LD BC,0004h
        2862 LD BC,0004h
        290E LD BC,0004h
        2998 LD BC,0004h
        2AB7 LD BC,0004h
        2B16 LD BC,0004h
        2EB1 LD DE,0004h
        2F80 LD BC,0004h
        2F86 LD HL,0004h
        2FED LD BC,0004h
        3554 LD BC,0004h
        3563 LD BC,0004h
        3626 LD HL,0004h
        362A LD BC,0004h
        3641 LD BC,0004h
        365E LD HL,0004h
        3662 LD BC,0004h
        36AC LD HL,0004h
        36B1 LD BC,0004h
        36BC LD HL,0004h
        36C0 LD BC,0004h
        3727 LD HL,0004h
        372B LD BC,0004h
        3741 LD BC,0004h
        3760 LD HL,0004h
        3764 LD BC,0004h
        377A LD HL,0004h
        377F LD BC,0004h
        3795 LD BC,0004h
        37BF LD HL,0004h
        37C3 LD BC,0004h
        3F3B LD IY,0004h
        3FED LD BC,0004h
        4027 LD BC,0004h
        4113 LD BC,0004h
        418F LD BC,0004h
        435E LD BC,0004h
        444D LD BC,0004h
        44AF LD BC,0004h
        4664 LD BC,0004h
        47B1 LD BC,0004h
        48CE LD HL,0004h
        4A16 LD BC,0004h
        4AA9 LD HL,0004h
        4B90 LD BC,0004h
        4BAE LD BC,0004h
        4C0F LD BC,0004h
        4C5C LD BC,0004h
        4C93 LD BC,0004h
        4D82 LD BC,0004h
        4DC5 LD BC,0004h
        4DEF LD BC,0004h
        4F43 LD BC,0004h
        4F53 LD BC,0004h
        4F63 LD BC,0004h
        4FCC LD BC,0004h

possible references to internal address 0005:
        0D6E LD DE,0005h
        2438 LD HL,0005h
        2F7B LD HL,0005h
        4B00 LD BC,0005h

possible references to internal address 0006:
        0150 LD HL,0006h
        019A LD HL,0006h
        0237 LD HL,0006h
        0371 LD HL,0006h
        03D9 LD HL,0006h
        05B3 LD DE,0006h
        141D LD HL,0006h
        1945 LD HL,0006h
        2017 LD HL,0006h
        23E3 LD HL,0006h
        267A LD HL,0006h
        2EF2 LD IY,0006h
        2F3C LD HL,0006h
        2F5F LD HL,0006h
        3485 LD HL,0006h
        34AD LD HL,0006h
        3AAE LD HL,0006h
        3E30 LD BC,0006h
        435A LD HL,0006h
        4464 LD DE,0006h
        44AA LD HL,0006h
        4660 LD HL,0006h
        47AD LD HL,0006h

possible references to internal address 0007:
        2B11 LD HL,0007h
        41C2 LD BC,0007h
        44F2 LD BC,0007h

possible references to internal address 0008:
        01FD LD HL,0008h
        1276 LD HL,0008h
        300B LD HL,0008h
        301F LD HL,0008h
        32A7 LD HL,0008h
        3414 LD HL,0008h
        3513 LD HL,0008h
        3568 LD HL,0008h
        35E2 LD HL,0008h
        3670 LD HL,0008h
        36C8 LD HL,0008h
        376F LD HL,0008h

possible references to internal address 0009:
        070A LD DE,0009h
        074A LD IY,0009h
        0841 LD IY,0009h
        0890 LD IY,0009h
        0E26 LD DE,0009h
        0FA9 LD IY,0009h
        14BC LD DE,0009h
        2492 LD IY,0009h
        2AF9 LD IY,0009h
        2BBE LD HL,0009h
        3467 LD HL,0009h
        3DD8 LD IY,0009h
        4541 LD DE,0009h
        47E6 LD HL,0009h
        486A LD IY,0009h
        4A12 LD HL,0009h
        4A3C LD HL,0009h

possible references to internal address 000A:
        0497 LD DE,000Ah
        0582 LD BC,000Ah
        0C0B LD IY,000Ah
        10B4 LD HL,000Ah
        2554 LD IY,000Ah
        25E2 LD IY,000Ah
        285D LD HL,000Ah
        3E74 LD DE,000Ah
        4215 LD BC,000Ah
        4B8B LD HL,000Ah
        4C8A LD HL,000Ah
        4DBC LD HL,000Ah
        4DEB LD HL,000Ah
        4EE4 LD IY,000Ah
        4F27 LD IY,000Ah
        4F5E LD HL,000Ah
        4FC8 LD HL,000Ah

possible references to internal address 000B:
        0B6F LD HL,000Bh
        0C34 LD HL,000Bh
        117F LD HL,000Bh
        2BFC LD HL,000Bh
        3CDF LD BC,000Bh
        3CEF LD DE,000Bh
        3D03 LD HL,000Bh
        3E27 LD HL,000Bh
        4999 LD BC,000Bh

possible references to internal address 000C:
        10CA LD HL,000Ch
        1635 LD HL,000Ch
        16A5 LD HL,000Ch
        1779 LD HL,000Ch
        17EE LD HL,000Ch
        2601 LD HL,000Ch
        2793 LD HL,000Ch
        37DF LD HL,000Ch
        5027 LD HL,000Ch

possible references to internal address 000D:
        1DEA LD DE,000Dh
        24B8 LD HL,000Dh

possible references to internal address 000E:
        0B52 LD HL,000Eh
        1920 LD HL,000Eh
        1A13 LD BC,000Eh
        1A74 LD HL,000Eh
        2909 LD HL,000Eh
        2993 LD HL,000Eh
        2AB2 LD HL,000Eh
        3D7F LD HL,000Eh

possible references to internal address 000F:
        25F0 LD HL,000Fh
        4955 LD BC,000Fh
        4C06 LD HL,000Fh

possible references to internal address 0010:
        1D87 LD BC,0010h
        2664 LD HL,0010h
        503D LD HL,0010h

possible references to internal address 0011:
        0376 LD HL,0011h

possible references to internal address 0012:
        24FF LD HL,0012h
        3015 LD HL,0012h
        3EB4 LD HL,0012h
        418A LD HL,0012h

possible references to internal address 0013:
        1900 LD BC,0013h
        4BA9 LD HL,0013h
        4C0B LD HL,0013h
        4C57 LD HL,0013h
        4D7D LD HL,0013h
        4DC1 LD HL,0013h
        4DE6 LD HL,0013h
        4F3F LD HL,0013h

possible references to internal address 0014:
        05DE LD DE,0014h
        065E LD DE,0014h
        197D LD HL,0014h

possible references to internal address 0016:
        111D LD DE,0016h
        1B62 LD DE,0016h
        3C95 LD DE,0016h
        3E9E LD HL,0016h
        4022 LD HL,0016h
        410E LD HL,0016h

possible references to internal address 0017:
        146B LD DE,0017h
        15AE LD DE,0017h
        24F8 LD HL,0017h
        2721 LD DE,0017h
        4287 LD BC,0017h
        45E1 LD DE,0017h

possible references to internal address 0018:
        2106 LD HL,0018h
        2178 LD HL,0018h
        2187 LD HL,0018h
        3D94 LD BC,0018h
        4449 LD HL,0018h

possible references to internal address 001A:
        1140 LD HL,001Ah
        1B89 LD DE,001Ah
        2675 LD HL,001Ah
        3FE9 LD HL,001Ah

possible references to internal address 001B:
        2B49 LD DE,001Bh

possible references to internal address 001C:
        0B9E LD HL,001Ch
        0D39 LD HL,001Ch
        116B LD HL,001Ch
        1F1D LD HL,001Ch
        2BEF LD HL,001Ch
        3DFA LD BC,001Ch

possible references to internal address 001D:
        4C8F LD HL,001Dh

possible references to internal address 001E:
        08AF LD HL,001Eh

possible references to internal address 001F:
        2210 LD HL,001Fh
        49E6 LD BC,001Fh

possible references to internal address 0020:
        1155 LD HL,0020h
        2CD6 LD DE,0020h
        3E20 LD BC,0020h

possible references to internal address 0022:
        2053 LD HL,0022h
        208E LD HL,0022h
        3DAB LD HL,0022h

possible references to internal address 0023:
        2B1E LD DE,0023h

possible references to internal address 0024:
        1F22 LD HL,0024h
        2CD1 LD DE,0024h

possible references to internal address 0026:
        0554 LD HL,0026h
        064F LD HL,0026h
        08BE LD HL,0026h
        094B LD HL,0026h
        0976 LD HL,0026h

possible references to internal address 0027:
        0A8D LD DE,0027h
        1962 LD HL,0027h
        19A0 LD HL,0027h

possible references to internal address 0028:
        0776 LD HL,0028h

possible references to internal address 002A:
        04BA LD HL,002Ah
        0A2C LD HL,002Ah

possible references to internal address 002B:
        14A3 LD DE,002Bh

possible references to internal address 002F:
        0BD2 LD DE,002Fh
        0CA6 LD DE,002Fh
        1CDE LD DE,002Fh
        2427 LD HL,002Fh
        2AA0 LD HL,002Fh
        354F LD HL,002Fh
        355F LD HL,002Fh
        47A7 LD HL,002Fh
        49DA LD HL,002Fh
        4A7E LD HL,002Fh

possible references to internal address 0033:
        2471 LD HL,0033h
        2ABE LD HL,0033h
        47B7 LD HL,0033h
        48DD LD HL,0033h
        4ACD LD DE,0033h

possible references to internal address 0039:
        0E4E LD HL,0039h
        0F10 LD HL,0039h

possible references to internal address 003D:
        0E5E LD HL,003Dh

possible references to internal address 0047:
        0A31 LD HL,0047h

possible references to internal address 0069:
        4ADE LD HL,0069h

possible references to internal address 0085:
        4AFC LD HL,0085h

possible references to internal address 0092:
        13FC LD BC,0092h

possible references to internal address 01C6:
        3FBD LD DE,01C6h

possible references to internal address 0200:
        07D8 LD DE,0200h
        0DEA LD HL,0200h
        47C3 LD DE,0200h
        48EA LD HL,0200h

possible references to internal address 0217:
        492F LD HL,0217h

possible references to internal address 021B:
        496D LD HL,021Bh

possible references to internal address 021F:
        49B1 LD HL,021Fh

possible references to internal address 0222:
        01CC LD HL,0222h

possible references to internal address 0231:
        4900 LD HL,0231h
        4AB0 LD HL,0231h

possible references to internal address 0282:
        012F LD HL,0282h

possible references to internal address 0284:
        011D LD HL,0284h

possible references to internal address 029D:
        0124 LD HL,029Dh

possible references to internal address 02B1:
        0145 LD HL,02B1h
        018F LD HL,02B1h

possible references to internal address 02BF:
        0160 LD HL,02BFh
        01AB LD HL,02BFh

possible references to internal address 02C4:
        0167 LD HL,02C4h

possible references to internal address 02D3:
        5232 LD BC,02D3h

possible references to internal address 02DC:
        017B LD HL,02DCh

possible references to internal address 02EC:
        022C LD HL,02ECh

possible references to internal address 030D:
        0243 LD HL,030Dh

possible references to internal address 0340:
        026A LD HL,0340h

possible references to internal address 0400:
        01EB LD HL,0400h

possible references to internal address 0490:
        142E LD BC,0490h

possible references to internal address 0FFF:
        1F9D LD HL,0FFFh

possible references to internal address 121C:
        1288 LD HL,121Ch

possible references to internal address 1434:
        4722 LD HL,1434h

possible references to internal address 1436:
        473E LD HL,1436h

possible references to internal address 1438:
        3EE8 LD HL,1438h

possible references to internal address 143A:
        3EFE LD HL,143Ah

possible references to internal address 143C:
        3F14 LD HL,143Ch

possible references to internal address 2EC2:
        2E26 LD HL,2EC2h

possible references to internal address 4161:
        491E LD HL,4161h

possible references to internal address 4B2A:
        4AE7 LD DE,4B2Ah

possible references to internal address 4B2E:
        4B04 LD BC,4B2Eh

possible references to internal address 5021:
        0B57 LD HL,5021h
        3EA4 LD HL,5021h

possible references to internal address 522A:
        5248 LD HL,522Ah

possible references to external address 5252h:
        4922 LD HL,5252h

possible references to external address 6141h:
        493B LD HL,6141h

possible references to external address 7000h:
        0149 LD HL,7000h
        0155 LD HL,7000h
        0193 LD HL,7000h
        019F LD HL,7000h
        0230 LD HL,7000h
        023C LD HL,7000h
        025B LD HL,7000h
        0272 LD HL,7000h
        522D LD HL,7000h

possible references to external address 7001h:
        5239 LD DE,7001h

possible references to external address 7080h:
        0133 LD HL,7080h

possible references to external address 7272h:
        493F LD HL,7272h

possible references to external address 72C1h:
        09C5 LD SP,72C1h
        ----------
        09D0 LD SP,(72C1h)

possible references to external address 72CFh:
        1070 LD BC,72CFh
        1C1F LD BC,72CFh

possible references to external address 72D1h:
        23B7 LD IY,72D1h
        ----------
        23B0 LD HL,(72D1h)
        23B4 LD (72D1h),HL

possible references to external address 72D3h:
        3C48 LD IY,72D3h

possible references to external address 72D4h:
        5245 LD DE,72D4h

possible references to external address 72D5h:
        024B LD IY,72D5h
        ----------
        1035 LD HL,(72D5h)
        11DC LD HL,(72D5h)
        13EC LD HL,(72D5h)

possible references to external address 0AA55h:
        490C LD HL,0AA55h

possible references to external address 0FC00h:
        0104 LD SP,0FC00h
        01EF LD HL,0FC00h

possible references to external address 0FDD6h:
        0118 LD HL,0FDD6h

possible references to external address 0FFBFh:
        0A12 LD HL,0FFBFh

possible references to external address 0FFCDh:
        2FFF LD HL,0FFCDh

possible references to external address 0FFD4h:
        03F7 LD HL,0FFD4h

possible references to external address 0FFDCh:
        1BE8 LD HL,0FFDCh

possible references to external address 0FFE6h:
        3F54 LD HL,0FFE6h
        408B LD HL,0FFE6h

possible references to external address 0FFE9h:
        4B37 LD HL,0FFE9h

possible references to external address 0FFEDh:
        4761 LD HL,0FFEDh

possible references to external address 0FFEEh:
        24CC LD HL,0FFEEh
        43FD LD HL,0FFEEh

possible references to external address 0FFEFh:
        2A87 LD HL,0FFEFh

possible references to external address 0FFF0h:
        1582 LD HL,0FFF0h
        26F3 LD HL,0FFF0h

possible references to external address 0FFF2h:
        18C2 LD HL,0FFF2h
        2BD4 LD HL,0FFF2h

possible references to external address 0FFF5h:
        489E LD HL,0FFF5h

possible references to external address 0FFF6h:
        036C LD HL,0FFF6h
        3B84 LD HL,0FFF6h
        3D61 LD HL,0FFF6h

possible references to external address 0FFF7h:
        1B0C LD HL,0FFF7h

possible references to external address 0FFF8h:
        5022 LD HL,0FFF8h

possible references to external address 0FFF9h:
        2F6F LD HL,0FFF9h

possible references to external address 0FFFFh:
        1500 LD HL,0FFFFh
        253A LD HL,0FFFFh
        253E LD HL,0FFFFh
        3B89 LD HL,0FFFFh
        3BB2 LD HL,0FFFFh
        4EC4 LD HL,0FFFFh
        4EC8 LD HL,0FFFFh

references to port 80h
        11C7 IN A,(80h)

references to port 81h
        1000 IN A,(81h)

references to port 91h
        0343 IN A,(91h)
        0348 IN A,(91h)
        0356 IN A,(91h)
        13E8 IN A,(91h)
        13E6 OUT (91h),A

references to port 0A1h
        020E IN A,(0A1h)
        01BA OUT (0A1h),A
        0211 OUT (0A1h),A

references to port 0A2h
        01B6 OUT (0A2h),A
        0229 OUT (0A2h),A

Procedures (71):
  Proc  Length  References Dependants
  L0000  0003            0          1
  L0066  0003            0          1
  L0100  000F            1          2
  L0110  0172            1          8
  L0343  0013            2          0
  L0356  000E            2          0
  L0364  008A            4          1
  L03EE  0003            6          0
  L03F1  0003            1          0
  L03F4  0595            1          7
  L0989  0037            3          1
  L09C0  0001            1          0
  L09C1  001E            1          1
  L0A0F  05C2            1         14
  L0FD1  0018            1          0
  L0FE9  005B            1          2
  L1044  00AF            1          3
  L10F3  00AC            1          5
  L119F  0014            1          0
  L11B3  0052            2          2
  L1205  0017           10          2
  L126E  0034            3          1
  L12A2  0001           20          0
  L12A3  0088            3          2
  L132B  00A0           11          1
  L13CB  0029            1          2
  L13F4  0010            1          0
  L1404  0026            1          2
  L142A  000A            1          0
  L143E  00B8            5          2
  L14F7  000F            2          0
  L1506  000A           34          0
  L1510  006F            3          2
  L157F  030E            8          4
  L188D  0032            1          2
  L18BF  01CB            1          5
  L1A8A  007F            9          1
  L1B09  00DC            1          4
  L1BE5  07FA            2         10
  L23DF  0018            5          0
  L23F7  001F           12          1
  L2416  00B3           15          3
  L24C9  01E4            1          3
  L26AD  0043            2          2
  L26F0  0394            4          5
  L2A84  014D            3          2
  L2BD1  02F1            1          5
  L2ED1  0040            3          1
  L2F11  0056            2          1
  L2F67  0090            1          0
  L2FF7  0B65            1          5
  L3B67  001A            2          0
  L3B81  00D5            2          1
  L3C56  00DD            1          5
  L3D33  002B            5          1
  L3D5E  0187            1          8
  L3EE5  004B            1          1
  L3F30  0021            1          0
  L3F51  0137            1          3
  L4088  0323            2          5
  L43AB  004F            3          1
  L43FA  0328            3          3
  L4722  003C            1          0
  L475E  013D            1          5
  L489B  01D3            1          7
  L4A6E  00B0            2          4
  L4B34  04E6            1          3
  L501A  017E            3          1
  L5198  0092            1          0
  L522D  0021            1          1
  L524D  0001            1          0

Call Graph:
L0000 - Entry Point
  L0100
    L522D
      L524D
    L0110
      L1205
        L14F7
        L11B3
          L12A2
          L119F
      L1044
        L1506
        L3B81
          L1506
        L1BE5
          L1506
          L3B81
            L1506
          L0356
          L0343
          L3F51
            L1506
            L4A6E
              L1506
              L2416
                L1506
                L2A84
                  L1506
                  L03EE
                L0364
                  L1404
                    L13CB
                      L142A
                      L12A2
                    L13F4
              L23F7
                L1506
              L43AB
                L1506
            L132B
              L1506
          L23F7
            L1506
          L132B
            L1506
          L501A
            L3B67
          L5198
          L2416
            L1506
            L2A84
              L1506
              L03EE
            L0364
              L1404
                L13CB
                  L142A
                  L12A2
                L13F4
      L126E
        L2FF7
          L12A2
          L14F7
          L2F11
            L2ED1
              L12A2
          L2F67
          L2ED1
            L12A2
      L0A0F
        L1506
        L1BE5
          L1506
          L3B81
            L1506
          L0356
          L0343
          L3F51
            L1506
            L4A6E
              L1506
              L2416
                L1506
                L2A84
                  L1506
                  L03EE
                L0364
                  L1404
                    L13CB
                      L142A
                      L12A2
                    L13F4
              L23F7
                L1506
              L43AB
                L1506
            L132B
              L1506
          L23F7
            L1506
          L132B
            L1506
          L501A
            L3B67
          L5198
          L2416
            L1506
            L2A84
              L1506
              L03EE
            L0364
              L1404
                L13CB
                  L142A
                  L12A2
                L13F4
        L18BF
          L1506
          L43FA
            L1506
            L157F
              L1506
              L2416
                L1506
                L2A84
                  L1506
                  L03EE
                L0364
                  L1404
                    L13CB
                      L142A
                      L12A2
                    L13F4
              L23F7
                L1506
              L132B
                L1506
            L143E
              L1506
              L501A
                L3B67
          L2BD1
            L1506
            L23DF
            L4722
            L3EE5
              L1506
            L3F30
          L3C56
            L1506
            L43FA
              L1506
              L157F
                L1506
                L2416
                  L1506
                  L2A84
                    L1506
                    L03EE
                  L0364
                    L1404
                      L13CB
                        L142A
                        L12A2
                      L13F4
                L23F7
                  L1506
                L132B
                  L1506
              L143E
                L1506
                L501A
                  L3B67
            L2416
              L1506
              L2A84
                L1506
                L03EE
              L0364
                L1404
                  L13CB
                    L142A
                    L12A2
                  L13F4
            L43AB
              L1506
            L4088
              L1506
              L157F
                L1506
                L2416
                  L1506
                  L2A84
                    L1506
                    L03EE
                  L0364
                    L1404
                      L13CB
                        L142A
                        L12A2
                      L13F4
                L23F7
                  L1506
                L132B
                  L1506
              L4B34
                L1506
                L157F
                  L1506
                  L2416
                    L1506
                    L2A84
                      L1506
                      L03EE
                    L0364
                      L1404
                        L13CB
                          L142A
                          L12A2
                        L13F4
                  L23F7
                    L1506
                  L132B
                    L1506
                L26F0
                  L1506
                  L2416
                    L1506
                    L2A84
                      L1506
                      L03EE
                    L0364
                      L1404
                        L13CB
                          L142A
                          L12A2
                        L13F4
                  L3D33
                    L1506
                  L132B
                    L1506
                  L1A8A
                    L1506
              L475E
                L1506
                L2A84
                  L1506
                  L03EE
                L143E
                  L1506
                  L501A
                    L3B67
                L23DF
                L03EE
              L143E
                L1506
                L501A
                  L3B67
          L1510
            L1506
            L23F7
              L1506
        L10F3
          L1506
          L1B09
            L1506
            L43FA
              L1506
              L157F
                L1506
                L2416
                  L1506
                  L2A84
                    L1506
                    L03EE
                  L0364
                    L1404
                      L13CB
                        L142A
                        L12A2
                      L13F4
                L23F7
                  L1506
                L132B
                  L1506
              L143E
                L1506
                L501A
                  L3B67
            L2416
              L1506
              L2A84
                L1506
                L03EE
              L0364
                L1404
                  L13CB
                    L142A
                    L12A2
                  L13F4
            L4088
              L1506
              L157F
                L1506
                L2416
                  L1506
                  L2A84
                    L1506
                    L03EE
                  L0364
                    L1404
                      L13CB
                        L142A
                        L12A2
                      L13F4
                L23F7
                  L1506
                L132B
                  L1506
              L4B34
                L1506
                L157F
                  L1506
                  L2416
                    L1506
                    L2A84
                      L1506
                      L03EE
                    L0364
                      L1404
                        L13CB
                          L142A
                          L12A2
                        L13F4
                  L23F7
                    L1506
                  L132B
                    L1506
                L26F0
                  L1506
                  L2416
                    L1506
                    L2A84
                      L1506
                      L03EE
                    L0364
                      L1404
                        L13CB
                          L142A
                          L12A2
                        L13F4
                  L3D33
                    L1506
                  L132B
                    L1506
                  L1A8A
                    L1506
              L475E
                L1506
                L2A84
                  L1506
                  L03EE
                L143E
                  L1506
                  L501A
                    L3B67
                L23DF
                L03EE
              L143E
                L1506
                L501A
                  L3B67
          L2416
            L1506
            L2A84
              L1506
              L03EE
            L0364
              L1404
                L13CB
                  L142A
                  L12A2
                L13F4
          L23DF
          L0989
            L1506
        L1510
          L1506
          L23F7
            L1506
        L1A8A
          L1506
        L26AD
          L1506
          L3D33
            L1506
        L24C9
          L1506
          L26F0
            L1506
            L2416
              L1506
              L2A84
                L1506
                L03EE
              L0364
                L1404
                  L13CB
                    L142A
                    L12A2
                  L13F4
            L3D33
              L1506
            L132B
              L1506
            L1A8A
              L1506
          L157F
            L1506
            L2416
              L1506
              L2A84
                L1506
                L03EE
              L0364
                L1404
                  L13CB
                    L142A
                    L12A2
                  L13F4
            L23F7
              L1506
            L132B
              L1506
        L2416
          L1506
          L2A84
            L1506
            L03EE
          L0364
            L1404
              L13CB
                L142A
                L12A2
              L13F4
        L132B
          L1506
        L23DF
        L157F
          L1506
          L2416
            L1506
            L2A84
              L1506
              L03EE
            L0364
              L1404
                L13CB
                  L142A
                  L12A2
                L13F4
          L23F7
            L1506
          L132B
            L1506
        L143E
          L1506
          L501A
            L3B67
        L0364
          L1404
            L13CB
              L142A
              L12A2
            L13F4
      L03F4
        L1506
        L12A3
          L1506
          L0356
        L157F
          L1506
          L2416
            L1506
            L2A84
              L1506
              L03EE
            L0364
              L1404
                L13CB
                  L142A
                  L12A2
                L13F4
          L23F7
            L1506
          L132B
            L1506
        L143E
          L1506
          L501A
            L3B67
        L0364
          L1404
            L13CB
              L142A
              L12A2
            L13F4
        L0989
          L1506
        L03EE
      L188D
        L3D5E
          L1506
          L12A3
            L1506
            L0356
          L03EE
          L2416
            L1506
            L2A84
              L1506
              L03EE
            L0364
              L1404
                L13CB
                  L142A
                  L12A2
                L13F4
          L26AD
            L1506
            L3D33
              L1506
          L1A8A
            L1506
          L3D33
            L1506
          L489B
            L1506
            L2A84
              L1506
              L03EE
            L23DF
            L3D33
              L1506
            L1A8A
              L1506
            L03EE
            L03F1
        L12A3
          L1506
          L0356
      L0FE9
        L0FD1
        L12A2
      L11B3
        L12A2
        L119F
L0066 - Entry Point
  L09C1
    L09C0
