0000: F3                         L0000: DI
0001: AF                                XOR     A
0002: C3 74 06                          JP      L0674

0005: C3 00 40                   L0005: JP      4000h

0008: C3 00 40                   L0008: JP      4000h

000B: E1                         L000B: POP     HL
000C: E9                                JP      (HL)

000D: C3 9F 06                   L000D: JP      L069F

0010: C3 03 40                   L0010: JP      4003h

                                        ; --- START PROC L0013 ---
0013: C5                         L0013: PUSH    BC
0014: 06 01                             LD      B,01h
0016: 18 2E                             JR      L0046

0018: C3 06 40                   L0018: JP      4006h

                                        ; --- START PROC L001B ---
001B: C5                         L001B: PUSH    BC
001C: 06 02                             LD      B,02h
001E: 18 26                             JR      L0046

0020: C3 09 40                   L0020: JP      4009h

0023: C5                         L0023: PUSH    BC
0024: 06 04                             LD      B,04h
0026: 18 1E                             JR      L0046

0028: C3 0C 40                   L0028: JP      400Ch

                                        ; --- START PROC L002B ---
002B: 11 15 40                   L002B: LD      DE,4015h
002E: 18 E3                             JR      L0013

0030: C3 0F 40                   L0030: JP      400Fh

                                        ; --- START PROC L0033 ---
0033: 11 1D 40                   L0033: LD      DE,401Dh
0036: 18 E3                             JR      L001B

0038: C3 12 40                   L0038: JP      4012h

                                        ; --- START PROC L003B ---
003B: 11 25 40                   L003B: LD      DE,4025h
003E: 18 DB                             JR      L001B

0040: C3 D9 05                   L0040: JP      L05D9

0043: C9                         L0043: RET

0044: 00                         L0044: NOP
0045: 00                                NOP
                                        ; --- START PROC L0046 ---
0046: C3 C2 03                   L0046: JP      L03C2

                                        ; --- START PROC L0049 ---
0049: CD 2B 00                   L0049: CALL    L002B
004C: B7                                OR      A
004D: C0                                RET     NZ
004E: 18 F9                             JR      L0049

0050: 0D                         L0050: DEC     C
0051: 0D                                DEC     C
0052: 1F                                RRA
0053: 1F                                RRA
0054: 01 01 5B                          LD      BC,5B01h
0057: 1B                                DEC     DE
0058: 0A                                LD      A,(BC)
0059: 1A                                LD      A,(DE)
005A: 08                                EX      AF,AF'
005B: 18 09                             JR      L0066

005D: 19                         L005D: ADD     HL,DE
005E: 20 20                             JR      NZ,L0080
                                        ; --- START PROC L0060 ---
0060: 0B                         L0060: DEC     BC
0061: 78                                LD      A,B
0062: B1                                OR      C
0063: 20 FB                             JR      NZ,L0060
0065: C9                                RET

0066: 31 00 06                   L0066: LD      SP,0600h
0069: 3A EC 37                          LD      A,(37ECh)
006C: 3C                                INC     A
006D: FE 02                             CP      02h
006F: D2 00 00                          JP      NC,L0000
0072: C3 CC 06                          JP      L06CC

                                        ; --- START PROC L0075 ---
0075: 11 80 40                   L0075: LD      DE,4080h
0078: 21 F7 18                          LD      HL,18F7h
007B: 01 27 00                          LD      BC,0027h
007E: ED B0                             LDIR
0080: 21 E5 41                   L0080: LD      HL,41E5h
0083: 36 3A                             LD      (HL),3Ah        ; ':'
0085: 23                                INC     HL
0086: 70                                LD      (HL),B
0087: 23                                INC     HL
0088: 36 2C                             LD      (HL),2Ch        ; ','
008A: 23                                INC     HL
008B: 22 A7 40                          LD      (40A7h),HL
008E: 11 2D 01                          LD      DE,012Dh
0091: 06 1C                             LD      B,1Ch
0093: 21 52 41                          LD      HL,4152h
0096: 36 C3                      L0096: LD      (HL),0C3h
0098: 23                                INC     HL
0099: 73                                LD      (HL),E
009A: 23                                INC     HL
009B: 72                                LD      (HL),D
009C: 23                                INC     HL
009D: 10 F7                             DJNZ    L0096
009F: 06 15                             LD      B,15h
00A1: 36 C9                      L00A1: LD      (HL),0C9h
00A3: 23                                INC     HL
00A4: 23                                INC     HL
00A5: 23                                INC     HL
00A6: 10 F9                             DJNZ    L00A1
00A8: 21 E8 42                          LD      HL,42E8h
00AB: 70                                LD      (HL),B
00AC: 31 F8 41                          LD      SP,41F8h
00AF: CD 8F 1B                          CALL    L1B8F
00B2: CD C9 01                          CALL    L01C9
00B5: 21 05 01                   L00B5: LD      HL,0105h
00B8: CD A7 28                          CALL    L28A7
00BB: CD B3 1B                          CALL    L1BB3
00BE: 38 F5                             JR      C,L00B5
00C0: D7                                RST     0x10
00C1: B7                                OR      A
00C2: 20 12                             JR      NZ,L00D6
00C4: 21 4C 43                          LD      HL,434Ch
00C7: 23                         L00C7: INC     HL
00C8: 7C                                LD      A,H
00C9: B5                                OR      L
00CA: 28 1B                             JR      Z,L00E7
00CC: 7E                                LD      A,(HL)
00CD: 47                                LD      B,A
00CE: 2F                                CPL
00CF: 77                                LD      (HL),A
00D0: BE                                CP      (HL)
00D1: 70                                LD      (HL),B
00D2: 28 F3                             JR      Z,L00C7
00D4: 18 11                             JR      L00E7

00D6: CD 5A 1E                   L00D6: CALL    L1E5A
00D9: B7                                OR      A
00DA: C2 97 19                          JP      NZ,L1997
00DD: EB                                EX      DE,HL
00DE: 2B                                DEC     HL
00DF: 3E 8F                             LD      A,8Fh
00E1: 46                                LD      B,(HL)
00E2: 77                                LD      (HL),A
00E3: BE                                CP      (HL)
00E4: 70                                LD      (HL),B
00E5: 20 CE                             JR      NZ,L00B5
                                        ; --- START PROC L00E7 ---
00E7: 2B                         L00E7: DEC     HL
                                        ; --- START PROC L00E8 ---
00E8: 11 14 44                   L00E8: LD      DE,4414h
00EB: DF                                RST     0x18
00EC: DA 7A 19                          JP      C,L197A
00EF: 11 CE FF                          LD      DE,0FFCEh
00F2: 22 B1 40                          LD      (40B1h),HL
00F5: 19                                ADD     HL,DE
00F6: 22 A0 40                          LD      (40A0h),HL
00F9: CD 4D 1B                          CALL    L1B4D
00FC: 21 11 01                          LD      HL,0111h
00FF: CD A7 28                          CALL    L28A7
0102: C3 19 1A                          JP      L1A19

0105: 4D                         L0105: LD      C,L
0106: 45                                LD      B,L
0107: 4D                                LD      C,L
0108: 4F                                LD      C,A
0109: 52                                LD      D,D
010A: 59                                LD      E,C
                                        ; --- START PROC L010B ---
010B: 20 53                      L010B: JR      NZ,L0160
010D: 49                                LD      C,C
010E: 5A                                LD      E,D
010F: 45                                LD      B,L
0110: 00                                NOP
0111: 52                                LD      D,D
0112: 41                                LD      B,C
0113: 44                                LD      B,H
0114: 49                                LD      C,C
0115: 4F                                LD      C,A
0116: 20 53                             JR      NZ,L016B
0118: 48                                LD      C,B
0119: 41                                LD      B,C
011A: 43                                LD      B,E
011B: 4B                                LD      C,E
011C: 20 4C                             JR      NZ,L016A
011E: 45                                LD      B,L
011F: 56                                LD      D,(HL)
0120: 45                                LD      B,L
0121: 4C                                LD      C,H
0122: 20 49                             JR      NZ,L016D
0124: 49                                LD      C,C
0125: 20 42                             JR      NZ,L0169
0127: 41                                LD      B,C
0128: 53                                LD      D,E
0129: 49                                LD      C,C
012A: 43                                LD      B,E
012B: 0D                                DEC     C
012C: 00                                NOP
012D: 1E 2C                             LD      E,2Ch   ; ','
012F: C3 A2 19                          JP      L19A2

                                        ; --- START PROC L0132 ---
0132: D7                         L0132: RST     0x10
0133: AF                                XOR     A
0134: 01 3E 80                          LD      BC,803Eh
0137: 01 3E 01                          LD      BC,013Eh
013A: F5                                PUSH    AF
013B: CF                                RST     0x08
013C: 28 CD                             JR      Z,L010B
013E: 1C                                INC     E
013F: 2B                                DEC     HL
0140: FE 80                             CP      80h
0142: D2 4A 1E                          JP      NC,L1E4A
0145: F5                                PUSH    AF
0146: CF                                RST     0x08
0147: 2C                                INC     L
0148: CD 1C 2B                          CALL    L2B1C
014B: FE 30                             CP      30h     ; '0'
014D: D2 4A 1E                          JP      NC,L1E4A
0150: 16 FF                             LD      D,0FFh
0152: 14                         L0152: INC     D
0153: D6 03                             SUB     03h
0155: 30 FB                             JR      NC,L0152
0157: C6 03                             ADD     A,03h
0159: 4F                                LD      C,A
015A: F1                                POP     AF
015B: 87                                ADD     A,A
015C: 5F                                LD      E,A
015D: 06 02                             LD      B,02h
                                        ; --- START PROC L015F ---
015F: 7A                         L015F: LD      A,D
                                        ; --- START PROC L0160 ---
0160: 1F                         L0160: RRA
0161: 57                                LD      D,A
0162: 7B                                LD      A,E
0163: 1F                                RRA
0164: 5F                                LD      E,A
0165: 10 F8                             DJNZ    L015F
0167: 79                                LD      A,C
0168: 8F                                ADC     A,A
                                        ; --- START PROC L0169 ---
0169: 3C                         L0169: INC     A
                                        ; --- START PROC L016A ---
016A: 47                         L016A: LD      B,A
                                        ; --- START PROC L016B ---
016B: AF                         L016B: XOR     A
016C: 37                                SCF
                                        ; --- START PROC L016D ---
016D: 8F                         L016D: ADC     A,A
016E: 10 FD                             DJNZ    L016D
0170: 4F                                LD      C,A
0171: 7A                                LD      A,D
0172: F6 3C                             OR      3Ch     ; '<'
0174: 57                                LD      D,A
0175: 1A                                LD      A,(DE)
0176: B7                                OR      A
0177: FA 7C 01                          JP      M,L017C
017A: 3E 80                             LD      A,80h
017C: 47                         L017C: LD      B,A
017D: F1                                POP     AF
017E: B7                                OR      A
017F: 78                                LD      A,B
0180: 28 10                             JR      Z,L0192
0182: 12                                LD      (DE),A
0183: FA 8F 01                          JP      M,L018F
0186: 79                                LD      A,C
0187: 2F                                CPL
0188: 4F                                LD      C,A
0189: 1A                                LD      A,(DE)
018A: A1                                AND     C
018B: 12                         L018B: LD      (DE),A
018C: CF                         L018C: RST     0x08
018D: 29                                ADD     HL,HL
018E: C9                                RET

018F: B1                         L018F: OR      C
0190: 18 F9                             JR      L018B

0192: A1                         L0192: AND     C
0193: C6 FF                             ADD     A,0FFh
0195: 9F                                SBC     A,A
0196: E5                                PUSH    HL
0197: CD 8D 09                          CALL    L098D
019A: E1                                POP     HL
019B: 18 EF                             JR      L018C

                                        ; --- START PROC L019D ---
019D: D7                         L019D: RST     0x10
019E: E5                                PUSH    HL
019F: 3A 99 40                          LD      A,(4099h)
01A2: B7                                OR      A
01A3: 20 06                             JR      NZ,L01AB
01A5: CD 58 03                          CALL    L0358
01A8: B7                                OR      A
01A9: 28 11                             JR      Z,L01BC
01AB: F5                         L01AB: PUSH    AF
01AC: AF                                XOR     A
01AD: 32 99 40                          LD      (4099h),A
01B0: 3C                                INC     A
01B1: CD 57 28                          CALL    L2857
01B4: F1                                POP     AF
01B5: 2A D4 40                          LD      HL,(40D4h)
01B8: 77                                LD      (HL),A
01B9: C3 84 28                          JP      L2884

01BC: 21 28 19                   L01BC: LD      HL,1928h
01BF: 22 21 41                          LD      (4121h),HL
01C2: 3E 03                             LD      A,03h
01C4: 32 AF 40                          LD      (40AFh),A
01C7: E1                                POP     HL
01C8: C9                                RET

                                        ; --- START PROC L01C9 ---
01C9: 3E 1C                      L01C9: LD      A,1Ch
01CB: CD 3A 03                          CALL    L033A
01CE: 3E 1F                             LD      A,1Fh
01D0: C3 3A 03                          JP      L033A

01D3: ED 5F                      L01D3: LD      A,R
01D5: 32 AB 40                          LD      (40ABh),A
01D8: C9                                RET

                                        ; --- START PROC L01D9 ---
01D9: 21 01 FC                   L01D9: LD      HL,0FC01h
01DC: CD 21 02                          CALL    L0221
01DF: 06 0B                             LD      B,0Bh
01E1: 10 FE                      L01E1: DJNZ    L01E1
01E3: 21 02 FC                          LD      HL,0FC02h
01E6: CD 21 02                          CALL    L0221
01E9: 06 0B                             LD      B,0Bh
01EB: 10 FE                      L01EB: DJNZ    L01EB
01ED: 21 00 FC                          LD      HL,0FC00h
01F0: CD 21 02                          CALL    L0221
01F3: 06 5C                             LD      B,5Ch   ; '\'
01F5: 10 FE                      L01F5: DJNZ    L01F5
01F7: C9                                RET

                                        ; --- START PROC L01F8 ---
01F8: E5                         L01F8: PUSH    HL
01F9: 21 00 FB                          LD      HL,0FB00h
01FC: 18 1B                             JR      L0219

                                        ; --- START PROC L01FE ---
01FE: 7E                         L01FE: LD      A,(HL)
01FF: D6 23                             SUB     23h     ; '#'
0201: 3E 00                             LD      A,00h
0203: 20 0D                             JR      NZ,L0212
0205: CD 01 2B                          CALL    L2B01
0208: CF                                RST     0x08
0209: 2C                                INC     L
020A: 7B                                LD      A,E
020B: A2                                AND     D
020C: C6 02                             ADD     A,02h
020E: D2 4A 1E                          JP      NC,L1E4A
0211: 3D                                DEC     A
0212: 32 E4 37                   L0212: LD      (37E4h),A
0215: E5                                PUSH    HL
0216: 21 04 FF                          LD      HL,0FF04h
                                        ; --- START PROC L0219 ---
0219: CD 21 02                   L0219: CALL    L0221
021C: E1                                POP     HL
021D: C9                                RET

                                        ; --- START PROC L021E ---
021E: 21 00 FF                   L021E: LD      HL,0FF00h
                                        ; --- START PROC L0221 ---
0221: 3A 3D 40                   L0221: LD      A,(403Dh)
0224: A4                                AND     H
0225: B5                                OR      L
0226: D3 FF                             OUT     (0FFh),A
0228: 32 3D 40                          LD      (403Dh),A
022B: C9                                RET

                                        ; --- START PROC L022C ---
022C: 3A 3F 3C                   L022C: LD      A,(3C3Fh)
022F: EE 0A                             XOR     0Ah
0231: 32 3F 3C                          LD      (3C3Fh),A
0234: C9                                RET

                                        ; --- START PROC L0235 ---
0235: C5                         L0235: PUSH    BC
0236: E5                                PUSH    HL
0237: 06 08                             LD      B,08h
0239: CD 41 02                   L0239: CALL    L0241
023C: 10 FB                             DJNZ    L0239
023E: E1                                POP     HL
023F: C1                                POP     BC
0240: C9                                RET

                                        ; --- START PROC L0241 ---
0241: C5                         L0241: PUSH    BC
0242: F5                                PUSH    AF
0243: DB FF                      L0243: IN      A,(0FFh)
0245: 17                                RLA
0246: 30 FB                             JR      NC,L0243
0248: 06 41                             LD      B,41h   ; 'A'
024A: 10 FE                      L024A: DJNZ    L024A
024C: CD 1E 02                          CALL    L021E
024F: 06 76                             LD      B,76h   ; 'v'
0251: 10 FE                      L0251: DJNZ    L0251
0253: DB FF                             IN      A,(0FFh)
0255: 47                                LD      B,A
0256: F1                                POP     AF
0257: CB 10                             RL      B
0259: 17                                RLA
025A: F5                                PUSH    AF
025B: CD 1E 02                          CALL    L021E
025E: F1                                POP     AF
025F: C1                                POP     BC
0260: C9                                RET

                                        ; --- START PROC L0261 ---
0261: CD 64 02                   L0261: CALL    L0264
                                        ; --- START PROC L0264 ---
0264: E5                         L0264: PUSH    HL
0265: C5                                PUSH    BC
0266: D5                                PUSH    DE
0267: F5                                PUSH    AF
0268: 0E 08                             LD      C,08h
026A: 57                                LD      D,A
026B: CD D9 01                   L026B: CALL    L01D9
026E: 7A                                LD      A,D
026F: 07                                RLCA
0270: 57                                LD      D,A
0271: 30 0B                             JR      NC,L027E
0273: CD D9 01                          CALL    L01D9
0276: 0D                         L0276: DEC     C
0277: 20 F2                             JR      NZ,L026B
0279: F1                                POP     AF
027A: D1                                POP     DE
027B: C1                                POP     BC
027C: E1                                POP     HL
027D: C9                                RET

027E: 06 87                      L027E: LD      B,87h
0280: 10 FE                      L0280: DJNZ    L0280
0282: 18 F2                             JR      L0276

                                        ; --- START PROC L0284 ---
0284: CD FE 01                   L0284: CALL    L01FE
0287: 06 FF                             LD      B,0FFh
0289: AF                                XOR     A
028A: CD 64 02                   L028A: CALL    L0264
028D: 10 FB                             DJNZ    L028A
028F: 3E A5                             LD      A,0A5h
0291: 18 D1                             JR      L0264

                                        ; --- START PROC L0293 ---
0293: CD FE 01                   L0293: CALL    L01FE
                                        ; --- START PROC L0296 ---
0296: E5                         L0296: PUSH    HL
0297: AF                                XOR     A
0298: CD 41 02                   L0298: CALL    L0241
029B: FE A5                             CP      0A5h
029D: 20 F9                             JR      NZ,L0298
029F: 3E 2A                             LD      A,2Ah   ; '*'
02A1: 32 3E 3C                          LD      (3C3Eh),A
02A4: 32 3F 3C                          LD      (3C3Fh),A
02A7: E1                                POP     HL
02A8: C9                                RET

02A9: CD 14 03                   L02A9: CALL    L0314
02AC: 22 DF 40                          LD      (40DFh),HL
02AF: CD F8 01                          CALL    L01F8
02B2: CD E2 41                   L02B2: CALL    41E2h
02B5: 31 88 42                          LD      SP,4288h
02B8: CD FE 20                          CALL    L20FE
02BB: 3E 2A                             LD      A,2Ah   ; '*'
02BD: CD 2A 03                          CALL    L032A
02C0: CD B3 1B                          CALL    L1BB3
02C3: DA CC 06                          JP      C,L06CC
02C6: D7                                RST     0x10
02C7: CA 97 19                          JP      Z,L1997
02CA: FE 2F                             CP      2Fh     ; '/'
02CC: 28 4F                             JR      Z,L031D
02CE: CD 93 02                          CALL    L0293
02D1: CD 35 02                   L02D1: CALL    L0235
02D4: FE 55                             CP      55h     ; 'U'
02D6: 20 F9                             JR      NZ,L02D1
02D8: 06 06                             LD      B,06h
02DA: 7E                         L02DA: LD      A,(HL)
02DB: B7                                OR      A
02DC: 28 09                             JR      Z,L02E7
02DE: CD 35 02                          CALL    L0235
02E1: BE                                CP      (HL)
02E2: 20 ED                             JR      NZ,L02D1
02E4: 23                                INC     HL
02E5: 10 F3                             DJNZ    L02DA
02E7: CD 2C 02                   L02E7: CALL    L022C
02EA: CD 35 02                   L02EA: CALL    L0235
02ED: FE 78                             CP      78h     ; 'x'
02EF: 28 B8                             JR      Z,L02A9
02F1: FE 3C                             CP      3Ch     ; '<'
02F3: 20 F5                             JR      NZ,L02EA
02F5: CD 35 02                          CALL    L0235
02F8: 47                                LD      B,A
02F9: CD 14 03                          CALL    L0314
02FC: 85                                ADD     A,L
02FD: 4F                                LD      C,A
02FE: CD 35 02                   L02FE: CALL    L0235
0301: 77                                LD      (HL),A
0302: 23                                INC     HL
0303: 81                                ADD     A,C
0304: 4F                                LD      C,A
0305: 10 F7                             DJNZ    L02FE
0307: CD 35 02                          CALL    L0235
030A: B9                                CP      C
030B: 28 DA                             JR      Z,L02E7
030D: 3E 43                             LD      A,43h   ; 'C'
030F: 32 3E 3C                          LD      (3C3Eh),A
0312: 18 D6                             JR      L02EA

                                        ; --- START PROC L0314 ---
0314: CD 35 02                   L0314: CALL    L0235
0317: 6F                                LD      L,A
0318: CD 35 02                          CALL    L0235
031B: 67                                LD      H,A
031C: C9                                RET

031D: EB                         L031D: EX      DE,HL
031E: 2A DF 40                          LD      HL,(40DFh)
0321: EB                                EX      DE,HL
0322: D7                                RST     0x10
0323: C4 5A 1E                          CALL    NZ,L1E5A
0326: 20 8A                             JR      NZ,L02B2
0328: EB                                EX      DE,HL
0329: E9                                JP      (HL)

                                        ; --- START PROC L032A ---
032A: C5                         L032A: PUSH    BC
032B: 4F                                LD      C,A
032C: CD C1 41                          CALL    41C1h
032F: 3A 9C 40                          LD      A,(409Ch)
0332: B7                                OR      A
0333: 79                                LD      A,C
0334: C1                                POP     BC
0335: FA 64 02                          JP      M,L0264
0338: 20 62                             JR      NZ,L039C
                                        ; --- START PROC L033A ---
033A: D5                         L033A: PUSH    DE
033B: CD 33 00                          CALL    L0033
033E: F5                                PUSH    AF
033F: CD 48 03                          CALL    L0348
0342: 32 A6 40                          LD      (40A6h),A
0345: F1                                POP     AF
0346: D1                                POP     DE
0347: C9                                RET

                                        ; --- START PROC L0348 ---
0348: 3A 3D 40                   L0348: LD      A,(403Dh)
034B: E6 08                             AND     08h
034D: 3A 20 40                          LD      A,(4020h)
0350: 28 03                             JR      Z,L0355
0352: 0F                                RRCA
0353: E6 1F                             AND     1Fh
0355: E6 3F                      L0355: AND     3Fh     ; '?'
0357: C9                                RET

                                        ; --- START PROC L0358 ---
0358: CD C4 41                   L0358: CALL    41C4h
035B: D5                                PUSH    DE
035C: CD 2B 00                          CALL    L002B
035F: D1                                POP     DE
0360: C9                                RET

                                        ; --- START PROC L0361 ---
0361: AF                         L0361: XOR     A
0362: 32 99 40                          LD      (4099h),A
0365: 32 A6 40                          LD      (40A6h),A
0368: CD AF 41                          CALL    41AFh
036B: C5                                PUSH    BC
036C: 2A A7 40                          LD      HL,(40A7h)
036F: 06 F0                             LD      B,0F0h
0371: CD D9 05                          CALL    L05D9
0374: F5                                PUSH    AF
0375: 48                                LD      C,B
0376: 06 00                             LD      B,00h
0378: 09                                ADD     HL,BC
0379: 36 00                             LD      (HL),00h
037B: 2A A7 40                          LD      HL,(40A7h)
037E: F1                                POP     AF
037F: C1                                POP     BC
0380: 2B                                DEC     HL
0381: D8                                RET     C
0382: AF                                XOR     A
0383: C9                                RET

                                        ; --- START PROC L0384 ---
0384: CD 58 03                   L0384: CALL    L0358
0387: B7                                OR      A
0388: C0                                RET     NZ
0389: 18 F9                             JR      L0384

                                        ; --- START PROC L038B ---
038B: AF                         L038B: XOR     A
038C: 32 9C 40                          LD      (409Ch),A
038F: 3A 9B 40                          LD      A,(409Bh)
0392: B7                                OR      A
0393: C8                                RET     Z
0394: 3E 0D                             LD      A,0Dh
0396: D5                                PUSH    DE
0397: CD 9C 03                          CALL    L039C
039A: D1                                POP     DE
039B: C9                                RET

                                        ; --- START PROC L039C ---
039C: F5                         L039C: PUSH    AF
039D: D5                                PUSH    DE
039E: C5                                PUSH    BC
039F: 4F                                LD      C,A
03A0: 1E 00                             LD      E,00h
03A2: FE 0C                             CP      0Ch
03A4: 28 10                             JR      Z,L03B6
03A6: FE 0A                             CP      0Ah
03A8: 20 03                             JR      NZ,L03AD
03AA: 3E 0D                             LD      A,0Dh
03AC: 4F                                LD      C,A
03AD: FE 0D                      L03AD: CP      0Dh
03AF: 28 05                             JR      Z,L03B6
03B1: 3A 9B 40                          LD      A,(409Bh)
03B4: 3C                                INC     A
03B5: 5F                                LD      E,A
03B6: 7B                         L03B6: LD      A,E
03B7: 32 9B 40                          LD      (409Bh),A
03BA: 79                                LD      A,C
03BB: CD 3B 00                          CALL    L003B
03BE: C1                                POP     BC
03BF: D1                                POP     DE
03C0: F1                                POP     AF
03C1: C9                                RET

                                        ; --- START PROC L03C2 ---
03C2: E5                         L03C2: PUSH    HL
03C3: DD E5                             PUSH    IX
03C5: D5                                PUSH    DE
03C6: DD E1                             POP     IX
03C8: D5                                PUSH    DE
03C9: 21 DD 03                          LD      HL,03DDh
03CC: E5                                PUSH    HL
03CD: 4F                                LD      C,A
03CE: 1A                                LD      A,(DE)
03CF: A0                                AND     B
03D0: B8                                CP      B
03D1: C2 33 40                          JP      NZ,4033h
03D4: FE 02                             CP      02h
03D6: DD 6E 01                          LD      L,(IX+01h)
03D9: DD 66 02                          LD      H,(IX+02h)
03DC: E9                                JP      (HL)

03DD: D1                         L03DD: POP     DE
03DE: DD E1                             POP     IX
03E0: E1                                POP     HL
03E1: C1                                POP     BC
03E2: C9                                RET

03E3: 21 36 40                   L03E3: LD      HL,4036h
03E6: 01 01 38                          LD      BC,3801h
03E9: 16 00                             LD      D,00h
03EB: 0A                         L03EB: LD      A,(BC)
03EC: 5F                                LD      E,A
03ED: AE                                XOR     (HL)
03EE: 73                                LD      (HL),E
03EF: A3                                AND     E
03F0: 20 08                             JR      NZ,L03FA
03F2: 14                                INC     D
03F3: 2C                                INC     L
03F4: CB 01                             RLC     C
03F6: F2 EB 03                          JP      P,L03EB
03F9: C9                                RET

03FA: 5F                         L03FA: LD      E,A
03FB: 7A                                LD      A,D
03FC: 07                                RLCA
03FD: 07                                RLCA
03FE: 07                                RLCA
03FF: 57                                LD      D,A
0400: 0E 01                             LD      C,01h
0402: 79                         L0402: LD      A,C
0403: A3                                AND     E
0404: 20 05                             JR      NZ,L040B
0406: 14                                INC     D
0407: CB 01                             RLC     C
0409: 18 F7                             JR      L0402

040B: 3A 80 38                   L040B: LD      A,(3880h)
040E: 47                                LD      B,A
040F: 7A                                LD      A,D
0410: C6 40                             ADD     A,40h   ; '@'
                                        ; --- START PROC L0412 ---
0412: FE 60                      L0412: CP      60h     ; '`'
0414: 30 13                             JR      NC,L0429
0416: CB 08                             RRC     B
0418: 30 31                             JR      NC,L044B
041A: C6 20                             ADD     A,20h   ; ' '
041C: 57                                LD      D,A
041D: 3A 40 38                          LD      A,(3840h)
0420: E6 10                             AND     10h
0422: 28 28                             JR      Z,L044C
0424: 7A                                LD      A,D
0425: D6 60                             SUB     60h     ; '`'
0427: 18 22                             JR      L044B

0429: D6 70                      L0429: SUB     70h     ; 'p'
042B: 30 10                             JR      NC,L043D
042D: C6 40                             ADD     A,40h   ; '@'
042F: FE 3C                             CP      3Ch     ; '<'
0431: 38 02                             JR      C,L0435
0433: EE 10                             XOR     10h
0435: CB 08                      L0435: RRC     B
0437: 30 12                             JR      NC,L044B
0439: EE 10                             XOR     10h
043B: 18 0E                             JR      L044B

043D: 07                         L043D: RLCA
043E: CB 08                             RRC     B
0440: 30 01                             JR      NC,L0443
0442: 3C                                INC     A
0443: 21 50 00                   L0443: LD      HL,0050h
0446: 4F                                LD      C,A
0447: 06 00                             LD      B,00h
0449: 09                                ADD     HL,BC
044A: 7E                                LD      A,(HL)
044B: 57                         L044B: LD      D,A
044C: 01 AC 0D                   L044C: LD      BC,0DACh
044F: CD 60 00                          CALL    L0060
0452: 7A                                LD      A,D
0453: FE 01                             CP      01h
0455: C0                                RET     NZ
0456: EF                                RST     0x28
0457: C9                                RET

0458: DD 6E 03                   L0458: LD      L,(IX+03h)
045B: DD 66 04                          LD      H,(IX+04h)
045E: 38 3A                             JR      C,L049A
0460: DD 7E 05                          LD      A,(IX+05h)
0463: B7                                OR      A
0464: 28 01                             JR      Z,L0467
0466: 77                                LD      (HL),A
0467: 79                         L0467: LD      A,C
0468: FE 20                             CP      20h     ; ' '
046A: DA 06 05                          JP      C,L0506
046D: FE 80                             CP      80h
046F: 30 35                             JR      NC,L04A6
0471: FE 40                             CP      40h     ; '@'
0473: 38 08                             JR      C,L047D
0475: D6 40                             SUB     40h     ; '@'
0477: FE 20                             CP      20h     ; ' '
0479: 38 02                             JR      C,L047D
047B: D6 20                             SUB     20h     ; ' '
047D: CD 41 05                   L047D: CALL    L0541
0480: 7C                         L0480: LD      A,H
0481: E6 03                             AND     03h
0483: F6 3C                             OR      3Ch     ; '<'
0485: 67                                LD      H,A
0486: 56                                LD      D,(HL)
0487: DD 7E 05                          LD      A,(IX+05h)
048A: B7                                OR      A
048B: 28 05                             JR      Z,L0492
048D: DD 72 05                          LD      (IX+05h),D
0490: 36 5F                             LD      (HL),5Fh        ; '_'
0492: DD 75 03                   L0492: LD      (IX+03h),L
0495: DD 74 04                          LD      (IX+04h),H
0498: 79                                LD      A,C
0499: C9                                RET

049A: DD 7E 05                   L049A: LD      A,(IX+05h)
049D: B7                                OR      A
049E: C0                                RET     NZ
049F: 7E                                LD      A,(HL)
04A0: C9                                RET

04A1: 7D                         L04A1: LD      A,L
04A2: E6 C0                             AND     0C0h
04A4: 6F                                LD      L,A
04A5: C9                                RET

04A6: FE C0                      L04A6: CP      0C0h
04A8: 38 D3                             JR      C,L047D
04AA: D6 C0                             SUB     0C0h
04AC: 28 D2                             JR      Z,L0480
04AE: 47                                LD      B,A
04AF: 3E 20                      L04AF: LD      A,20h   ; ' '
04B1: CD 41 05                          CALL    L0541
04B4: 10 F9                             DJNZ    L04AF
04B6: 18 C8                             JR      L0480

04B8: 7E                         L04B8: LD      A,(HL)
04B9: DD 77 05                   L04B9: LD      (IX+05h),A
04BC: C9                                RET

04BD: AF                         L04BD: XOR     A
04BE: 18 F9                             JR      L04B9

04C0: 21 00 3C                   L04C0: LD      HL,3C00h
04C3: 3A 3D 40                          LD      A,(403Dh)
04C6: E6 F7                             AND     0F7h
04C8: 32 3D 40                          LD      (403Dh),A
04CB: D3 FF                             OUT     (0FFh),A
04CD: C9                                RET

04CE: 2B                         L04CE: DEC     HL
04CF: 3A 3D 40                          LD      A,(403Dh)
04D2: E6 08                             AND     08h
04D4: 28 01                             JR      Z,L04D7
04D6: 2B                                DEC     HL
04D7: 36 20                      L04D7: LD      (HL),20h        ; ' '
04D9: C9                                RET

04DA: 3A 3D 40                   L04DA: LD      A,(403Dh)
04DD: E6 08                             AND     08h
04DF: C4 E2 04                          CALL    NZ,L04E2
                                        ; --- START PROC L04E2 ---
04E2: 7D                         L04E2: LD      A,L
04E3: E6 3F                             AND     3Fh     ; '?'
04E5: 2B                                DEC     HL
04E6: C0                                RET     NZ
04E7: 11 40 00                   L04E7: LD      DE,0040h
04EA: 19                                ADD     HL,DE
04EB: C9                                RET

04EC: 23                         L04EC: INC     HL
04ED: 7D                                LD      A,L
04EE: E6 3F                             AND     3Fh     ; '?'
04F0: C0                                RET     NZ
04F1: 11 C0 FF                   L04F1: LD      DE,0FFC0h
04F4: 19                                ADD     HL,DE
04F5: C9                                RET

04F6: 3A 3D 40                   L04F6: LD      A,(403Dh)
04F9: F6 08                             OR      08h
04FB: 32 3D 40                          LD      (403Dh),A
04FE: D3 FF                             OUT     (0FFh),A
0500: 23                                INC     HL
0501: 7D                                LD      A,L
0502: E6 FE                             AND     0FEh
0504: 6F                                LD      L,A
0505: C9                                RET

0506: 11 80 04                   L0506: LD      DE,0480h
0509: D5                                PUSH    DE
050A: FE 08                             CP      08h
050C: 28 C0                             JR      Z,L04CE
050E: FE 0A                             CP      0Ah
0510: D8                                RET     C
0511: FE 0E                             CP      0Eh
0513: 38 4F                             JR      C,L0564
0515: 28 A1                             JR      Z,L04B8
0517: FE 0F                             CP      0Fh
0519: 28 A2                             JR      Z,L04BD
051B: FE 17                             CP      17h
051D: 28 D7                             JR      Z,L04F6
051F: FE 18                             CP      18h
0521: 28 B7                             JR      Z,L04DA
0523: FE 19                             CP      19h
0525: 28 C5                             JR      Z,L04EC
0527: FE 1A                             CP      1Ah
0529: 28 BC                             JR      Z,L04E7
052B: FE 1B                             CP      1Bh
052D: 28 C2                             JR      Z,L04F1
052F: FE 1C                             CP      1Ch
0531: 28 8D                             JR      Z,L04C0
0533: FE 1D                             CP      1Dh
0535: CA A1 04                          JP      Z,L04A1
0538: FE 1E                             CP      1Eh
053A: 28 37                             JR      Z,L0573
053C: FE 1F                             CP      1Fh
053E: 28 3C                             JR      Z,L057C
0540: C9                                RET

                                        ; --- START PROC L0541 ---
0541: 77                         L0541: LD      (HL),A
0542: 23                                INC     HL
0543: 3A 3D 40                          LD      A,(403Dh)
0546: E6 08                             AND     08h
0548: 28 01                             JR      Z,L054B
054A: 23                                INC     HL
054B: 7C                         L054B: LD      A,H
054C: FE 40                             CP      40h     ; '@'
054E: C0                                RET     NZ
054F: 11 C0 FF                          LD      DE,0FFC0h
0552: 19                                ADD     HL,DE
0553: E5                                PUSH    HL
0554: 11 00 3C                   L0554: LD      DE,3C00h
0557: 21 40 3C                          LD      HL,3C40h
055A: C5                                PUSH    BC
055B: 01 C0 03                          LD      BC,03C0h
055E: ED B0                             LDIR
0560: C1                                POP     BC
0561: EB                                EX      DE,HL
0562: 18 19                             JR      L057D

0564: 7D                         L0564: LD      A,L
0565: E6 C0                             AND     0C0h
0567: 6F                                LD      L,A
0568: E5                                PUSH    HL
0569: 11 40 00                          LD      DE,0040h
056C: 19                                ADD     HL,DE
056D: 7C                                LD      A,H
056E: FE 40                             CP      40h     ; '@'
0570: 28 E2                             JR      Z,L0554
0572: D1                                POP     DE
0573: E5                         L0573: PUSH    HL
0574: 54                                LD      D,H
0575: 7D                                LD      A,L
0576: F6 3F                             OR      3Fh     ; '?'
0578: 5F                                LD      E,A
0579: 13                                INC     DE
057A: 18 04                             JR      L0580

057C: E5                         L057C: PUSH    HL
057D: 11 00 40                   L057D: LD      DE,4000h
0580: 36 20                      L0580: LD      (HL),20h        ; ' '
0582: 23                                INC     HL
0583: 7C                                LD      A,H
0584: BA                                CP      D
0585: 20 F9                             JR      NZ,L0580
0587: 7D                                LD      A,L
0588: BB                                CP      E
0589: 20 F5                             JR      NZ,L0580
058B: E1                                POP     HL
058C: C9                                RET

058D: 79                         L058D: LD      A,C
058E: B7                                OR      A
058F: 28 40                             JR      Z,L05D1
0591: FE 0B                             CP      0Bh
0593: 28 0A                             JR      Z,L059F
0595: FE 0C                             CP      0Ch
0597: 20 1B                             JR      NZ,L05B4
0599: AF                                XOR     A
059A: DD B6 03                          OR      (IX+03h)
059D: 28 15                             JR      Z,L05B4
059F: DD 7E 03                   L059F: LD      A,(IX+03h)
05A2: DD 96 04                          SUB     (IX+04h)
05A5: 47                                LD      B,A
05A6: CD D1 05                   L05A6: CALL    L05D1
05A9: 20 FB                             JR      NZ,L05A6
05AB: 3E 0A                             LD      A,0Ah
05AD: 32 E8 37                          LD      (37E8h),A
05B0: 10 F4                             DJNZ    L05A6
05B2: 18 18                             JR      L05CC

05B4: F5                         L05B4: PUSH    AF
05B5: CD D1 05                   L05B5: CALL    L05D1
05B8: 20 FB                             JR      NZ,L05B5
05BA: F1                                POP     AF
05BB: 32 E8 37                          LD      (37E8h),A
05BE: FE 0D                             CP      0Dh
05C0: C0                                RET     NZ
05C1: DD 34 04                          INC     (IX+04h)
05C4: DD 7E 04                          LD      A,(IX+04h)
05C7: DD BE 03                          CP      (IX+03h)
05CA: 79                                LD      A,C
05CB: C0                                RET     NZ
05CC: DD 36 04 00                L05CC: LD      (IX+04h),00h
05D0: C9                                RET

                                        ; --- START PROC L05D1 ---
05D1: 3A E8 37                   L05D1: LD      A,(37E8h)
05D4: E6 F0                             AND     0F0h
05D6: FE 30                             CP      30h     ; '0'
05D8: C9                                RET

                                        ; --- START PROC L05D9 ---
05D9: E5                         L05D9: PUSH    HL
05DA: 3E 0E                             LD      A,0Eh
05DC: CD 33 00                          CALL    L0033
05DF: 48                                LD      C,B
05E0: CD 49 00                   L05E0: CALL    L0049
05E3: FE 20                             CP      20h     ; ' '
05E5: 30 25                             JR      NC,L060C
05E7: FE 0D                             CP      0Dh
05E9: CA 62 06                          JP      Z,L0662
05EC: FE 1F                             CP      1Fh
05EE: 28 29                             JR      Z,L0619
05F0: FE 01                             CP      01h
05F2: 28 6D                             JR      Z,L0661
05F4: 11 E0 05                          LD      DE,05E0h
05F7: D5                                PUSH    DE
05F8: FE 08                             CP      08h
05FA: 28 34                             JR      Z,L0630
05FC: FE 18                             CP      18h
05FE: 28 2B                             JR      Z,L062B
0600: FE 09                             CP      09h
0602: 28 42                             JR      Z,L0646
0604: FE 19                             CP      19h
0606: 28 39                             JR      Z,L0641
0608: FE 0A                             CP      0Ah
060A: C0                                RET     NZ
060B: D1                                POP     DE
060C: 77                         L060C: LD      (HL),A
060D: 78                                LD      A,B
060E: B7                                OR      A
060F: 28 CF                             JR      Z,L05E0
0611: 7E                                LD      A,(HL)
0612: 23                                INC     HL
0613: CD 33 00                          CALL    L0033
0616: 05                                DEC     B
0617: 18 C7                             JR      L05E0

0619: CD C9 01                   L0619: CALL    L01C9
061C: 41                                LD      B,C
061D: E1                                POP     HL
061E: E5                                PUSH    HL
061F: C3 E0 05                          JP      L05E0

0622: CD 30 06                   L0622: CALL    L0630
0625: 2B                                DEC     HL
0626: 7E                                LD      A,(HL)
0627: 23                                INC     HL
0628: FE 0A                             CP      0Ah
062A: C8                                RET     Z
062B: 78                         L062B: LD      A,B
062C: B9                                CP      C
062D: 20 F3                             JR      NZ,L0622
062F: C9                                RET

                                        ; --- START PROC L0630 ---
0630: 78                         L0630: LD      A,B
0631: B9                                CP      C
0632: C8                                RET     Z
0633: 2B                                DEC     HL
0634: 7E                                LD      A,(HL)
0635: FE 0A                             CP      0Ah
0637: 23                                INC     HL
0638: C8                                RET     Z
0639: 2B                                DEC     HL
063A: 3E 08                             LD      A,08h
063C: CD 33 00                          CALL    L0033
063F: 04                                INC     B
0640: C9                                RET

                                        ; --- START PROC L0641 ---
0641: 3E 17                      L0641: LD      A,17h
0643: C3 33 00                          JP      L0033

                                        ; --- START PROC L0646 ---
0646: CD 48 03                   L0646: CALL    L0348
0649: E6 07                             AND     07h
064B: 2F                                CPL
064C: 3C                                INC     A
064D: C6 08                             ADD     A,08h
064F: 5F                                LD      E,A
0650: 78                         L0650: LD      A,B
0651: B7                                OR      A
0652: C8                                RET     Z
0653: 3E 20                             LD      A,20h   ; ' '
0655: 77                                LD      (HL),A
0656: 23                                INC     HL
0657: D5                                PUSH    DE
0658: CD 33 00                          CALL    L0033
065B: D1                                POP     DE
065C: 05                                DEC     B
065D: 1D                                DEC     E
065E: C8                                RET     Z
065F: 18 EF                             JR      L0650

                                        ; --- START PROC L0661 ---
0661: 37                         L0661: SCF
                                        ; --- START PROC L0662 ---
0662: F5                         L0662: PUSH    AF
0663: 3E 0D                             LD      A,0Dh
0665: 77                                LD      (HL),A
0666: CD 33 00                          CALL    L0033
0669: 3E 0F                             LD      A,0Fh
066B: CD 33 00                          CALL    L0033
066E: 79                                LD      A,C
066F: 90                                SUB     B
0670: 47                                LD      B,A
0671: F1                                POP     AF
0672: E1                                POP     HL
0673: C9                                RET

                                        ; --- START PROC L0674 ---
0674: D3 FF                      L0674: OUT     (0FFh),A
0676: 21 D2 06                   L0676: LD      HL,06D2h
0679: 11 00 40                          LD      DE,4000h
067C: 01 36 00                          LD      BC,0036h
067F: ED B0                             LDIR
0681: 3D                                DEC     A
0682: 3D                                DEC     A
0683: 20 F1                             JR      NZ,L0676
0685: 06 27                             LD      B,27h   ; '''
0687: 12                         L0687: LD      (DE),A
0688: 13                                INC     DE
0689: 10 FC                             DJNZ    L0687
068B: 3A 40 38                          LD      A,(3840h)
068E: E6 04                             AND     04h
0690: C2 75 00                          JP      NZ,L0075
0693: 31 7D 40                          LD      SP,407Dh
0696: 3A EC 37                          LD      A,(37ECh)
0699: 3C                                INC     A
069A: FE 02                             CP      02h
069C: DA 75 00                          JP      C,L0075
069F: 3E 01                      L069F: LD      A,01h
06A1: 32 E1 37                          LD      (37E1h),A
06A4: 21 EC 37                          LD      HL,37ECh
06A7: 11 EF 37                          LD      DE,37EFh
06AA: 36 03                             LD      (HL),03h
06AC: 01 00 00                          LD      BC,0000h
06AF: CD 60 00                          CALL    L0060
06B2: CB 46                      L06B2: BIT     0,(HL)
06B4: 20 FC                             JR      NZ,L06B2
06B6: AF                                XOR     A
06B7: 32 EE 37                          LD      (37EEh),A
06BA: 01 00 42                          LD      BC,4200h
06BD: 3E 8C                             LD      A,8Ch
06BF: 77                                LD      (HL),A
06C0: CB 4E                      L06C0: BIT     1,(HL)
06C2: 28 FC                             JR      Z,L06C0
06C4: 1A                                LD      A,(DE)
06C5: 02                                LD      (BC),A
06C6: 0C                                INC     C
06C7: 20 F7                             JR      NZ,L06C0
06C9: C3 00 42                          JP      4200h

06CC: 01 18 1A                   L06CC: LD      BC,1A18h
06CF: C3 AE 19                          JP      L19AE

06D2: C3 96 1C                   L06D2: JP      L1C96

06D5: C3 78 1D                   L06D5: JP      L1D78

06D8: C3 90 1C                   L06D8: JP      L1C90

06DB: C3 D9 25                   L06DB: JP      L25D9

06DE: C9                         L06DE: RET

06DF: 00                         L06DF: NOP
06E0: 00                                NOP
06E1: C9                                RET

06E2: 00                         L06E2: NOP
06E3: 00                                NOP
06E4: FB                                EI
06E5: C9                                RET

06E6: 00                         L06E6: NOP
06E7: 01 E3 03                          LD      BC,03E3h
06EA: 00                                NOP
06EB: 00                                NOP
06EC: 00                                NOP
06ED: 4B                                LD      C,E
06EE: 49                                LD      C,C
06EF: 07                                RLCA
06F0: 58                                LD      E,B
06F1: 04                                INC     B
06F2: 00                                NOP
06F3: 3C                                INC     A
06F4: 00                                NOP
06F5: 44                                LD      B,H
06F6: 4F                                LD      C,A
06F7: 06 8D                             LD      B,8Dh
06F9: 05                                DEC     B
06FA: 43                                LD      B,E
06FB: 00                                NOP
06FC: 00                                NOP
06FD: 50                                LD      D,B
06FE: 52                                LD      D,D
06FF: C3 00 50                          JP      5000h

0702: C7                         L0702: RST     0x00
0703: 00                                NOP
0704: 00                                NOP
0705: 3E 00                             LD      A,00h
0707: C9                                RET

                                        ; --- START PROC L0708 ---
0708: 21 80 13                   L0708: LD      HL,1380h
                                        ; --- START PROC L070B ---
070B: CD C2 09                   L070B: CALL    L09C2
070E: 18 06                             JR      L0716

                                        ; --- START PROC L0710 ---
0710: CD C2 09                   L0710: CALL    L09C2
                                        ; --- START PROC L0713 ---
0713: CD 82 09                   L0713: CALL    L0982
                                        ; --- START PROC L0716 ---
0716: 78                         L0716: LD      A,B
0717: B7                                OR      A
0718: C8                                RET     Z
0719: 3A 24 41                          LD      A,(4124h)
071C: B7                                OR      A
071D: CA B4 09                          JP      Z,L09B4
0720: 90                                SUB     B
0721: 30 0C                             JR      NC,L072F
0723: 2F                                CPL
0724: 3C                                INC     A
0725: EB                                EX      DE,HL
0726: CD A4 09                          CALL    L09A4
0729: EB                                EX      DE,HL
072A: CD B4 09                          CALL    L09B4
072D: C1                                POP     BC
072E: D1                                POP     DE
072F: FE 19                      L072F: CP      19h
0731: D0                                RET     NC
0732: F5                                PUSH    AF
0733: CD DF 09                          CALL    L09DF
0736: 67                                LD      H,A
0737: F1                                POP     AF
0738: CD D7 07                          CALL    L07D7
073B: B4                                OR      H
073C: 21 21 41                          LD      HL,4121h
073F: F2 54 07                          JP      P,L0754
0742: CD B7 07                          CALL    L07B7
0745: D2 96 07                          JP      NC,L0796
0748: 23                                INC     HL
0749: 34                                INC     (HL)
074A: CA B2 07                          JP      Z,L07B2
074D: 2E 01                             LD      L,01h
074F: CD EB 07                          CALL    L07EB
0752: 18 42                             JR      L0796

0754: AF                         L0754: XOR     A
0755: 90                                SUB     B
0756: 47                                LD      B,A
0757: 7E                                LD      A,(HL)
0758: 9B                                SBC     A,E
0759: 5F                                LD      E,A
075A: 23                                INC     HL
075B: 7E                                LD      A,(HL)
075C: 9A                                SBC     A,D
075D: 57                                LD      D,A
075E: 23                                INC     HL
075F: 7E                                LD      A,(HL)
0760: 99                                SBC     A,C
0761: 4F                                LD      C,A
                                        ; --- START PROC L0762 ---
0762: DC C3 07                   L0762: CALL    C,L07C3
                                        ; --- START PROC L0765 ---
0765: 68                         L0765: LD      L,B
0766: 63                                LD      H,E
0767: AF                                XOR     A
0768: 47                         L0768: LD      B,A
0769: 79                                LD      A,C
076A: B7                                OR      A
076B: 20 18                             JR      NZ,L0785
076D: 4A                                LD      C,D
076E: 54                                LD      D,H
076F: 65                                LD      H,L
0770: 6F                                LD      L,A
0771: 78                                LD      A,B
0772: D6 08                             SUB     08h
0774: FE E0                             CP      0E0h
0776: 20 F0                             JR      NZ,L0768
                                        ; --- START PROC L0778 ---
0778: AF                         L0778: XOR     A
0779: 32 24 41                   L0779: LD      (4124h),A
077C: C9                                RET

                                        ; --- START PROC L077D ---
077D: 05                         L077D: DEC     B
077E: 29                                ADD     HL,HL
077F: 7A                                LD      A,D
0780: 17                                RLA
0781: 57                                LD      D,A
0782: 79                                LD      A,C
0783: 8F                                ADC     A,A
0784: 4F                                LD      C,A
                                        ; --- START PROC L0785 ---
0785: F2 7D 07                   L0785: JP      P,L077D
0788: 78                                LD      A,B
0789: 5C                                LD      E,H
078A: 45                                LD      B,L
078B: B7                         L078B: OR      A
078C: 28 08                             JR      Z,L0796
078E: 21 24 41                          LD      HL,4124h
0791: 86                                ADD     A,(HL)
0792: 77                                LD      (HL),A
0793: 30 E3                             JR      NC,L0778
0795: C8                                RET     Z
                                        ; --- START PROC L0796 ---
0796: 78                         L0796: LD      A,B
                                        ; --- START PROC L0797 ---
0797: 21 24 41                   L0797: LD      HL,4124h
079A: B7                                OR      A
079B: FC A8 07                          CALL    M,L07A8
079E: 46                                LD      B,(HL)
079F: 23                                INC     HL
07A0: 7E                                LD      A,(HL)
07A1: E6 80                             AND     80h
07A3: A9                                XOR     C
07A4: 4F                                LD      C,A
07A5: C3 B4 09                          JP      L09B4

                                        ; --- START PROC L07A8 ---
07A8: 1C                         L07A8: INC     E
07A9: C0                                RET     NZ
07AA: 14                                INC     D
07AB: C0                                RET     NZ
07AC: 0C                                INC     C
07AD: C0                                RET     NZ
07AE: 0E 80                             LD      C,80h
07B0: 34                                INC     (HL)
07B1: C0                                RET     NZ
                                        ; --- START PROC L07B2 ---
07B2: 1E 0A                      L07B2: LD      E,0Ah
07B4: C3 A2 19                          JP      L19A2

                                        ; --- START PROC L07B7 ---
07B7: 7E                         L07B7: LD      A,(HL)
07B8: 83                                ADD     A,E
07B9: 5F                                LD      E,A
07BA: 23                                INC     HL
07BB: 7E                                LD      A,(HL)
07BC: 8A                                ADC     A,D
07BD: 57                                LD      D,A
07BE: 23                                INC     HL
07BF: 7E                                LD      A,(HL)
07C0: 89                                ADC     A,C
07C1: 4F                                LD      C,A
07C2: C9                                RET

                                        ; --- START PROC L07C3 ---
07C3: 21 25 41                   L07C3: LD      HL,4125h
07C6: 7E                                LD      A,(HL)
07C7: 2F                                CPL
07C8: 77                                LD      (HL),A
07C9: AF                                XOR     A
07CA: 6F                                LD      L,A
07CB: 90                                SUB     B
07CC: 47                                LD      B,A
07CD: 7D                                LD      A,L
07CE: 9B                                SBC     A,E
07CF: 5F                                LD      E,A
07D0: 7D                                LD      A,L
07D1: 9A                                SBC     A,D
07D2: 57                                LD      D,A
07D3: 7D                                LD      A,L
07D4: 99                                SBC     A,C
07D5: 4F                                LD      C,A
07D6: C9                                RET

                                        ; --- START PROC L07D7 ---
07D7: 06 00                      L07D7: LD      B,00h
07D9: D6 08                      L07D9: SUB     08h
07DB: 38 07                             JR      C,L07E4
07DD: 43                                LD      B,E
07DE: 5A                                LD      E,D
07DF: 51                                LD      D,C
07E0: 0E 00                             LD      C,00h
07E2: 18 F5                             JR      L07D9

07E4: C6 09                      L07E4: ADD     A,09h
07E6: 6F                                LD      L,A
                                        ; --- START PROC L07E7 ---
07E7: AF                         L07E7: XOR     A
07E8: 2D                                DEC     L
07E9: C8                                RET     Z
07EA: 79                                LD      A,C
                                        ; --- START PROC L07EB ---
07EB: 1F                         L07EB: RRA
07EC: 4F                                LD      C,A
07ED: 7A                                LD      A,D
07EE: 1F                                RRA
07EF: 57                                LD      D,A
07F0: 7B                                LD      A,E
07F1: 1F                                RRA
07F2: 5F                                LD      E,A
07F3: 78                                LD      A,B
07F4: 1F                                RRA
07F5: 47                                LD      B,A
07F6: 18 EF                             JR      L07E7

07F8: 00                         L07F8: NOP
07F9: 00                                NOP
07FA: 00                                NOP
07FB: 81                                ADD     A,C
07FC: 03                                INC     BC
07FD: AA                                XOR     D
07FE: 56                                LD      D,(HL)
07FF: 19                                ADD     HL,DE
0800: 80                                ADD     A,B
0801: F1                                POP     AF
0802: 22 76 80                          LD      (8076h),HL
0805: 45                                LD      B,L
0806: AA                                XOR     D
0807: 38 82                             JR      C,L078B
                                        ; --- START PROC L0809 ---
0809: CD 55 09                   L0809: CALL    L0955
080C: B7                                OR      A
080D: EA 4A 1E                          JP      PE,L1E4A
0810: 21 24 41                          LD      HL,4124h
0813: 7E                                LD      A,(HL)
0814: 01 35 80                          LD      BC,8035h
0817: 11 F3 04                          LD      DE,04F3h
081A: 90                                SUB     B
081B: F5                                PUSH    AF
081C: 70                                LD      (HL),B
081D: D5                                PUSH    DE
081E: C5                                PUSH    BC
081F: CD 16 07                          CALL    L0716
0822: C1                                POP     BC
0823: D1                                POP     DE
0824: 04                                INC     B
0825: CD A2 08                          CALL    L08A2
0828: 21 F8 07                          LD      HL,07F8h
082B: CD 10 07                          CALL    L0710
082E: 21 FC 07                          LD      HL,07FCh
0831: CD 9A 14                          CALL    L149A
0834: 01 80 80                          LD      BC,8080h
0837: 11 00 00                          LD      DE,0000h
083A: CD 16 07                          CALL    L0716
083D: F1                                POP     AF
083E: CD 89 0F                          CALL    L0F89
                                        ; --- START PROC L0841 ---
0841: 01 31 80                   L0841: LD      BC,8031h
0844: 11 18 72                          LD      DE,7218h
                                        ; --- START PROC L0847 ---
0847: CD 55 09                   L0847: CALL    L0955
084A: C8                                RET     Z
084B: 2E 00                             LD      L,00h
084D: CD 14 09                          CALL    L0914
0850: 79                                LD      A,C
0851: 32 4F 41                          LD      (414Fh),A
0854: EB                                EX      DE,HL
0855: 22 50 41                          LD      (4150h),HL
0858: 01 00 00                          LD      BC,0000h
085B: 50                                LD      D,B
085C: 58                                LD      E,B
085D: 21 65 07                          LD      HL,0765h
0860: E5                                PUSH    HL
0861: 21 69 08                          LD      HL,0869h
0864: E5                                PUSH    HL
0865: E5                                PUSH    HL
0866: 21 21 41                          LD      HL,4121h
0869: 7E                                LD      A,(HL)
086A: 23                                INC     HL
086B: B7                                OR      A
086C: 28 24                             JR      Z,L0892
086E: E5                                PUSH    HL
086F: 2E 08                             LD      L,08h
0871: 1F                         L0871: RRA
0872: 67                                LD      H,A
0873: 79                                LD      A,C
0874: 30 0B                             JR      NC,L0881
0876: E5                                PUSH    HL
0877: 2A 50 41                          LD      HL,(4150h)
087A: 19                                ADD     HL,DE
087B: EB                                EX      DE,HL
087C: E1                                POP     HL
087D: 3A 4F 41                          LD      A,(414Fh)
0880: 89                                ADC     A,C
0881: 1F                         L0881: RRA
0882: 4F                                LD      C,A
0883: 7A                                LD      A,D
0884: 1F                                RRA
0885: 57                                LD      D,A
0886: 7B                                LD      A,E
0887: 1F                                RRA
0888: 5F                                LD      E,A
0889: 78                                LD      A,B
088A: 1F                                RRA
088B: 47                                LD      B,A
088C: 2D                                DEC     L
088D: 7C                                LD      A,H
088E: 20 E1                             JR      NZ,L0871
                                        ; --- START PROC L0890 ---
0890: E1                         L0890: POP     HL
0891: C9                                RET

                                        ; --- START PROC L0892 ---
0892: 43                         L0892: LD      B,E
0893: 5A                                LD      E,D
0894: 51                                LD      D,C
0895: 4F                                LD      C,A
0896: C9                                RET

                                        ; --- START PROC L0897 ---
0897: CD A4 09                   L0897: CALL    L09A4
089A: 21 D8 0D                          LD      HL,0DD8h
089D: CD B1 09                          CALL    L09B1
08A0: C1                         L08A0: POP     BC
08A1: D1                                POP     DE
                                        ; --- START PROC L08A2 ---
08A2: CD 55 09                   L08A2: CALL    L0955
08A5: CA 9A 19                          JP      Z,L1999+1       ; reference not aligned to instruction
08A8: 2E FF                             LD      L,0FFh
08AA: CD 14 09                          CALL    L0914
08AD: 34                                INC     (HL)
08AE: 34                                INC     (HL)
08AF: 2B                                DEC     HL
08B0: 7E                                LD      A,(HL)
08B1: 32 89 40                          LD      (4089h),A
08B4: 2B                                DEC     HL
08B5: 7E                                LD      A,(HL)
08B6: 32 85 40                          LD      (4085h),A
08B9: 2B                                DEC     HL
08BA: 7E                                LD      A,(HL)
08BB: 32 81 40                          LD      (4081h),A
08BE: 41                                LD      B,C
08BF: EB                                EX      DE,HL
08C0: AF                                XOR     A
08C1: 4F                                LD      C,A
08C2: 57                                LD      D,A
08C3: 5F                                LD      E,A
08C4: 32 8C 40                          LD      (408Ch),A
08C7: E5                         L08C7: PUSH    HL
08C8: C5                                PUSH    BC
08C9: 7D                                LD      A,L
08CA: CD 80 40                          CALL    4080h
08CD: DE 00                             SBC     A,00h
08CF: 3F                                CCF
08D0: 30 07                             JR      NC,L08D8+1      ; reference not aligned to instruction
08D2: 32 8C 40                          LD      (408Ch),A
08D5: F1                                POP     AF
08D6: F1                                POP     AF
08D7: 37                                SCF
08D8: D2 C1 E1                   L08D8: JP      NC,0E1C1h
08DB: 79                                LD      A,C
08DC: 3C                                INC     A
08DD: 3D                                DEC     A
08DE: 1F                                RRA
08DF: FA 97 07                          JP      M,L0797
08E2: 17                                RLA
08E3: 7B                                LD      A,E
08E4: 17                                RLA
08E5: 5F                                LD      E,A
08E6: 7A                                LD      A,D
08E7: 17                                RLA
08E8: 57                                LD      D,A
08E9: 79                                LD      A,C
08EA: 17                                RLA
08EB: 4F                                LD      C,A
08EC: 29                                ADD     HL,HL
08ED: 78                                LD      A,B
08EE: 17                                RLA
08EF: 47                                LD      B,A
08F0: 3A 8C 40                          LD      A,(408Ch)
08F3: 17                                RLA
08F4: 32 8C 40                          LD      (408Ch),A
08F7: 79                                LD      A,C
08F8: B2                                OR      D
08F9: B3                                OR      E
08FA: 20 CB                             JR      NZ,L08C7
08FC: E5                                PUSH    HL
08FD: 21 24 41                          LD      HL,4124h
0900: 35                                DEC     (HL)
0901: E1                                POP     HL
0902: 20 C3                             JR      NZ,L08C7
0904: C3 B2 07                          JP      L07B2

                                        ; --- START PROC L0907 ---
0907: 3E FF                      L0907: LD      A,0FFh
0909: 2E AF                      L0909: LD      L,0AFh
090B: 21 2D 41                          LD      HL,412Dh
090E: 4E                                LD      C,(HL)
090F: 23                                INC     HL
0910: AE                                XOR     (HL)
0911: 47                                LD      B,A
0912: 2E 00                             LD      L,00h
                                        ; --- START PROC L0914 ---
0914: 78                         L0914: LD      A,B
0915: B7                                OR      A
0916: 28 1F                             JR      Z,L0937
0918: 7D                                LD      A,L
0919: 21 24 41                          LD      HL,4124h
091C: AE                                XOR     (HL)
091D: 80                                ADD     A,B
091E: 47                                LD      B,A
091F: 1F                                RRA
0920: A8                                XOR     B
0921: 78                                LD      A,B
0922: F2 36 09                          JP      P,L0936
0925: C6 80                             ADD     A,80h
0927: 77                                LD      (HL),A
0928: CA 90 08                          JP      Z,L0890
092B: CD DF 09                          CALL    L09DF
092E: 77                                LD      (HL),A
                                        ; --- START PROC L092F ---
092F: 2B                         L092F: DEC     HL
0930: C9                                RET

0931: CD 55 09                   L0931: CALL    L0955
0934: 2F                                CPL
0935: E1                                POP     HL
                                        ; --- START PROC L0936 ---
0936: B7                         L0936: OR      A
                                        ; --- START PROC L0937 ---
0937: E1                         L0937: POP     HL
0938: F2 78 07                          JP      P,L0778
093B: C3 B2 07                          JP      L07B2

                                        ; --- START PROC L093E ---
093E: CD BF 09                   L093E: CALL    L09BF
0941: 78                                LD      A,B
0942: B7                                OR      A
0943: C8                                RET     Z
0944: C6 02                             ADD     A,02h
0946: DA B2 07                          JP      C,L07B2
0949: 47                                LD      B,A
094A: CD 16 07                          CALL    L0716
094D: 21 24 41                          LD      HL,4124h
0950: 34                                INC     (HL)
0951: C0                                RET     NZ
0952: C3 B2 07                          JP      L07B2

                                        ; --- START PROC L0955 ---
0955: 3A 24 41                   L0955: LD      A,(4124h)
0958: B7                                OR      A
0959: C8                                RET     Z
095A: 3A 23 41                          LD      A,(4123h)
095D: FE 2F                      L095D: CP      2Fh     ; '/'
                                        ; --- START PROC L095F ---
095F: 17                         L095F: RLA
                                        ; --- START PROC L0960 ---
0960: 9F                         L0960: SBC     A,A
0961: C0                                RET     NZ
0962: 3C                                INC     A
0963: C9                                RET

                                        ; --- START PROC L0964 ---
0964: 06 88                      L0964: LD      B,88h
0966: 11 00 00                          LD      DE,0000h
                                        ; --- START PROC L0969 ---
0969: 21 24 41                   L0969: LD      HL,4124h
096C: 4F                                LD      C,A
096D: 70                                LD      (HL),B
096E: 06 00                             LD      B,00h
0970: 23                                INC     HL
0971: 36 80                             LD      (HL),80h
0973: 17                                RLA
0974: C3 62 07                          JP      L0762

0977: CD 94 09                   L0977: CALL    L0994
097A: F0                                RET     P
                                        ; --- START PROC L097B ---
097B: E7                         L097B: RST     0x20
097C: FA 5B 0C                          JP      M,L0C5B
097F: CA F6 0A                          JP      Z,L0AF6
                                        ; --- START PROC L0982 ---
0982: 21 23 41                   L0982: LD      HL,4123h
0985: 7E                                LD      A,(HL)
0986: EE 80                             XOR     80h
0988: 77                                LD      (HL),A
0989: C9                                RET

098A: CD 94 09                   L098A: CALL    L0994
                                        ; --- START PROC L098D ---
098D: 6F                         L098D: LD      L,A
098E: 17                                RLA
098F: 9F                                SBC     A,A
0990: 67                                LD      H,A
0991: C3 9A 0A                          JP      L0A9A

                                        ; --- START PROC L0994 ---
0994: E7                         L0994: RST     0x20
0995: CA F6 0A                          JP      Z,L0AF6
0998: F2 55 09                          JP      P,L0955
099B: 2A 21 41                          LD      HL,(4121h)
                                        ; --- START PROC L099E ---
099E: 7C                         L099E: LD      A,H
099F: B5                                OR      L
09A0: C8                                RET     Z
09A1: 7C                                LD      A,H
09A2: 18 BB                             JR      L095F

                                        ; --- START PROC L09A4 ---
09A4: EB                         L09A4: EX      DE,HL
09A5: 2A 21 41                          LD      HL,(4121h)
09A8: E3                                EX      (SP),HL
09A9: E5                                PUSH    HL
09AA: 2A 23 41                          LD      HL,(4123h)
09AD: E3                                EX      (SP),HL
09AE: E5                                PUSH    HL
09AF: EB                                EX      DE,HL
09B0: C9                                RET

                                        ; --- START PROC L09B1 ---
09B1: CD C2 09                   L09B1: CALL    L09C2
                                        ; --- START PROC L09B4 ---
09B4: EB                         L09B4: EX      DE,HL
09B5: 22 21 41                          LD      (4121h),HL
09B8: 60                                LD      H,B
09B9: 69                                LD      L,C
09BA: 22 23 41                          LD      (4123h),HL
09BD: EB                                EX      DE,HL
09BE: C9                                RET

                                        ; --- START PROC L09BF ---
09BF: 21 21 41                   L09BF: LD      HL,4121h
                                        ; --- START PROC L09C2 ---
09C2: 5E                         L09C2: LD      E,(HL)
09C3: 23                                INC     HL
                                        ; --- START PROC L09C4 ---
09C4: 56                         L09C4: LD      D,(HL)
09C5: 23                                INC     HL
09C6: 4E                                LD      C,(HL)
09C7: 23                                INC     HL
09C8: 46                                LD      B,(HL)
                                        ; --- START PROC L09C9 ---
09C9: 23                         L09C9: INC     HL
09CA: C9                                RET

                                        ; --- START PROC L09CB ---
09CB: 11 21 41                   L09CB: LD      DE,4121h
09CE: 06 04                             LD      B,04h
09D0: 18 05                             JR      L09D7

09D2: EB                         L09D2: EX      DE,HL
                                        ; --- START PROC L09D3 ---
09D3: 3A AF 40                   L09D3: LD      A,(40AFh)
09D6: 47                                LD      B,A
                                        ; --- START PROC L09D7 ---
09D7: 1A                         L09D7: LD      A,(DE)
09D8: 77                                LD      (HL),A
09D9: 13                                INC     DE
09DA: 23                                INC     HL
09DB: 05                                DEC     B
09DC: 20 F9                             JR      NZ,L09D7
09DE: C9                                RET

                                        ; --- START PROC L09DF ---
09DF: 21 23 41                   L09DF: LD      HL,4123h
09E2: 7E                                LD      A,(HL)
09E3: 07                                RLCA
09E4: 37                                SCF
09E5: 1F                                RRA
09E6: 77                                LD      (HL),A
09E7: 3F                                CCF
09E8: 1F                                RRA
09E9: 23                                INC     HL
09EA: 23                                INC     HL
09EB: 77                                LD      (HL),A
09EC: 79                                LD      A,C
09ED: 07                                RLCA
09EE: 37                                SCF
09EF: 1F                                RRA
09F0: 4F                                LD      C,A
09F1: 1F                                RRA
09F2: AE                                XOR     (HL)
09F3: C9                                RET

                                        ; --- START PROC L09F4 ---
09F4: 21 27 41                   L09F4: LD      HL,4127h
                                        ; --- START PROC L09F7 ---
09F7: 11 D2 09                   L09F7: LD      DE,09D2h
09FA: 18 06                             JR      L0A02

                                        ; --- START PROC L09FC ---
09FC: 21 27 41                   L09FC: LD      HL,4127h
09FF: 11 D3 09                          LD      DE,09D3h
                                        ; --- START PROC L0A02 ---
0A02: D5                         L0A02: PUSH    DE
                                        ; --- START PROC L0A03 ---
0A03: 11 21 41                   L0A03: LD      DE,4121h
0A06: E7                                RST     0x20
0A07: D8                                RET     C
0A08: 11 1D 41                          LD      DE,411Dh
0A0B: C9                                RET

                                        ; --- START PROC L0A0C ---
0A0C: 78                         L0A0C: LD      A,B
0A0D: B7                                OR      A
0A0E: CA 55 09                          JP      Z,L0955
0A11: 21 5E 09                          LD      HL,095Eh
0A14: E5                                PUSH    HL
0A15: CD 55 09                          CALL    L0955
0A18: 79                                LD      A,C
0A19: C8                                RET     Z
0A1A: 21 23 41                          LD      HL,4123h
0A1D: AE                                XOR     (HL)
0A1E: 79                                LD      A,C
0A1F: F8                                RET     M
0A20: CD 26 0A                          CALL    L0A26
                                        ; --- START PROC L0A23 ---
0A23: 1F                         L0A23: RRA
0A24: A9                                XOR     C
0A25: C9                                RET

                                        ; --- START PROC L0A26 ---
0A26: 23                         L0A26: INC     HL
0A27: 78                                LD      A,B
0A28: BE                                CP      (HL)
0A29: C0                                RET     NZ
0A2A: 2B                                DEC     HL
0A2B: 79                                LD      A,C
0A2C: BE                                CP      (HL)
0A2D: C0                                RET     NZ
0A2E: 2B                                DEC     HL
0A2F: 7A                                LD      A,D
0A30: BE                                CP      (HL)
0A31: C0                                RET     NZ
0A32: 2B                                DEC     HL
0A33: 7B                                LD      A,E
0A34: 96                                SUB     (HL)
0A35: C0                                RET     NZ
0A36: E1                                POP     HL
0A37: E1                                POP     HL
0A38: C9                                RET

                                        ; --- START PROC L0A39 ---
0A39: 7A                         L0A39: LD      A,D
0A3A: AC                                XOR     H
0A3B: 7C                                LD      A,H
0A3C: FA 5F 09                          JP      M,L095F
0A3F: BA                                CP      D
0A40: C2 60 09                          JP      NZ,L0960
0A43: 7D                                LD      A,L
0A44: 93                                SUB     E
0A45: C2 60 09                          JP      NZ,L0960
0A48: C9                                RET

                                        ; --- START PROC L0A49 ---
0A49: 21 27 41                   L0A49: LD      HL,4127h
0A4C: CD D3 09                          CALL    L09D3
                                        ; --- START PROC L0A4F ---
0A4F: 11 2E 41                   L0A4F: LD      DE,412Eh
0A52: 1A                                LD      A,(DE)
0A53: B7                                OR      A
0A54: CA 55 09                          JP      Z,L0955
0A57: 21 5E 09                          LD      HL,095Eh
0A5A: E5                                PUSH    HL
0A5B: CD 55 09                          CALL    L0955
0A5E: 1B                                DEC     DE
0A5F: 1A                                LD      A,(DE)
0A60: 4F                                LD      C,A
0A61: C8                                RET     Z
0A62: 21 23 41                          LD      HL,4123h
0A65: AE                                XOR     (HL)
0A66: 79                                LD      A,C
0A67: F8                                RET     M
0A68: 13                                INC     DE
0A69: 23                                INC     HL
0A6A: 06 08                             LD      B,08h
0A6C: 1A                         L0A6C: LD      A,(DE)
0A6D: 96                                SUB     (HL)
0A6E: C2 23 0A                          JP      NZ,L0A23
0A71: 1B                                DEC     DE
0A72: 2B                                DEC     HL
0A73: 05                                DEC     B
0A74: 20 F6                             JR      NZ,L0A6C
0A76: C1                                POP     BC
0A77: C9                                RET

0A78: CD 4F 0A                   L0A78: CALL    L0A4F
0A7B: C2 5E 09                          JP      NZ,L095D+1      ; reference not aligned to instruction
0A7E: C9                                RET

                                        ; --- START PROC L0A7F ---
0A7F: E7                         L0A7F: RST     0x20
0A80: 2A 21 41                          LD      HL,(4121h)
0A83: F8                                RET     M
0A84: CA F6 0A                          JP      Z,L0AF6
0A87: D4 B9 0A                          CALL    NC,L0AB9
0A8A: 21 B2 07                          LD      HL,07B2h
0A8D: E5                                PUSH    HL
                                        ; --- START PROC L0A8E ---
0A8E: 3A 24 41                   L0A8E: LD      A,(4124h)
0A91: FE 90                             CP      90h
0A93: 30 0E                             JR      NC,L0AA3
0A95: CD FB 0A                          CALL    L0AFB
0A98: EB                                EX      DE,HL
                                        ; --- START PROC L0A99 ---
0A99: D1                         L0A99: POP     DE
                                        ; --- START PROC L0A9A ---
0A9A: 22 21 41                   L0A9A: LD      (4121h),HL
0A9D: 3E 02                             LD      A,02h
                                        ; --- START PROC L0A9F ---
0A9F: 32 AF 40                   L0A9F: LD      (40AFh),A
0AA2: C9                                RET

                                        ; --- START PROC L0AA3 ---
0AA3: 01 80 90                   L0AA3: LD      BC,9080h
0AA6: 11 00 00                          LD      DE,0000h
0AA9: CD 0C 0A                          CALL    L0A0C
0AAC: C0                                RET     NZ
0AAD: 61                                LD      H,C
0AAE: 6A                                LD      L,D
0AAF: 18 E8                             JR      L0A99

                                        ; --- START PROC L0AB1 ---
0AB1: E7                         L0AB1: RST     0x20
0AB2: E0                                RET     PO
0AB3: FA CC 0A                          JP      M,L0ACC
0AB6: CA F6 0A                          JP      Z,L0AF6
                                        ; --- START PROC L0AB9 ---
0AB9: CD BF 09                   L0AB9: CALL    L09BF
0ABC: CD EF 0A                          CALL    L0AEE+1 ; reference not aligned to instruction
0ABF: 78                                LD      A,B
0AC0: B7                                OR      A
0AC1: C8                                RET     Z
0AC2: CD DF 09                          CALL    L09DF
0AC5: 21 20 41                          LD      HL,4120h
0AC8: 46                                LD      B,(HL)
0AC9: C3 96 07                          JP      L0796

                                        ; --- START PROC L0ACC ---
0ACC: 2A 21 41                   L0ACC: LD      HL,(4121h)
                                        ; --- START PROC L0ACF ---
0ACF: CD EF 0A                   L0ACF: CALL    L0AEE+1 ; reference not aligned to instruction
0AD2: 7C                                LD      A,H
0AD3: 55                                LD      D,L
0AD4: 1E 00                             LD      E,00h
0AD6: 06 90                             LD      B,90h
0AD8: C3 69 09                          JP      L0969

                                        ; --- START PROC L0ADB ---
0ADB: E7                         L0ADB: RST     0x20
0ADC: D0                                RET     NC
0ADD: CA F6 0A                          JP      Z,L0AF6
0AE0: FC CC 0A                          CALL    M,L0ACC
                                        ; --- START PROC L0AE3 ---
0AE3: 21 00 00                   L0AE3: LD      HL,0000h
0AE6: 22 1D 41                          LD      (411Dh),HL
0AE9: 22 1F 41                          LD      (411Fh),HL
                                        ; --- START PROC L0AEC ---
0AEC: 3E 08                      L0AEC: LD      A,08h
0AEE: 01 3E 04                   L0AEE: LD      BC,043Eh
0AF1: C3 9F 0A                          JP      L0A9F

                                        ; --- START PROC L0AF4 ---
0AF4: E7                         L0AF4: RST     0x20
0AF5: C8                                RET     Z
                                        ; --- START PROC L0AF6 ---
0AF6: 1E 18                      L0AF6: LD      E,18h
0AF8: C3 A2 19                          JP      L19A2

                                        ; --- START PROC L0AFB ---
0AFB: 47                         L0AFB: LD      B,A
0AFC: 4F                                LD      C,A
0AFD: 57                                LD      D,A
0AFE: 5F                                LD      E,A
0AFF: B7                                OR      A
0B00: C8                                RET     Z
0B01: E5                                PUSH    HL
0B02: CD BF 09                          CALL    L09BF
0B05: CD DF 09                          CALL    L09DF
0B08: AE                                XOR     (HL)
0B09: 67                                LD      H,A
0B0A: FC 1F 0B                          CALL    M,L0B1F
0B0D: 3E 98                             LD      A,98h
0B0F: 90                                SUB     B
0B10: CD D7 07                          CALL    L07D7
0B13: 7C                                LD      A,H
0B14: 17                                RLA
0B15: DC A8 07                          CALL    C,L07A8
0B18: 06 00                             LD      B,00h
0B1A: DC C3 07                          CALL    C,L07C3
0B1D: E1                                POP     HL
0B1E: C9                                RET

                                        ; --- START PROC L0B1F ---
0B1F: 1B                         L0B1F: DEC     DE
0B20: 7A                                LD      A,D
0B21: A3                                AND     E
0B22: 3C                                INC     A
0B23: C0                                RET     NZ
                                        ; --- START PROC L0B24 ---
0B24: 0B                         L0B24: DEC     BC
0B25: C9                                RET

0B26: E7                         L0B26: RST     0x20
0B27: F8                                RET     M
0B28: CD 55 09                          CALL    L0955
0B2B: F2 37 0B                          JP      P,L0B37
0B2E: CD 82 09                          CALL    L0982
0B31: CD 37 0B                          CALL    L0B37
0B34: C3 7B 09                          JP      L097B

                                        ; --- START PROC L0B37 ---
0B37: E7                         L0B37: RST     0x20
0B38: F8                                RET     M
0B39: 30 1E                             JR      NC,L0B59
0B3B: 28 B9                             JR      Z,L0AF6
0B3D: CD 8E 0A                          CALL    L0A8E
                                        ; --- START PROC L0B40 ---
0B40: 21 24 41                   L0B40: LD      HL,4124h
0B43: 7E                                LD      A,(HL)
0B44: FE 98                             CP      98h
0B46: 3A 21 41                          LD      A,(4121h)
0B49: D0                                RET     NC
0B4A: 7E                                LD      A,(HL)
0B4B: CD FB 0A                          CALL    L0AFB
0B4E: 36 98                             LD      (HL),98h
0B50: 7B                                LD      A,E
0B51: F5                                PUSH    AF
0B52: 79                                LD      A,C
0B53: 17                                RLA
0B54: CD 62 07                          CALL    L0762
0B57: F1                                POP     AF
0B58: C9                                RET

                                        ; --- START PROC L0B59 ---
0B59: 21 24 41                   L0B59: LD      HL,4124h
0B5C: 7E                                LD      A,(HL)
0B5D: FE 90                             CP      90h
0B5F: DA 7F 0A                          JP      C,L0A7F
0B62: 20 14                             JR      NZ,L0B78
0B64: 4F                                LD      C,A
0B65: 2B                                DEC     HL
0B66: 7E                                LD      A,(HL)
0B67: EE 80                             XOR     80h
0B69: 06 06                             LD      B,06h
0B6B: 2B                         L0B6B: DEC     HL
0B6C: B6                                OR      (HL)
0B6D: 05                                DEC     B
0B6E: 20 FB                             JR      NZ,L0B6B
0B70: B7                                OR      A
0B71: 21 00 80                          LD      HL,8000h
0B74: CA 9A 0A                          JP      Z,L0A9A
0B77: 79                                LD      A,C
0B78: FE B8                      L0B78: CP      0B8h
0B7A: D0                                RET     NC
                                        ; --- START PROC L0B7B ---
0B7B: F5                         L0B7B: PUSH    AF
0B7C: CD BF 09                          CALL    L09BF
0B7F: CD DF 09                          CALL    L09DF
0B82: AE                                XOR     (HL)
0B83: 2B                                DEC     HL
0B84: 36 B8                             LD      (HL),0B8h
0B86: F5                                PUSH    AF
0B87: FC A0 0B                          CALL    M,L0BA0
0B8A: 21 23 41                          LD      HL,4123h
0B8D: 3E B8                             LD      A,0B8h
0B8F: 90                                SUB     B
0B90: CD 69 0D                          CALL    L0D69
0B93: F1                                POP     AF
0B94: FC 20 0D                          CALL    M,L0D20
0B97: AF                                XOR     A
0B98: 32 1C 41                          LD      (411Ch),A
0B9B: F1                                POP     AF
0B9C: D0                                RET     NC
0B9D: C3 D8 0C                          JP      L0CD8

                                        ; --- START PROC L0BA0 ---
0BA0: 21 1D 41                   L0BA0: LD      HL,411Dh
0BA3: 7E                         L0BA3: LD      A,(HL)
0BA4: 35                                DEC     (HL)
0BA5: B7                                OR      A
0BA6: 23                                INC     HL
0BA7: 28 FA                             JR      Z,L0BA3
0BA9: C9                                RET

                                        ; --- START PROC L0BAA ---
0BAA: E5                         L0BAA: PUSH    HL
0BAB: 21 00 00                          LD      HL,0000h
0BAE: 78                                LD      A,B
0BAF: B1                                OR      C
0BB0: 28 12                             JR      Z,L0BC4
0BB2: 3E 10                             LD      A,10h
0BB4: 29                         L0BB4: ADD     HL,HL
0BB5: DA 3D 27                          JP      C,L273D
0BB8: EB                                EX      DE,HL
0BB9: 29                                ADD     HL,HL
0BBA: EB                                EX      DE,HL
0BBB: 30 04                             JR      NC,L0BC1
0BBD: 09                                ADD     HL,BC
0BBE: DA 3D 27                          JP      C,L273D
0BC1: 3D                         L0BC1: DEC     A
0BC2: 20 F0                             JR      NZ,L0BB4
0BC4: EB                         L0BC4: EX      DE,HL
0BC5: E1                                POP     HL
0BC6: C9                                RET

0BC7: 7C                         L0BC7: LD      A,H
0BC8: 17                                RLA
0BC9: 9F                                SBC     A,A
0BCA: 47                                LD      B,A
0BCB: CD 51 0C                          CALL    L0C51
0BCE: 79                                LD      A,C
0BCF: 98                                SBC     A,B
0BD0: 18 03                             JR      L0BD5

                                        ; --- START PROC L0BD2 ---
0BD2: 7C                         L0BD2: LD      A,H
0BD3: 17                                RLA
0BD4: 9F                                SBC     A,A
0BD5: 47                         L0BD5: LD      B,A
0BD6: E5                                PUSH    HL
0BD7: 7A                                LD      A,D
0BD8: 17                                RLA
0BD9: 9F                                SBC     A,A
0BDA: 19                                ADD     HL,DE
0BDB: 88                                ADC     A,B
0BDC: 0F                                RRCA
0BDD: AC                                XOR     H
0BDE: F2 99 0A                          JP      P,L0A99
0BE1: C5                                PUSH    BC
0BE2: EB                                EX      DE,HL
0BE3: CD CF 0A                          CALL    L0ACF
0BE6: F1                                POP     AF
0BE7: E1                                POP     HL
0BE8: CD A4 09                          CALL    L09A4
0BEB: EB                                EX      DE,HL
0BEC: CD 6B 0C                          CALL    L0C6B
0BEF: C3 8F 0F                          JP      L0F8F

0BF2: 7C                         L0BF2: LD      A,H
0BF3: B5                                OR      L
0BF4: CA 9A 0A                          JP      Z,L0A9A
0BF7: E5                                PUSH    HL
0BF8: D5                                PUSH    DE
0BF9: CD 45 0C                          CALL    L0C45
0BFC: C5                                PUSH    BC
0BFD: 44                                LD      B,H
0BFE: 4D                                LD      C,L
0BFF: 21 00 00                          LD      HL,0000h
0C02: 3E 10                             LD      A,10h
0C04: 29                         L0C04: ADD     HL,HL
0C05: 38 1F                             JR      C,L0C25+1       ; reference not aligned to instruction
0C07: EB                                EX      DE,HL
0C08: 29                                ADD     HL,HL
0C09: EB                                EX      DE,HL
0C0A: 30 04                             JR      NC,L0C10
0C0C: 09                                ADD     HL,BC
0C0D: DA 26 0C                          JP      C,L0C25+1       ; reference not aligned to instruction
0C10: 3D                         L0C10: DEC     A
0C11: 20 F1                             JR      NZ,L0C04
0C13: C1                                POP     BC
0C14: D1                                POP     DE
0C15: 7C                                LD      A,H
0C16: B7                                OR      A
0C17: FA 1F 0C                          JP      M,L0C1F
0C1A: D1                                POP     DE
0C1B: 78                                LD      A,B
0C1C: C3 4D 0C                          JP      L0C4D

0C1F: EE 80                      L0C1F: XOR     80h
0C21: B5                                OR      L
0C22: 28 13                             JR      Z,L0C37
0C24: EB                                EX      DE,HL
0C25: 01 C1 E1                   L0C25: LD      BC,0E1C1h
0C28: CD CF 0A                          CALL    L0ACF
0C2B: E1                                POP     HL
0C2C: CD A4 09                          CALL    L09A4
0C2F: CD CF 0A                          CALL    L0ACF
0C32: C1                                POP     BC
0C33: D1                                POP     DE
0C34: C3 47 08                          JP      L0847

0C37: 78                         L0C37: LD      A,B
0C38: B7                                OR      A
0C39: C1                                POP     BC
0C3A: FA 9A 0A                          JP      M,L0A9A
0C3D: D5                                PUSH    DE
0C3E: CD CF 0A                          CALL    L0ACF
0C41: D1                                POP     DE
0C42: C3 82 09                          JP      L0982

                                        ; --- START PROC L0C45 ---
0C45: 7C                         L0C45: LD      A,H
0C46: AA                                XOR     D
0C47: 47                                LD      B,A
0C48: CD 4C 0C                          CALL    L0C4C
0C4B: EB                                EX      DE,HL
                                        ; --- START PROC L0C4C ---
0C4C: 7C                         L0C4C: LD      A,H
0C4D: B7                         L0C4D: OR      A
0C4E: F2 9A 0A                          JP      P,L0A9A
                                        ; --- START PROC L0C51 ---
0C51: AF                         L0C51: XOR     A
0C52: 4F                                LD      C,A
0C53: 95                                SUB     L
0C54: 6F                                LD      L,A
0C55: 79                                LD      A,C
0C56: 9C                                SBC     A,H
0C57: 67                                LD      H,A
0C58: C3 9A 0A                          JP      L0A9A

                                        ; --- START PROC L0C5B ---
0C5B: 2A 21 41                   L0C5B: LD      HL,(4121h)
0C5E: CD 51 0C                          CALL    L0C51
0C61: 7C                                LD      A,H
0C62: EE 80                             XOR     80h
0C64: B5                                OR      L
0C65: C0                                RET     NZ
                                        ; --- START PROC L0C66 ---
0C66: EB                         L0C66: EX      DE,HL
0C67: CD EF 0A                          CALL    L0AEE+1 ; reference not aligned to instruction
0C6A: AF                                XOR     A
                                        ; --- START PROC L0C6B ---
0C6B: 06 98                      L0C6B: LD      B,98h
0C6D: C3 69 09                          JP      L0969

0C70: 21 2D 41                   L0C70: LD      HL,412Dh
0C73: 7E                                LD      A,(HL)
0C74: EE 80                             XOR     80h
0C76: 77                                LD      (HL),A
                                        ; --- START PROC L0C77 ---
0C77: 21 2E 41                   L0C77: LD      HL,412Eh
0C7A: 7E                                LD      A,(HL)
0C7B: B7                                OR      A
0C7C: C8                                RET     Z
0C7D: 47                                LD      B,A
0C7E: 2B                                DEC     HL
0C7F: 4E                                LD      C,(HL)
0C80: 11 24 41                          LD      DE,4124h
0C83: 1A                                LD      A,(DE)
0C84: B7                                OR      A
0C85: CA F4 09                          JP      Z,L09F4
0C88: 90                                SUB     B
0C89: 30 16                             JR      NC,L0CA1
0C8B: 2F                                CPL
0C8C: 3C                                INC     A
0C8D: F5                                PUSH    AF
0C8E: 0E 08                             LD      C,08h
0C90: 23                                INC     HL
0C91: E5                                PUSH    HL
0C92: 1A                         L0C92: LD      A,(DE)
0C93: 46                                LD      B,(HL)
0C94: 77                                LD      (HL),A
0C95: 78                                LD      A,B
0C96: 12                                LD      (DE),A
0C97: 1B                                DEC     DE
0C98: 2B                                DEC     HL
0C99: 0D                                DEC     C
0C9A: 20 F6                             JR      NZ,L0C92
0C9C: E1                                POP     HL
0C9D: 46                                LD      B,(HL)
0C9E: 2B                                DEC     HL
0C9F: 4E                                LD      C,(HL)
0CA0: F1                                POP     AF
0CA1: FE 39                      L0CA1: CP      39h     ; '9'
0CA3: D0                                RET     NC
0CA4: F5                                PUSH    AF
0CA5: CD DF 09                          CALL    L09DF
0CA8: 23                                INC     HL
0CA9: 36 00                             LD      (HL),00h
0CAB: 47                                LD      B,A
0CAC: F1                                POP     AF
0CAD: 21 2D 41                          LD      HL,412Dh
0CB0: CD 69 0D                          CALL    L0D69
0CB3: 3A 26 41                          LD      A,(4126h)
0CB6: 32 1C 41                          LD      (411Ch),A
0CB9: 78                                LD      A,B
0CBA: B7                                OR      A
0CBB: F2 CF 0C                          JP      P,L0CCF
0CBE: CD 33 0D                          CALL    L0D33
0CC1: D2 0E 0D                          JP      NC,L0D0E
0CC4: EB                                EX      DE,HL
0CC5: 34                                INC     (HL)
0CC6: CA B2 07                          JP      Z,L07B2
0CC9: CD 90 0D                          CALL    L0D90
0CCC: C3 0E 0D                          JP      L0D0E

0CCF: CD 45 0D                   L0CCF: CALL    L0D45
0CD2: 21 25 41                          LD      HL,4125h
0CD5: DC 57 0D                          CALL    C,L0D57
                                        ; --- START PROC L0CD8 ---
0CD8: AF                         L0CD8: XOR     A
0CD9: 47                         L0CD9: LD      B,A
0CDA: 3A 23 41                          LD      A,(4123h)
0CDD: B7                                OR      A
0CDE: 20 1E                             JR      NZ,L0CFE
0CE0: 21 1C 41                          LD      HL,411Ch
0CE3: 0E 08                             LD      C,08h
0CE5: 56                         L0CE5: LD      D,(HL)
0CE6: 77                                LD      (HL),A
0CE7: 7A                                LD      A,D
0CE8: 23                                INC     HL
0CE9: 0D                                DEC     C
0CEA: 20 F9                             JR      NZ,L0CE5
0CEC: 78                                LD      A,B
0CED: D6 08                             SUB     08h
0CEF: FE C0                             CP      0C0h
0CF1: 20 E6                             JR      NZ,L0CD9
0CF3: C3 78 07                          JP      L0778

0CF6: 05                         L0CF6: DEC     B
0CF7: 21 1C 41                          LD      HL,411Ch
0CFA: CD 97 0D                          CALL    L0D97
0CFD: B7                                OR      A
0CFE: F2 F6 0C                   L0CFE: JP      P,L0CF6
0D01: 78                                LD      A,B
0D02: B7                                OR      A
0D03: 28 09                             JR      Z,L0D0E
0D05: 21 24 41                          LD      HL,4124h
0D08: 86                                ADD     A,(HL)
0D09: 77                                LD      (HL),A
0D0A: D2 78 07                          JP      NC,L0778
0D0D: C8                                RET     Z
                                        ; --- START PROC L0D0E ---
0D0E: 3A 1C 41                   L0D0E: LD      A,(411Ch)
                                        ; --- START PROC L0D11 ---
0D11: B7                         L0D11: OR      A
0D12: FC 20 0D                          CALL    M,L0D20
0D15: 21 25 41                          LD      HL,4125h
0D18: 7E                                LD      A,(HL)
0D19: E6 80                             AND     80h
0D1B: 2B                                DEC     HL
0D1C: 2B                                DEC     HL
0D1D: AE                                XOR     (HL)
0D1E: 77                                LD      (HL),A
0D1F: C9                                RET

                                        ; --- START PROC L0D20 ---
0D20: 21 1D 41                   L0D20: LD      HL,411Dh
0D23: 06 07                             LD      B,07h
0D25: 34                         L0D25: INC     (HL)
0D26: C0                                RET     NZ
0D27: 23                                INC     HL
0D28: 05                                DEC     B
0D29: 20 FA                             JR      NZ,L0D25
0D2B: 34                                INC     (HL)
0D2C: CA B2 07                          JP      Z,L07B2
0D2F: 2B                                DEC     HL
0D30: 36 80                             LD      (HL),80h
0D32: C9                                RET

                                        ; --- START PROC L0D33 ---
0D33: 21 27 41                   L0D33: LD      HL,4127h
                                        ; --- START PROC L0D36 ---
0D36: 11 1D 41                   L0D36: LD      DE,411Dh
                                        ; --- START PROC L0D39 ---
0D39: 0E 07                      L0D39: LD      C,07h
0D3B: AF                                XOR     A
0D3C: 1A                         L0D3C: LD      A,(DE)
0D3D: 8E                                ADC     A,(HL)
0D3E: 12                                LD      (DE),A
0D3F: 13                                INC     DE
0D40: 23                                INC     HL
0D41: 0D                                DEC     C
0D42: 20 F8                             JR      NZ,L0D3C
0D44: C9                                RET

                                        ; --- START PROC L0D45 ---
0D45: 21 27 41                   L0D45: LD      HL,4127h
                                        ; --- START PROC L0D48 ---
0D48: 11 1D 41                   L0D48: LD      DE,411Dh
                                        ; --- START PROC L0D4B ---
0D4B: 0E 07                      L0D4B: LD      C,07h
0D4D: AF                                XOR     A
0D4E: 1A                         L0D4E: LD      A,(DE)
0D4F: 9E                                SBC     A,(HL)
0D50: 12                                LD      (DE),A
0D51: 13                                INC     DE
0D52: 23                                INC     HL
0D53: 0D                                DEC     C
0D54: 20 F8                             JR      NZ,L0D4E
0D56: C9                                RET

                                        ; --- START PROC L0D57 ---
0D57: 7E                         L0D57: LD      A,(HL)
0D58: 2F                                CPL
0D59: 77                                LD      (HL),A
0D5A: 21 1C 41                          LD      HL,411Ch
0D5D: 06 08                             LD      B,08h
0D5F: AF                                XOR     A
0D60: 4F                         L0D60: LD      C,A
0D61: 79                         L0D61: LD      A,C
0D62: 9E                                SBC     A,(HL)
0D63: 77                                LD      (HL),A
0D64: 23                                INC     HL
0D65: 05                                DEC     B
0D66: 20 F9                             JR      NZ,L0D61
0D68: C9                                RET

                                        ; --- START PROC L0D69 ---
0D69: 71                         L0D69: LD      (HL),C
0D6A: E5                                PUSH    HL
                                        ; --- START PROC L0D6B ---
0D6B: D6 08                      L0D6B: SUB     08h
0D6D: 38 0E                             JR      C,L0D7D
0D6F: E1                                POP     HL
                                        ; --- START PROC L0D70 ---
0D70: E5                         L0D70: PUSH    HL
0D71: 11 00 08                          LD      DE,0800h
0D74: 4E                         L0D74: LD      C,(HL)
0D75: 73                                LD      (HL),E
0D76: 59                                LD      E,C
0D77: 2B                                DEC     HL
0D78: 15                                DEC     D
0D79: 20 F9                             JR      NZ,L0D74
0D7B: 18 EE                             JR      L0D6B

                                        ; --- START PROC L0D7D ---
0D7D: C6 09                      L0D7D: ADD     A,09h
0D7F: 57                                LD      D,A
                                        ; --- START PROC L0D80 ---
0D80: AF                         L0D80: XOR     A
0D81: E1                                POP     HL
0D82: 15                                DEC     D
0D83: C8                                RET     Z
                                        ; --- START PROC L0D84 ---
0D84: E5                         L0D84: PUSH    HL
0D85: 1E 08                             LD      E,08h
0D87: 7E                         L0D87: LD      A,(HL)
0D88: 1F                                RRA
0D89: 77                                LD      (HL),A
0D8A: 2B                                DEC     HL
0D8B: 1D                                DEC     E
0D8C: 20 F9                             JR      NZ,L0D87
0D8E: 18 F0                             JR      L0D80

                                        ; --- START PROC L0D90 ---
0D90: 21 23 41                   L0D90: LD      HL,4123h
0D93: 16 01                             LD      D,01h
0D95: 18 ED                             JR      L0D84

                                        ; --- START PROC L0D97 ---
0D97: 0E 08                      L0D97: LD      C,08h
                                        ; --- START PROC L0D99 ---
0D99: 7E                         L0D99: LD      A,(HL)
0D9A: 17                                RLA
0D9B: 77                                LD      (HL),A
0D9C: 23                                INC     HL
0D9D: 0D                                DEC     C
0D9E: 20 F9                             JR      NZ,L0D99
0DA0: C9                                RET

                                        ; --- START PROC L0DA1 ---
0DA1: CD 55 09                   L0DA1: CALL    L0955
0DA4: C8                                RET     Z
0DA5: CD 0A 09                          CALL    L0909+1 ; reference not aligned to instruction
0DA8: CD 39 0E                          CALL    L0E39
0DAB: 71                                LD      (HL),C
0DAC: 13                                INC     DE
0DAD: 06 07                             LD      B,07h
0DAF: 1A                         L0DAF: LD      A,(DE)
0DB0: 13                                INC     DE
0DB1: B7                                OR      A
0DB2: D5                                PUSH    DE
0DB3: 28 17                             JR      Z,L0DCC
0DB5: 0E 08                             LD      C,08h
0DB7: C5                         L0DB7: PUSH    BC
0DB8: 1F                                RRA
0DB9: 47                                LD      B,A
0DBA: DC 33 0D                          CALL    C,L0D33
0DBD: CD 90 0D                          CALL    L0D90
0DC0: 78                                LD      A,B
0DC1: C1                                POP     BC
0DC2: 0D                                DEC     C
0DC3: 20 F2                             JR      NZ,L0DB7
0DC5: D1                         L0DC5: POP     DE
0DC6: 05                                DEC     B
0DC7: 20 E6                             JR      NZ,L0DAF
0DC9: C3 D8 0C                          JP      L0CD8

0DCC: 21 23 41                   L0DCC: LD      HL,4123h
0DCF: CD 70 0D                          CALL    L0D70
0DD2: 18 F1                             JR      L0DC5

0DD4: 00                         L0DD4: NOP
0DD5: 00                                NOP
0DD6: 00                                NOP
0DD7: 00                                NOP
0DD8: 00                                NOP
0DD9: 00                                NOP
0DDA: 20 84                             JR      NZ,L0D60
                                        ; --- START PROC L0DDC ---
0DDC: 11 D4 0D                   L0DDC: LD      DE,0DD4h
0DDF: 21 27 41                          LD      HL,4127h
0DE2: CD D3 09                          CALL    L09D3
0DE5: 3A 2E 41                          LD      A,(412Eh)
0DE8: B7                                OR      A
0DE9: CA 9A 19                          JP      Z,L1999+1       ; reference not aligned to instruction
0DEC: CD 07 09                          CALL    L0907
0DEF: 34                                INC     (HL)
0DF0: 34                                INC     (HL)
0DF1: CD 39 0E                          CALL    L0E39
0DF4: 21 51 41                          LD      HL,4151h
0DF7: 71                                LD      (HL),C
0DF8: 41                                LD      B,C
0DF9: 11 4A 41                   L0DF9: LD      DE,414Ah
0DFC: 21 27 41                          LD      HL,4127h
0DFF: CD 4B 0D                          CALL    L0D4B
0E02: 1A                                LD      A,(DE)
0E03: 99                                SBC     A,C
0E04: 3F                                CCF
0E05: 38 0B                             JR      C,L0E11+1       ; reference not aligned to instruction
0E07: 11 4A 41                          LD      DE,414Ah
0E0A: 21 27 41                          LD      HL,4127h
0E0D: CD 39 0D                          CALL    L0D39
0E10: AF                                XOR     A
0E11: DA 12 04                   L0E11: JP      C,L0412
0E14: 3A 23 41                          LD      A,(4123h)
0E17: 3C                                INC     A
0E18: 3D                                DEC     A
0E19: 1F                                RRA
0E1A: FA 11 0D                          JP      M,L0D11
0E1D: 17                                RLA
0E1E: 21 1D 41                          LD      HL,411Dh
0E21: 0E 07                             LD      C,07h
0E23: CD 99 0D                          CALL    L0D99
0E26: 21 4A 41                          LD      HL,414Ah
0E29: CD 97 0D                          CALL    L0D97
0E2C: 78                                LD      A,B
0E2D: B7                                OR      A
0E2E: 20 C9                             JR      NZ,L0DF9
0E30: 21 24 41                          LD      HL,4124h
0E33: 35                                DEC     (HL)
0E34: 20 C3                             JR      NZ,L0DF9
0E36: C3 B2 07                          JP      L07B2

                                        ; --- START PROC L0E39 ---
0E39: 79                         L0E39: LD      A,C
0E3A: 32 2D 41                          LD      (412Dh),A
0E3D: 2B                                DEC     HL
0E3E: 11 50 41                          LD      DE,4150h
0E41: 01 00 07                          LD      BC,0700h
0E44: 7E                         L0E44: LD      A,(HL)
0E45: 12                                LD      (DE),A
0E46: 71                                LD      (HL),C
0E47: 1B                                DEC     DE
0E48: 2B                                DEC     HL
0E49: 05                                DEC     B
0E4A: 20 F8                             JR      NZ,L0E44
0E4C: C9                                RET

                                        ; --- START PROC L0E4D ---
0E4D: CD FC 09                   L0E4D: CALL    L09FC
0E50: EB                                EX      DE,HL
0E51: 2B                                DEC     HL
0E52: 7E                                LD      A,(HL)
0E53: B7                                OR      A
0E54: C8                                RET     Z
0E55: C6 02                             ADD     A,02h
0E57: DA B2 07                          JP      C,L07B2
0E5A: 77                                LD      (HL),A
0E5B: E5                                PUSH    HL
0E5C: CD 77 0C                          CALL    L0C77
0E5F: E1                                POP     HL
0E60: 34                                INC     (HL)
0E61: C0                                RET     NZ
0E62: C3 B2 07                          JP      L07B2

                                        ; --- START PROC L0E65 ---
0E65: CD 78 07                   L0E65: CALL    L0778
0E68: CD EC 0A                          CALL    L0AEC
0E6B: F6 AF                      L0E6B: OR      0AFh
0E6D: EB                                EX      DE,HL
0E6E: 01 FF 00                          LD      BC,00FFh
0E71: 60                                LD      H,B
0E72: 68                                LD      L,B
0E73: CC 9A 0A                          CALL    Z,L0A9A
0E76: EB                                EX      DE,HL
0E77: 7E                                LD      A,(HL)
0E78: FE 2D                             CP      2Dh     ; '-'
0E7A: F5                                PUSH    AF
0E7B: CA 83 0E                          JP      Z,L0E83
0E7E: FE 2B                             CP      2Bh     ; '+'
0E80: 28 01                             JR      Z,L0E83
0E82: 2B                                DEC     HL
                                        ; --- START PROC L0E83 ---
0E83: D7                         L0E83: RST     0x10
0E84: DA 29 0F                          JP      C,L0F29
0E87: FE 2E                             CP      2Eh     ; '.'
0E89: CA E4 0E                          JP      Z,L0EE4
0E8C: FE 45                             CP      45h     ; 'E'
0E8E: 28 14                             JR      Z,L0EA4
0E90: FE 25                             CP      25h     ; '%'
0E92: CA EE 0E                          JP      Z,L0EEE
0E95: FE 23                             CP      23h     ; '#'
0E97: CA F5 0E                          JP      Z,L0EF5
0E9A: FE 21                             CP      21h     ; '!'
0E9C: CA F6 0E                          JP      Z,L0EF6
0E9F: FE 44                             CP      44h     ; 'D'
0EA1: 20 24                             JR      NZ,L0EC7
0EA3: B7                                OR      A
0EA4: CD FB 0E                   L0EA4: CALL    L0EFB
0EA7: E5                                PUSH    HL
0EA8: 21 BD 0E                          LD      HL,0EBDh
0EAB: E3                                EX      (SP),HL
0EAC: D7                                RST     0x10
0EAD: 15                                DEC     D
0EAE: FE CE                             CP      0CEh
0EB0: C8                                RET     Z
0EB1: FE 2D                             CP      2Dh     ; '-'
0EB3: C8                                RET     Z
0EB4: 14                                INC     D
0EB5: FE CD                             CP      0CDh
0EB7: C8                                RET     Z
0EB8: FE 2B                             CP      2Bh     ; '+'
0EBA: C8                                RET     Z
0EBB: 2B                                DEC     HL
0EBC: F1                                POP     AF
                                        ; --- START PROC L0EBD ---
0EBD: D7                         L0EBD: RST     0x10
0EBE: DA 94 0F                          JP      C,L0F94
0EC1: 14                                INC     D
0EC2: 20 03                             JR      NZ,L0EC7
0EC4: AF                                XOR     A
0EC5: 93                                SUB     E
0EC6: 5F                                LD      E,A
                                        ; --- START PROC L0EC7 ---
0EC7: E5                         L0EC7: PUSH    HL
0EC8: 7B                                LD      A,E
0EC9: 90                                SUB     B
0ECA: F4 0A 0F                   L0ECA: CALL    P,L0F0A
0ECD: FC 18 0F                          CALL    M,L0F18
0ED0: 20 F8                             JR      NZ,L0ECA
0ED2: E1                                POP     HL
0ED3: F1                                POP     AF
0ED4: E5                                PUSH    HL
0ED5: CC 7B 09                          CALL    Z,L097B
0ED8: E1                                POP     HL
0ED9: E7                                RST     0x20
0EDA: E8                                RET     PE
0EDB: E5                                PUSH    HL
0EDC: 21 90 08                          LD      HL,0890h
0EDF: E5                                PUSH    HL
0EE0: CD A3 0A                          CALL    L0AA3
0EE3: C9                                RET

                                        ; --- START PROC L0EE4 ---
0EE4: E7                         L0EE4: RST     0x20
0EE5: 0C                                INC     C
0EE6: 20 DF                             JR      NZ,L0EC7
0EE8: DC FB 0E                          CALL    C,L0EFB
0EEB: C3 83 0E                          JP      L0E83

                                        ; --- START PROC L0EEE ---
0EEE: E7                         L0EEE: RST     0x20
0EEF: F2 97 19                          JP      P,L1997
                                        ; --- START PROC L0EF2 ---
0EF2: 23                         L0EF2: INC     HL
0EF3: 18 D2                             JR      L0EC7

                                        ; --- START PROC L0EF5 ---
0EF5: B7                         L0EF5: OR      A
                                        ; --- START PROC L0EF6 ---
0EF6: CD FB 0E                   L0EF6: CALL    L0EFB
0EF9: 18 F7                             JR      L0EF2

                                        ; --- START PROC L0EFB ---
0EFB: E5                         L0EFB: PUSH    HL
0EFC: D5                                PUSH    DE
0EFD: C5                                PUSH    BC
0EFE: F5                                PUSH    AF
0EFF: CC B1 0A                          CALL    Z,L0AB1
0F02: F1                                POP     AF
0F03: C4 DB 0A                          CALL    NZ,L0ADB
0F06: C1                                POP     BC
0F07: D1                                POP     DE
0F08: E1                                POP     HL
0F09: C9                                RET

                                        ; --- START PROC L0F0A ---
0F0A: C8                         L0F0A: RET     Z
                                        ; --- START PROC L0F0B ---
0F0B: F5                         L0F0B: PUSH    AF
0F0C: E7                                RST     0x20
0F0D: F5                                PUSH    AF
0F0E: E4 3E 09                          CALL    PO,L093E
0F11: F1                                POP     AF
0F12: EC 4D 0E                          CALL    PE,L0E4D
0F15: F1                                POP     AF
                                        ; --- START PROC L0F16 ---
0F16: 3D                         L0F16: DEC     A
0F17: C9                                RET

                                        ; --- START PROC L0F18 ---
0F18: D5                         L0F18: PUSH    DE
0F19: E5                                PUSH    HL
0F1A: F5                                PUSH    AF
0F1B: E7                                RST     0x20
0F1C: F5                                PUSH    AF
0F1D: E4 97 08                          CALL    PO,L0897
0F20: F1                                POP     AF
0F21: EC DC 0D                          CALL    PE,L0DDC
0F24: F1                                POP     AF
0F25: E1                                POP     HL
0F26: D1                                POP     DE
0F27: 3C                                INC     A
0F28: C9                                RET

                                        ; --- START PROC L0F29 ---
0F29: D5                         L0F29: PUSH    DE
0F2A: 78                                LD      A,B
0F2B: 89                                ADC     A,C
0F2C: 47                                LD      B,A
0F2D: C5                                PUSH    BC
0F2E: E5                                PUSH    HL
0F2F: 7E                                LD      A,(HL)
0F30: D6 30                             SUB     30h     ; '0'
0F32: F5                                PUSH    AF
0F33: E7                                RST     0x20
0F34: F2 5D 0F                          JP      P,L0F5D
0F37: 2A 21 41                          LD      HL,(4121h)
0F3A: 11 CD 0C                          LD      DE,0CCDh
0F3D: DF                                RST     0x18
0F3E: 30 19                             JR      NC,L0F59
0F40: 54                                LD      D,H
0F41: 5D                                LD      E,L
0F42: 29                                ADD     HL,HL
0F43: 29                                ADD     HL,HL
0F44: 19                                ADD     HL,DE
0F45: 29                                ADD     HL,HL
0F46: F1                                POP     AF
0F47: 4F                                LD      C,A
0F48: 09                                ADD     HL,BC
0F49: 7C                                LD      A,H
0F4A: B7                                OR      A
0F4B: FA 57 0F                          JP      M,L0F57
0F4E: 22 21 41                          LD      (4121h),HL
0F51: E1                         L0F51: POP     HL
0F52: C1                                POP     BC
0F53: D1                                POP     DE
0F54: C3 83 0E                          JP      L0E83

0F57: 79                         L0F57: LD      A,C
0F58: F5                                PUSH    AF
0F59: CD CC 0A                   L0F59: CALL    L0ACC
0F5C: 37                                SCF
0F5D: 30 18                      L0F5D: JR      NC,L0F77
0F5F: 01 74 94                          LD      BC,9474h
0F62: 11 00 24                          LD      DE,2400h
0F65: CD 0C 0A                          CALL    L0A0C
0F68: F2 74 0F                          JP      P,L0F74
0F6B: CD 3E 09                          CALL    L093E
0F6E: F1                                POP     AF
0F6F: CD 89 0F                          CALL    L0F89
0F72: 18 DD                             JR      L0F51

0F74: CD E3 0A                   L0F74: CALL    L0AE3
0F77: CD 4D 0E                   L0F77: CALL    L0E4D
0F7A: CD FC 09                          CALL    L09FC
0F7D: F1                                POP     AF
0F7E: CD 64 09                          CALL    L0964
0F81: CD E3 0A                          CALL    L0AE3
0F84: CD 77 0C                          CALL    L0C77
0F87: 18 C8                             JR      L0F51

                                        ; --- START PROC L0F89 ---
0F89: CD A4 09                   L0F89: CALL    L09A4
0F8C: CD 64 09                          CALL    L0964
                                        ; --- START PROC L0F8F ---
0F8F: C1                         L0F8F: POP     BC
0F90: D1                                POP     DE
0F91: C3 16 07                          JP      L0716

                                        ; --- START PROC L0F94 ---
0F94: 7B                         L0F94: LD      A,E
0F95: FE 0A                             CP      0Ah
0F97: 30 09                             JR      NC,L0FA1+1      ; reference not aligned to instruction
0F99: 07                                RLCA
0F9A: 07                                RLCA
0F9B: 83                                ADD     A,E
0F9C: 07                                RLCA
0F9D: 86                                ADD     A,(HL)
0F9E: D6 30                             SUB     30h     ; '0'
0FA0: 5F                                LD      E,A
0FA1: FA 1E 32                   L0FA1: JP      M,321Eh
0FA4: C3 BD 0E                          JP      L0EBD

                                        ; --- START PROC L0FA7 ---
0FA7: E5                         L0FA7: PUSH    HL
0FA8: 21 24 19                          LD      HL,1924h
0FAB: CD A7 28                          CALL    L28A7
0FAE: E1                                POP     HL
                                        ; --- START PROC L0FAF ---
0FAF: CD 9A 0A                   L0FAF: CALL    L0A9A
0FB2: AF                                XOR     A
0FB3: CD 34 10                          CALL    L1034
0FB6: B6                                OR      (HL)
0FB7: CD D9 0F                          CALL    L0FD9
0FBA: C3 A6 28                          JP      L28A6

                                        ; --- START PROC L0FBD ---
0FBD: AF                         L0FBD: XOR     A
                                        ; --- START PROC L0FBE ---
0FBE: CD 34 10                   L0FBE: CALL    L1034
0FC1: E6 08                             AND     08h
0FC3: 28 02                             JR      Z,L0FC7
0FC5: 36 2B                             LD      (HL),2Bh        ; '+'
0FC7: EB                         L0FC7: EX      DE,HL
0FC8: CD 94 09                          CALL    L0994
0FCB: EB                                EX      DE,HL
0FCC: F2 D9 0F                          JP      P,L0FD9
0FCF: 36 2D                             LD      (HL),2Dh        ; '-'
0FD1: C5                                PUSH    BC
0FD2: E5                                PUSH    HL
0FD3: CD 7B 09                          CALL    L097B
0FD6: E1                                POP     HL
0FD7: C1                                POP     BC
0FD8: B4                                OR      H
                                        ; --- START PROC L0FD9 ---
0FD9: 23                         L0FD9: INC     HL
0FDA: 36 30                             LD      (HL),30h        ; '0'
0FDC: 3A D8 40                          LD      A,(40D8h)
0FDF: 57                                LD      D,A
0FE0: 17                                RLA
0FE1: 3A AF 40                          LD      A,(40AFh)
0FE4: DA 9A 10                          JP      C,L109A
0FE7: CA 92 10                          JP      Z,L1092
0FEA: FE 04                             CP      04h
0FEC: D2 3D 10                          JP      NC,L103D
0FEF: 01 00 00                          LD      BC,0000h
0FF2: CD 2F 13                          CALL    L132F
                                        ; --- START PROC L0FF5 ---
0FF5: 21 30 41                   L0FF5: LD      HL,4130h
0FF8: 46                                LD      B,(HL)
0FF9: 0E 20                             LD      C,20h   ; ' '
0FFB: 3A D8 40                          LD      A,(40D8h)
0FFE: 5F                                LD      E,A
0FFF: E6 20                             AND     20h     ; ' '
1001: 28 07                             JR      Z,L100A
1003: 78                                LD      A,B
1004: B9                                CP      C
1005: 0E 2A                             LD      C,2Ah   ; '*'
1007: 20 01                             JR      NZ,L100A
1009: 41                                LD      B,C
100A: 71                         L100A: LD      (HL),C
100B: D7                                RST     0x10
100C: 28 14                             JR      Z,L1022
100E: FE 45                             CP      45h     ; 'E'
1010: 28 10                             JR      Z,L1022
1012: FE 44                             CP      44h     ; 'D'
1014: 28 0C                             JR      Z,L1022
1016: FE 30                             CP      30h     ; '0'
1018: 28 F0                             JR      Z,L100A
101A: FE 2C                             CP      2Ch     ; ','
101C: 28 EC                             JR      Z,L100A
101E: FE 2E                             CP      2Eh     ; '.'
1020: 20 03                             JR      NZ,L1025
1022: 2B                         L1022: DEC     HL
1023: 36 30                             LD      (HL),30h        ; '0'
1025: 7B                         L1025: LD      A,E
1026: E6 10                             AND     10h
1028: 28 03                             JR      Z,L102D
102A: 2B                                DEC     HL
102B: 36 24                             LD      (HL),24h        ; '$'
102D: 7B                         L102D: LD      A,E
102E: E6 04                             AND     04h
1030: C0                                RET     NZ
1031: 2B                                DEC     HL
1032: 70                                LD      (HL),B
1033: C9                                RET

                                        ; --- START PROC L1034 ---
1034: 32 D8 40                   L1034: LD      (40D8h),A
1037: 21 30 41                          LD      HL,4130h
103A: 36 20                             LD      (HL),20h        ; ' '
103C: C9                                RET

                                        ; --- START PROC L103D ---
103D: FE 05                      L103D: CP      05h
103F: E5                                PUSH    HL
1040: DE 00                             SBC     A,00h
1042: 17                                RLA
1043: 57                                LD      D,A
1044: 14                                INC     D
1045: CD 01 12                          CALL    L1201
1048: 01 00 03                          LD      BC,0300h
104B: 82                                ADD     A,D
104C: FA 57 10                          JP      M,L1057
104F: 14                                INC     D
1050: BA                                CP      D
1051: 30 04                             JR      NC,L1057
1053: 3C                                INC     A
1054: 47                                LD      B,A
1055: 3E 02                             LD      A,02h
1057: D6 02                      L1057: SUB     02h
1059: E1                                POP     HL
105A: F5                                PUSH    AF
105B: CD 91 12                          CALL    L1291
105E: 36 30                             LD      (HL),30h        ; '0'
1060: CC C9 09                          CALL    Z,L09C9
1063: CD A4 12                          CALL    L12A4
1066: 2B                         L1066: DEC     HL
1067: 7E                                LD      A,(HL)
1068: FE 30                             CP      30h     ; '0'
106A: 28 FA                             JR      Z,L1066
106C: FE 2E                             CP      2Eh     ; '.'
106E: C4 C9 09                          CALL    NZ,L09C9
1071: F1                                POP     AF
1072: 28 1F                             JR      Z,L1093
                                        ; --- START PROC L1074 ---
1074: F5                         L1074: PUSH    AF
1075: E7                                RST     0x20
1076: 3E 22                             LD      A,22h   ; '"'
1078: 8F                                ADC     A,A
1079: 77                                LD      (HL),A
107A: 23                                INC     HL
107B: F1                                POP     AF
107C: 36 2B                             LD      (HL),2Bh        ; '+'
107E: F2 85 10                          JP      P,L1085
1081: 36 2D                             LD      (HL),2Dh        ; '-'
1083: 2F                                CPL
1084: 3C                                INC     A
1085: 06 2F                      L1085: LD      B,2Fh   ; '/'
1087: 04                         L1087: INC     B
1088: D6 0A                             SUB     0Ah
108A: 30 FB                             JR      NC,L1087
108C: C6 3A                             ADD     A,3Ah   ; ':'
108E: 23                                INC     HL
108F: 70                                LD      (HL),B
1090: 23                                INC     HL
1091: 77                                LD      (HL),A
                                        ; --- START PROC L1092 ---
1092: 23                         L1092: INC     HL
                                        ; --- START PROC L1093 ---
1093: 36 00                      L1093: LD      (HL),00h
1095: EB                                EX      DE,HL
1096: 21 30 41                          LD      HL,4130h
1099: C9                                RET

                                        ; --- START PROC L109A ---
109A: 23                         L109A: INC     HL
109B: C5                                PUSH    BC
109C: FE 04                             CP      04h
109E: 7A                                LD      A,D
109F: D2 09 11                          JP      NC,L1109
10A2: 1F                                RRA
10A3: DA A3 11                          JP      C,L11A3
10A6: 01 03 06                          LD      BC,0603h
10A9: CD 89 12                          CALL    L1289
10AC: D1                                POP     DE
10AD: 7A                                LD      A,D
10AE: D6 05                             SUB     05h
10B0: F4 69 12                          CALL    P,L1269
10B3: CD 2F 13                          CALL    L132F
10B6: 7B                         L10B6: LD      A,E
10B7: B7                                OR      A
10B8: CC 2F 09                          CALL    Z,L092F
10BB: 3D                                DEC     A
10BC: F4 69 12                          CALL    P,L1269
10BF: E5                         L10BF: PUSH    HL
10C0: CD F5 0F                          CALL    L0FF5
10C3: E1                                POP     HL
10C4: 28 02                             JR      Z,L10C8
10C6: 70                                LD      (HL),B
10C7: 23                                INC     HL
10C8: 36 00                      L10C8: LD      (HL),00h
10CA: 21 2F 41                          LD      HL,412Fh
10CD: 23                         L10CD: INC     HL
10CE: 3A F3 40                   L10CE: LD      A,(40F3h)
10D1: 95                                SUB     L
10D2: 92                                SUB     D
10D3: C8                                RET     Z
10D4: 7E                                LD      A,(HL)
10D5: FE 20                             CP      20h     ; ' '
10D7: 28 F4                             JR      Z,L10CD
10D9: FE 2A                             CP      2Ah     ; '*'
10DB: 28 F0                             JR      Z,L10CD
10DD: 2B                                DEC     HL
10DE: E5                                PUSH    HL
10DF: F5                                PUSH    AF
10E0: 01 DF 10                          LD      BC,10DFh
10E3: C5                                PUSH    BC
10E4: D7                                RST     0x10
10E5: FE 2D                             CP      2Dh     ; '-'
10E7: C8                                RET     Z
10E8: FE 2B                             CP      2Bh     ; '+'
10EA: C8                                RET     Z
10EB: FE 24                             CP      24h     ; '$'
10ED: C8                                RET     Z
10EE: C1                                POP     BC
10EF: FE 30                             CP      30h     ; '0'
10F1: 20 0F                             JR      NZ,L1102
10F3: 23                                INC     HL
10F4: D7                                RST     0x10
10F5: 30 0B                             JR      NC,L1102
10F7: 2B                                DEC     HL
10F8: 01 2B 77                   L10F8: LD      BC,772Bh
10FB: F1                                POP     AF
10FC: 28 FB                             JR      Z,L10F8+1       ; reference not aligned to instruction
10FE: C1                                POP     BC
10FF: C3 CE 10                          JP      L10CE

1102: F1                         L1102: POP     AF
1103: 28 FD                             JR      Z,L1102
1105: E1                                POP     HL
1106: 36 25                             LD      (HL),25h        ; '%'
1108: C9                                RET

1109: E5                         L1109: PUSH    HL
110A: 1F                                RRA
110B: DA AA 11                          JP      C,L11AA
110E: 28 14                             JR      Z,L1124
1110: 11 84 13                          LD      DE,1384h
1113: CD 49 0A                          CALL    L0A49
1116: 16 10                             LD      D,10h
1118: FA 32 11                          JP      M,L1132
111B: E1                         L111B: POP     HL
111C: C1                                POP     BC
111D: CD BD 0F                          CALL    L0FBD
1120: 2B                                DEC     HL
1121: 36 25                             LD      (HL),25h        ; '%'
1123: C9                                RET

1124: 01 0E B6                   L1124: LD      BC,0B60Eh
1127: 11 CA 1B                          LD      DE,1BCAh
112A: CD 0C 0A                          CALL    L0A0C
112D: F2 1B 11                          JP      P,L111B
1130: 16 06                             LD      D,06h
1132: CD 55 09                   L1132: CALL    L0955
1135: C4 01 12                          CALL    NZ,L1201
1138: E1                                POP     HL
1139: C1                                POP     BC
113A: FA 57 11                          JP      M,L1157
113D: C5                                PUSH    BC
113E: 5F                                LD      E,A
113F: 78                                LD      A,B
1140: 92                                SUB     D
1141: 93                                SUB     E
1142: F4 69 12                          CALL    P,L1269
1145: CD 7D 12                          CALL    L127D
1148: CD A4 12                          CALL    L12A4
114B: B3                                OR      E
114C: C4 77 12                          CALL    NZ,L1277
114F: B3                                OR      E
1150: C4 91 12                          CALL    NZ,L1291
1153: D1                                POP     DE
1154: C3 B6 10                          JP      L10B6

1157: 5F                         L1157: LD      E,A
1158: 79                                LD      A,C
1159: B7                                OR      A
115A: C4 16 0F                          CALL    NZ,L0F16
115D: 83                                ADD     A,E
115E: FA 62 11                          JP      M,L1162
1161: AF                                XOR     A
1162: C5                         L1162: PUSH    BC
1163: F5                                PUSH    AF
1164: FC 18 0F                   L1164: CALL    M,L0F18
1167: FA 64 11                          JP      M,L1164
116A: C1                                POP     BC
116B: 7B                                LD      A,E
116C: 90                                SUB     B
116D: C1                                POP     BC
116E: 5F                                LD      E,A
116F: 82                                ADD     A,D
1170: 78                                LD      A,B
1171: FA 7F 11                          JP      M,L117F
1174: 92                                SUB     D
1175: 93                                SUB     E
1176: F4 69 12                          CALL    P,L1269
1179: C5                                PUSH    BC
117A: CD 7D 12                          CALL    L127D
117D: 18 11                             JR      L1190

117F: CD 69 12                   L117F: CALL    L1269
1182: 79                                LD      A,C
1183: CD 94 12                          CALL    L1294
1186: 4F                                LD      C,A
1187: AF                                XOR     A
1188: 92                                SUB     D
1189: 93                                SUB     E
118A: CD 69 12                          CALL    L1269
118D: C5                                PUSH    BC
118E: 47                                LD      B,A
118F: 4F                                LD      C,A
1190: CD A4 12                   L1190: CALL    L12A4
1193: C1                                POP     BC
1194: B1                                OR      C
1195: 20 03                             JR      NZ,L119A
1197: 2A F3 40                          LD      HL,(40F3h)
119A: 83                         L119A: ADD     A,E
119B: 3D                                DEC     A
119C: F4 69 12                          CALL    P,L1269
119F: 50                                LD      D,B
11A0: C3 BF 10                          JP      L10BF

11A3: E5                         L11A3: PUSH    HL
11A4: D5                                PUSH    DE
11A5: CD CC 0A                          CALL    L0ACC
11A8: D1                                POP     DE
11A9: AF                                XOR     A
11AA: CA B0 11                   L11AA: JP      Z,L11AF+1       ; reference not aligned to instruction
11AD: 1E 10                             LD      E,10h
11AF: 01 1E 06                   L11AF: LD      BC,061Eh
11B2: CD 55 09                          CALL    L0955
11B5: 37                                SCF
11B6: C4 01 12                          CALL    NZ,L1201
11B9: E1                                POP     HL
11BA: C1                                POP     BC
11BB: F5                                PUSH    AF
11BC: 79                                LD      A,C
11BD: B7                                OR      A
11BE: F5                                PUSH    AF
11BF: C4 16 0F                          CALL    NZ,L0F16
11C2: 80                                ADD     A,B
11C3: 4F                                LD      C,A
11C4: 7A                                LD      A,D
11C5: E6 04                             AND     04h
11C7: FE 01                             CP      01h
11C9: 9F                                SBC     A,A
11CA: 57                                LD      D,A
11CB: 81                                ADD     A,C
11CC: 4F                                LD      C,A
11CD: 93                                SUB     E
11CE: F5                                PUSH    AF
11CF: C5                                PUSH    BC
11D0: FC 18 0F                   L11D0: CALL    M,L0F18
11D3: FA D0 11                          JP      M,L11D0
11D6: C1                                POP     BC
11D7: F1                                POP     AF
11D8: C5                                PUSH    BC
11D9: F5                                PUSH    AF
11DA: FA DE 11                          JP      M,L11DE
11DD: AF                                XOR     A
11DE: 2F                         L11DE: CPL
11DF: 3C                                INC     A
11E0: 80                                ADD     A,B
11E1: 3C                                INC     A
11E2: 82                                ADD     A,D
11E3: 47                                LD      B,A
11E4: 0E 00                             LD      C,00h
11E6: CD A4 12                          CALL    L12A4
11E9: F1                                POP     AF
11EA: F4 71 12                          CALL    P,L1271
11ED: C1                                POP     BC
11EE: F1                                POP     AF
11EF: CC 2F 09                          CALL    Z,L092F
11F2: F1                                POP     AF
11F3: 38 03                             JR      C,L11F8
11F5: 83                                ADD     A,E
11F6: 90                                SUB     B
11F7: 92                                SUB     D
11F8: C5                         L11F8: PUSH    BC
11F9: CD 74 10                          CALL    L1074
11FC: EB                                EX      DE,HL
11FD: D1                                POP     DE
11FE: C3 BF 10                          JP      L10BF

                                        ; --- START PROC L1201 ---
1201: D5                         L1201: PUSH    DE
1202: AF                                XOR     A
1203: F5                                PUSH    AF
1204: E7                                RST     0x20
1205: E2 22 12                          JP      PO,L1222
1208: 3A 24 41                   L1208: LD      A,(4124h)
120B: FE 91                             CP      91h
120D: D2 22 12                          JP      NC,L1222
1210: 11 64 13                          LD      DE,1364h
1213: 21 27 41                          LD      HL,4127h
1216: CD D3 09                          CALL    L09D3
1219: CD A1 0D                          CALL    L0DA1
121C: F1                                POP     AF
121D: D6 0A                             SUB     0Ah
121F: F5                                PUSH    AF
1220: 18 E6                             JR      L1208

1222: CD 4F 12                   L1222: CALL    L124F
1225: E7                         L1225: RST     0x20
1226: 30 0B                             JR      NC,L1233
1228: 01 43 91                          LD      BC,9143h
122B: 11 F9 4F                          LD      DE,4FF9h
122E: CD 0C 0A                          CALL    L0A0C
1231: 18 06                             JR      L1239

1233: 11 6C 13                   L1233: LD      DE,136Ch
1236: CD 49 0A                          CALL    L0A49
1239: F2 4B 12                   L1239: JP      P,L124B
123C: F1                                POP     AF
123D: CD 0B 0F                          CALL    L0F0B
1240: F5                                PUSH    AF
1241: 18 E2                             JR      L1225

                                        ; --- START PROC L1243 ---
1243: F1                         L1243: POP     AF
1244: CD 18 0F                          CALL    L0F18
1247: F5                                PUSH    AF
1248: CD 4F 12                          CALL    L124F
124B: F1                         L124B: POP     AF
124C: B7                                OR      A
124D: D1                                POP     DE
124E: C9                                RET

                                        ; --- START PROC L124F ---
124F: E7                         L124F: RST     0x20
1250: EA 5E 12                          JP      PE,L125E
1253: 01 74 94                          LD      BC,9474h
1256: 11 F8 23                          LD      DE,23F8h
1259: CD 0C 0A                          CALL    L0A0C
125C: 18 06                             JR      L1264

125E: 11 74 13                   L125E: LD      DE,1374h
1261: CD 49 0A                          CALL    L0A49
1264: E1                         L1264: POP     HL
1265: F2 43 12                          JP      P,L1243
1268: E9                                JP      (HL)

                                        ; --- START PROC L1269 ---
1269: B7                         L1269: OR      A
126A: C8                         L126A: RET     Z
126B: 3D                                DEC     A
126C: 36 30                             LD      (HL),30h        ; '0'
126E: 23                                INC     HL
126F: 18 F9                             JR      L126A

                                        ; --- START PROC L1271 ---
1271: 20 04                      L1271: JR      NZ,L1277
                                        ; --- START PROC L1273 ---
1273: C8                         L1273: RET     Z
1274: CD 91 12                          CALL    L1291
                                        ; --- START PROC L1277 ---
1277: 36 30                      L1277: LD      (HL),30h        ; '0'
1279: 23                                INC     HL
127A: 3D                                DEC     A
127B: 18 F6                             JR      L1273

                                        ; --- START PROC L127D ---
127D: 7B                         L127D: LD      A,E
127E: 82                                ADD     A,D
127F: 3C                                INC     A
1280: 47                                LD      B,A
1281: 3C                                INC     A
1282: D6 03                      L1282: SUB     03h
1284: 30 FC                             JR      NC,L1282
1286: C6 05                             ADD     A,05h
1288: 4F                                LD      C,A
                                        ; --- START PROC L1289 ---
1289: 3A D8 40                   L1289: LD      A,(40D8h)
128C: E6 40                             AND     40h     ; '@'
128E: C0                                RET     NZ
128F: 4F                                LD      C,A
1290: C9                                RET

                                        ; --- START PROC L1291 ---
1291: 05                         L1291: DEC     B
1292: 20 08                             JR      NZ,L129C
                                        ; --- START PROC L1294 ---
1294: 36 2E                      L1294: LD      (HL),2Eh        ; '.'
1296: 22 F3 40                          LD      (40F3h),HL
1299: 23                                INC     HL
129A: 48                                LD      C,B
129B: C9                                RET

                                        ; --- START PROC L129C ---
129C: 0D                         L129C: DEC     C
129D: C0                                RET     NZ
129E: 36 2C                             LD      (HL),2Ch        ; ','
12A0: 23                                INC     HL
12A1: 0E 03                             LD      C,03h
12A3: C9                                RET

                                        ; --- START PROC L12A4 ---
12A4: D5                         L12A4: PUSH    DE
12A5: E7                                RST     0x20
12A6: E2 EA 12                          JP      PO,L12EA
12A9: C5                                PUSH    BC
12AA: E5                                PUSH    HL
12AB: CD FC 09                          CALL    L09FC
12AE: 21 7C 13                          LD      HL,137Ch
12B1: CD F7 09                          CALL    L09F7
12B4: CD 77 0C                          CALL    L0C77
12B7: AF                                XOR     A
12B8: CD 7B 0B                          CALL    L0B7B
12BB: E1                                POP     HL
12BC: C1                                POP     BC
12BD: 11 8C 13                          LD      DE,138Ch
12C0: 3E 0A                             LD      A,0Ah
12C2: CD 91 12                   L12C2: CALL    L1291
12C5: C5                                PUSH    BC
12C6: F5                                PUSH    AF
12C7: E5                                PUSH    HL
12C8: D5                                PUSH    DE
12C9: 06 2F                             LD      B,2Fh   ; '/'
12CB: 04                         L12CB: INC     B
12CC: E1                                POP     HL
12CD: E5                                PUSH    HL
12CE: CD 48 0D                          CALL    L0D48
12D1: 30 F8                             JR      NC,L12CB
12D3: E1                                POP     HL
12D4: CD 36 0D                          CALL    L0D36
12D7: EB                                EX      DE,HL
12D8: E1                                POP     HL
12D9: 70                                LD      (HL),B
12DA: 23                                INC     HL
12DB: F1                                POP     AF
12DC: C1                                POP     BC
12DD: 3D                                DEC     A
12DE: 20 E2                             JR      NZ,L12C2
12E0: C5                                PUSH    BC
12E1: E5                                PUSH    HL
12E2: 21 1D 41                          LD      HL,411Dh
12E5: CD B1 09                          CALL    L09B1
12E8: 18 0C                             JR      L12F6

12EA: C5                         L12EA: PUSH    BC
12EB: E5                                PUSH    HL
12EC: CD 08 07                          CALL    L0708
12EF: 3C                                INC     A
12F0: CD FB 0A                          CALL    L0AFB
12F3: CD B4 09                          CALL    L09B4
12F6: E1                         L12F6: POP     HL
12F7: C1                                POP     BC
12F8: AF                                XOR     A
12F9: 11 D2 13                          LD      DE,13D2h
12FC: 3F                         L12FC: CCF
12FD: CD 91 12                          CALL    L1291
1300: C5                                PUSH    BC
1301: F5                                PUSH    AF
1302: E5                                PUSH    HL
1303: D5                                PUSH    DE
1304: CD BF 09                          CALL    L09BF
1307: E1                                POP     HL
1308: 06 2F                             LD      B,2Fh   ; '/'
130A: 04                         L130A: INC     B
130B: 7B                                LD      A,E
130C: 96                                SUB     (HL)
130D: 5F                                LD      E,A
130E: 23                                INC     HL
130F: 7A                                LD      A,D
1310: 9E                                SBC     A,(HL)
1311: 57                                LD      D,A
1312: 23                                INC     HL
1313: 79                                LD      A,C
1314: 9E                                SBC     A,(HL)
1315: 4F                                LD      C,A
1316: 2B                                DEC     HL
1317: 2B                                DEC     HL
1318: 30 F0                             JR      NC,L130A
131A: CD B7 07                          CALL    L07B7
131D: 23                                INC     HL
131E: CD B4 09                          CALL    L09B4
1321: EB                                EX      DE,HL
1322: E1                                POP     HL
1323: 70                                LD      (HL),B
1324: 23                                INC     HL
1325: F1                                POP     AF
1326: C1                                POP     BC
1327: 38 D3                             JR      C,L12FC
1329: 13                                INC     DE
132A: 13                                INC     DE
132B: 3E 04                             LD      A,04h
132D: 18 06                             JR      L1335

                                        ; --- START PROC L132F ---
132F: D5                         L132F: PUSH    DE
1330: 11 D8 13                          LD      DE,13D8h
1333: 3E 05                             LD      A,05h
                                        ; --- START PROC L1335 ---
1335: CD 91 12                   L1335: CALL    L1291
1338: C5                                PUSH    BC
1339: F5                                PUSH    AF
133A: E5                                PUSH    HL
133B: EB                                EX      DE,HL
133C: 4E                                LD      C,(HL)
133D: 23                                INC     HL
133E: 46                                LD      B,(HL)
133F: C5                                PUSH    BC
1340: 23                                INC     HL
1341: E3                                EX      (SP),HL
1342: EB                                EX      DE,HL
1343: 2A 21 41                          LD      HL,(4121h)
1346: 06 2F                             LD      B,2Fh   ; '/'
1348: 04                         L1348: INC     B
1349: 7D                         L1349: LD      A,L
134A: 93                                SUB     E
134B: 6F                                LD      L,A
134C: 7C                                LD      A,H
134D: 9A                                SBC     A,D
134E: 67                                LD      H,A
134F: 30 F7                             JR      NC,L1348
1351: 19                                ADD     HL,DE
1352: 22 21 41                          LD      (4121h),HL
1355: D1                                POP     DE
1356: E1                                POP     HL
1357: 70                                LD      (HL),B
1358: 23                                INC     HL
1359: F1                                POP     AF
135A: C1                                POP     BC
135B: 3D                                DEC     A
135C: 20 D7                             JR      NZ,L1335
135E: CD 91 12                          CALL    L1291
1361: 77                                LD      (HL),A
1362: D1                                POP     DE
1363: C9                                RET

1364: 00                         L1364: NOP
1365: 00                                NOP
1366: 00                                NOP
1367: 00                                NOP
1368: F9                                LD      SP,HL
1369: 02                                LD      (BC),A
136A: 15                                DEC     D
136B: A2                                AND     D
136C: FD FF                             RST     0x38
136E: 9F                                SBC     A,A
136F: 31 A9 5F                          LD      SP,5FA9h
1372: 63                                LD      H,E
1373: B2                                OR      D
1374: FE FF                             CP      0FFh
1376: 03                                INC     BC
1377: BF                                CP      A
1378: C9                                RET

1379: 1B                         L1379: DEC     DE
137A: 0E B6                             LD      C,0B6h
137C: 00                                NOP
137D: 00                                NOP
137E: 00                                NOP
137F: 00                                NOP
1380: 00                                NOP
1381: 00                                NOP
1382: 00                                NOP
1383: 80                                ADD     A,B
1384: 00                                NOP
1385: 00                                NOP
1386: 04                                INC     B
1387: BF                                CP      A
1388: C9                                RET

1389: 1B                         L1389: DEC     DE
138A: 0E B6                      L138A: LD      C,0B6h
138C: 00                                NOP
138D: 80                                ADD     A,B
138E: C6 A4                             ADD     A,0A4h
1390: 7E                                LD      A,(HL)
1391: 8D                                ADC     A,L
1392: 03                                INC     BC
1393: 00                                NOP
1394: 40                                LD      B,B
1395: 7A                                LD      A,D
1396: 10 F3                             DJNZ    L138A+1 ; reference not aligned to instruction
1398: 5A                                LD      E,D
1399: 00                                NOP
139A: 00                                NOP
139B: A0                                AND     B
139C: 72                                LD      (HL),D
139D: 4E                                LD      C,(HL)
139E: 18 09                             JR      L13A9

13A0: 00                         L13A0: NOP
13A1: 00                                NOP
13A2: 10 A5                             DJNZ    L1349
13A4: D4 E8 00                          CALL    NC,L00E8
13A7: 00                                NOP
13A8: 00                                NOP
13A9: E8                         L13A9: RET     PE
13AA: 76                                HALT
13AB: 48                                LD      C,B
13AC: 17                                RLA
13AD: 00                                NOP
13AE: 00                                NOP
13AF: 00                                NOP
13B0: E4 0B 54                          CALL    PO,540Bh
13B3: 02                                LD      (BC),A
13B4: 00                                NOP
13B5: 00                                NOP
13B6: 00                                NOP
13B7: CA 9A 3B                          JP      Z,3B9Ah
13BA: 00                                NOP
13BB: 00                                NOP
13BC: 00                                NOP
13BD: 00                                NOP
13BE: E1                                POP     HL
13BF: F5                                PUSH    AF
13C0: 05                                DEC     B
13C1: 00                                NOP
13C2: 00                                NOP
13C3: 00                                NOP
13C4: 80                                ADD     A,B
13C5: 96                                SUB     (HL)
13C6: 98                                SBC     A,B
13C7: 00                                NOP
13C8: 00                                NOP
13C9: 00                                NOP
13CA: 00                                NOP
13CB: 40                                LD      B,B
13CC: 42                                LD      B,D
13CD: 0F                                RRCA
13CE: 00                                NOP
13CF: 00                                NOP
13D0: 00                                NOP
13D1: 00                                NOP
13D2: A0                                AND     B
13D3: 86                                ADD     A,(HL)
13D4: 01 10 27                          LD      BC,2710h
13D7: 00                                NOP
13D8: 10 27                             DJNZ    L1401
13DA: E8                                RET     PE
13DB: 03                                INC     BC
13DC: 64                                LD      H,H
13DD: 00                                NOP
13DE: 0A                                LD      A,(BC)
13DF: 00                                NOP
13E0: 01 00 21                   L13E0: LD      BC,2100h
13E3: 82                                ADD     A,D
13E4: 09                                ADD     HL,BC
13E5: E3                                EX      (SP),HL
13E6: E9                                JP      (HL)

13E7: CD A4 09                   L13E7: CALL    L09A4
13EA: 21 80 13                          LD      HL,1380h
13ED: CD B1 09                          CALL    L09B1
13F0: 18 03                             JR      L13F5

13F2: CD B1 0A                   L13F2: CALL    L0AB1
13F5: C1                         L13F5: POP     BC
13F6: D1                                POP     DE
13F7: CD 55 09                          CALL    L0955
13FA: 78                                LD      A,B
13FB: 28 3C                             JR      Z,L1439
13FD: F2 04 14                          JP      P,L1404
1400: B7                                OR      A
1401: CA 9A 19                   L1401: JP      Z,L1999+1       ; reference not aligned to instruction
1404: B7                         L1404: OR      A
1405: CA 79 07                          JP      Z,L0779
1408: D5                                PUSH    DE
1409: C5                                PUSH    BC
140A: 79                                LD      A,C
140B: F6 7F                             OR      7Fh     ; ''
140D: CD BF 09                          CALL    L09BF
1410: F2 21 14                          JP      P,L1421
1413: D5                                PUSH    DE
1414: C5                                PUSH    BC
1415: CD 40 0B                          CALL    L0B40
1418: C1                                POP     BC
1419: D1                                POP     DE
141A: F5                                PUSH    AF
141B: CD 0C 0A                          CALL    L0A0C
141E: E1                                POP     HL
141F: 7C                                LD      A,H
1420: 1F                                RRA
1421: E1                         L1421: POP     HL
1422: 22 23 41                          LD      (4123h),HL
1425: E1                                POP     HL
1426: 22 21 41                          LD      (4121h),HL
1429: DC E2 13                          CALL    C,L13E0+2       ; reference not aligned to instruction
142C: CC 82 09                          CALL    Z,L0982
142F: D5                                PUSH    DE
1430: C5                                PUSH    BC
1431: CD 09 08                          CALL    L0809
1434: C1                                POP     BC
1435: D1                                POP     DE
1436: CD 47 08                          CALL    L0847
1439: CD A4 09                   L1439: CALL    L09A4
143C: 01 38 81                          LD      BC,8138h
143F: 11 3B AA                          LD      DE,0AA3Bh
1442: CD 47 08                          CALL    L0847
1445: 3A 24 41                          LD      A,(4124h)
1448: FE 88                             CP      88h
144A: D2 31 09                          JP      NC,L0931
144D: CD 40 0B                          CALL    L0B40
1450: C6 80                             ADD     A,80h
1452: C6 02                             ADD     A,02h
1454: DA 31 09                          JP      C,L0931
1457: F5                                PUSH    AF
1458: 21 F8 07                          LD      HL,07F8h
145B: CD 0B 07                          CALL    L070B
145E: CD 41 08                          CALL    L0841
1461: F1                                POP     AF
1462: C1                                POP     BC
1463: D1                                POP     DE
1464: F5                                PUSH    AF
1465: CD 13 07                          CALL    L0713
1468: CD 82 09                          CALL    L0982
146B: 21 79 14                          LD      HL,1479h
146E: CD A9 14                          CALL    L14A9
1471: 11 00 00                          LD      DE,0000h
1474: C1                                POP     BC
1475: 4A                                LD      C,D
1476: C3 47 08                          JP      L0847

1479: 08                         L1479: EX      AF,AF'
147A: 40                                LD      B,B
147B: 2E 94                             LD      L,94h
147D: 74                                LD      (HL),H
147E: 70                                LD      (HL),B
147F: 4F                                LD      C,A
1480: 2E 77                             LD      L,77h   ; 'w'
1482: 6E                                LD      L,(HL)
1483: 02                                LD      (BC),A
1484: 88                                ADC     A,B
1485: 7A                                LD      A,D
1486: E6 A0                             AND     0A0h
1488: 2A 7C 50                          LD      HL,(507Ch)
148B: AA                                XOR     D
148C: AA                                XOR     D
148D: 7E                                LD      A,(HL)
148E: FF                                RST     0x38
148F: FF                                RST     0x38
1490: 7F                                LD      A,A
1491: 7F                                LD      A,A
1492: 00                                NOP
1493: 00                                NOP
1494: 80                                ADD     A,B
1495: 81                                ADD     A,C
1496: 00                                NOP
1497: 00                                NOP
1498: 00                                NOP
1499: 81                                ADD     A,C
                                        ; --- START PROC L149A ---
149A: CD A4 09                   L149A: CALL    L09A4
149D: 11 32 0C                          LD      DE,0C32h
14A0: D5                                PUSH    DE
14A1: E5                                PUSH    HL
14A2: CD BF 09                          CALL    L09BF
14A5: CD 47 08                          CALL    L0847
14A8: E1                                POP     HL
                                        ; --- START PROC L14A9 ---
14A9: CD A4 09                   L14A9: CALL    L09A4
14AC: 7E                                LD      A,(HL)
14AD: 23                                INC     HL
14AE: CD B1 09                          CALL    L09B1
14B1: 06 F1                      L14B1: LD      B,0F1h
14B3: C1                                POP     BC
14B4: D1                                POP     DE
14B5: 3D                                DEC     A
14B6: C8                                RET     Z
14B7: D5                                PUSH    DE
14B8: C5                                PUSH    BC
14B9: F5                                PUSH    AF
14BA: E5                                PUSH    HL
14BB: CD 47 08                          CALL    L0847
14BE: E1                                POP     HL
14BF: CD C2 09                          CALL    L09C2
14C2: E5                                PUSH    HL
14C3: CD 16 07                          CALL    L0716
14C6: E1                                POP     HL
14C7: 18 E9                             JR      L14B1+1 ; reference not aligned to instruction

14C9: CD 7F 0A                   L14C9: CALL    L0A7F
14CC: 7C                                LD      A,H
14CD: B7                                OR      A
14CE: FA 4A 1E                          JP      M,L1E4A
14D1: B5                                OR      L
14D2: CA F0 14                          JP      Z,L14F0
14D5: E5                                PUSH    HL
14D6: CD F0 14                          CALL    L14F0
14D9: CD BF 09                          CALL    L09BF
14DC: EB                                EX      DE,HL
14DD: E3                                EX      (SP),HL
14DE: C5                                PUSH    BC
14DF: CD CF 0A                          CALL    L0ACF
14E2: C1                                POP     BC
14E3: D1                                POP     DE
14E4: CD 47 08                          CALL    L0847
14E7: 21 F8 07                          LD      HL,07F8h
14EA: CD 0B 07                          CALL    L070B
14ED: C3 40 0B                          JP      L0B40

                                        ; --- START PROC L14F0 ---
14F0: 21 90 40                   L14F0: LD      HL,4090h
14F3: E5                                PUSH    HL
14F4: 11 00 00                          LD      DE,0000h
14F7: 4B                                LD      C,E
14F8: 26 03                             LD      H,03h
14FA: 2E 08                      L14FA: LD      L,08h
14FC: EB                         L14FC: EX      DE,HL
14FD: 29                                ADD     HL,HL
14FE: EB                                EX      DE,HL
14FF: 79                                LD      A,C
1500: 17                                RLA
1501: 4F                                LD      C,A
1502: E3                                EX      (SP),HL
1503: 7E                                LD      A,(HL)
1504: 07                                RLCA
1505: 77                                LD      (HL),A
1506: E3                                EX      (SP),HL
1507: D2 16 15                          JP      NC,L1516
150A: E5                                PUSH    HL
150B: 2A AA 40                          LD      HL,(40AAh)
150E: 19                                ADD     HL,DE
150F: EB                                EX      DE,HL
1510: 3A AC 40                          LD      A,(40ACh)
1513: 89                                ADC     A,C
1514: 4F                                LD      C,A
1515: E1                                POP     HL
1516: 2D                         L1516: DEC     L
1517: C2 FC 14                          JP      NZ,L14FC
151A: E3                                EX      (SP),HL
151B: 23                                INC     HL
151C: E3                                EX      (SP),HL
151D: 25                                DEC     H
151E: C2 FA 14                          JP      NZ,L14FA
1521: E1                                POP     HL
1522: 21 65 B0                          LD      HL,0B065h
1525: 19                                ADD     HL,DE
1526: 22 AA 40                          LD      (40AAh),HL
1529: CD EF 0A                          CALL    L0AEE+1 ; reference not aligned to instruction
152C: 3E 05                             LD      A,05h
152E: 89                                ADC     A,C
152F: 32 AC 40                          LD      (40ACh),A
1532: EB                                EX      DE,HL
1533: 06 80                             LD      B,80h
1535: 21 25 41                          LD      HL,4125h
1538: 70                                LD      (HL),B
1539: 2B                                DEC     HL
153A: 70                                LD      (HL),B
153B: 4F                                LD      C,A
153C: 06 00                             LD      B,00h
153E: C3 65 07                          JP      L0765

                                        ; --- START PROC L1541 ---
1541: 21 8B 15                   L1541: LD      HL,158Bh
1544: CD 0B 07                          CALL    L070B
                                        ; --- START PROC L1547 ---
1547: CD A4 09                   L1547: CALL    L09A4
154A: 01 49 83                          LD      BC,8349h
154D: 11 DB 0F                          LD      DE,0FDBh
1550: CD B4 09                          CALL    L09B4
1553: C1                                POP     BC
1554: D1                                POP     DE
1555: CD A2 08                          CALL    L08A2
1558: CD A4 09                          CALL    L09A4
155B: CD 40 0B                          CALL    L0B40
155E: C1                                POP     BC
155F: D1                                POP     DE
1560: CD 13 07                          CALL    L0713
1563: 21 8F 15                          LD      HL,158Fh
1566: CD 10 07                          CALL    L0710
1569: CD 55 09                          CALL    L0955
156C: 37                                SCF
156D: F2 77 15                          JP      P,L1577
1570: CD 08 07                          CALL    L0708
1573: CD 55 09                          CALL    L0955
1576: B7                                OR      A
1577: F5                         L1577: PUSH    AF
1578: F4 82 09                          CALL    P,L0982
157B: 21 8F 15                          LD      HL,158Fh
157E: CD 0B 07                          CALL    L070B
1581: F1                                POP     AF
1582: D4 82 09                          CALL    NC,L0982
1585: 21 93 15                          LD      HL,1593h
1588: C3 9A 14                          JP      L149A

158B: DB 0F                      L158B: IN      A,(0Fh)
158D: 49                                LD      C,C
158E: 81                                ADD     A,C
158F: 00                                NOP
1590: 00                                NOP
1591: 00                                NOP
1592: 7F                                LD      A,A
1593: 05                                DEC     B
1594: BA                                CP      D
1595: D7                                RST     0x10
1596: 1E 86                             LD      E,86h
1598: 64                                LD      H,H
1599: 26 99                             LD      H,99h
159B: 87                                ADD     A,A
159C: 58                                LD      E,B
159D: 34                                INC     (HL)
159E: 23                                INC     HL
159F: 87                                ADD     A,A
15A0: E0                                RET     PO
15A1: 5D                                LD      E,L
15A2: A5                                AND     L
15A3: 86                                ADD     A,(HL)
15A4: DA 0F 49                          JP      C,490Fh
15A7: 83                                ADD     A,E
15A8: CD A4 09                          CALL    L09A4
15AB: CD 47 15                          CALL    L1547
15AE: C1                                POP     BC
15AF: E1                                POP     HL
15B0: CD A4 09                          CALL    L09A4
15B3: EB                                EX      DE,HL
15B4: CD B4 09                          CALL    L09B4
15B7: CD 41 15                          CALL    L1541
15BA: C3 A0 08                          JP      L08A0

15BD: CD 55 09                   L15BD: CALL    L0955
15C0: FC E2 13                          CALL    M,L13E0+2       ; reference not aligned to instruction
15C3: FC 82 09                          CALL    M,L0982
15C6: 3A 24 41                          LD      A,(4124h)
15C9: FE 81                             CP      81h
15CB: 38 0C                             JR      C,L15D9
15CD: 01 00 81                          LD      BC,8100h
15D0: 51                                LD      D,C
15D1: 59                                LD      E,C
15D2: CD A2 08                          CALL    L08A2
15D5: 21 10 07                          LD      HL,0710h
15D8: E5                                PUSH    HL
15D9: 21 E3 15                   L15D9: LD      HL,15E3h
15DC: CD 9A 14                          CALL    L149A
15DF: 21 8B 15                          LD      HL,158Bh
15E2: C9                                RET

15E3: 09                         L15E3: ADD     HL,BC
15E4: 4A                                LD      C,D
15E5: D7                                RST     0x10
15E6: 3B                                DEC     SP
15E7: 78                                LD      A,B
15E8: 02                                LD      (BC),A
15E9: 6E                                LD      L,(HL)
15EA: 84                                ADD     A,H
15EB: 7B                                LD      A,E
15EC: FE C1                             CP      0C1h
15EE: 2F                                CPL
15EF: 7C                                LD      A,H
15F0: 74                                LD      (HL),H
15F1: 31 9A 7D                          LD      SP,7D9Ah
15F4: 84                                ADD     A,H
15F5: 3D                                DEC     A
15F6: 5A                                LD      E,D
15F7: 7D                                LD      A,L
15F8: C8                                RET     Z
15F9: 7F                                LD      A,A
15FA: 91                                SUB     C
15FB: 7E                                LD      A,(HL)
15FC: E4 BB 4C                          CALL    PO,4CBBh
15FF: 7E                                LD      A,(HL)
1600: 6C                                LD      L,H
1601: AA                                XOR     D
1602: AA                                XOR     D
1603: 7F                                LD      A,A
1604: 00                                NOP
1605: 00                                NOP
1606: 00                                NOP
1607: 81                                ADD     A,C
1608: 8A                                ADC     A,D
1609: 09                                ADD     HL,BC
160A: 37                                SCF
160B: 0B                                DEC     BC
160C: 77                                LD      (HL),A
160D: 09                                ADD     HL,BC
160E: D4 27 EF                          CALL    NC,0EF27h
1611: 2A F5 27                          LD      HL,(L27F5)
1614: E7                                RST     0x20
1615: 13                                INC     DE
1616: C9                                RET

1617: 14                         L1617: INC     D
1618: 09                                ADD     HL,BC
1619: 08                                EX      AF,AF'
161A: 39                                ADD     HL,SP
161B: 14                                INC     D
161C: 41                                LD      B,C
161D: 15                                DEC     D
161E: 47                                LD      B,A
161F: 15                                DEC     D
1620: A8                                XOR     B
1621: 15                                DEC     D
1622: BD                                CP      L
1623: 15                                DEC     D
1624: AA                                XOR     D
1625: 2C                                INC     L
1626: 52                                LD      D,D
1627: 41                                LD      B,C
1628: 58                                LD      E,B
1629: 41                                LD      B,C
162A: 5E                                LD      E,(HL)
162B: 41                                LD      B,C
162C: 61                                LD      H,C
162D: 41                                LD      B,C
162E: 64                                LD      H,H
162F: 41                                LD      B,C
1630: 67                                LD      H,A
1631: 41                                LD      B,C
1632: 6A                                LD      L,D
1633: 41                                LD      B,C
1634: 6D                                LD      L,L
1635: 41                                LD      B,C
1636: 70                                LD      (HL),B
1637: 41                                LD      B,C
1638: 7F                                LD      A,A
1639: 0A                                LD      A,(BC)
163A: B1                                OR      C
163B: 0A                                LD      A,(BC)
163C: DB 0A                             IN      A,(0Ah)
163E: 26 0B                             LD      H,0Bh
1640: 03                                INC     BC
1641: 2A 36 28                          LD      HL,(L2836)
1644: C5                                PUSH    BC
1645: 2A 0F 2A                          LD      HL,(L2A0F)
1648: 1F                                RRA
1649: 2A 61 2A                          LD      HL,(L2A61)
164C: 91                                SUB     C
164D: 2A 9A 2A                          LD      HL,(L2A9A)
1650: C5                                PUSH    BC
1651: 4E                                LD      C,(HL)
1652: 44                                LD      B,H
1653: C6 4F                             ADD     A,4Fh   ; 'O'
1655: 52                                LD      D,D
1656: D2 45 53                          JP      NC,5345h
1659: 45                                LD      B,L
165A: 54                                LD      D,H
165B: D3 45                             OUT     (45h),A ; 'E'
165D: 54                                LD      D,H
165E: C3 4C 53                          JP      534Ch

1661: C3 4D 44                   L1661: JP      444Dh

1664: D2 41 4E                   L1664: JP      NC,4E41h
1667: 44                                LD      B,H
1668: 4F                                LD      C,A
1669: 4D                                LD      C,L
166A: CE 45                             ADC     A,45h   ; 'E'
166C: 58                                LD      E,B
166D: 54                                LD      D,H
166E: C4 41 54                          CALL    NZ,5441h
1671: 41                                LD      B,C
1672: C9                                RET

1673: 4E                         L1673: LD      C,(HL)
1674: 50                                LD      D,B
1675: 55                                LD      D,L
1676: 54                                LD      D,H
1677: C4 49 4D                          CALL    NZ,4D49h
167A: D2 45 41                          JP      NC,4145h
167D: 44                                LD      B,H
167E: CC 45 54                          CALL    Z,5445h
1681: C7                                RST     0x00
1682: 4F                                LD      C,A
1683: 54                                LD      D,H
1684: 4F                                LD      C,A
1685: D2 55 4E                          JP      NC,4E55h
1688: C9                                RET

1689: 46                         L1689: LD      B,(HL)
168A: D2 45 53                          JP      NC,5345h
168D: 54                                LD      D,H
168E: 4F                                LD      C,A
168F: 52                                LD      D,D
1690: 45                                LD      B,L
1691: C7                                RST     0x00
1692: 4F                                LD      C,A
1693: 53                                LD      D,E
1694: 55                                LD      D,L
1695: 42                                LD      B,D
1696: D2 45 54                          JP      NC,5445h
1699: 55                                LD      D,L
169A: 52                                LD      D,D
169B: 4E                                LD      C,(HL)
169C: D2 45 4D                          JP      NC,4D45h
169F: D3 54                             OUT     (54h),A ; 'T'
16A1: 4F                                LD      C,A
16A2: 50                                LD      D,B
16A3: C5                                PUSH    BC
16A4: 4C                                LD      C,H
16A5: 53                                LD      D,E
16A6: 45                                LD      B,L
16A7: D4 52 4F                          CALL    NC,4F52h
16AA: 4E                                LD      C,(HL)
16AB: D4 52 4F                          CALL    NC,4F52h
16AE: 46                                LD      B,(HL)
16AF: 46                                LD      B,(HL)
16B0: C4 45 46                          CALL    NZ,4645h
16B3: 53                                LD      D,E
16B4: 54                                LD      D,H
16B5: 52                                LD      D,D
16B6: C4 45 46                          CALL    NZ,4645h
16B9: 49                                LD      C,C
16BA: 4E                                LD      C,(HL)
16BB: 54                                LD      D,H
16BC: C4 45 46                          CALL    NZ,4645h
16BF: 53                                LD      D,E
16C0: 4E                                LD      C,(HL)
16C1: 47                                LD      B,A
16C2: C4 45 46                          CALL    NZ,4645h
16C5: 44                                LD      B,H
16C6: 42                                LD      B,D
16C7: 4C                                LD      C,H
16C8: CC 49 4E                          CALL    Z,4E49h
16CB: 45                                LD      B,L
16CC: C5                                PUSH    BC
16CD: 44                                LD      B,H
16CE: 49                                LD      C,C
16CF: 54                                LD      D,H
16D0: C5                                PUSH    BC
16D1: 52                                LD      D,D
16D2: 52                                LD      D,D
16D3: 4F                                LD      C,A
16D4: 52                                LD      D,D
16D5: D2 45 53                          JP      NC,5345h
16D8: 55                                LD      D,L
16D9: 4D                                LD      C,L
16DA: 45                                LD      B,L
16DB: CF                                RST     0x08
16DC: 55                                LD      D,L
16DD: 54                                LD      D,H
16DE: CF                                RST     0x08
16DF: 4E                                LD      C,(HL)
16E0: CF                                RST     0x08
16E1: 50                                LD      D,B
16E2: 45                                LD      B,L
16E3: 4E                                LD      C,(HL)
16E4: C6 49                             ADD     A,49h   ; 'I'
16E6: 45                                LD      B,L
16E7: 4C                                LD      C,H
16E8: 44                                LD      B,H
16E9: C7                                RST     0x00
16EA: 45                                LD      B,L
16EB: 54                                LD      D,H
16EC: D0                                RET     NC
16ED: 55                                LD      D,L
16EE: 54                                LD      D,H
16EF: C3 4C 4F                          JP      4F4Ch

16F2: 53                         L16F2: LD      D,E
16F3: 45                                LD      B,L
16F4: CC 4F 41                          CALL    Z,414Fh
16F7: 44                                LD      B,H
16F8: CD 45 52                          CALL    5245h
16FB: 47                                LD      B,A
16FC: 45                                LD      B,L
16FD: CE 41                             ADC     A,41h   ; 'A'
16FF: 4D                                LD      C,L
1700: 45                                LD      B,L
1701: CB 49                             BIT     1,C
1703: 4C                                LD      C,H
1704: 4C                                LD      C,H
1705: CC 53 45                          CALL    Z,4553h
1708: 54                                LD      D,H
1709: D2 53 45                          JP      NC,4553h
170C: 54                                LD      D,H
170D: D3 41                             OUT     (41h),A ; 'A'
170F: 56                                LD      D,(HL)
1710: 45                                LD      B,L
1711: D3 59                             OUT     (59h),A ; 'Y'
1713: 53                                LD      D,E
1714: 54                                LD      D,H
1715: 45                                LD      B,L
1716: 4D                                LD      C,L
1717: CC 50 52                          CALL    Z,5250h
171A: 49                                LD      C,C
171B: 4E                                LD      C,(HL)
171C: 54                                LD      D,H
171D: C4 45 46                          CALL    NZ,4645h
1720: D0                                RET     NC
1721: 4F                                LD      C,A
1722: 4B                                LD      C,E
1723: 45                                LD      B,L
1724: D0                                RET     NC
1725: 52                                LD      D,D
1726: 49                                LD      C,C
1727: 4E                                LD      C,(HL)
1728: 54                                LD      D,H
1729: C3 4F 4E                   L1729: JP      4E4Fh

172C: 54                         L172C: LD      D,H
172D: CC 49 53                          CALL    Z,5349h
1730: 54                                LD      D,H
1731: CC 4C 49                          CALL    Z,494Ch
1734: 53                                LD      D,E
1735: 54                                LD      D,H
1736: C4 45 4C                          CALL    NZ,4C45h
1739: 45                                LD      B,L
173A: 54                                LD      D,H
173B: 45                                LD      B,L
173C: C1                                POP     BC
173D: 55                                LD      D,L
173E: 54                                LD      D,H
173F: 4F                                LD      C,A
1740: C3 4C 45                          JP      454Ch

1743: 41                         L1743: LD      B,C
1744: 52                                LD      D,D
1745: C3 4C 4F                          JP      4F4Ch

1748: 41                         L1748: LD      B,C
1749: 44                                LD      B,H
174A: C3 53 41                          JP      4153h

174D: 56                         L174D: LD      D,(HL)
174E: 45                                LD      B,L
174F: CE 45                             ADC     A,45h   ; 'E'
1751: 57                                LD      D,A
1752: D4 41 42                          CALL    NC,4241h
1755: 28 D4                             JR      Z,L1729+2       ; reference not aligned to instruction
1757: 4F                                LD      C,A
1758: C6 4E                             ADD     A,4Eh   ; 'N'
175A: D5                                PUSH    DE
175B: 53                                LD      D,E
175C: 49                                LD      C,C
175D: 4E                                LD      C,(HL)
175E: 47                                LD      B,A
175F: D6 41                             SUB     41h     ; 'A'
1761: 52                                LD      D,D
1762: 50                                LD      D,B
1763: 54                                LD      D,H
1764: 52                                LD      D,D
1765: D5                                PUSH    DE
1766: 53                                LD      D,E
1767: 52                                LD      D,D
1768: C5                                PUSH    BC
1769: 52                                LD      D,D
176A: 4C                                LD      C,H
176B: C5                                PUSH    BC
176C: 52                                LD      D,D
176D: 52                                LD      D,D
176E: D3 54                             OUT     (54h),A ; 'T'
1770: 52                                LD      D,D
1771: 49                                LD      C,C
1772: 4E                                LD      C,(HL)
1773: 47                                LD      B,A
1774: 24                                INC     H
1775: C9                                RET

1776: 4E                         L1776: LD      C,(HL)
1777: 53                                LD      D,E
1778: 54                                LD      D,H
1779: 52                                LD      D,D
177A: D0                                RET     NC
177B: 4F                                LD      C,A
177C: 49                                LD      C,C
177D: 4E                                LD      C,(HL)
177E: 54                                LD      D,H
177F: D4 49 4D                          CALL    NC,4D49h
1782: 45                                LD      B,L
1783: 24                                INC     H
1784: CD 45 4D                          CALL    4D45h
1787: C9                                RET

1788: 4E                         L1788: LD      C,(HL)
1789: 4B                                LD      C,E
178A: 45                                LD      B,L
178B: 59                                LD      E,C
178C: 24                                INC     H
178D: D4 48 45                          CALL    NC,4548h
1790: 4E                                LD      C,(HL)
1791: CE 4F                             ADC     A,4Fh   ; 'O'
1793: 54                                LD      D,H
1794: D3 54                             OUT     (54h),A ; 'T'
1796: 45                                LD      B,L
1797: 50                                LD      D,B
1798: AB                                XOR     E
1799: AD                                XOR     L
179A: AA                                XOR     D
179B: AF                                XOR     A
179C: DB C1                             IN      A,(0C1h)
179E: 4E                                LD      C,(HL)
179F: 44                                LD      B,H
17A0: CF                                RST     0x08
17A1: 52                                LD      D,D
17A2: BE                                CP      (HL)
17A3: BD                                CP      L
17A4: BC                                CP      H
17A5: D3 47                             OUT     (47h),A ; 'G'
17A7: 4E                                LD      C,(HL)
17A8: C9                                RET

17A9: 4E                         L17A9: LD      C,(HL)
17AA: 54                                LD      D,H
17AB: C1                                POP     BC
17AC: 42                                LD      B,D
17AD: 53                                LD      D,E
17AE: C6 52                             ADD     A,52h   ; 'R'
17B0: 45                                LD      B,L
17B1: C9                                RET

17B2: 4E                         L17B2: LD      C,(HL)
17B3: 50                                LD      D,B
17B4: D0                                RET     NC
17B5: 4F                                LD      C,A
17B6: 53                                LD      D,E
17B7: D3 51                             OUT     (51h),A ; 'Q'
17B9: 52                                LD      D,D
17BA: D2 4E 44                          JP      NC,444Eh
17BD: CC 4F 47                          CALL    Z,474Fh
17C0: C5                                PUSH    BC
17C1: 58                                LD      E,B
17C2: 50                                LD      D,B
17C3: C3 4F 53                          JP      534Fh

17C6: D3 49                      L17C6: OUT     (49h),A ; 'I'
17C8: 4E                                LD      C,(HL)
17C9: D4 41 4E                          CALL    NC,4E41h
17CC: C1                                POP     BC
17CD: 54                                LD      D,H
17CE: 4E                                LD      C,(HL)
17CF: D0                                RET     NC
17D0: 45                                LD      B,L
17D1: 45                                LD      B,L
17D2: 4B                                LD      C,E
17D3: C3 56 49                   L17D3: JP      4956h

17D6: C3 56 53                   L17D6: JP      5356h

17D9: C3 56 44                   L17D9: JP      4456h

17DC: C5                         L17DC: PUSH    BC
17DD: 4F                                LD      C,A
17DE: 46                                LD      B,(HL)
17DF: CC 4F 43                          CALL    Z,434Fh
17E2: CC 4F 46                          CALL    Z,464Fh
17E5: CD 4B 49                          CALL    494Bh
17E8: 24                                INC     H
17E9: CD 4B 53                          CALL    534Bh
17EC: 24                                INC     H
17ED: CD 4B 44                          CALL    444Bh
17F0: 24                                INC     H
17F1: C3 49 4E                          JP      4E49h

17F4: 54                         L17F4: LD      D,H
17F5: C3 53 4E                          JP      4E53h

17F8: 47                         L17F8: LD      B,A
17F9: C3 44 42                          JP      4244h

17FC: 4C                         L17FC: LD      C,H
17FD: C6 49                             ADD     A,49h   ; 'I'
17FF: 58                                LD      E,B
1800: CC 45 4E                          CALL    Z,4E45h
1803: D3 54                             OUT     (54h),A ; 'T'
1805: 52                                LD      D,D
1806: 24                                INC     H
1807: D6 41                             SUB     41h     ; 'A'
1809: 4C                                LD      C,H
180A: C1                                POP     BC
180B: 53                                LD      D,E
180C: 43                                LD      B,E
180D: C3 48 52                          JP      5248h

1810: 24                         L1810: INC     H
1811: CC 45 46                          CALL    Z,4645h
1814: 54                                LD      D,H
1815: 24                                INC     H
1816: D2 49 47                          JP      NC,4749h
1819: 48                                LD      C,B
181A: 54                                LD      D,H
181B: 24                                INC     H
181C: CD 49 44                          CALL    4449h
181F: 24                                INC     H
1820: A7                                AND     A
1821: 80                                ADD     A,B
1822: AE                                XOR     (HL)
1823: 1D                                DEC     E
1824: A1                                AND     C
1825: 1C                                INC     E
1826: 38 01                             JR      C,L1829
1828: 35                                DEC     (HL)
1829: 01 C9 01                   L1829: LD      BC,01C9h
182C: 73                                LD      (HL),E
182D: 41                                LD      B,C
182E: D3 01                             OUT     (01h),A
1830: B6                                OR      (HL)
1831: 22 05 1F                          LD      (L1F05),HL
1834: 9A                                SBC     A,D
1835: 21 08 26                          LD      HL,2608h
1838: EF                                RST     0x28
1839: 21 21 1F                          LD      HL,1F21h
183C: C2 1E A3                          JP      NZ,0A31Eh
183F: 1E 39                             LD      E,39h   ; '9'
1841: 20 91                             JR      NZ,L17D3+1      ; reference not aligned to instruction
1843: 1D                                DEC     E
1844: B1                                OR      C
1845: 1E DE                             LD      E,0DEh
1847: 1E 07                             LD      E,07h
1849: 1F                                RRA
184A: A9                                XOR     C
184B: 1D                                DEC     E
184C: 07                                RLCA
184D: 1F                                RRA
184E: F7                                RST     0x30
184F: 1D                                DEC     E
1850: F8                                RET     M
1851: 1D                                DEC     E
1852: 00                                NOP
1853: 1E 03                             LD      E,03h
1855: 1E 06                             LD      E,06h
1857: 1E 09                             LD      E,09h
1859: 1E A3                             LD      E,0A3h
185B: 41                                LD      B,C
185C: 60                                LD      H,B
185D: 2E F4                             LD      L,0F4h
185F: 1F                                RRA
1860: AF                                XOR     A
1861: 1F                                RRA
1862: FB                                EI
1863: 2A 6C 1F                          LD      HL,(L1F6C)
1866: 79                                LD      A,C
1867: 41                                LD      B,C
1868: 7C                                LD      A,H
1869: 41                                LD      B,C
186A: 7F                                LD      A,A
186B: 41                                LD      B,C
186C: 82                                ADD     A,D
186D: 41                         L186D: LD      B,C
186E: 85                                ADD     A,L
186F: 41                                LD      B,C
1870: 88                                ADC     A,B
1871: 41                                LD      B,C
1872: 8B                                ADC     A,E
1873: 41                                LD      B,C
1874: 8E                                ADC     A,(HL)
1875: 41                                LD      B,C
1876: 91                                SUB     C
1877: 41                                LD      B,C
1878: 97                                SUB     A
1879: 41                                LD      B,C
187A: 9A                                SBC     A,D
187B: 41                                LD      B,C
187C: A0                                AND     B
187D: 41                                LD      B,C
187E: B2                                OR      D
187F: 02                                LD      (BC),A
1880: 67                                LD      H,A
1881: 20 5B                             JR      NZ,L18DE
1883: 41                                LD      B,C
1884: B1                                OR      C
1885: 2C                                INC     L
1886: 6F                                LD      L,A
1887: 20 E4                             JR      NZ,L186D
1889: 1D                                DEC     E
188A: 2E 2B                             LD      L,2Bh   ; '+'
188C: 29                                ADD     HL,HL
188D: 2B                                DEC     HL
188E: C6 2B                             ADD     A,2Bh   ; '+'
1890: 08                                EX      AF,AF'
1891: 20 7A                             JR      NZ,L190D
1893: 1E 1F                             LD      E,1Fh
1895: 2C                                INC     L
1896: F5                                PUSH    AF
1897: 2B                                DEC     HL
1898: 49                                LD      C,C
1899: 1B                                DEC     DE
189A: 79                                LD      A,C
189B: 79                                LD      A,C
189C: 7C                                LD      A,H
189D: 7C                                LD      A,H
189E: 7F                                LD      A,A
189F: 50                                LD      D,B
18A0: 46                                LD      B,(HL)
18A1: DB 0A                             IN      A,(0Ah)
18A3: 00                                NOP
18A4: 00                                NOP
18A5: 7F                                LD      A,A
18A6: 0A                                LD      A,(BC)
18A7: F4 0A B1                          CALL    P,0B10Ah
18AA: 0A                                LD      A,(BC)
18AB: 77                                LD      (HL),A
18AC: 0C                                INC     C
18AD: 70                                LD      (HL),B
18AE: 0C                                INC     C
18AF: A1                                AND     C
18B0: 0D                                DEC     C
18B1: E5                                PUSH    HL
18B2: 0D                                DEC     C
18B3: 78                                LD      A,B
18B4: 0A                                LD      A,(BC)
18B5: 16 07                             LD      D,07h
18B7: 13                                INC     DE
18B8: 07                                RLCA
18B9: 47                                LD      B,A
18BA: 08                                EX      AF,AF'
18BB: A2                                AND     D
18BC: 08                                EX      AF,AF'
18BD: 0C                                INC     C
18BE: 0A                                LD      A,(BC)
18BF: D2 0B C7                          JP      NC,0C70Bh
18C2: 0B                                DEC     BC
18C3: F2 0B 90                          JP      P,900Bh
18C6: 24                                INC     H
18C7: 39                                ADD     HL,SP
18C8: 0A                                LD      A,(BC)
18C9: 4E                                LD      C,(HL)
18CA: 46                                LD      B,(HL)
18CB: 53                                LD      D,E
18CC: 4E                                LD      C,(HL)
18CD: 52                                LD      D,D
18CE: 47                                LD      B,A
18CF: 4F                                LD      C,A
18D0: 44                                LD      B,H
18D1: 46                                LD      B,(HL)
18D2: 43                                LD      B,E
18D3: 4F                                LD      C,A
18D4: 56                                LD      D,(HL)
18D5: 4F                                LD      C,A
18D6: 4D                                LD      C,L
18D7: 55                                LD      D,L
18D8: 4C                                LD      C,H
18D9: 42                                LD      B,D
18DA: 53                                LD      D,E
18DB: 44                                LD      B,H
18DC: 44                                LD      B,H
18DD: 2F                                CPL
18DE: 30 49                      L18DE: JR      NC,L1929
18E0: 44                                LD      B,H
18E1: 54                                LD      D,H
18E2: 4D                                LD      C,L
18E3: 4F                                LD      C,A
18E4: 53                                LD      D,E
18E5: 4C                                LD      C,H
18E6: 53                                LD      D,E
18E7: 53                                LD      D,E
18E8: 54                                LD      D,H
18E9: 43                                LD      B,E
18EA: 4E                                LD      C,(HL)
18EB: 4E                                LD      C,(HL)
18EC: 52                                LD      D,D
18ED: 52                                LD      D,D
18EE: 57                                LD      D,A
18EF: 55                                LD      D,L
18F0: 45                                LD      B,L
18F1: 4D                                LD      C,L
18F2: 4F                                LD      C,A
18F3: 46                                LD      B,(HL)
18F4: 44                                LD      B,H
18F5: 4C                                LD      C,H
18F6: 33                                INC     SP
18F7: D6 00                             SUB     00h
18F9: 6F                                LD      L,A
18FA: 7C                                LD      A,H
18FB: DE 00                             SBC     A,00h
18FD: 67                                LD      H,A
18FE: 78                                LD      A,B
18FF: DE 00                             SBC     A,00h
1901: 47                                LD      B,A
1902: 3E 00                             LD      A,00h
1904: C9                                RET

1905: 4A                         L1905: LD      C,D
1906: 1E 40                             LD      E,40h   ; '@'
1908: E6 4D                             AND     4Dh     ; 'M'
190A: DB 00                             IN      A,(00h)
190C: C9                                RET

190D: D3 00                      L190D: OUT     (00h),A
190F: C9                                RET

1910: 00                         L1910: NOP
1911: 00                                NOP
1912: 00                                NOP
1913: 00                                NOP
1914: 40                                LD      B,B
1915: 30 00                             JR      NC,L1917
1917: 4C                         L1917: LD      C,H
1918: 43                                LD      B,E
1919: FE FF                             CP      0FFh
191B: E9                                JP      (HL)

191C: 42                         L191C: LD      B,D
191D: 20 45                             JR      NZ,L1964
191F: 72                                LD      (HL),D
1920: 72                                LD      (HL),D
1921: 6F                                LD      L,A
1922: 72                                LD      (HL),D
1923: 00                                NOP
1924: 20 69                             JR      NZ,L198E+1      ; reference not aligned to instruction
1926: 6E                                LD      L,(HL)
1927: 20 00                             JR      NZ,L1929
1929: 52                         L1929: LD      D,D
192A: 45                                LD      B,L
192B: 41                                LD      B,C
192C: 44                                LD      B,H
192D: 59                                LD      E,C
192E: 0D                                DEC     C
192F: 00                                NOP
1930: 42                                LD      B,D
1931: 72                                LD      (HL),D
1932: 65                                LD      H,L
1933: 61                                LD      H,C
1934: 6B                                LD      L,E
1935: 00                                NOP
                                        ; --- START PROC L1936 ---
1936: 21 04 00                   L1936: LD      HL,0004h
1939: 39                                ADD     HL,SP
193A: 7E                         L193A: LD      A,(HL)
193B: 23                                INC     HL
193C: FE 81                             CP      81h
193E: C0                                RET     NZ
193F: 4E                                LD      C,(HL)
1940: 23                                INC     HL
1941: 46                                LD      B,(HL)
1942: 23                                INC     HL
1943: E5                                PUSH    HL
1944: 69                                LD      L,C
1945: 60                                LD      H,B
1946: 7A                                LD      A,D
1947: B3                                OR      E
1948: EB                                EX      DE,HL
1949: 28 02                             JR      Z,L194D
194B: EB                                EX      DE,HL
194C: DF                                RST     0x18
194D: 01 0E 00                   L194D: LD      BC,000Eh
1950: E1                                POP     HL
1951: C8                                RET     Z
1952: 09                                ADD     HL,BC
1953: 18 E5                             JR      L193A

                                        ; --- START PROC L1955 ---
1955: CD 6C 19                   L1955: CALL    L196B+1 ; reference not aligned to instruction
                                        ; --- START PROC L1958 ---
1958: C5                         L1958: PUSH    BC
1959: E3                                EX      (SP),HL
195A: C1                                POP     BC
195B: DF                         L195B: RST     0x18
195C: 7E                                LD      A,(HL)
195D: 02                                LD      (BC),A
195E: C8                                RET     Z
195F: 0B                                DEC     BC
1960: 2B                                DEC     HL
1961: 18 F8                             JR      L195B

                                        ; --- START PROC L1963 ---
1963: E5                         L1963: PUSH    HL
1964: 2A FD 40                   L1964: LD      HL,(40FDh)
1967: 06 00                             LD      B,00h
1969: 09                                ADD     HL,BC
196A: 09                                ADD     HL,BC
196B: 3E E5                      L196B: LD      A,0E5h
196D: 3E C6                             LD      A,0C6h
196F: 95                                SUB     L
1970: 6F                                LD      L,A
1971: 3E FF                             LD      A,0FFh
1973: 9C                                SBC     A,H
1974: 38 04                             JR      C,L197A
1976: 67                                LD      H,A
1977: 39                                ADD     HL,SP
1978: E1                                POP     HL
1979: D8                                RET     C
                                        ; --- START PROC L197A ---
197A: 1E 0C                      L197A: LD      E,0Ch
197C: 18 24                             JR      L19A2

                                        ; --- START PROC L197E ---
197E: 2A A2 40                   L197E: LD      HL,(40A2h)
1981: 7C                                LD      A,H
1982: A5                                AND     L
1983: 3C                                INC     A
1984: 28 08                             JR      Z,L198E
1986: 3A F2 40                          LD      A,(40F2h)
1989: B7                                OR      A
198A: 1E 22                             LD      E,22h   ; '"'
198C: 20 14                             JR      NZ,L19A2
                                        ; --- START PROC L198E ---
198E: C3 C1 1D                   L198E: JP      L1DC1

1991: 2A DA 40                   L1991: LD      HL,(40DAh)
1994: 22 A2 40                          LD      (40A2h),HL
                                        ; --- START PROC L1997 ---
1997: 1E 02                      L1997: LD      E,02h
1999: 01 1E 14                   L1999: LD      BC,141Eh
199C: 01 1E 00                   L199C: LD      BC,001Eh
199F: 01 1E 24                   L199F: LD      BC,241Eh
                                        ; --- START PROC L19A2 ---
19A2: 2A A2 40                   L19A2: LD      HL,(40A2h)
19A5: 22 EA 40                          LD      (40EAh),HL
19A8: 22 EC 40                          LD      (40ECh),HL
19AB: 01 B4 19                   L19AB: LD      BC,19B4h
19AE: 2A E8 40                   L19AE: LD      HL,(40E8h)
19B1: C3 9A 1B                          JP      L1B9A

19B4: C1                         L19B4: POP     BC
19B5: 7B                                LD      A,E
19B6: 4B                                LD      C,E
19B7: 32 9A 40                          LD      (409Ah),A
19BA: 2A E6 40                          LD      HL,(40E6h)
19BD: 22 EE 40                          LD      (40EEh),HL
19C0: EB                                EX      DE,HL
19C1: 2A EA 40                          LD      HL,(40EAh)
19C4: 7C                                LD      A,H
19C5: A5                                AND     L
19C6: 3C                                INC     A
19C7: 28 07                             JR      Z,L19D0
19C9: 22 F5 40                          LD      (40F5h),HL
19CC: EB                                EX      DE,HL
19CD: 22 F7 40                          LD      (40F7h),HL
19D0: 2A F0 40                   L19D0: LD      HL,(40F0h)
19D3: 7C                                LD      A,H
19D4: B5                                OR      L
19D5: EB                                EX      DE,HL
19D6: 21 F2 40                          LD      HL,40F2h
19D9: 28 08                             JR      Z,L19E3
19DB: A6                                AND     (HL)
19DC: 20 05                             JR      NZ,L19E3
19DE: 35                                DEC     (HL)
19DF: EB                                EX      DE,HL
19E0: C3 36 1D                          JP      L1D36

19E3: AF                         L19E3: XOR     A
19E4: 77                                LD      (HL),A
19E5: 59                                LD      E,C
19E6: CD F9 20                          CALL    L20F9
19E9: 21 C9 18                          LD      HL,18C9h
19EC: CD A6 41                          CALL    41A6h
19EF: 57                                LD      D,A
19F0: 3E 3F                             LD      A,3Fh   ; '?'
19F2: CD 2A 03                          CALL    L032A
19F5: 19                                ADD     HL,DE
19F6: 7E                                LD      A,(HL)
19F7: CD 2A 03                          CALL    L032A
19FA: D7                                RST     0x10
19FB: CD 2A 03                          CALL    L032A
19FE: 21 1D 19                          LD      HL,191Dh
1A01: E5                                PUSH    HL
1A02: 2A EA 40                          LD      HL,(40EAh)
1A05: E3                                EX      (SP),HL
                                        ; --- START PROC L1A06 ---
1A06: CD A7 28                   L1A06: CALL    L28A7
1A09: E1                                POP     HL
1A0A: 11 FE FF                          LD      DE,0FFFEh
1A0D: DF                                RST     0x18
1A0E: CA 74 06                          JP      Z,L0674
1A11: 7C                                LD      A,H
1A12: A5                                AND     L
1A13: 3C                                INC     A
1A14: C4 A7 0F                          CALL    NZ,L0FA7
1A17: 3E C1                      L1A17: LD      A,0C1h
                                        ; --- START PROC L1A19 ---
1A19: CD 8B 03                   L1A19: CALL    L038B
1A1C: CD AC 41                          CALL    41ACh
1A1F: CD F8 01                          CALL    L01F8
1A22: CD F9 20                          CALL    L20F9
1A25: 21 29 19                          LD      HL,1929h
1A28: CD A7 28                          CALL    L28A7
1A2B: 3A 9A 40                          LD      A,(409Ah)
1A2E: D6 02                             SUB     02h
1A30: CC 53 2E                          CALL    Z,L2E53
                                        ; --- START PROC L1A33 ---
1A33: 21 FF FF                   L1A33: LD      HL,0FFFFh
1A36: 22 A2 40                          LD      (40A2h),HL
1A39: 3A E1 40                          LD      A,(40E1h)
1A3C: B7                                OR      A
1A3D: 28 37                             JR      Z,L1A76
1A3F: 2A E2 40                          LD      HL,(40E2h)
1A42: E5                                PUSH    HL
1A43: CD AF 0F                          CALL    L0FAF
1A46: D1                                POP     DE
1A47: D5                                PUSH    DE
1A48: CD 2C 1B                          CALL    L1B2C
1A4B: 3E 2A                             LD      A,2Ah   ; '*'
1A4D: 38 02                             JR      C,L1A51
1A4F: 3E 20                             LD      A,20h   ; ' '
1A51: CD 2A 03                   L1A51: CALL    L032A
1A54: CD 61 03                          CALL    L0361
1A57: D1                                POP     DE
1A58: 30 06                             JR      NC,L1A60
1A5A: AF                         L1A5A: XOR     A
1A5B: 32 E1 40                          LD      (40E1h),A
1A5E: 18 B9                             JR      L1A19

1A60: 2A E4 40                   L1A60: LD      HL,(40E4h)
1A63: 19                                ADD     HL,DE
1A64: 38 F4                             JR      C,L1A5A
1A66: D5                                PUSH    DE
1A67: 11 F9 FF                          LD      DE,0FFF9h
1A6A: DF                                RST     0x18
1A6B: D1                                POP     DE
1A6C: 30 EC                             JR      NC,L1A5A
1A6E: 22 E2 40                          LD      (40E2h),HL
1A71: F6 FF                             OR      0FFh
1A73: C3 EB 2F                          JP      L2FEB

1A76: 3E 3E                      L1A76: LD      A,3Eh   ; '>'
1A78: CD 2A 03                          CALL    L032A
1A7B: CD 61 03                          CALL    L0361
1A7E: DA 33 1A                          JP      C,L1A33
1A81: D7                                RST     0x10
1A82: 3C                                INC     A
1A83: 3D                                DEC     A
1A84: CA 33 1A                          JP      Z,L1A33
1A87: F5                                PUSH    AF
1A88: CD 5A 1E                          CALL    L1E5A
1A8B: 2B                         L1A8B: DEC     HL
1A8C: 7E                                LD      A,(HL)
1A8D: FE 20                             CP      20h     ; ' '
1A8F: 28 FA                             JR      Z,L1A8B
1A91: 23                                INC     HL
1A92: 7E                                LD      A,(HL)
1A93: FE 20                             CP      20h     ; ' '
1A95: CC C9 09                          CALL    Z,L09C9
                                        ; --- START PROC L1A98 ---
1A98: D5                         L1A98: PUSH    DE
1A99: CD C0 1B                          CALL    L1BC0
1A9C: D1                                POP     DE
1A9D: F1                                POP     AF
1A9E: 22 E6 40                          LD      (40E6h),HL
1AA1: CD B2 41                          CALL    41B2h
1AA4: D2 5A 1D                          JP      NC,L1D5A
1AA7: D5                                PUSH    DE
1AA8: C5                                PUSH    BC
1AA9: AF                                XOR     A
1AAA: 32 DD 40                          LD      (40DDh),A
1AAD: D7                                RST     0x10
1AAE: B7                                OR      A
1AAF: F5                                PUSH    AF
1AB0: EB                                EX      DE,HL
1AB1: 22 EC 40                          LD      (40ECh),HL
1AB4: EB                                EX      DE,HL
1AB5: CD 2C 1B                          CALL    L1B2C
1AB8: C5                                PUSH    BC
1AB9: DC E4 2B                          CALL    C,L2BE4
1ABC: D1                                POP     DE
1ABD: F1                                POP     AF
1ABE: D5                                PUSH    DE
1ABF: 28 27                             JR      Z,L1AE8
1AC1: D1                                POP     DE
1AC2: 2A F9 40                          LD      HL,(40F9h)
1AC5: E3                                EX      (SP),HL
1AC6: C1                                POP     BC
1AC7: 09                                ADD     HL,BC
1AC8: E5                                PUSH    HL
1AC9: CD 55 19                          CALL    L1955
1ACC: E1                                POP     HL
1ACD: 22 F9 40                          LD      (40F9h),HL
1AD0: EB                                EX      DE,HL
1AD1: 74                                LD      (HL),H
1AD2: D1                                POP     DE
1AD3: E5                                PUSH    HL
1AD4: 23                                INC     HL
1AD5: 23                                INC     HL
1AD6: 73                                LD      (HL),E
1AD7: 23                                INC     HL
1AD8: 72                                LD      (HL),D
1AD9: 23                                INC     HL
1ADA: EB                                EX      DE,HL
1ADB: 2A A7 40                          LD      HL,(40A7h)
1ADE: EB                                EX      DE,HL
1ADF: 1B                                DEC     DE
1AE0: 1B                                DEC     DE
1AE1: 1A                         L1AE1: LD      A,(DE)
1AE2: 77                                LD      (HL),A
1AE3: 23                                INC     HL
1AE4: 13                                INC     DE
1AE5: B7                                OR      A
1AE6: 20 F9                             JR      NZ,L1AE1
1AE8: D1                         L1AE8: POP     DE
1AE9: CD FC 1A                          CALL    L1AFC
1AEC: CD B5 41                          CALL    41B5h
1AEF: CD 5D 1B                          CALL    L1B5D
1AF2: CD B8 41                          CALL    41B8h
1AF5: C3 33 1A                          JP      L1A33

1AF8: 2A A4 40                   L1AF8: LD      HL,(40A4h)
1AFB: EB                                EX      DE,HL
                                        ; --- START PROC L1AFC ---
1AFC: 62                         L1AFC: LD      H,D
1AFD: 6B                                LD      L,E
1AFE: 7E                                LD      A,(HL)
1AFF: 23                                INC     HL
1B00: B6                                OR      (HL)
1B01: C8                                RET     Z
1B02: 23                                INC     HL
1B03: 23                                INC     HL
1B04: 23                                INC     HL
1B05: AF                                XOR     A
1B06: BE                         L1B06: CP      (HL)
1B07: 23                                INC     HL
1B08: 20 FC                             JR      NZ,L1B06
1B0A: EB                                EX      DE,HL
1B0B: 73                                LD      (HL),E
1B0C: 23                                INC     HL
1B0D: 72                                LD      (HL),D
1B0E: 18 EC                             JR      L1AFC

                                        ; --- START PROC L1B10 ---
1B10: 11 00 00                   L1B10: LD      DE,0000h
1B13: D5                                PUSH    DE
1B14: 28 09                             JR      Z,L1B1E+1       ; reference not aligned to instruction
1B16: D1                                POP     DE
1B17: CD 4F 1E                          CALL    L1E4F
1B1A: D5                                PUSH    DE
1B1B: 28 0B                             JR      Z,L1B28
1B1D: CF                                RST     0x08
1B1E: CE 11                      L1B1E: ADC     A,11h
1B20: FA FF C4                          JP      M,0C4FFh
1B23: 4F                                LD      C,A
1B24: 1E C2                             LD      E,0C2h
1B26: 97                                SUB     A
1B27: 19                                ADD     HL,DE
1B28: EB                         L1B28: EX      DE,HL
1B29: D1                                POP     DE
                                        ; --- START PROC L1B2A ---
1B2A: E3                         L1B2A: EX      (SP),HL
1B2B: E5                                PUSH    HL
                                        ; --- START PROC L1B2C ---
1B2C: 2A A4 40                   L1B2C: LD      HL,(40A4h)
                                        ; --- START PROC L1B2F ---
1B2F: 44                         L1B2F: LD      B,H
1B30: 4D                                LD      C,L
1B31: 7E                                LD      A,(HL)
1B32: 23                                INC     HL
1B33: B6                                OR      (HL)
1B34: 2B                                DEC     HL
1B35: C8                                RET     Z
1B36: 23                                INC     HL
1B37: 23                                INC     HL
1B38: 7E                                LD      A,(HL)
1B39: 23                                INC     HL
1B3A: 66                                LD      H,(HL)
1B3B: 6F                                LD      L,A
1B3C: DF                                RST     0x18
1B3D: 60                                LD      H,B
1B3E: 69                                LD      L,C
1B3F: 7E                                LD      A,(HL)
1B40: 23                                INC     HL
1B41: 66                                LD      H,(HL)
1B42: 6F                                LD      L,A
1B43: 3F                                CCF
1B44: C8                                RET     Z
1B45: 3F                                CCF
1B46: D0                                RET     NC
1B47: 18 E6                             JR      L1B2F

1B49: C0                         L1B49: RET     NZ
1B4A: CD C9 01                          CALL    L01C9
                                        ; --- START PROC L1B4D ---
1B4D: 2A A4 40                   L1B4D: LD      HL,(40A4h)
1B50: CD F8 1D                          CALL    L1DF7+1 ; reference not aligned to instruction
1B53: 32 E1 40                          LD      (40E1h),A
1B56: 77                                LD      (HL),A
1B57: 23                                INC     HL
1B58: 77                                LD      (HL),A
1B59: 23                                INC     HL
1B5A: 22 F9 40                          LD      (40F9h),HL
                                        ; --- START PROC L1B5D ---
1B5D: 2A A4 40                   L1B5D: LD      HL,(40A4h)
1B60: 2B                                DEC     HL
                                        ; --- START PROC L1B61 ---
1B61: 22 DF 40                   L1B61: LD      (40DFh),HL
1B64: 06 1A                             LD      B,1Ah
1B66: 21 01 41                          LD      HL,4101h
1B69: 36 04                      L1B69: LD      (HL),04h
1B6B: 23                                INC     HL
1B6C: 10 FB                             DJNZ    L1B69
1B6E: AF                                XOR     A
1B6F: 32 F2 40                          LD      (40F2h),A
1B72: 6F                                LD      L,A
1B73: 67                                LD      H,A
1B74: 22 F0 40                          LD      (40F0h),HL
1B77: 22 F7 40                          LD      (40F7h),HL
1B7A: 2A B1 40                          LD      HL,(40B1h)
1B7D: 22 D6 40                          LD      (40D6h),HL
1B80: CD 91 1D                          CALL    L1D91
1B83: 2A F9 40                          LD      HL,(40F9h)
1B86: 22 FB 40                          LD      (40FBh),HL
1B89: 22 FD 40                          LD      (40FDh),HL
1B8C: CD BB 41                          CALL    41BBh
                                        ; --- START PROC L1B8F ---
1B8F: C1                         L1B8F: POP     BC
1B90: 2A A0 40                          LD      HL,(40A0h)
1B93: 2B                                DEC     HL
1B94: 2B                                DEC     HL
1B95: 22 E8 40                          LD      (40E8h),HL
1B98: 23                                INC     HL
1B99: 23                                INC     HL
                                        ; --- START PROC L1B9A ---
1B9A: F9                         L1B9A: LD      SP,HL
1B9B: 21 B5 40                          LD      HL,40B5h
1B9E: 22 B3 40                          LD      (40B3h),HL
1BA1: CD 8B 03                          CALL    L038B
1BA4: CD 69 21                          CALL    L2169
1BA7: AF                                XOR     A
1BA8: 67                                LD      H,A
1BA9: 6F                                LD      L,A
1BAA: 32 DC 40                          LD      (40DCh),A
1BAD: E5                                PUSH    HL
1BAE: C5                                PUSH    BC
1BAF: 2A DF 40                          LD      HL,(40DFh)
1BB2: C9                                RET

                                        ; --- START PROC L1BB3 ---
1BB3: 3E 3F                      L1BB3: LD      A,3Fh   ; '?'
1BB5: CD 2A 03                          CALL    L032A
1BB8: 3E 20                             LD      A,20h   ; ' '
1BBA: CD 2A 03                          CALL    L032A
1BBD: C3 61 03                          JP      L0361

                                        ; --- START PROC L1BC0 ---
1BC0: AF                         L1BC0: XOR     A
1BC1: 32 B0 40                          LD      (40B0h),A
1BC4: 4F                                LD      C,A
1BC5: EB                                EX      DE,HL
1BC6: 2A A7 40                          LD      HL,(40A7h)
1BC9: 2B                                DEC     HL
1BCA: 2B                                DEC     HL
1BCB: EB                                EX      DE,HL
1BCC: 7E                         L1BCC: LD      A,(HL)
1BCD: FE 20                             CP      20h     ; ' '
1BCF: CA 5B 1C                          JP      Z,L1C5B
1BD2: 47                                LD      B,A
1BD3: FE 22                             CP      22h     ; '"'
1BD5: CA 77 1C                          JP      Z,L1C77
1BD8: B7                                OR      A
1BD9: CA 7D 1C                          JP      Z,L1C7D
1BDC: 3A B0 40                          LD      A,(40B0h)
1BDF: B7                                OR      A
1BE0: 7E                                LD      A,(HL)
1BE1: C2 5B 1C                          JP      NZ,L1C5B
1BE4: FE 3F                             CP      3Fh     ; '?'
1BE6: 3E B2                             LD      A,0B2h
1BE8: CA 5B 1C                          JP      Z,L1C5B
1BEB: 7E                                LD      A,(HL)
1BEC: FE 30                             CP      30h     ; '0'
1BEE: 38 05                             JR      C,L1BF5
1BF0: FE 3C                             CP      3Ch     ; '<'
1BF2: DA 5B 1C                          JP      C,L1C5B
1BF5: D5                         L1BF5: PUSH    DE
1BF6: 11 4F 16                          LD      DE,164Fh
1BF9: C5                                PUSH    BC
1BFA: 01 3D 1C                          LD      BC,1C3Dh
1BFD: C5                                PUSH    BC
1BFE: 06 7F                             LD      B,7Fh   ; ''
1C00: 7E                                LD      A,(HL)
1C01: FE 61                             CP      61h     ; 'a'
1C03: 38 07                             JR      C,L1C0C
1C05: FE 7B                             CP      7Bh     ; '{'
1C07: 30 03                             JR      NC,L1C0C
1C09: E6 5F                             AND     5Fh     ; '_'
1C0B: 77                                LD      (HL),A
1C0C: 4E                         L1C0C: LD      C,(HL)
1C0D: EB                                EX      DE,HL
1C0E: 23                         L1C0E: INC     HL
1C0F: B6                                OR      (HL)
1C10: F2 0E 1C                          JP      P,L1C0E
1C13: 04                                INC     B
1C14: 7E                                LD      A,(HL)
1C15: E6 7F                             AND     7Fh     ; ''
1C17: C8                                RET     Z
1C18: B9                                CP      C
1C19: 20 F3                             JR      NZ,L1C0E
1C1B: EB                                EX      DE,HL
1C1C: E5                                PUSH    HL
1C1D: 13                         L1C1D: INC     DE
1C1E: 1A                                LD      A,(DE)
1C1F: B7                                OR      A
1C20: FA 39 1C                          JP      M,L1C39
1C23: 4F                                LD      C,A
1C24: 78                                LD      A,B
1C25: FE 8D                             CP      8Dh
1C27: 20 02                             JR      NZ,L1C2B
1C29: D7                                RST     0x10
1C2A: 2B                                DEC     HL
1C2B: 23                         L1C2B: INC     HL
1C2C: 7E                                LD      A,(HL)
1C2D: FE 61                             CP      61h     ; 'a'
1C2F: 38 02                             JR      C,L1C33
1C31: E6 5F                             AND     5Fh     ; '_'
1C33: B9                         L1C33: CP      C
1C34: 28 E7                             JR      Z,L1C1D
1C36: E1                                POP     HL
1C37: 18 D3                             JR      L1C0C

1C39: 48                         L1C39: LD      C,B
1C3A: F1                                POP     AF
1C3B: EB                                EX      DE,HL
1C3C: C9                                RET

1C3D: EB                         L1C3D: EX      DE,HL
1C3E: 79                                LD      A,C
1C3F: C1                                POP     BC
1C40: D1                                POP     DE
1C41: EB                                EX      DE,HL
1C42: FE 95                             CP      95h
1C44: 36 3A                             LD      (HL),3Ah        ; ':'
1C46: 20 02                             JR      NZ,L1C4A
1C48: 0C                                INC     C
1C49: 23                                INC     HL
1C4A: FE FB                      L1C4A: CP      0FBh
1C4C: 20 0C                             JR      NZ,L1C5A
1C4E: 36 3A                             LD      (HL),3Ah        ; ':'
1C50: 23                                INC     HL
1C51: 06 93                             LD      B,93h
1C53: 70                                LD      (HL),B
1C54: 23                                INC     HL
1C55: EB                                EX      DE,HL
1C56: 0C                                INC     C
1C57: 0C                                INC     C
1C58: 18 1D                             JR      L1C77

1C5A: EB                         L1C5A: EX      DE,HL
1C5B: 23                         L1C5B: INC     HL
1C5C: 12                                LD      (DE),A
1C5D: 13                                INC     DE
1C5E: 0C                                INC     C
1C5F: D6 3A                             SUB     3Ah     ; ':'
1C61: 28 04                             JR      Z,L1C67
1C63: FE 4E                             CP      4Eh     ; 'N'
1C65: 20 03                             JR      NZ,L1C6A
1C67: 32 B0 40                   L1C67: LD      (40B0h),A
1C6A: D6 59                      L1C6A: SUB     59h     ; 'Y'
1C6C: C2 CC 1B                          JP      NZ,L1BCC
1C6F: 47                                LD      B,A
1C70: 7E                         L1C70: LD      A,(HL)
1C71: B7                                OR      A
1C72: 28 09                             JR      Z,L1C7D
1C74: B8                                CP      B
1C75: 28 E4                             JR      Z,L1C5B
1C77: 23                         L1C77: INC     HL
1C78: 12                                LD      (DE),A
1C79: 0C                                INC     C
1C7A: 13                                INC     DE
1C7B: 18 F3                             JR      L1C70

1C7D: 21 05 00                   L1C7D: LD      HL,0005h
1C80: 44                                LD      B,H
1C81: 09                                ADD     HL,BC
1C82: 44                                LD      B,H
1C83: 4D                                LD      C,L
1C84: 2A A7 40                          LD      HL,(40A7h)
1C87: 2B                                DEC     HL
1C88: 2B                                DEC     HL
1C89: 2B                                DEC     HL
1C8A: 12                                LD      (DE),A
1C8B: 13                                INC     DE
1C8C: 12                                LD      (DE),A
1C8D: 13                                INC     DE
1C8E: 12                                LD      (DE),A
1C8F: C9                                RET

1C90: 7C                         L1C90: LD      A,H
1C91: 92                                SUB     D
1C92: C0                                RET     NZ
1C93: 7D                                LD      A,L
1C94: 93                                SUB     E
1C95: C9                                RET

1C96: 7E                         L1C96: LD      A,(HL)
1C97: E3                                EX      (SP),HL
1C98: BE                                CP      (HL)
1C99: 23                                INC     HL
1C9A: E3                                EX      (SP),HL
1C9B: CA 78 1D                          JP      Z,L1D78
1C9E: C3 97 19                          JP      L1997

1CA1: 3E 64                      L1CA1: LD      A,64h   ; 'd'
1CA3: 32 DC 40                          LD      (40DCh),A
1CA6: CD 21 1F                          CALL    L1F21
1CA9: E3                                EX      (SP),HL
1CAA: CD 36 19                          CALL    L1936
1CAD: D1                                POP     DE
1CAE: 20 05                             JR      NZ,L1CB5
1CB0: 09                                ADD     HL,BC
1CB1: F9                                LD      SP,HL
1CB2: 22 E8 40                          LD      (40E8h),HL
1CB5: EB                         L1CB5: EX      DE,HL
1CB6: 0E 08                             LD      C,08h
1CB8: CD 63 19                          CALL    L1963
1CBB: E5                                PUSH    HL
1CBC: CD 05 1F                          CALL    L1F05
1CBF: E3                                EX      (SP),HL
1CC0: E5                                PUSH    HL
1CC1: 2A A2 40                          LD      HL,(40A2h)
1CC4: E3                                EX      (SP),HL
1CC5: CF                                RST     0x08
1CC6: BD                                CP      L
1CC7: E7                                RST     0x20
1CC8: CA F6 0A                          JP      Z,L0AF6
1CCB: D2 F6 0A                          JP      NC,L0AF6
1CCE: F5                                PUSH    AF
1CCF: CD 37 23                          CALL    L2336+1 ; reference not aligned to instruction
1CD2: F1                                POP     AF
1CD3: E5                                PUSH    HL
1CD4: F2 EC 1C                          JP      P,L1CEC
1CD7: CD 7F 0A                          CALL    L0A7F
1CDA: E3                                EX      (SP),HL
1CDB: 11 01 00                          LD      DE,0001h
1CDE: 7E                                LD      A,(HL)
1CDF: FE CC                             CP      0CCh
1CE1: CC 01 2B                          CALL    Z,L2B01
1CE4: D5                                PUSH    DE
1CE5: E5                                PUSH    HL
1CE6: EB                                EX      DE,HL
1CE7: CD 9E 09                          CALL    L099E
1CEA: 18 22                             JR      L1D0E

1CEC: CD B1 0A                   L1CEC: CALL    L0AB1
1CEF: CD BF 09                          CALL    L09BF
1CF2: E1                                POP     HL
1CF3: C5                                PUSH    BC
1CF4: D5                                PUSH    DE
1CF5: 01 00 81                          LD      BC,8100h
1CF8: 51                                LD      D,C
1CF9: 5A                                LD      E,D
1CFA: 7E                                LD      A,(HL)
1CFB: FE CC                             CP      0CCh
1CFD: 3E 01                             LD      A,01h
1CFF: 20 0E                             JR      NZ,L1D0F
1D01: CD 38 23                          CALL    L2338
1D04: E5                                PUSH    HL
1D05: CD B1 0A                          CALL    L0AB1
1D08: CD BF 09                          CALL    L09BF
1D0B: CD 55 09                          CALL    L0955
1D0E: E1                         L1D0E: POP     HL
1D0F: C5                         L1D0F: PUSH    BC
1D10: D5                                PUSH    DE
1D11: 4F                                LD      C,A
1D12: E7                                RST     0x20
1D13: 47                                LD      B,A
1D14: C5                                PUSH    BC
1D15: E5                                PUSH    HL
1D16: 2A DF 40                          LD      HL,(40DFh)
1D19: E3                                EX      (SP),HL
                                        ; --- START PROC L1D1A ---
1D1A: 06 81                      L1D1A: LD      B,81h
1D1C: C5                                PUSH    BC
1D1D: 33                                INC     SP
                                        ; --- START PROC L1D1E ---
1D1E: CD 58 03                   L1D1E: CALL    L0358
1D21: B7                                OR      A
1D22: C4 A0 1D                          CALL    NZ,L1DA0
1D25: 22 E6 40                          LD      (40E6h),HL
1D28: ED 73 E8 40                       LD      (40E8h),SP
1D2C: 7E                                LD      A,(HL)
1D2D: FE 3A                             CP      3Ah     ; ':'
1D2F: 28 29                             JR      Z,L1D5A
1D31: B7                                OR      A
1D32: C2 97 19                          JP      NZ,L1997
1D35: 23                                INC     HL
1D36: 7E                         L1D36: LD      A,(HL)
1D37: 23                                INC     HL
1D38: B6                                OR      (HL)
1D39: CA 7E 19                          JP      Z,L197E
1D3C: 23                                INC     HL
1D3D: 5E                                LD      E,(HL)
1D3E: 23                                INC     HL
1D3F: 56                                LD      D,(HL)
1D40: EB                                EX      DE,HL
1D41: 22 A2 40                          LD      (40A2h),HL
1D44: 3A 1B 41                          LD      A,(411Bh)
1D47: B7                                OR      A
1D48: 28 0F                             JR      Z,L1D59
1D4A: D5                                PUSH    DE
1D4B: 3E 3C                             LD      A,3Ch   ; '<'
1D4D: CD 2A 03                          CALL    L032A
1D50: CD AF 0F                          CALL    L0FAF
1D53: 3E 3E                             LD      A,3Eh   ; '>'
1D55: CD 2A 03                          CALL    L032A
1D58: D1                                POP     DE
                                        ; --- START PROC L1D59 ---
1D59: EB                         L1D59: EX      DE,HL
                                        ; --- START PROC L1D5A ---
1D5A: D7                         L1D5A: RST     0x10
1D5B: 11 1E 1D                          LD      DE,1D1Eh
1D5E: D5                                PUSH    DE
1D5F: C8                         L1D5F: RET     Z
1D60: D6 80                      L1D60: SUB     80h
1D62: DA 21 1F                          JP      C,L1F21
1D65: FE 3C                             CP      3Ch     ; '<'
1D67: D2 E7 2A                          JP      NC,L2AE7
1D6A: 07                                RLCA
1D6B: 4F                                LD      C,A
1D6C: 06 00                             LD      B,00h
1D6E: EB                                EX      DE,HL
1D6F: 21 22 18                          LD      HL,1822h
1D72: 09                                ADD     HL,BC
1D73: 4E                                LD      C,(HL)
1D74: 23                                INC     HL
1D75: 46                                LD      B,(HL)
1D76: C5                                PUSH    BC
1D77: EB                                EX      DE,HL
                                        ; --- START PROC L1D78 ---
1D78: 23                         L1D78: INC     HL
1D79: 7E                                LD      A,(HL)
1D7A: FE 3A                             CP      3Ah     ; ':'
1D7C: D0                                RET     NC
1D7D: FE 20                             CP      20h     ; ' '
1D7F: CA 78 1D                          JP      Z,L1D78
1D82: FE 0B                             CP      0Bh
1D84: 30 05                             JR      NC,L1D8B
1D86: FE 09                             CP      09h
1D88: D2 78 1D                          JP      NC,L1D78
1D8B: FE 30                      L1D8B: CP      30h     ; '0'
1D8D: 3F                                CCF
1D8E: 3C                                INC     A
1D8F: 3D                                DEC     A
1D90: C9                                RET

                                        ; --- START PROC L1D91 ---
1D91: EB                         L1D91: EX      DE,HL
1D92: 2A A4 40                          LD      HL,(40A4h)
1D95: 2B                                DEC     HL
1D96: 22 FF 40                   L1D96: LD      (40FFh),HL
1D99: EB                                EX      DE,HL
1D9A: C9                                RET

                                        ; --- START PROC L1D9B ---
1D9B: CD 58 03                   L1D9B: CALL    L0358
1D9E: B7                                OR      A
1D9F: C8                                RET     Z
                                        ; --- START PROC L1DA0 ---
1DA0: FE 60                      L1DA0: CP      60h     ; '`'
1DA2: CC 84 03                          CALL    Z,L0384
1DA5: 32 99 40                          LD      (4099h),A
1DA8: 3D                                DEC     A
1DA9: C0                                RET     NZ
1DAA: 3C                                INC     A
1DAB: C3 B4 1D                          JP      L1DB4

1DAE: C0                         L1DAE: RET     NZ
1DAF: F5                                PUSH    AF
1DB0: CC BB 41                          CALL    Z,41BBh
1DB3: F1                                POP     AF
1DB4: 22 E6 40                   L1DB4: LD      (40E6h),HL
1DB7: 21 B5 40                          LD      HL,40B5h
1DBA: 22 B3 40                          LD      (40B3h),HL
1DBD: 21 F6 FF                   L1DBD: LD      HL,0FFF6h
1DC0: C1                                POP     BC
                                        ; --- START PROC L1DC1 ---
1DC1: 2A A2 40                   L1DC1: LD      HL,(40A2h)
1DC4: E5                                PUSH    HL
1DC5: F5                                PUSH    AF
1DC6: 7D                                LD      A,L
1DC7: A4                                AND     H
1DC8: 3C                                INC     A
1DC9: 28 09                             JR      Z,L1DD4
1DCB: 22 F5 40                          LD      (40F5h),HL
1DCE: 2A E6 40                          LD      HL,(40E6h)
1DD1: 22 F7 40                          LD      (40F7h),HL
1DD4: CD 8B 03                   L1DD4: CALL    L038B
1DD7: CD F9 20                          CALL    L20F9
1DDA: F1                                POP     AF
1DDB: 21 30 19                          LD      HL,1930h
1DDE: C2 06 1A                          JP      NZ,L1A06
1DE1: C3 18 1A                          JP      L1A17+1 ; reference not aligned to instruction

1DE4: 2A F7 40                   L1DE4: LD      HL,(40F7h)
1DE7: 7C                                LD      A,H
1DE8: B5                                OR      L
1DE9: 1E 20                             LD      E,20h   ; ' '
1DEB: CA A2 19                          JP      Z,L19A2
1DEE: EB                                EX      DE,HL
1DEF: 2A F5 40                          LD      HL,(40F5h)
1DF2: 22 A2 40                          LD      (40A2h),HL
1DF5: EB                                EX      DE,HL
1DF6: C9                                RET

1DF7: 3E AF                      L1DF7: LD      A,0AFh
1DF9: 32 1B 41                          LD      (411Bh),A
1DFC: C9                                RET

1DFD: F1                         L1DFD: POP     AF
1DFE: E1                                POP     HL
1DFF: C9                                RET

1E00: 1E 03                      L1E00: LD      E,03h
1E02: 01 1E 02                          LD      BC,021Eh
1E05: 01 1E 04                          LD      BC,041Eh
1E08: 01 1E 08                          LD      BC,081Eh
1E0B: CD 3D 1E                   L1E0B: CALL    L1E3D
1E0E: 01 97 19                          LD      BC,1997h
1E11: C5                                PUSH    BC
1E12: D8                                RET     C
1E13: D6 41                             SUB     41h     ; 'A'
1E15: 4F                                LD      C,A
1E16: 47                                LD      B,A
1E17: D7                                RST     0x10
1E18: FE CE                             CP      0CEh
1E1A: 20 09                             JR      NZ,L1E25
1E1C: D7                                RST     0x10
1E1D: CD 3D 1E                          CALL    L1E3D
1E20: D8                                RET     C
1E21: D6 41                             SUB     41h     ; 'A'
1E23: 47                                LD      B,A
1E24: D7                                RST     0x10
1E25: 78                         L1E25: LD      A,B
1E26: 91                                SUB     C
1E27: D8                                RET     C
1E28: 3C                                INC     A
1E29: E3                                EX      (SP),HL
1E2A: 21 01 41                          LD      HL,4101h
1E2D: 06 00                             LD      B,00h
1E2F: 09                                ADD     HL,BC
1E30: 73                         L1E30: LD      (HL),E
1E31: 23                                INC     HL
1E32: 3D                                DEC     A
1E33: 20 FB                             JR      NZ,L1E30
1E35: E1                                POP     HL
1E36: 7E                                LD      A,(HL)
1E37: FE 2C                             CP      2Ch     ; ','
1E39: C0                                RET     NZ
1E3A: D7                                RST     0x10
1E3B: 18 CE                             JR      L1E0B

                                        ; --- START PROC L1E3D ---
1E3D: 7E                         L1E3D: LD      A,(HL)
1E3E: FE 41                             CP      41h     ; 'A'
1E40: D8                                RET     C
1E41: FE 5B                             CP      5Bh     ; '['
1E43: 3F                                CCF
1E44: C9                                RET

                                        ; --- START PROC L1E45 ---
1E45: D7                         L1E45: RST     0x10
                                        ; --- START PROC L1E46 ---
1E46: CD 02 2B                   L1E46: CALL    L2B02
1E49: F0                                RET     P
                                        ; --- START PROC L1E4A ---
1E4A: 1E 08                      L1E4A: LD      E,08h
1E4C: C3 A2 19                          JP      L19A2

                                        ; --- START PROC L1E4F ---
1E4F: 7E                         L1E4F: LD      A,(HL)
1E50: FE 2E                             CP      2Eh     ; '.'
1E52: EB                                EX      DE,HL
1E53: 2A EC 40                          LD      HL,(40ECh)
1E56: EB                                EX      DE,HL
1E57: CA 78 1D                          JP      Z,L1D78
                                        ; --- START PROC L1E5A ---
1E5A: 2B                         L1E5A: DEC     HL
                                        ; --- START PROC L1E5B ---
1E5B: 11 00 00                   L1E5B: LD      DE,0000h
1E5E: D7                         L1E5E: RST     0x10
1E5F: D0                                RET     NC
1E60: E5                                PUSH    HL
1E61: F5                                PUSH    AF
1E62: 21 98 19                          LD      HL,1998h
1E65: DF                                RST     0x18
1E66: DA 97 19                          JP      C,L1997
1E69: 62                                LD      H,D
1E6A: 6B                                LD      L,E
1E6B: 19                                ADD     HL,DE
1E6C: 29                                ADD     HL,HL
1E6D: 19                                ADD     HL,DE
1E6E: 29                                ADD     HL,HL
1E6F: F1                                POP     AF
1E70: D6 30                             SUB     30h     ; '0'
1E72: 5F                                LD      E,A
1E73: 16 00                             LD      D,00h
1E75: 19                                ADD     HL,DE
1E76: EB                                EX      DE,HL
1E77: E1                                POP     HL
1E78: 18 E4                             JR      L1E5E

1E7A: CA 61 1B                   L1E7A: JP      Z,L1B61
1E7D: CD 46 1E                          CALL    L1E46
1E80: 2B                                DEC     HL
1E81: D7                                RST     0x10
1E82: C0                                RET     NZ
1E83: E5                                PUSH    HL
1E84: 2A B1 40                          LD      HL,(40B1h)
1E87: 7D                                LD      A,L
1E88: 93                                SUB     E
1E89: 5F                                LD      E,A
1E8A: 7C                                LD      A,H
1E8B: 9A                                SBC     A,D
1E8C: 57                                LD      D,A
1E8D: DA 7A 19                          JP      C,L197A
1E90: 2A F9 40                          LD      HL,(40F9h)
1E93: 01 28 00                          LD      BC,0028h
1E96: 09                                ADD     HL,BC
1E97: DF                                RST     0x18
1E98: D2 7A 19                          JP      NC,L197A
1E9B: EB                                EX      DE,HL
1E9C: 22 A0 40                          LD      (40A0h),HL
1E9F: E1                                POP     HL
1EA0: C3 61 1B                          JP      L1B61

1EA3: CA 5D 1B                   L1EA3: JP      Z,L1B5D
1EA6: CD C7 41                          CALL    41C7h
1EA9: CD 61 1B                          CALL    L1B61
1EAC: 01 1E 1D                          LD      BC,1D1Eh
1EAF: 18 10                             JR      L1EC1

1EB1: 0E 03                      L1EB1: LD      C,03h
1EB3: CD 63 19                          CALL    L1963
1EB6: C1                                POP     BC
1EB7: E5                                PUSH    HL
1EB8: E5                                PUSH    HL
1EB9: 2A A2 40                          LD      HL,(40A2h)
1EBC: E3                                EX      (SP),HL
1EBD: 3E 91                             LD      A,91h
1EBF: F5                                PUSH    AF
1EC0: 33                                INC     SP
1EC1: C5                         L1EC1: PUSH    BC
1EC2: CD 5A 1E                   L1EC2: CALL    L1E5A
1EC5: CD 07 1F                   L1EC5: CALL    L1F05+2 ; reference not aligned to instruction
1EC8: E5                                PUSH    HL
1EC9: 2A A2 40                          LD      HL,(40A2h)
1ECC: DF                                RST     0x18
1ECD: E1                                POP     HL
1ECE: 23                                INC     HL
1ECF: DC 2F 1B                          CALL    C,L1B2F
1ED2: D4 2C 1B                          CALL    NC,L1B2C
1ED5: 60                                LD      H,B
1ED6: 69                                LD      L,C
1ED7: 2B                                DEC     HL
1ED8: D8                                RET     C
                                        ; --- START PROC L1ED9 ---
1ED9: 1E 0E                      L1ED9: LD      E,0Eh
1EDB: C3 A2 19                          JP      L19A2

1EDE: C0                         L1EDE: RET     NZ
1EDF: 16 FF                             LD      D,0FFh
1EE1: CD 36 19                          CALL    L1936
1EE4: F9                                LD      SP,HL
1EE5: 22 E8 40                          LD      (40E8h),HL
1EE8: FE 91                             CP      91h
1EEA: 1E 04                             LD      E,04h
1EEC: C2 A2 19                          JP      NZ,L19A2
1EEF: E1                                POP     HL
1EF0: 22 A2 40                          LD      (40A2h),HL
1EF3: 23                                INC     HL
1EF4: 7C                                LD      A,H
1EF5: B5                                OR      L
1EF6: 20 07                             JR      NZ,L1EFF
1EF8: 3A DD 40                          LD      A,(40DDh)
1EFB: B7                                OR      A
1EFC: C2 18 1A                          JP      NZ,L1A17+1      ; reference not aligned to instruction
1EFF: 21 1E 1D                   L1EFF: LD      HL,1D1Eh
1F02: E3                                EX      (SP),HL
1F03: 3E E1                      L1F03: LD      A,0E1h
                                        ; --- START PROC L1F05 ---
1F05: 01 3A 0E                   L1F05: LD      BC,0E3Ah
1F08: 00                                NOP
1F09: 06 00                             LD      B,00h
1F0B: 79                         L1F0B: LD      A,C
1F0C: 48                                LD      C,B
1F0D: 47                                LD      B,A
1F0E: 7E                         L1F0E: LD      A,(HL)
1F0F: B7                                OR      A
1F10: C8                                RET     Z
1F11: B8                                CP      B
1F12: C8                                RET     Z
1F13: 23                                INC     HL
1F14: FE 22                             CP      22h     ; '"'
1F16: 28 F3                             JR      Z,L1F0B
1F18: D6 8F                             SUB     8Fh
1F1A: 20 F2                             JR      NZ,L1F0E
1F1C: B8                                CP      B
1F1D: 8A                                ADC     A,D
1F1E: 57                                LD      D,A
1F1F: 18 ED                             JR      L1F0E

                                        ; --- START PROC L1F21 ---
1F21: CD 0D 26                   L1F21: CALL    L260C+1 ; reference not aligned to instruction
1F24: CF                                RST     0x08
1F25: D5                                PUSH    DE
1F26: EB                                EX      DE,HL
1F27: 22 DF 40                          LD      (40DFh),HL
1F2A: EB                                EX      DE,HL
1F2B: D5                                PUSH    DE
1F2C: E7                                RST     0x20
1F2D: F5                                PUSH    AF
1F2E: CD 37 23                          CALL    L2336+1 ; reference not aligned to instruction
1F31: F1                                POP     AF
1F32: E3                                EX      (SP),HL
1F33: C6 03                      L1F33: ADD     A,03h
1F35: CD 19 28                          CALL    L2819
1F38: CD 03 0A                          CALL    L0A03
1F3B: E5                                PUSH    HL
1F3C: 20 28                             JR      NZ,L1F66
1F3E: 2A 21 41                          LD      HL,(4121h)
1F41: E5                                PUSH    HL
1F42: 23                                INC     HL
1F43: 5E                                LD      E,(HL)
1F44: 23                                INC     HL
1F45: 56                                LD      D,(HL)
1F46: 2A A4 40                          LD      HL,(40A4h)
1F49: DF                                RST     0x18
1F4A: 30 0E                             JR      NC,L1F59+1      ; reference not aligned to instruction
1F4C: 2A A0 40                          LD      HL,(40A0h)
1F4F: DF                                RST     0x18
1F50: D1                                POP     DE
1F51: 30 0F                             JR      NC,L1F62
1F53: 2A F9 40                          LD      HL,(40F9h)
1F56: DF                                RST     0x18
1F57: 30 09                             JR      NC,L1F62
1F59: 3E D1                      L1F59: LD      A,0D1h
1F5B: CD F5 29                          CALL    L29F5
1F5E: EB                                EX      DE,HL
1F5F: CD 43 28                          CALL    L2843
1F62: CD F5 29                   L1F62: CALL    L29F5
1F65: E3                                EX      (SP),HL
1F66: CD D3 09                   L1F66: CALL    L09D3
1F69: D1                                POP     DE
1F6A: E1                                POP     HL
1F6B: C9                                RET

1F6C: FE 9E                      L1F6C: CP      9Eh
1F6E: 20 25                             JR      NZ,L1F95
1F70: D7                                RST     0x10
1F71: CF                                RST     0x08
1F72: 8D                                ADC     A,L
1F73: CD 5A 1E                          CALL    L1E5A
1F76: 7A                                LD      A,D
1F77: B3                                OR      E
1F78: 28 09                             JR      Z,L1F83
1F7A: CD 2A 1B                          CALL    L1B2A
1F7D: 50                                LD      D,B
1F7E: 59                                LD      E,C
1F7F: E1                                POP     HL
1F80: D2 D9 1E                          JP      NC,L1ED9
1F83: EB                         L1F83: EX      DE,HL
1F84: 22 F0 40                          LD      (40F0h),HL
1F87: EB                                EX      DE,HL
1F88: D8                                RET     C
1F89: 3A F2 40                          LD      A,(40F2h)
1F8C: B7                                OR      A
1F8D: C8                                RET     Z
1F8E: 3A 9A 40                          LD      A,(409Ah)
1F91: 5F                                LD      E,A
1F92: C3 AB 19                          JP      L19AB

1F95: CD 1C 2B                   L1F95: CALL    L2B1C
1F98: 7E                                LD      A,(HL)
1F99: 47                                LD      B,A
1F9A: FE 91                             CP      91h
1F9C: 28 03                             JR      Z,L1FA1
1F9E: CF                                RST     0x08
1F9F: 8D                                ADC     A,L
1FA0: 2B                                DEC     HL
1FA1: 4B                         L1FA1: LD      C,E
1FA2: 0D                         L1FA2: DEC     C
1FA3: 78                                LD      A,B
1FA4: CA 60 1D                          JP      Z,L1D60
1FA7: CD 5B 1E                          CALL    L1E5B
1FAA: FE 2C                             CP      2Ch     ; ','
1FAC: C0                                RET     NZ
1FAD: 18 F3                             JR      L1FA2

1FAF: 11 F2 40                   L1FAF: LD      DE,40F2h
1FB2: 1A                                LD      A,(DE)
1FB3: B7                                OR      A
1FB4: CA A0 19                          JP      Z,L199F+1       ; reference not aligned to instruction
1FB7: 3C                                INC     A
1FB8: 32 9A 40                          LD      (409Ah),A
1FBB: 12                                LD      (DE),A
1FBC: 7E                                LD      A,(HL)
1FBD: FE 87                             CP      87h
1FBF: 28 0C                             JR      Z,L1FCD
1FC1: CD 5A 1E                          CALL    L1E5A
1FC4: C0                                RET     NZ
1FC5: 7A                                LD      A,D
1FC6: B3                                OR      E
1FC7: C2 C5 1E                          JP      NZ,L1EC5
1FCA: 3C                                INC     A
1FCB: 18 02                             JR      L1FCF

1FCD: D7                         L1FCD: RST     0x10
1FCE: C0                                RET     NZ
1FCF: 2A EE 40                   L1FCF: LD      HL,(40EEh)
1FD2: EB                                EX      DE,HL
1FD3: 2A EA 40                          LD      HL,(40EAh)
1FD6: 22 A2 40                          LD      (40A2h),HL
1FD9: EB                                EX      DE,HL
1FDA: C0                                RET     NZ
1FDB: 7E                                LD      A,(HL)
1FDC: B7                                OR      A
1FDD: 20 04                             JR      NZ,L1FE3
1FDF: 23                                INC     HL
1FE0: 23                                INC     HL
1FE1: 23                                INC     HL
1FE2: 23                                INC     HL
1FE3: 23                         L1FE3: INC     HL
1FE4: 7A                                LD      A,D
1FE5: A3                                AND     E
1FE6: 3C                                INC     A
1FE7: C2 05 1F                          JP      NZ,L1F05
1FEA: 3A DD 40                          LD      A,(40DDh)
1FED: 3D                                DEC     A
1FEE: CA BE 1D                          JP      Z,L1DBD+1       ; reference not aligned to instruction
1FF1: C3 05 1F                          JP      L1F05

1FF4: CD 1C 2B                   L1FF4: CALL    L2B1C
1FF7: C0                                RET     NZ
1FF8: B7                                OR      A
1FF9: CA 4A 1E                          JP      Z,L1E4A
1FFC: 3D                                DEC     A
1FFD: 87                                ADD     A,A
1FFE: 5F                                LD      E,A
1FFF: FE 2D                             CP      2Dh     ; '-'
2001: 38 02                             JR      C,L2005
2003: 1E 26                             LD      E,26h   ; '&'
2005: C3 A2 19                   L2005: JP      L19A2

2008: 11 0A 00                   L2008: LD      DE,000Ah
200B: D5                                PUSH    DE
200C: 28 17                             JR      Z,L2025
200E: CD 4F 1E                          CALL    L1E4F
2011: EB                                EX      DE,HL
2012: E3                                EX      (SP),HL
2013: 28 11                             JR      Z,L2026
2015: EB                                EX      DE,HL
2016: CF                                RST     0x08
2017: 2C                                INC     L
2018: EB                                EX      DE,HL
2019: 2A E4 40                          LD      HL,(40E4h)
201C: EB                                EX      DE,HL
201D: 28 06                             JR      Z,L2025
201F: CD 5A 1E                          CALL    L1E5A
2022: C2 97 19                          JP      NZ,L1997
2025: EB                         L2025: EX      DE,HL
2026: 7C                         L2026: LD      A,H
2027: B5                                OR      L
2028: CA 4A 1E                          JP      Z,L1E4A
202B: 22 E4 40                          LD      (40E4h),HL
202E: 32 E1 40                          LD      (40E1h),A
2031: E1                                POP     HL
2032: 22 E2 40                          LD      (40E2h),HL
2035: C1                                POP     BC
2036: C3 33 1A                          JP      L1A33

2039: CD 37 23                   L2039: CALL    L2336+1 ; reference not aligned to instruction
203C: 7E                                LD      A,(HL)
203D: FE 2C                             CP      2Ch     ; ','
203F: CC 78 1D                          CALL    Z,L1D78
2042: FE CA                             CP      0CAh
2044: CC 78 1D                          CALL    Z,L1D78
2047: 2B                                DEC     HL
2048: E5                                PUSH    HL
2049: CD 94 09                          CALL    L0994
204C: E1                                POP     HL
204D: 28 07                             JR      Z,L2056
204F: D7                         L204F: RST     0x10
2050: DA C2 1E                          JP      C,L1EC2
2053: C3 5F 1D                          JP      L1D5F

2056: 16 01                      L2056: LD      D,01h
2058: CD 05 1F                   L2058: CALL    L1F05
205B: B7                                OR      A
205C: C8                                RET     Z
205D: D7                                RST     0x10
205E: FE 95                             CP      95h
2060: 20 F6                             JR      NZ,L2058
2062: 15                                DEC     D
2063: 20 F3                             JR      NZ,L2058
2065: 18 E8                             JR      L204F

2067: 3E 01                      L2067: LD      A,01h
2069: 32 9C 40                          LD      (409Ch),A
206C: C3 9B 20                          JP      L209B

206F: CD CA 41                   L206F: CALL    41CAh
2072: FE 40                             CP      40h     ; '@'
2074: 20 19                             JR      NZ,L208F
2076: CD 01 2B                          CALL    L2B01
2079: FE 04                             CP      04h
207B: D2 4A 1E                          JP      NC,L1E4A
207E: E5                                PUSH    HL
207F: 21 00 3C                          LD      HL,3C00h
2082: 19                                ADD     HL,DE
2083: 22 20 40                          LD      (4020h),HL
2086: 7B                                LD      A,E
2087: E6 3F                             AND     3Fh     ; '?'
2089: 32 A6 40                          LD      (40A6h),A
208C: E1                                POP     HL
208D: CF                                RST     0x08
208E: 2C                                INC     L
208F: FE 23                      L208F: CP      23h     ; '#'
2091: 20 08                             JR      NZ,L209B
2093: CD 84 02                          CALL    L0284
2096: 3E 80                             LD      A,80h
2098: 32 9C 40                          LD      (409Ch),A
209B: 2B                         L209B: DEC     HL
209C: D7                                RST     0x10
209D: CC FE 20                          CALL    Z,L20FE
20A0: CA 69 21                   L20A0: JP      Z,L2169
20A3: FE BF                             CP      0BFh
20A5: CA BD 2C                          JP      Z,L2CBD
20A8: FE BC                             CP      0BCh
20AA: CA 37 21                          JP      Z,L2137
20AD: E5                                PUSH    HL
20AE: FE 2C                             CP      2Ch     ; ','
20B0: CA 08 21                          JP      Z,L2108
20B3: FE 3B                             CP      3Bh     ; ';'
20B5: CA 64 21                          JP      Z,L2164
20B8: C1                                POP     BC
20B9: CD 37 23                          CALL    L2336+1 ; reference not aligned to instruction
20BC: E5                                PUSH    HL
20BD: E7                                RST     0x20
20BE: 28 32                             JR      Z,L20F2
20C0: CD BD 0F                          CALL    L0FBD
20C3: CD 65 28                          CALL    L2865
20C6: CD CD 41                          CALL    41CDh
20C9: 2A 21 41                          LD      HL,(4121h)
20CC: 3A 9C 40                          LD      A,(409Ch)
20CF: B7                                OR      A
20D0: FA E9 20                          JP      M,L20E9
20D3: 28 08                             JR      Z,L20DD
20D5: 3A 9B 40                          LD      A,(409Bh)
20D8: 86                                ADD     A,(HL)
20D9: FE 84                             CP      84h
20DB: 18 09                             JR      L20E6

20DD: 3A 9D 40                   L20DD: LD      A,(409Dh)
20E0: 47                                LD      B,A
20E1: 3A A6 40                          LD      A,(40A6h)
20E4: 86                                ADD     A,(HL)
20E5: B8                                CP      B
20E6: D4 FE 20                   L20E6: CALL    NC,L20FE
20E9: CD AA 28                   L20E9: CALL    L28AA
20EC: 3E 20                             LD      A,20h   ; ' '
20EE: CD 2A 03                          CALL    L032A
20F1: B7                                OR      A
20F2: CC AA 28                   L20F2: CALL    Z,L28AA
20F5: E1                                POP     HL
20F6: C3 9B 20                          JP      L209B

                                        ; --- START PROC L20F9 ---
20F9: 3A A6 40                   L20F9: LD      A,(40A6h)
20FC: B7                                OR      A
20FD: C8                                RET     Z
                                        ; --- START PROC L20FE ---
20FE: 3E 0D                      L20FE: LD      A,0Dh
2100: CD 2A 03                          CALL    L032A
                                        ; --- START PROC L2103 ---
2103: CD D0 41                   L2103: CALL    41D0h
2106: AF                                XOR     A
2107: C9                                RET

2108: CD D3 41                   L2108: CALL    41D3h
210B: 3A 9C 40                          LD      A,(409Ch)
210E: B7                                OR      A
210F: F2 19 21                          JP      P,L2119
2112: 3E 2C                             LD      A,2Ch   ; ','
2114: CD 2A 03                          CALL    L032A
2117: 18 4B                             JR      L2164

2119: 28 08                      L2119: JR      Z,L2123
211B: 3A 9B 40                          LD      A,(409Bh)
211E: FE 70                             CP      70h     ; 'p'
2120: C3 2B 21                          JP      L212B

2123: 3A 9E 40                   L2123: LD      A,(409Eh)
2126: 47                                LD      B,A
2127: 3A A6 40                          LD      A,(40A6h)
212A: B8                                CP      B
212B: D4 FE 20                   L212B: CALL    NC,L20FE
212E: 30 34                             JR      NC,L2164
2130: D6 10                      L2130: SUB     10h
2132: 30 FC                             JR      NC,L2130
2134: 2F                                CPL
2135: 18 23                             JR      L215A

2137: CD 1B 2B                   L2137: CALL    L2B1B
213A: E6 3F                             AND     3Fh     ; '?'
213C: 5F                                LD      E,A
213D: CF                                RST     0x08
213E: 29                                ADD     HL,HL
213F: 2B                                DEC     HL
2140: E5                                PUSH    HL
2141: CD D3 41                          CALL    41D3h
2144: 3A 9C 40                          LD      A,(409Ch)
2147: B7                                OR      A
2148: FA 4A 1E                          JP      M,L1E4A
214B: CA 53 21                          JP      Z,L2153
214E: 3A 9B 40                          LD      A,(409Bh)
2151: 18 03                             JR      L2156

2153: 3A A6 40                   L2153: LD      A,(40A6h)
2156: 2F                         L2156: CPL
2157: 83                                ADD     A,E
2158: 30 0A                             JR      NC,L2164
215A: 3C                         L215A: INC     A
215B: 47                                LD      B,A
215C: 3E 20                             LD      A,20h   ; ' '
215E: CD 2A 03                   L215E: CALL    L032A
2161: 05                                DEC     B
2162: 20 FA                             JR      NZ,L215E
2164: E1                         L2164: POP     HL
2165: D7                                RST     0x10
2166: C3 A0 20                          JP      L20A0

                                        ; --- START PROC L2169 ---
2169: 3A 9C 40                   L2169: LD      A,(409Ch)
216C: B7                                OR      A
216D: FC F8 01                          CALL    M,L01F8
2170: AF                                XOR     A
2171: 32 9C 40                          LD      (409Ch),A
2174: CD BE 41                          CALL    41BEh
2177: C9                                RET

2178: 3F                         L2178: CCF
2179: 52                                LD      D,D
217A: 45                                LD      B,L
217B: 44                                LD      B,H
217C: 4F                                LD      C,A
217D: 0D                                DEC     C
217E: 00                                NOP
217F: 3A DE 40                   L217F: LD      A,(40DEh)
2182: B7                                OR      A
2183: C2 91 19                          JP      NZ,L1991
2186: 3A A9 40                          LD      A,(40A9h)
2189: B7                                OR      A
218A: 1E 2A                             LD      E,2Ah   ; '*'
218C: CA A2 19                          JP      Z,L19A2
218F: C1                                POP     BC
2190: 21 78 21                          LD      HL,2178h
2193: CD A7 28                          CALL    L28A7
2196: 2A E6 40                          LD      HL,(40E6h)
2199: C9                                RET

219A: CD 28 28                   L219A: CALL    L2828
219D: 7E                                LD      A,(HL)
219E: CD D6 41                          CALL    41D6h
21A1: D6 23                             SUB     23h     ; '#'
21A3: 32 A9 40                          LD      (40A9h),A
21A6: 7E                                LD      A,(HL)
21A7: 20 20                             JR      NZ,L21C9
21A9: CD 93 02                          CALL    L0293
21AC: E5                                PUSH    HL
21AD: 06 FA                             LD      B,0FAh
21AF: 2A A7 40                          LD      HL,(40A7h)
21B2: CD 35 02                   L21B2: CALL    L0235
21B5: 77                                LD      (HL),A
21B6: 23                                INC     HL
21B7: FE 0D                             CP      0Dh
21B9: 28 02                             JR      Z,L21BD
21BB: 10 F5                             DJNZ    L21B2
21BD: 2B                         L21BD: DEC     HL
21BE: 36 00                             LD      (HL),00h
21C0: CD F8 01                          CALL    L01F8
21C3: 2A A7 40                          LD      HL,(40A7h)
21C6: 2B                                DEC     HL
21C7: 18 22                             JR      L21EB

21C9: 01 DB 21                   L21C9: LD      BC,21DBh
21CC: C5                                PUSH    BC
21CD: FE 22                             CP      22h     ; '"'
21CF: C0                                RET     NZ
21D0: CD 66 28                          CALL    L2866
21D3: CF                                RST     0x08
21D4: 3B                                DEC     SP
21D5: E5                                PUSH    HL
21D6: CD AA 28                          CALL    L28AA
21D9: E1                                POP     HL
21DA: C9                                RET

21DB: E5                         L21DB: PUSH    HL
21DC: CD B3 1B                          CALL    L1BB3
21DF: C1                                POP     BC
21E0: DA BE 1D                          JP      C,L1DBD+1       ; reference not aligned to instruction
21E3: 23                                INC     HL
21E4: 7E                                LD      A,(HL)
21E5: B7                                OR      A
21E6: 2B                                DEC     HL
21E7: C5                                PUSH    BC
21E8: CA 04 1F                          JP      Z,L1F03+1       ; reference not aligned to instruction
21EB: 36 2C                      L21EB: LD      (HL),2Ch        ; ','
21ED: 18 05                             JR      L21F3+1 ; reference not aligned to instruction

21EF: E5                         L21EF: PUSH    HL
21F0: 2A FF 40                          LD      HL,(40FFh)
21F3: F6 AF                      L21F3: OR      0AFh
21F5: 32 DE 40                          LD      (40DEh),A
21F8: E3                                EX      (SP),HL
21F9: 18 02                             JR      L21FD

21FB: CF                         L21FB: RST     0x08
21FC: 2C                                INC     L
21FD: CD 0D 26                   L21FD: CALL    L260C+1 ; reference not aligned to instruction
2200: E3                                EX      (SP),HL
2201: D5                                PUSH    DE
2202: 7E                                LD      A,(HL)
2203: FE 2C                             CP      2Ch     ; ','
2205: 28 26                             JR      Z,L222D
2207: 3A DE 40                          LD      A,(40DEh)
220A: B7                                OR      A
220B: C2 96 22                          JP      NZ,L2296
220E: 3A A9 40                          LD      A,(40A9h)
2211: B7                                OR      A
2212: 1E 06                             LD      E,06h
2214: CA A2 19                          JP      Z,L19A2
2217: 3E 3F                             LD      A,3Fh   ; '?'
2219: CD 2A 03                          CALL    L032A
221C: CD B3 1B                          CALL    L1BB3
221F: D1                                POP     DE
2220: C1                                POP     BC
2221: DA BE 1D                          JP      C,L1DBD+1       ; reference not aligned to instruction
2224: 23                                INC     HL
2225: 7E                                LD      A,(HL)
2226: B7                                OR      A
2227: 2B                                DEC     HL
2228: C5                                PUSH    BC
2229: CA 04 1F                          JP      Z,L1F03+1       ; reference not aligned to instruction
222C: D5                                PUSH    DE
222D: CD DC 41                   L222D: CALL    41DCh
2230: E7                                RST     0x20
2231: F5                                PUSH    AF
2232: 20 19                             JR      NZ,L224D
2234: D7                                RST     0x10
2235: 57                                LD      D,A
2236: 47                                LD      B,A
2237: FE 22                             CP      22h     ; '"'
2239: 28 05                             JR      Z,L2240
223B: 16 3A                             LD      D,3Ah   ; ':'
223D: 06 2C                             LD      B,2Ch   ; ','
223F: 2B                                DEC     HL
2240: CD 69 28                   L2240: CALL    L2869
2243: F1                                POP     AF
2244: EB                                EX      DE,HL
2245: 21 5A 22                          LD      HL,225Ah
2248: E3                                EX      (SP),HL
2249: D5                                PUSH    DE
224A: C3 33 1F                          JP      L1F33

224D: D7                         L224D: RST     0x10
224E: F1                                POP     AF
224F: F5                                PUSH    AF
2250: 01 43 22                          LD      BC,2243h
2253: C5                                PUSH    BC
2254: DA 6C 0E                          JP      C,L0E6B+1       ; reference not aligned to instruction
2257: D2 65 0E                          JP      NC,L0E65
225A: 2B                                DEC     HL
225B: D7                                RST     0x10
225C: 28 05                             JR      Z,L2263
225E: FE 2C                             CP      2Ch     ; ','
2260: C2 7F 21                          JP      NZ,L217F
2263: E3                         L2263: EX      (SP),HL
2264: 2B                                DEC     HL
2265: D7                                RST     0x10
2266: C2 FB 21                          JP      NZ,L21FB
2269: D1                                POP     DE
226A: 00                                NOP
226B: 00                                NOP
226C: 00                                NOP
226D: 00                                NOP
226E: 00                                NOP
226F: 3A DE 40                          LD      A,(40DEh)
2272: B7                                OR      A
2273: EB                                EX      DE,HL
2274: C2 96 1D                          JP      NZ,L1D96
2277: D5                                PUSH    DE
2278: CD DF 41                          CALL    41DFh
227B: B6                                OR      (HL)
227C: 21 86 22                          LD      HL,2286h
227F: C4 A7 28                          CALL    NZ,L28A7
2282: E1                                POP     HL
2283: C3 69 21                          JP      L2169

2286: 3F                         L2286: CCF
2287: 45                                LD      B,L
2288: 78                                LD      A,B
2289: 74                                LD      (HL),H
228A: 72                                LD      (HL),D
228B: 61                                LD      H,C
228C: 20 69                             JR      NZ,L22F7
228E: 67                                LD      H,A
228F: 6E                                LD      L,(HL)
2290: 6F                                LD      L,A
2291: 72                                LD      (HL),D
2292: 65                                LD      H,L
2293: 64                                LD      H,H
2294: 0D                                DEC     C
2295: 00                                NOP
2296: CD 05 1F                   L2296: CALL    L1F05
2299: B7                                OR      A
229A: 20 12                             JR      NZ,L22AE
229C: 23                                INC     HL
229D: 7E                                LD      A,(HL)
229E: 23                                INC     HL
229F: B6                                OR      (HL)
22A0: 1E 06                             LD      E,06h
22A2: CA A2 19                          JP      Z,L19A2
22A5: 23                                INC     HL
22A6: 5E                                LD      E,(HL)
22A7: 23                                INC     HL
22A8: 56                                LD      D,(HL)
22A9: EB                                EX      DE,HL
22AA: 22 DA 40                          LD      (40DAh),HL
22AD: EB                                EX      DE,HL
22AE: D7                         L22AE: RST     0x10
22AF: FE 88                             CP      88h
22B1: 20 E3                             JR      NZ,L2296
22B3: C3 2D 22                          JP      L222D

22B6: 11 00 00                   L22B6: LD      DE,0000h
                                        ; --- START PROC L22B9 ---
22B9: C4 0D 26                   L22B9: CALL    NZ,L260C+1      ; reference not aligned to instruction
22BC: 22 DF 40                          LD      (40DFh),HL
22BF: CD 36 19                          CALL    L1936
22C2: C2 9D 19                          JP      NZ,L199C+1      ; reference not aligned to instruction
22C5: F9                                LD      SP,HL
22C6: 22 E8 40                          LD      (40E8h),HL
22C9: D5                                PUSH    DE
22CA: 7E                                LD      A,(HL)
22CB: 23                                INC     HL
22CC: F5                                PUSH    AF
22CD: D5                                PUSH    DE
22CE: 7E                                LD      A,(HL)
22CF: 23                                INC     HL
22D0: B7                                OR      A
22D1: FA EA 22                          JP      M,L22EA
22D4: CD B1 09                          CALL    L09B1
22D7: E3                                EX      (SP),HL
22D8: E5                                PUSH    HL
22D9: CD 0B 07                          CALL    L070B
22DC: E1                                POP     HL
22DD: CD CB 09                          CALL    L09CB
22E0: E1                                POP     HL
22E1: CD C2 09                          CALL    L09C2
22E4: E5                                PUSH    HL
22E5: CD 0C 0A                          CALL    L0A0C
22E8: 18 29                             JR      L2313

22EA: 23                         L22EA: INC     HL
22EB: 23                                INC     HL
22EC: 23                                INC     HL
22ED: 23                                INC     HL
22EE: 4E                                LD      C,(HL)
22EF: 23                                INC     HL
22F0: 46                                LD      B,(HL)
22F1: 23                                INC     HL
22F2: E3                                EX      (SP),HL
22F3: 5E                                LD      E,(HL)
22F4: 23                                INC     HL
22F5: 56                                LD      D,(HL)
22F6: E5                                PUSH    HL
22F7: 69                         L22F7: LD      L,C
22F8: 60                                LD      H,B
22F9: CD D2 0B                          CALL    L0BD2
22FC: 3A AF 40                          LD      A,(40AFh)
22FF: FE 04                             CP      04h
2301: CA B2 07                          JP      Z,L07B2
2304: EB                                EX      DE,HL
2305: E1                                POP     HL
2306: 72                                LD      (HL),D
2307: 2B                                DEC     HL
2308: 73                                LD      (HL),E
2309: E1                                POP     HL
230A: D5                                PUSH    DE
230B: 5E                                LD      E,(HL)
230C: 23                                INC     HL
230D: 56                                LD      D,(HL)
230E: 23                                INC     HL
230F: E3                                EX      (SP),HL
2310: CD 39 0A                          CALL    L0A39
2313: E1                         L2313: POP     HL
2314: C1                                POP     BC
2315: 90                                SUB     B
2316: CD C2 09                          CALL    L09C2
2319: 28 09                             JR      Z,L2324
231B: EB                                EX      DE,HL
231C: 22 A2 40                          LD      (40A2h),HL
231F: 69                                LD      L,C
2320: 60                                LD      H,B
2321: C3 1A 1D                          JP      L1D1A

2324: F9                         L2324: LD      SP,HL
2325: 22 E8 40                          LD      (40E8h),HL
2328: 2A DF 40                          LD      HL,(40DFh)
232B: 7E                                LD      A,(HL)
232C: FE 2C                             CP      2Ch     ; ','
232E: C2 1E 1D                          JP      NZ,L1D1E
2331: D7                                RST     0x10
2332: CD B9 22                          CALL    L22B9
                                        ; --- START PROC L2335 ---
2335: CF                         L2335: RST     0x08
2336: 28 2B                      L2336: JR      Z,L2362+1       ; reference not aligned to instruction
                                        ; --- START PROC L2338 ---
2338: 16 00                      L2338: LD      D,00h
                                        ; --- START PROC L233A ---
233A: D5                         L233A: PUSH    DE
233B: 0E 01                             LD      C,01h
233D: CD 63 19                          CALL    L1963
2340: CD 9F 24                          CALL    L249F
2343: 22 F3 40                          LD      (40F3h),HL
                                        ; --- START PROC L2346 ---
2346: 2A F3 40                   L2346: LD      HL,(40F3h)
2349: C1                                POP     BC
234A: 7E                                LD      A,(HL)
234B: 16 00                             LD      D,00h
234D: D6 D4                      L234D: SUB     0D4h
234F: 38 13                             JR      C,L2364
2351: FE 03                             CP      03h
2353: 30 0F                             JR      NC,L2364
2355: FE 01                             CP      01h
2357: 17                                RLA
2358: AA                                XOR     D
2359: BA                                CP      D
235A: 57                                LD      D,A
235B: DA 97 19                          JP      C,L1997
235E: 22 D8 40                          LD      (40D8h),HL
2361: D7                                RST     0x10
2362: 18 E9                      L2362: JR      L234D

2364: 7A                         L2364: LD      A,D
2365: B7                                OR      A
2366: C2 EC 23                          JP      NZ,L23EC
2369: 7E                                LD      A,(HL)
236A: 22 D8 40                          LD      (40D8h),HL
236D: D6 CD                             SUB     0CDh
236F: D8                                RET     C
2370: FE 07                             CP      07h
2372: D0                                RET     NC
2373: 5F                                LD      E,A
2374: 3A AF 40                          LD      A,(40AFh)
2377: D6 03                             SUB     03h
2379: B3                                OR      E
237A: CA 8F 29                          JP      Z,L298F
237D: 21 9A 18                          LD      HL,189Ah
2380: 19                                ADD     HL,DE
2381: 78                                LD      A,B
2382: 56                                LD      D,(HL)
2383: BA                                CP      D
2384: D0                                RET     NC
2385: C5                                PUSH    BC
2386: 01 46 23                          LD      BC,2346h
2389: C5                                PUSH    BC
238A: 7A                                LD      A,D
238B: FE 7F                             CP      7Fh     ; ''
238D: CA D4 23                          JP      Z,L23D4
2390: FE 51                             CP      51h     ; 'Q'
2392: DA E1 23                          JP      C,L23E1
2395: 21 21 41                   L2395: LD      HL,4121h
2398: B7                                OR      A
2399: 3A AF 40                          LD      A,(40AFh)
239C: 3D                                DEC     A
239D: 3D                                DEC     A
239E: 3D                                DEC     A
239F: CA F6 0A                          JP      Z,L0AF6
23A2: 4E                                LD      C,(HL)
23A3: 23                                INC     HL
23A4: 46                                LD      B,(HL)
23A5: C5                                PUSH    BC
23A6: FA C5 23                          JP      M,L23C5
23A9: 23                                INC     HL
23AA: 4E                                LD      C,(HL)
23AB: 23                                INC     HL
23AC: 46                                LD      B,(HL)
23AD: C5                                PUSH    BC
23AE: F5                                PUSH    AF
23AF: B7                                OR      A
23B0: E2 C4 23                          JP      PO,L23C3+1      ; reference not aligned to instruction
23B3: F1                                POP     AF
23B4: 23                                INC     HL
23B5: 38 03                             JR      C,L23BA
23B7: 21 1D 41                          LD      HL,411Dh
23BA: 4E                         L23BA: LD      C,(HL)
23BB: 23                                INC     HL
23BC: 46                                LD      B,(HL)
23BD: 23                                INC     HL
23BE: C5                                PUSH    BC
23BF: 4E                                LD      C,(HL)
23C0: 23                                INC     HL
23C1: 46                                LD      B,(HL)
23C2: C5                                PUSH    BC
23C3: 06 F1                      L23C3: LD      B,0F1h
23C5: C6 03                      L23C5: ADD     A,03h
23C7: 4B                                LD      C,E
23C8: 47                                LD      B,A
23C9: C5                                PUSH    BC
23CA: 01 06 24                          LD      BC,2406h
23CD: C5                         L23CD: PUSH    BC
23CE: 2A D8 40                          LD      HL,(40D8h)
23D1: C3 3A 23                          JP      L233A

23D4: CD B1 0A                   L23D4: CALL    L0AB1
23D7: CD A4 09                          CALL    L09A4
23DA: 01 F2 13                          LD      BC,13F2h
23DD: 16 7F                             LD      D,7Fh   ; ''
23DF: 18 EC                             JR      L23CD

23E1: D5                         L23E1: PUSH    DE
23E2: CD 7F 0A                          CALL    L0A7F
23E5: D1                                POP     DE
23E6: E5                                PUSH    HL
23E7: 01 E9 25                          LD      BC,25E9h
23EA: 18 E1                             JR      L23CD

23EC: 78                         L23EC: LD      A,B
23ED: FE 64                             CP      64h     ; 'd'
23EF: D0                                RET     NC
23F0: C5                                PUSH    BC
23F1: D5                                PUSH    DE
23F2: 11 04 64                          LD      DE,6404h
23F5: 21 B8 25                          LD      HL,25B8h
23F8: E5                                PUSH    HL
23F9: E7                                RST     0x20
23FA: C2 95 23                          JP      NZ,L2395
23FD: 2A 21 41                          LD      HL,(4121h)
2400: E5                                PUSH    HL
2401: 01 8C 25                          LD      BC,258Ch
2404: 18 C7                             JR      L23CD

2406: C1                         L2406: POP     BC
2407: 79                                LD      A,C
2408: 32 B0 40                          LD      (40B0h),A
240B: 78                                LD      A,B
240C: FE 08                             CP      08h
240E: 28 28                             JR      Z,L2438
2410: 3A AF 40                          LD      A,(40AFh)
2413: FE 08                             CP      08h
2415: CA 60 24                          JP      Z,L2460
2418: 57                                LD      D,A
2419: 78                                LD      A,B
241A: FE 04                             CP      04h
241C: CA 72 24                          JP      Z,L2472
241F: 7A                                LD      A,D
2420: FE 03                             CP      03h
2422: CA F6 0A                          JP      Z,L0AF6
2425: D2 7C 24                          JP      NC,L247C
2428: 21 BF 18                          LD      HL,18BFh
242B: 06 00                             LD      B,00h
242D: 09                                ADD     HL,BC
242E: 09                                ADD     HL,BC
242F: 4E                                LD      C,(HL)
2430: 23                                INC     HL
2431: 46                                LD      B,(HL)
2432: D1                                POP     DE
2433: 2A 21 41                          LD      HL,(4121h)
2436: C5                                PUSH    BC
2437: C9                                RET

2438: CD DB 0A                   L2438: CALL    L0ADB
243B: CD FC 09                          CALL    L09FC
243E: E1                                POP     HL
243F: 22 1F 41                          LD      (411Fh),HL
2442: E1                                POP     HL
2443: 22 1D 41                          LD      (411Dh),HL
2446: C1                         L2446: POP     BC
2447: D1                                POP     DE
2448: CD B4 09                          CALL    L09B4
244B: CD DB 0A                   L244B: CALL    L0ADB
244E: 21 AB 18                          LD      HL,18ABh
2451: 3A B0 40                   L2451: LD      A,(40B0h)
2454: 07                                RLCA
2455: C5                                PUSH    BC
2456: 4F                                LD      C,A
2457: 06 00                             LD      B,00h
2459: 09                                ADD     HL,BC
245A: C1                                POP     BC
245B: 7E                                LD      A,(HL)
245C: 23                                INC     HL
245D: 66                                LD      H,(HL)
245E: 6F                                LD      L,A
245F: E9                                JP      (HL)

2460: C5                         L2460: PUSH    BC
2461: CD FC 09                          CALL    L09FC
2464: F1                                POP     AF
2465: 32 AF 40                          LD      (40AFh),A
2468: FE 04                             CP      04h
246A: 28 DA                             JR      Z,L2446
246C: E1                                POP     HL
246D: 22 21 41                          LD      (4121h),HL
2470: 18 D9                             JR      L244B

2472: CD B1 0A                   L2472: CALL    L0AB1
2475: C1                                POP     BC
2476: D1                                POP     DE
2477: 21 B5 18                   L2477: LD      HL,18B5h
247A: 18 D5                             JR      L2451

247C: E1                         L247C: POP     HL
247D: CD A4 09                          CALL    L09A4
2480: CD CF 0A                          CALL    L0ACF
2483: CD BF 09                          CALL    L09BF
2486: E1                                POP     HL
2487: 22 23 41                          LD      (4123h),HL
248A: E1                                POP     HL
248B: 22 21 41                          LD      (4121h),HL
248E: 18 E7                             JR      L2477

2490: E5                         L2490: PUSH    HL
2491: EB                                EX      DE,HL
2492: CD CF 0A                          CALL    L0ACF
2495: E1                                POP     HL
2496: CD A4 09                          CALL    L09A4
2499: CD CF 0A                          CALL    L0ACF
249C: C3 A0 08                          JP      L08A0

                                        ; --- START PROC L249F ---
249F: D7                         L249F: RST     0x10
24A0: 1E 28                             LD      E,28h   ; '('
24A2: CA A2 19                          JP      Z,L19A2
24A5: DA 6C 0E                          JP      C,L0E6B+1       ; reference not aligned to instruction
24A8: CD 3D 1E                          CALL    L1E3D
24AB: D2 40 25                          JP      NC,L2540
24AE: FE CD                             CP      0CDh
24B0: 28 ED                             JR      Z,L249F
24B2: FE 2E                             CP      2Eh     ; '.'
24B4: CA 6C 0E                          JP      Z,L0E6B+1       ; reference not aligned to instruction
24B7: FE CE                             CP      0CEh
24B9: CA 32 25                          JP      Z,L2532
24BC: FE 22                      L24BC: CP      22h     ; '"'
24BE: CA 66 28                          JP      Z,L2866
24C1: FE CB                             CP      0CBh
24C3: CA C4 25                          JP      Z,L25C4
24C6: FE 26                             CP      26h     ; '&'
24C8: CA 94 41                          JP      Z,4194h
24CB: FE C3                             CP      0C3h
24CD: 20 0A                             JR      NZ,L24D9
24CF: D7                                RST     0x10
24D0: 3A 9A 40                          LD      A,(409Ah)
24D3: E5                                PUSH    HL
24D4: CD F8 27                          CALL    L27F8
24D7: E1                                POP     HL
24D8: C9                                RET

24D9: FE C2                      L24D9: CP      0C2h
24DB: 20 0A                             JR      NZ,L24E7
24DD: D7                                RST     0x10
24DE: E5                                PUSH    HL
24DF: 2A EA 40                          LD      HL,(40EAh)
24E2: CD 66 0C                          CALL    L0C66
24E5: E1                                POP     HL
24E6: C9                                RET

24E7: FE C0                      L24E7: CP      0C0h
24E9: 20 14                             JR      NZ,L24FF
24EB: D7                                RST     0x10
24EC: CF                                RST     0x08
24ED: 28 CD                             JR      Z,L24BC
24EF: 0D                                DEC     C
24F0: 26 CF                             LD      H,0CFh
24F2: 29                                ADD     HL,HL
24F3: E5                                PUSH    HL
24F4: EB                                EX      DE,HL
24F5: 7C                                LD      A,H
24F6: B5                                OR      L
24F7: CA 4A 1E                          JP      Z,L1E4A
24FA: CD 9A 0A                          CALL    L0A9A
24FD: E1                                POP     HL
24FE: C9                                RET

24FF: FE C1                      L24FF: CP      0C1h
2501: CA FE 27                          JP      Z,L27FE
2504: FE C5                             CP      0C5h
2506: CA 9D 41                          JP      Z,419Dh
2509: FE C8                             CP      0C8h
250B: CA C9 27                          JP      Z,L27C9
250E: FE C7                             CP      0C7h
2510: CA 76 41                          JP      Z,4176h
2513: FE C6                             CP      0C6h
2515: CA 32 01                          JP      Z,L0132
2518: FE C9                             CP      0C9h
251A: CA 9D 01                          JP      Z,L019D
251D: FE C4                             CP      0C4h
251F: CA 2F 2A                          JP      Z,L2A2F
2522: FE BE                             CP      0BEh
2524: CA 55 41                          JP      Z,4155h
2527: D6 D7                             SUB     0D7h
2529: D2 4E 25                          JP      NC,L254E
                                        ; --- START PROC L252C ---
252C: CD 35 23                   L252C: CALL    L2335
252F: CF                                RST     0x08
2530: 29                                ADD     HL,HL
2531: C9                                RET

                                        ; --- START PROC L2532 ---
2532: 16 7D                      L2532: LD      D,7Dh   ; '}'
2534: CD 3A 23                          CALL    L233A
2537: 2A F3 40                          LD      HL,(40F3h)
253A: E5                                PUSH    HL
253B: CD 7B 09                          CALL    L097B
253E: E1                                POP     HL
253F: C9                                RET

                                        ; --- START PROC L2540 ---
2540: CD 0D 26                   L2540: CALL    L260C+1 ; reference not aligned to instruction
2543: E5                                PUSH    HL
2544: EB                                EX      DE,HL
2545: 22 21 41                          LD      (4121h),HL
2548: E7                                RST     0x20
2549: C4 F7 09                          CALL    NZ,L09F7
254C: E1                                POP     HL
254D: C9                                RET

                                        ; --- START PROC L254E ---
254E: 06 00                      L254E: LD      B,00h
2550: 07                                RLCA
2551: 4F                                LD      C,A
2552: C5                                PUSH    BC
2553: D7                                RST     0x10
2554: 79                                LD      A,C
2555: FE 41                             CP      41h     ; 'A'
2557: 38 16                             JR      C,L256F
2559: CD 35 23                          CALL    L2335
255C: CF                                RST     0x08
255D: 2C                                INC     L
255E: CD F4 0A                          CALL    L0AF4
2561: EB                                EX      DE,HL
2562: 2A 21 41                          LD      HL,(4121h)
2565: E3                                EX      (SP),HL
2566: E5                                PUSH    HL
2567: EB                                EX      DE,HL
2568: CD 1C 2B                          CALL    L2B1C
256B: EB                                EX      DE,HL
256C: E3                                EX      (SP),HL
256D: 18 14                             JR      L2583

256F: CD 2C 25                   L256F: CALL    L252C
2572: E3                                EX      (SP),HL
2573: 7D                                LD      A,L
2574: FE 0C                             CP      0Ch
2576: 38 07                             JR      C,L257F
2578: FE 1B                             CP      1Bh
257A: E5                                PUSH    HL
257B: DC B1 0A                          CALL    C,L0AB1
257E: E1                                POP     HL
257F: 11 3E 25                   L257F: LD      DE,253Eh
2582: D5                                PUSH    DE
                                        ; --- START PROC L2583 ---
2583: 01 08 16                   L2583: LD      BC,1608h
                                        ; --- START PROC L2586 ---
2586: 09                         L2586: ADD     HL,BC
2587: 4E                                LD      C,(HL)
2588: 23                                INC     HL
2589: 66                                LD      H,(HL)
258A: 69                                LD      L,C
258B: E9                                JP      (HL)

258C: CD D7 29                   L258C: CALL    L29D7
258F: 7E                                LD      A,(HL)
2590: 23                                INC     HL
2591: 4E                                LD      C,(HL)
2592: 23                                INC     HL
2593: 46                                LD      B,(HL)
2594: D1                                POP     DE
2595: C5                                PUSH    BC
2596: F5                                PUSH    AF
2597: CD DE 29                          CALL    L29DE
259A: D1                                POP     DE
259B: 5E                                LD      E,(HL)
259C: 23                                INC     HL
259D: 4E                                LD      C,(HL)
259E: 23                                INC     HL
259F: 46                                LD      B,(HL)
25A0: E1                                POP     HL
25A1: 7B                         L25A1: LD      A,E
25A2: B2                                OR      D
25A3: C8                                RET     Z
25A4: 7A                                LD      A,D
25A5: D6 01                             SUB     01h
25A7: D8                                RET     C
25A8: AF                                XOR     A
25A9: BB                                CP      E
25AA: 3C                                INC     A
25AB: D0                                RET     NC
25AC: 15                                DEC     D
25AD: 1D                                DEC     E
25AE: 0A                                LD      A,(BC)
25AF: BE                                CP      (HL)
25B0: 23                                INC     HL
25B1: 03                                INC     BC
25B2: 28 ED                             JR      Z,L25A1
25B4: 3F                                CCF
25B5: C3 60 09                          JP      L0960

25B8: 3C                         L25B8: INC     A
25B9: 8F                                ADC     A,A
25BA: C1                                POP     BC
25BB: A0                                AND     B
25BC: C6 FF                             ADD     A,0FFh
25BE: 9F                                SBC     A,A
25BF: CD 8D 09                          CALL    L098D
25C2: 18 12                             JR      L25D6

                                        ; --- START PROC L25C4 ---
25C4: 16 5A                      L25C4: LD      D,5Ah   ; 'Z'
25C6: CD 3A 23                          CALL    L233A
25C9: CD 7F 0A                          CALL    L0A7F
25CC: 7D                                LD      A,L
25CD: 2F                                CPL
25CE: 6F                                LD      L,A
25CF: 7C                                LD      A,H
25D0: 2F                                CPL
25D1: 67                                LD      H,A
25D2: 22 21 41                          LD      (4121h),HL
25D5: C1                                POP     BC
25D6: C3 46 23                   L25D6: JP      L2346

25D9: 3A AF 40                   L25D9: LD      A,(40AFh)
25DC: FE 08                             CP      08h
25DE: 30 05                             JR      NC,L25E5
25E0: D6 03                             SUB     03h
25E2: B7                                OR      A
25E3: 37                                SCF
25E4: C9                                RET

25E5: D6 03                      L25E5: SUB     03h
25E7: B7                                OR      A
25E8: C9                                RET

25E9: C5                         L25E9: PUSH    BC
25EA: CD 7F 0A                          CALL    L0A7F
25ED: F1                                POP     AF
25EE: D1                                POP     DE
25EF: 01 FA 27                          LD      BC,27FAh
25F2: C5                                PUSH    BC
25F3: FE 46                             CP      46h     ; 'F'
25F5: 20 06                             JR      NZ,L25FD
25F7: 7B                                LD      A,E
25F8: B5                                OR      L
25F9: 6F                                LD      L,A
25FA: 7C                                LD      A,H
25FB: B2                                OR      D
25FC: C9                                RET

25FD: 7B                         L25FD: LD      A,E
25FE: A5                                AND     L
25FF: 6F                                LD      L,A
2600: 7C                                LD      A,H
2601: A2                                AND     D
2602: C9                                RET

2603: 2B                         L2603: DEC     HL
2604: D7                                RST     0x10
2605: C8                                RET     Z
2606: CF                                RST     0x08
2607: 2C                                INC     L
2608: 01 03 26                          LD      BC,2603h
260B: C5                                PUSH    BC
260C: F6 AF                      L260C: OR      0AFh
260E: 32 AE 40                          LD      (40AEh),A
2611: 46                                LD      B,(HL)
2612: CD 3D 1E                          CALL    L1E3D
2615: DA 97 19                          JP      C,L1997
2618: AF                                XOR     A
2619: 4F                                LD      C,A
261A: D7                                RST     0x10
261B: 38 05                             JR      C,L2622
261D: CD 3D 1E                          CALL    L1E3D
2620: 38 09                             JR      C,L262B
2622: 4F                         L2622: LD      C,A
2623: D7                         L2623: RST     0x10
2624: 38 FD                             JR      C,L2623
2626: CD 3D 1E                          CALL    L1E3D
2629: 30 F8                             JR      NC,L2623
262B: 11 52 26                   L262B: LD      DE,2652h
262E: D5                                PUSH    DE
262F: 16 02                             LD      D,02h
2631: FE 25                             CP      25h     ; '%'
2633: C8                                RET     Z
2634: 14                                INC     D
2635: FE 24                             CP      24h     ; '$'
2637: C8                                RET     Z
2638: 14                                INC     D
2639: FE 21                             CP      21h     ; '!'
263B: C8                                RET     Z
263C: 16 08                             LD      D,08h
263E: FE 23                             CP      23h     ; '#'
2640: C8                                RET     Z
2641: 78                                LD      A,B
2642: D6 41                             SUB     41h     ; 'A'
2644: E6 7F                             AND     7Fh     ; ''
2646: 5F                                LD      E,A
2647: 16 00                             LD      D,00h
2649: E5                                PUSH    HL
264A: 21 01 41                          LD      HL,4101h
264D: 19                                ADD     HL,DE
264E: 56                                LD      D,(HL)
264F: E1                                POP     HL
2650: 2B                                DEC     HL
2651: C9                                RET

2652: 7A                         L2652: LD      A,D
2653: 32 AF 40                          LD      (40AFh),A
2656: D7                                RST     0x10
2657: 3A DC 40                          LD      A,(40DCh)
265A: B7                                OR      A
265B: C2 64 26                          JP      NZ,L2664
265E: 7E                                LD      A,(HL)
265F: D6 28                             SUB     28h     ; '('
2661: CA E9 26                          JP      Z,L26E9
2664: AF                         L2664: XOR     A
2665: 32 DC 40                          LD      (40DCh),A
2668: E5                                PUSH    HL
2669: D5                                PUSH    DE
266A: 2A F9 40                          LD      HL,(40F9h)
266D: EB                         L266D: EX      DE,HL
266E: 2A FB 40                          LD      HL,(40FBh)
2671: DF                                RST     0x18
2672: E1                                POP     HL
2673: 28 19                             JR      Z,L268E
2675: 1A                                LD      A,(DE)
2676: 6F                                LD      L,A
2677: BC                                CP      H
2678: 13                                INC     DE
2679: 20 0B                             JR      NZ,L2685+1      ; reference not aligned to instruction
267B: 1A                                LD      A,(DE)
267C: B9                                CP      C
267D: 20 07                             JR      NZ,L2685+1      ; reference not aligned to instruction
267F: 13                                INC     DE
2680: 1A                                LD      A,(DE)
2681: B8                                CP      B
2682: CA CC 26                          JP      Z,L26CC
2685: 3E 13                      L2685: LD      A,13h
2687: 13                                INC     DE
2688: E5                                PUSH    HL
2689: 26 00                             LD      H,00h
268B: 19                                ADD     HL,DE
268C: 18 DF                             JR      L266D

268E: 7C                         L268E: LD      A,H
268F: E1                                POP     HL
2690: E3                                EX      (SP),HL
2691: F5                                PUSH    AF
2692: D5                                PUSH    DE
2693: 11 F1 24                          LD      DE,24F1h
2696: DF                                RST     0x18
2697: 28 36                             JR      Z,L26CF
2699: 11 43 25                          LD      DE,2543h
269C: DF                                RST     0x18
269D: D1                                POP     DE
269E: 28 35                             JR      Z,L26D5
26A0: F1                                POP     AF
26A1: E3                                EX      (SP),HL
26A2: E5                                PUSH    HL
26A3: C5                                PUSH    BC
26A4: 4F                                LD      C,A
26A5: 06 00                             LD      B,00h
26A7: C5                                PUSH    BC
26A8: 03                                INC     BC
26A9: 03                                INC     BC
26AA: 03                                INC     BC
26AB: 2A FD 40                          LD      HL,(40FDh)
26AE: E5                                PUSH    HL
26AF: 09                                ADD     HL,BC
26B0: C1                                POP     BC
26B1: E5                                PUSH    HL
26B2: CD 55 19                          CALL    L1955
26B5: E1                                POP     HL
26B6: 22 FD 40                          LD      (40FDh),HL
26B9: 60                                LD      H,B
26BA: 69                                LD      L,C
26BB: 22 FB 40                          LD      (40FBh),HL
26BE: 2B                         L26BE: DEC     HL
26BF: 36 00                             LD      (HL),00h
26C1: DF                                RST     0x18
26C2: 20 FA                             JR      NZ,L26BE
26C4: D1                                POP     DE
26C5: 73                                LD      (HL),E
26C6: 23                                INC     HL
26C7: D1                                POP     DE
26C8: 73                                LD      (HL),E
26C9: 23                                INC     HL
26CA: 72                                LD      (HL),D
26CB: EB                                EX      DE,HL
26CC: 13                         L26CC: INC     DE
26CD: E1                                POP     HL
26CE: C9                                RET

26CF: 57                         L26CF: LD      D,A
26D0: 5F                                LD      E,A
26D1: F1                                POP     AF
26D2: F1                                POP     AF
26D3: E3                                EX      (SP),HL
26D4: C9                                RET

26D5: 32 24 41                   L26D5: LD      (4124h),A
26D8: C1                                POP     BC
26D9: 67                                LD      H,A
26DA: 6F                                LD      L,A
26DB: 22 21 41                          LD      (4121h),HL
26DE: E7                                RST     0x20
26DF: 20 06                             JR      NZ,L26E7
26E1: 21 28 19                          LD      HL,1928h
26E4: 22 21 41                          LD      (4121h),HL
26E7: E1                         L26E7: POP     HL
26E8: C9                                RET

26E9: E5                         L26E9: PUSH    HL
26EA: 2A AE 40                          LD      HL,(40AEh)
26ED: E3                                EX      (SP),HL
26EE: 57                                LD      D,A
26EF: D5                         L26EF: PUSH    DE
26F0: C5                                PUSH    BC
26F1: CD 45 1E                          CALL    L1E45
26F4: C1                                POP     BC
26F5: F1                                POP     AF
26F6: EB                                EX      DE,HL
26F7: E3                                EX      (SP),HL
26F8: E5                                PUSH    HL
26F9: EB                                EX      DE,HL
26FA: 3C                                INC     A
26FB: 57                                LD      D,A
26FC: 7E                                LD      A,(HL)
26FD: FE 2C                             CP      2Ch     ; ','
26FF: 28 EE                             JR      Z,L26EF
2701: CF                                RST     0x08
2702: 29                                ADD     HL,HL
2703: 22 F3 40                          LD      (40F3h),HL
2706: E1                                POP     HL
2707: 22 AE 40                          LD      (40AEh),HL
270A: D5                                PUSH    DE
270B: 2A FB 40                          LD      HL,(40FBh)
270E: 3E 19                      L270E: LD      A,19h
2710: EB                                EX      DE,HL
2711: 2A FD 40                          LD      HL,(40FDh)
2714: EB                                EX      DE,HL
2715: DF                                RST     0x18
2716: 3A AF 40                          LD      A,(40AFh)
2719: 28 27                             JR      Z,L2742
271B: BE                                CP      (HL)
271C: 23                                INC     HL
271D: 20 08                             JR      NZ,L2726+1      ; reference not aligned to instruction
271F: 7E                                LD      A,(HL)
2720: B9                                CP      C
2721: 23                                INC     HL
2722: 20 04                             JR      NZ,L2728
2724: 7E                                LD      A,(HL)
2725: B8                                CP      B
2726: 3E 23                      L2726: LD      A,23h   ; '#'
2728: 23                         L2728: INC     HL
2729: 5E                                LD      E,(HL)
272A: 23                                INC     HL
272B: 56                                LD      D,(HL)
272C: 23                                INC     HL
272D: 20 E0                             JR      NZ,L270E+1      ; reference not aligned to instruction
272F: 3A AE 40                          LD      A,(40AEh)
2732: B7                                OR      A
2733: 1E 12                             LD      E,12h
2735: C2 A2 19                          JP      NZ,L19A2
2738: F1                                POP     AF
2739: 96                                SUB     (HL)
273A: CA 95 27                          JP      Z,L2795
                                        ; --- START PROC L273D ---
273D: 1E 10                      L273D: LD      E,10h
273F: C3 A2 19                          JP      L19A2

2742: 77                         L2742: LD      (HL),A
2743: 23                                INC     HL
2744: 5F                                LD      E,A
2745: 16 00                             LD      D,00h
2747: F1                                POP     AF
2748: 71                                LD      (HL),C
2749: 23                                INC     HL
274A: 70                                LD      (HL),B
274B: 23                                INC     HL
274C: 4F                                LD      C,A
274D: CD 63 19                          CALL    L1963
2750: 23                                INC     HL
2751: 23                                INC     HL
2752: 22 D8 40                          LD      (40D8h),HL
2755: 71                                LD      (HL),C
2756: 23                                INC     HL
2757: 3A AE 40                          LD      A,(40AEh)
275A: 17                                RLA
275B: 79                                LD      A,C
275C: 01 0B 00                   L275C: LD      BC,000Bh
275F: 30 02                             JR      NC,L2763
2761: C1                                POP     BC
2762: 03                                INC     BC
2763: 71                         L2763: LD      (HL),C
2764: 23                                INC     HL
2765: 70                                LD      (HL),B
2766: 23                                INC     HL
2767: F5                                PUSH    AF
2768: CD AA 0B                          CALL    L0BAA
276B: F1                                POP     AF
276C: 3D                                DEC     A
276D: 20 ED                             JR      NZ,L275C
276F: F5                                PUSH    AF
2770: 42                                LD      B,D
2771: 4B                                LD      C,E
2772: EB                                EX      DE,HL
2773: 19                                ADD     HL,DE
2774: 38 C7                             JR      C,L273D
2776: CD 6C 19                          CALL    L196B+1 ; reference not aligned to instruction
2779: 22 FD 40                          LD      (40FDh),HL
277C: 2B                         L277C: DEC     HL
277D: 36 00                             LD      (HL),00h
277F: DF                                RST     0x18
2780: 20 FA                             JR      NZ,L277C
2782: 03                                INC     BC
2783: 57                                LD      D,A
2784: 2A D8 40                          LD      HL,(40D8h)
2787: 5E                                LD      E,(HL)
2788: EB                                EX      DE,HL
2789: 29                                ADD     HL,HL
278A: 09                                ADD     HL,BC
278B: EB                                EX      DE,HL
278C: 2B                                DEC     HL
278D: 2B                                DEC     HL
278E: 73                                LD      (HL),E
278F: 23                                INC     HL
2790: 72                                LD      (HL),D
2791: 23                                INC     HL
2792: F1                                POP     AF
2793: 38 30                             JR      C,L27C5
2795: 47                         L2795: LD      B,A
2796: 4F                                LD      C,A
2797: 7E                                LD      A,(HL)
2798: 23                                INC     HL
2799: 16 E1                      L2799: LD      D,0E1h
279B: 5E                                LD      E,(HL)
279C: 23                                INC     HL
279D: 56                                LD      D,(HL)
279E: 23                                INC     HL
279F: E3                                EX      (SP),HL
27A0: F5                                PUSH    AF
27A1: DF                                RST     0x18
27A2: D2 3D 27                          JP      NC,L273D
27A5: CD AA 0B                          CALL    L0BAA
27A8: 19                                ADD     HL,DE
27A9: F1                                POP     AF
27AA: 3D                                DEC     A
27AB: 44                                LD      B,H
27AC: 4D                                LD      C,L
27AD: 20 EB                             JR      NZ,L2799+1      ; reference not aligned to instruction
27AF: 3A AF 40                          LD      A,(40AFh)
27B2: 44                                LD      B,H
27B3: 4D                                LD      C,L
27B4: 29                                ADD     HL,HL
27B5: D6 04                             SUB     04h
27B7: 38 04                             JR      C,L27BD
27B9: 29                                ADD     HL,HL
27BA: 28 06                             JR      Z,L27C2
27BC: 29                                ADD     HL,HL
27BD: B7                         L27BD: OR      A
27BE: E2 C2 27                          JP      PO,L27C2
27C1: 09                                ADD     HL,BC
27C2: C1                         L27C2: POP     BC
27C3: 09                                ADD     HL,BC
27C4: EB                                EX      DE,HL
27C5: 2A F3 40                   L27C5: LD      HL,(40F3h)
27C8: C9                                RET

                                        ; --- START PROC L27C9 ---
27C9: AF                         L27C9: XOR     A
27CA: E5                                PUSH    HL
27CB: 32 AF 40                          LD      (40AFh),A
27CE: CD D4 27                          CALL    L27D4
27D1: E1                                POP     HL
27D2: D7                                RST     0x10
27D3: C9                                RET

                                        ; --- START PROC L27D4 ---
27D4: 2A FD 40                   L27D4: LD      HL,(40FDh)
27D7: EB                                EX      DE,HL
27D8: 21 00 00                          LD      HL,0000h
27DB: 39                                ADD     HL,SP
27DC: E7                                RST     0x20
27DD: 20 0D                             JR      NZ,L27EC
27DF: CD DA 29                          CALL    L29DA
27E2: CD E6 28                          CALL    L28E6
27E5: 2A A0 40                          LD      HL,(40A0h)
27E8: EB                                EX      DE,HL
27E9: 2A D6 40                          LD      HL,(40D6h)
27EC: 7D                         L27EC: LD      A,L
27ED: 93                                SUB     E
27EE: 6F                                LD      L,A
27EF: 7C                                LD      A,H
27F0: 9A                                SBC     A,D
27F1: 67                                LD      H,A
27F2: C3 66 0C                          JP      L0C66

27F5: 3A A6 40                   L27F5: LD      A,(40A6h)
                                        ; --- START PROC L27F8 ---
27F8: 6F                         L27F8: LD      L,A
27F9: AF                                XOR     A
27FA: 67                                LD      H,A
27FB: C3 9A 0A                          JP      L0A9A

                                        ; --- START PROC L27FE ---
27FE: CD A9 41                   L27FE: CALL    41A9h
2801: D7                                RST     0x10
2802: CD 2C 25                          CALL    L252C
2805: E5                                PUSH    HL
2806: 21 90 08                          LD      HL,0890h
2809: E5                                PUSH    HL
280A: 3A AF 40                          LD      A,(40AFh)
280D: F5                                PUSH    AF
280E: FE 03                             CP      03h
2810: CC DA 29                          CALL    Z,L29DA
2813: F1                                POP     AF
2814: EB                                EX      DE,HL
2815: 2A 8E 40                          LD      HL,(408Eh)
2818: E9                                JP      (HL)

                                        ; --- START PROC L2819 ---
2819: E5                         L2819: PUSH    HL
281A: E6 07                             AND     07h
281C: 21 A1 18                          LD      HL,18A1h
281F: 4F                                LD      C,A
2820: 06 00                             LD      B,00h
2822: 09                                ADD     HL,BC
2823: CD 86 25                          CALL    L2586
2826: E1                                POP     HL
2827: C9                                RET

                                        ; --- START PROC L2828 ---
2828: E5                         L2828: PUSH    HL
2829: 2A A2 40                          LD      HL,(40A2h)
282C: 23                                INC     HL
282D: 7C                                LD      A,H
282E: B5                                OR      L
282F: E1                                POP     HL
2830: C0                                RET     NZ
2831: 1E 16                             LD      E,16h
2833: C3 A2 19                          JP      L19A2

2836: CD BD 0F                   L2836: CALL    L0FBD
2839: CD 65 28                          CALL    L2865
283C: CD DA 29                          CALL    L29DA
283F: 01 2B 2A                          LD      BC,2A2Bh
2842: C5                                PUSH    BC
                                        ; --- START PROC L2843 ---
2843: 7E                         L2843: LD      A,(HL)
2844: 23                                INC     HL
2845: E5                                PUSH    HL
2846: CD BF 28                          CALL    L28BF
2849: E1                                POP     HL
284A: 4E                                LD      C,(HL)
284B: 23                                INC     HL
284C: 46                                LD      B,(HL)
284D: CD 5A 28                          CALL    L285A
2850: E5                                PUSH    HL
2851: 6F                                LD      L,A
2852: CD CE 29                          CALL    L29CE
2855: D1                                POP     DE
2856: C9                                RET

                                        ; --- START PROC L2857 ---
2857: CD BF 28                   L2857: CALL    L28BF
                                        ; --- START PROC L285A ---
285A: 21 D3 40                   L285A: LD      HL,40D3h
285D: E5                                PUSH    HL
285E: 77                                LD      (HL),A
285F: 23                                INC     HL
2860: 73                                LD      (HL),E
2861: 23                                INC     HL
2862: 72                                LD      (HL),D
2863: E1                                POP     HL
2864: C9                                RET

                                        ; --- START PROC L2865 ---
2865: 2B                         L2865: DEC     HL
                                        ; --- START PROC L2866 ---
2866: 06 22                      L2866: LD      B,22h   ; '"'
2868: 50                                LD      D,B
                                        ; --- START PROC L2869 ---
2869: E5                         L2869: PUSH    HL
286A: 0E FF                             LD      C,0FFh
286C: 23                         L286C: INC     HL
286D: 7E                                LD      A,(HL)
286E: 0C                                INC     C
286F: B7                                OR      A
2870: 28 06                             JR      Z,L2878
2872: BA                                CP      D
2873: 28 03                             JR      Z,L2878
2875: B8                                CP      B
2876: 20 F4                             JR      NZ,L286C
2878: FE 22                      L2878: CP      22h     ; '"'
287A: CC 78 1D                          CALL    Z,L1D78
287D: E3                                EX      (SP),HL
287E: 23                                INC     HL
287F: EB                                EX      DE,HL
2880: 79                                LD      A,C
2881: CD 5A 28                          CALL    L285A
                                        ; --- START PROC L2884 ---
2884: 11 D3 40                   L2884: LD      DE,40D3h
2887: 3E D5                             LD      A,0D5h
2889: 2A B3 40                          LD      HL,(40B3h)
288C: 22 21 41                          LD      (4121h),HL
288F: 3E 03                             LD      A,03h
2891: 32 AF 40                          LD      (40AFh),A
2894: CD D3 09                          CALL    L09D3
2897: 11 D6 40                          LD      DE,40D6h
289A: DF                                RST     0x18
289B: 22 B3 40                          LD      (40B3h),HL
289E: E1                                POP     HL
289F: 7E                                LD      A,(HL)
28A0: C0                                RET     NZ
28A1: 1E 1E                             LD      E,1Eh
28A3: C3 A2 19                          JP      L19A2

                                        ; --- START PROC L28A6 ---
28A6: 23                         L28A6: INC     HL
                                        ; --- START PROC L28A7 ---
28A7: CD 65 28                   L28A7: CALL    L2865
                                        ; --- START PROC L28AA ---
28AA: CD DA 29                   L28AA: CALL    L29DA
28AD: CD C4 09                          CALL    L09C4
28B0: 14                                INC     D
28B1: 15                         L28B1: DEC     D
28B2: C8                                RET     Z
28B3: 0A                                LD      A,(BC)
28B4: CD 2A 03                          CALL    L032A
28B7: FE 0D                             CP      0Dh
28B9: CC 03 21                          CALL    Z,L2103
28BC: 03                                INC     BC
28BD: 18 F2                             JR      L28B1

                                        ; --- START PROC L28BF ---
28BF: B7                         L28BF: OR      A
28C0: 0E F1                             LD      C,0F1h
28C2: F5                                PUSH    AF
28C3: 2A A0 40                          LD      HL,(40A0h)
28C6: EB                                EX      DE,HL
28C7: 2A D6 40                          LD      HL,(40D6h)
28CA: 2F                                CPL
28CB: 4F                                LD      C,A
28CC: 06 FF                             LD      B,0FFh
28CE: 09                                ADD     HL,BC
28CF: 23                                INC     HL
28D0: DF                                RST     0x18
28D1: 38 07                             JR      C,L28DA
28D3: 22 D6 40                          LD      (40D6h),HL
28D6: 23                                INC     HL
28D7: EB                                EX      DE,HL
                                        ; --- START PROC L28D8 ---
28D8: F1                         L28D8: POP     AF
28D9: C9                                RET

28DA: F1                         L28DA: POP     AF
28DB: 1E 1A                             LD      E,1Ah
28DD: CA A2 19                          JP      Z,L19A2
28E0: BF                                CP      A
28E1: F5                                PUSH    AF
28E2: 01 C1 28                          LD      BC,28C1h
28E5: C5                                PUSH    BC
                                        ; --- START PROC L28E6 ---
28E6: 2A B1 40                   L28E6: LD      HL,(40B1h)
                                        ; --- START PROC L28E9 ---
28E9: 22 D6 40                   L28E9: LD      (40D6h),HL
28EC: 21 00 00                          LD      HL,0000h
28EF: E5                                PUSH    HL
28F0: 2A A0 40                          LD      HL,(40A0h)
28F3: E5                                PUSH    HL
28F4: 21 B5 40                          LD      HL,40B5h
28F7: EB                                EX      DE,HL
28F8: 2A B3 40                          LD      HL,(40B3h)
28FB: EB                                EX      DE,HL
28FC: DF                                RST     0x18
28FD: 01 F7 28                          LD      BC,28F7h
2900: C2 4A 29                          JP      NZ,L294A
2903: 2A F9 40                          LD      HL,(40F9h)
2906: EB                         L2906: EX      DE,HL
2907: 2A FB 40                          LD      HL,(40FBh)
290A: EB                                EX      DE,HL
290B: DF                                RST     0x18
290C: 28 13                             JR      Z,L2921
290E: 7E                                LD      A,(HL)
290F: 23                                INC     HL
2910: 23                                INC     HL
2911: 23                                INC     HL
2912: FE 03                             CP      03h
2914: 20 04                             JR      NZ,L291A
2916: CD 4B 29                          CALL    L294B
2919: AF                                XOR     A
291A: 5F                         L291A: LD      E,A
291B: 16 00                             LD      D,00h
291D: 19                                ADD     HL,DE
291E: 18 E6                             JR      L2906

2920: C1                         L2920: POP     BC
2921: EB                         L2921: EX      DE,HL
2922: 2A FD 40                          LD      HL,(40FDh)
2925: EB                                EX      DE,HL
2926: DF                                RST     0x18
2927: CA 6B 29                          JP      Z,L296B
292A: 7E                                LD      A,(HL)
292B: 23                                INC     HL
292C: CD C2 09                          CALL    L09C2
292F: E5                                PUSH    HL
2930: 09                                ADD     HL,BC
2931: FE 03                             CP      03h
2933: 20 EB                             JR      NZ,L2920
2935: 22 D8 40                          LD      (40D8h),HL
2938: E1                                POP     HL
2939: 4E                                LD      C,(HL)
293A: 06 00                             LD      B,00h
293C: 09                                ADD     HL,BC
293D: 09                                ADD     HL,BC
293E: 23                                INC     HL
293F: EB                                EX      DE,HL
2940: 2A D8 40                          LD      HL,(40D8h)
2943: EB                                EX      DE,HL
2944: DF                                RST     0x18
2945: 28 DA                             JR      Z,L2921
2947: 01 3F 29                          LD      BC,293Fh
                                        ; --- START PROC L294A ---
294A: C5                         L294A: PUSH    BC
                                        ; --- START PROC L294B ---
294B: AF                         L294B: XOR     A
294C: B6                                OR      (HL)
294D: 23                                INC     HL
294E: 5E                                LD      E,(HL)
294F: 23                                INC     HL
2950: 56                                LD      D,(HL)
2951: 23                                INC     HL
2952: C8                                RET     Z
2953: 44                                LD      B,H
2954: 4D                                LD      C,L
2955: 2A D6 40                          LD      HL,(40D6h)
2958: DF                                RST     0x18
2959: 60                                LD      H,B
295A: 69                                LD      L,C
295B: D8                                RET     C
295C: E1                                POP     HL
295D: E3                                EX      (SP),HL
295E: DF                                RST     0x18
295F: E3                                EX      (SP),HL
2960: E5                                PUSH    HL
2961: 60                                LD      H,B
2962: 69                                LD      L,C
2963: D0                                RET     NC
2964: C1                                POP     BC
2965: F1                                POP     AF
2966: F1                                POP     AF
2967: E5                                PUSH    HL
2968: D5                                PUSH    DE
2969: C5                                PUSH    BC
296A: C9                                RET

                                        ; --- START PROC L296B ---
296B: D1                         L296B: POP     DE
296C: E1                                POP     HL
296D: 7D                                LD      A,L
296E: B4                                OR      H
296F: C8                                RET     Z
2970: 2B                                DEC     HL
2971: 46                                LD      B,(HL)
2972: 2B                                DEC     HL
2973: 4E                                LD      C,(HL)
2974: E5                                PUSH    HL
2975: 2B                                DEC     HL
2976: 6E                                LD      L,(HL)
2977: 26 00                             LD      H,00h
2979: 09                                ADD     HL,BC
297A: 50                                LD      D,B
297B: 59                                LD      E,C
297C: 2B                                DEC     HL
297D: 44                                LD      B,H
297E: 4D                                LD      C,L
297F: 2A D6 40                          LD      HL,(40D6h)
2982: CD 58 19                          CALL    L1958
2985: E1                                POP     HL
2986: 71                                LD      (HL),C
2987: 23                                INC     HL
2988: 70                                LD      (HL),B
2989: 69                                LD      L,C
298A: 60                                LD      H,B
298B: 2B                                DEC     HL
298C: C3 E9 28                          JP      L28E9

                                        ; --- START PROC L298F ---
298F: C5                         L298F: PUSH    BC
2990: E5                                PUSH    HL
2991: 2A 21 41                          LD      HL,(4121h)
2994: E3                                EX      (SP),HL
2995: CD 9F 24                          CALL    L249F
2998: E3                                EX      (SP),HL
2999: CD F4 0A                          CALL    L0AF4
299C: 7E                                LD      A,(HL)
299D: E5                                PUSH    HL
299E: 2A 21 41                          LD      HL,(4121h)
29A1: E5                                PUSH    HL
29A2: 86                                ADD     A,(HL)
29A3: 1E 1C                             LD      E,1Ch
29A5: DA A2 19                          JP      C,L19A2
29A8: CD 57 28                          CALL    L2857
29AB: D1                                POP     DE
29AC: CD DE 29                          CALL    L29DE
29AF: E3                                EX      (SP),HL
29B0: CD DD 29                          CALL    L29DD
29B3: E5                                PUSH    HL
29B4: 2A D4 40                          LD      HL,(40D4h)
29B7: EB                                EX      DE,HL
29B8: CD C6 29                          CALL    L29C6
29BB: CD C6 29                          CALL    L29C6
29BE: 21 49 23                          LD      HL,2349h
29C1: E3                                EX      (SP),HL
29C2: E5                                PUSH    HL
29C3: C3 84 28                          JP      L2884

                                        ; --- START PROC L29C6 ---
29C6: E1                         L29C6: POP     HL
29C7: E3                                EX      (SP),HL
29C8: 7E                                LD      A,(HL)
29C9: 23                                INC     HL
29CA: 4E                                LD      C,(HL)
29CB: 23                                INC     HL
29CC: 46                                LD      B,(HL)
29CD: 6F                                LD      L,A
                                        ; --- START PROC L29CE ---
29CE: 2C                         L29CE: INC     L
29CF: 2D                         L29CF: DEC     L
29D0: C8                                RET     Z
29D1: 0A                                LD      A,(BC)
29D2: 12                                LD      (DE),A
29D3: 03                                INC     BC
29D4: 13                                INC     DE
29D5: 18 F8                             JR      L29CF

                                        ; --- START PROC L29D7 ---
29D7: CD F4 0A                   L29D7: CALL    L0AF4
                                        ; --- START PROC L29DA ---
29DA: 2A 21 41                   L29DA: LD      HL,(4121h)
                                        ; --- START PROC L29DD ---
29DD: EB                         L29DD: EX      DE,HL
                                        ; --- START PROC L29DE ---
29DE: CD F5 29                   L29DE: CALL    L29F5
29E1: EB                                EX      DE,HL
29E2: C0                                RET     NZ
29E3: D5                                PUSH    DE
29E4: 50                                LD      D,B
29E5: 59                                LD      E,C
29E6: 1B                                DEC     DE
29E7: 4E                                LD      C,(HL)
29E8: 2A D6 40                          LD      HL,(40D6h)
29EB: DF                                RST     0x18
29EC: 20 05                             JR      NZ,L29F3
29EE: 47                                LD      B,A
29EF: 09                                ADD     HL,BC
29F0: 22 D6 40                          LD      (40D6h),HL
29F3: E1                         L29F3: POP     HL
29F4: C9                                RET

                                        ; --- START PROC L29F5 ---
29F5: 2A B3 40                   L29F5: LD      HL,(40B3h)
29F8: 2B                                DEC     HL
29F9: 46                                LD      B,(HL)
29FA: 2B                                DEC     HL
29FB: 4E                                LD      C,(HL)
29FC: 2B                                DEC     HL
29FD: DF                                RST     0x18
29FE: C0                                RET     NZ
29FF: 22 B3 40                   L29FF: LD      (40B3h),HL
2A02: C9                                RET

2A03: 01 F8 27                   L2A03: LD      BC,27F8h
2A06: C5                                PUSH    BC
                                        ; --- START PROC L2A07 ---
2A07: CD D7 29                   L2A07: CALL    L29D7
2A0A: AF                                XOR     A
2A0B: 57                                LD      D,A
2A0C: 7E                                LD      A,(HL)
2A0D: B7                                OR      A
2A0E: C9                                RET

2A0F: 01 F8 27                   L2A0F: LD      BC,27F8h
2A12: C5                                PUSH    BC
                                        ; --- START PROC L2A13 ---
2A13: CD 07 2A                   L2A13: CALL    L2A07
2A16: CA 4A 1E                          JP      Z,L1E4A
2A19: 23                                INC     HL
2A1A: 5E                                LD      E,(HL)
2A1B: 23                                INC     HL
2A1C: 56                                LD      D,(HL)
2A1D: 1A                                LD      A,(DE)
2A1E: C9                                RET

2A1F: 3E 01                      L2A1F: LD      A,01h
2A21: CD 57 28                          CALL    L2857
2A24: CD 1F 2B                          CALL    L2B1F
2A27: 2A D4 40                          LD      HL,(40D4h)
2A2A: 73                                LD      (HL),E
                                        ; --- START PROC L2A2B ---
2A2B: C1                         L2A2B: POP     BC
2A2C: C3 84 28                          JP      L2884

                                        ; --- START PROC L2A2F ---
2A2F: D7                         L2A2F: RST     0x10
2A30: CF                                RST     0x08
2A31: 28 CD                             JR      Z,L29FF+1       ; reference not aligned to instruction
2A33: 1C                                INC     E
2A34: 2B                                DEC     HL
2A35: D5                                PUSH    DE
2A36: CF                                RST     0x08
2A37: 2C                                INC     L
2A38: CD 37 23                          CALL    L2336+1 ; reference not aligned to instruction
2A3B: CF                                RST     0x08
2A3C: 29                                ADD     HL,HL
2A3D: E3                                EX      (SP),HL
2A3E: E5                                PUSH    HL
2A3F: E7                                RST     0x20
2A40: 28 05                             JR      Z,L2A47
2A42: CD 1F 2B                          CALL    L2B1F
2A45: 18 03                             JR      L2A4A

2A47: CD 13 2A                   L2A47: CALL    L2A13
2A4A: D1                         L2A4A: POP     DE
2A4B: F5                                PUSH    AF
2A4C: F5                                PUSH    AF
2A4D: 7B                                LD      A,E
2A4E: CD 57 28                          CALL    L2857
2A51: 5F                                LD      E,A
2A52: F1                                POP     AF
2A53: 1C                                INC     E
2A54: 1D                                DEC     E
2A55: 28 D4                             JR      Z,L2A2B
2A57: 2A D4 40                          LD      HL,(40D4h)
2A5A: 77                         L2A5A: LD      (HL),A
2A5B: 23                                INC     HL
2A5C: 1D                                DEC     E
2A5D: 20 FB                             JR      NZ,L2A5A
2A5F: 18 CA                             JR      L2A2B

2A61: CD DF 2A                   L2A61: CALL    L2ADF
2A64: AF                                XOR     A
2A65: E3                         L2A65: EX      (SP),HL
2A66: 4F                                LD      C,A
2A67: 3E E5                      L2A67: LD      A,0E5h
2A69: E5                                PUSH    HL
2A6A: 7E                                LD      A,(HL)
2A6B: B8                                CP      B
2A6C: 38 02                             JR      C,L2A6F+1       ; reference not aligned to instruction
2A6E: 78                                LD      A,B
2A6F: 11 0E 00                   L2A6F: LD      DE,000Eh
2A72: C5                                PUSH    BC
2A73: CD BF 28                          CALL    L28BF
2A76: C1                                POP     BC
2A77: E1                                POP     HL
2A78: E5                                PUSH    HL
2A79: 23                                INC     HL
2A7A: 46                                LD      B,(HL)
2A7B: 23                                INC     HL
2A7C: 66                                LD      H,(HL)
2A7D: 68                                LD      L,B
2A7E: 06 00                             LD      B,00h
2A80: 09                                ADD     HL,BC
2A81: 44                                LD      B,H
2A82: 4D                                LD      C,L
2A83: CD 5A 28                          CALL    L285A
2A86: 6F                                LD      L,A
2A87: CD CE 29                          CALL    L29CE
2A8A: D1                                POP     DE
2A8B: CD DE 29                          CALL    L29DE
2A8E: C3 84 28                          JP      L2884

2A91: CD DF 2A                   L2A91: CALL    L2ADF
2A94: D1                                POP     DE
2A95: D5                                PUSH    DE
2A96: 1A                                LD      A,(DE)
2A97: 90                                SUB     B
2A98: 18 CB                             JR      L2A65

2A9A: EB                         L2A9A: EX      DE,HL
2A9B: 7E                                LD      A,(HL)
2A9C: CD E2 2A                          CALL    L2AE2
2A9F: 04                                INC     B
2AA0: 05                                DEC     B
2AA1: CA 4A 1E                          JP      Z,L1E4A
2AA4: C5                                PUSH    BC
2AA5: 1E FF                             LD      E,0FFh
2AA7: FE 29                             CP      29h     ; ')'
2AA9: 28 05                             JR      Z,L2AB0
2AAB: CF                                RST     0x08
2AAC: 2C                                INC     L
2AAD: CD 1C 2B                          CALL    L2B1C
2AB0: CF                         L2AB0: RST     0x08
2AB1: 29                                ADD     HL,HL
2AB2: F1                                POP     AF
2AB3: E3                                EX      (SP),HL
2AB4: 01 69 2A                          LD      BC,2A69h
2AB7: C5                                PUSH    BC
2AB8: 3D                                DEC     A
2AB9: BE                                CP      (HL)
2ABA: 06 00                             LD      B,00h
2ABC: D0                                RET     NC
2ABD: 4F                                LD      C,A
2ABE: 7E                                LD      A,(HL)
2ABF: 91                                SUB     C
2AC0: BB                                CP      E
2AC1: 47                                LD      B,A
2AC2: D8                                RET     C
2AC3: 43                                LD      B,E
2AC4: C9                                RET

2AC5: CD 07 2A                   L2AC5: CALL    L2A07
2AC8: CA F8 27                          JP      Z,L27F8
2ACB: 5F                                LD      E,A
2ACC: 23                                INC     HL
2ACD: 7E                                LD      A,(HL)
2ACE: 23                                INC     HL
2ACF: 66                                LD      H,(HL)
2AD0: 6F                                LD      L,A
2AD1: E5                                PUSH    HL
2AD2: 19                                ADD     HL,DE
2AD3: 46                                LD      B,(HL)
2AD4: 72                                LD      (HL),D
2AD5: E3                                EX      (SP),HL
2AD6: C5                                PUSH    BC
2AD7: 7E                                LD      A,(HL)
2AD8: CD 65 0E                          CALL    L0E65
2ADB: C1                                POP     BC
2ADC: E1                                POP     HL
2ADD: 70                                LD      (HL),B
2ADE: C9                                RET

                                        ; --- START PROC L2ADF ---
2ADF: EB                         L2ADF: EX      DE,HL
2AE0: CF                                RST     0x08
2AE1: 29                                ADD     HL,HL
                                        ; --- START PROC L2AE2 ---
2AE2: C1                         L2AE2: POP     BC
2AE3: D1                                POP     DE
2AE4: C5                                PUSH    BC
2AE5: 43                                LD      B,E
2AE6: C9                                RET

                                        ; --- START PROC L2AE7 ---
2AE7: FE 7A                      L2AE7: CP      7Ah     ; 'z'
2AE9: C2 97 19                          JP      NZ,L1997
2AEC: C3 D9 41                          JP      41D9h

2AEF: CD 1F 2B                   L2AEF: CALL    L2B1F
2AF2: 32 94 40                          LD      (4094h),A
2AF5: CD 93 40                          CALL    4093h
2AF8: C3 F8 27                          JP      L27F8

2AFB: CD 0E 2B                   L2AFB: CALL    L2B0E
2AFE: C3 96 40                          JP      4096h

                                        ; --- START PROC L2B01 ---
2B01: D7                         L2B01: RST     0x10
                                        ; --- START PROC L2B02 ---
2B02: CD 37 23                   L2B02: CALL    L2336+1 ; reference not aligned to instruction
                                        ; --- START PROC L2B05 ---
2B05: E5                         L2B05: PUSH    HL
2B06: CD 7F 0A                          CALL    L0A7F
2B09: EB                                EX      DE,HL
2B0A: E1                                POP     HL
2B0B: 7A                                LD      A,D
2B0C: B7                                OR      A
2B0D: C9                                RET

                                        ; --- START PROC L2B0E ---
2B0E: CD 1C 2B                   L2B0E: CALL    L2B1C
2B11: 32 94 40                          LD      (4094h),A
2B14: 32 97 40                          LD      (4097h),A
2B17: CF                                RST     0x08
2B18: 2C                                INC     L
2B19: 18 01                             JR      L2B1C

                                        ; --- START PROC L2B1B ---
2B1B: D7                         L2B1B: RST     0x10
                                        ; --- START PROC L2B1C ---
2B1C: CD 37 23                   L2B1C: CALL    L2336+1 ; reference not aligned to instruction
                                        ; --- START PROC L2B1F ---
2B1F: CD 05 2B                   L2B1F: CALL    L2B05
2B22: C2 4A 1E                          JP      NZ,L1E4A
2B25: 2B                                DEC     HL
2B26: D7                                RST     0x10
2B27: 7B                                LD      A,E
2B28: C9                                RET

2B29: 3E 01                      L2B29: LD      A,01h
2B2B: 32 9C 40                          LD      (409Ch),A
2B2E: C1                                POP     BC
2B2F: CD 10 1B                          CALL    L1B10
2B32: C5                                PUSH    BC
2B33: 21 FF FF                   L2B33: LD      HL,0FFFFh
2B36: 22 A2 40                          LD      (40A2h),HL
2B39: E1                                POP     HL
2B3A: D1                                POP     DE
2B3B: 4E                                LD      C,(HL)
2B3C: 23                                INC     HL
2B3D: 46                                LD      B,(HL)
2B3E: 23                                INC     HL
2B3F: 78                                LD      A,B
2B40: B1                                OR      C
2B41: CA 19 1A                          JP      Z,L1A19
2B44: CD DF 41                          CALL    41DFh
2B47: CD 9B 1D                          CALL    L1D9B
2B4A: C5                                PUSH    BC
2B4B: 4E                                LD      C,(HL)
2B4C: 23                                INC     HL
2B4D: 46                                LD      B,(HL)
2B4E: 23                                INC     HL
2B4F: C5                                PUSH    BC
2B50: E3                                EX      (SP),HL
2B51: EB                                EX      DE,HL
2B52: DF                                RST     0x18
2B53: C1                                POP     BC
2B54: DA 18 1A                          JP      C,L1A17+1       ; reference not aligned to instruction
2B57: E3                                EX      (SP),HL
2B58: E5                                PUSH    HL
2B59: C5                                PUSH    BC
2B5A: EB                                EX      DE,HL
2B5B: 22 EC 40                          LD      (40ECh),HL
2B5E: CD AF 0F                          CALL    L0FAF
2B61: 3E 20                             LD      A,20h   ; ' '
2B63: E1                                POP     HL
2B64: CD 2A 03                          CALL    L032A
2B67: CD 7E 2B                          CALL    L2B7E
2B6A: 2A A7 40                          LD      HL,(40A7h)
2B6D: CD 75 2B                          CALL    L2B75
2B70: CD FE 20                          CALL    L20FE
2B73: 18 BE                             JR      L2B33

                                        ; --- START PROC L2B75 ---
2B75: 7E                         L2B75: LD      A,(HL)
2B76: B7                                OR      A
2B77: C8                                RET     Z
2B78: CD 2A 03                          CALL    L032A
2B7B: 23                                INC     HL
2B7C: 18 F7                             JR      L2B75

                                        ; --- START PROC L2B7E ---
2B7E: E5                         L2B7E: PUSH    HL
2B7F: 2A A7 40                          LD      HL,(40A7h)
2B82: 44                                LD      B,H
2B83: 4D                                LD      C,L
2B84: E1                                POP     HL
2B85: 16 FF                             LD      D,0FFh
2B87: 18 03                             JR      L2B8C

2B89: 03                         L2B89: INC     BC
2B8A: 15                                DEC     D
2B8B: C8                                RET     Z
2B8C: 7E                         L2B8C: LD      A,(HL)
2B8D: B7                                OR      A
2B8E: 23                                INC     HL
2B8F: 02                                LD      (BC),A
2B90: C8                                RET     Z
2B91: F2 89 2B                          JP      P,L2B89
2B94: FE FB                             CP      0FBh
2B96: 20 08                             JR      NZ,L2BA0
2B98: 0B                                DEC     BC
2B99: 0B                                DEC     BC
2B9A: 0B                                DEC     BC
2B9B: 0B                                DEC     BC
2B9C: 14                                INC     D
2B9D: 14                                INC     D
2B9E: 14                                INC     D
2B9F: 14                                INC     D
2BA0: FE 95                      L2BA0: CP      95h
2BA2: CC 24 0B                          CALL    Z,L0B24
2BA5: D6 7F                             SUB     7Fh     ; ''
2BA7: E5                                PUSH    HL
2BA8: 5F                                LD      E,A
2BA9: 21 50 16                          LD      HL,1650h
2BAC: 7E                         L2BAC: LD      A,(HL)
2BAD: B7                                OR      A
2BAE: 23                                INC     HL
2BAF: F2 AC 2B                          JP      P,L2BAC
2BB2: 1D                                DEC     E
2BB3: 20 F7                             JR      NZ,L2BAC
2BB5: E6 7F                             AND     7Fh     ; ''
2BB7: 02                         L2BB7: LD      (BC),A
2BB8: 03                                INC     BC
2BB9: 15                                DEC     D
2BBA: CA D8 28                          JP      Z,L28D8
2BBD: 7E                                LD      A,(HL)
2BBE: 23                                INC     HL
2BBF: B7                                OR      A
2BC0: F2 B7 2B                          JP      P,L2BB7
2BC3: E1                                POP     HL
2BC4: 18 C6                             JR      L2B8C

2BC6: CD 10 1B                   L2BC6: CALL    L1B10
2BC9: D1                                POP     DE
2BCA: C5                                PUSH    BC
2BCB: C5                                PUSH    BC
2BCC: CD 2C 1B                          CALL    L1B2C
2BCF: 30 05                             JR      NC,L2BD6
2BD1: 54                                LD      D,H
2BD2: 5D                                LD      E,L
2BD3: E3                                EX      (SP),HL
2BD4: E5                                PUSH    HL
2BD5: DF                                RST     0x18
2BD6: D2 4A 1E                   L2BD6: JP      NC,L1E4A
2BD9: 21 29 19                          LD      HL,1929h
2BDC: CD A7 28                          CALL    L28A7
2BDF: C1                                POP     BC
2BE0: 21 E8 1A                          LD      HL,1AE8h
2BE3: E3                                EX      (SP),HL
                                        ; --- START PROC L2BE4 ---
2BE4: EB                         L2BE4: EX      DE,HL
2BE5: 2A F9 40                          LD      HL,(40F9h)
2BE8: 1A                         L2BE8: LD      A,(DE)
2BE9: 02                                LD      (BC),A
2BEA: 03                                INC     BC
2BEB: 13                                INC     DE
2BEC: DF                                RST     0x18
2BED: 20 F9                             JR      NZ,L2BE8
2BEF: 60                                LD      H,B
2BF0: 69                                LD      L,C
2BF1: 22 F9 40                          LD      (40F9h),HL
2BF4: C9                                RET

2BF5: CD 84 02                   L2BF5: CALL    L0284
2BF8: CD 37 23                          CALL    L2336+1 ; reference not aligned to instruction
2BFB: E5                                PUSH    HL
2BFC: CD 13 2A                          CALL    L2A13
2BFF: 3E D3                             LD      A,0D3h
2C01: CD 64 02                          CALL    L0264
2C04: CD 61 02                          CALL    L0261
2C07: 1A                                LD      A,(DE)
2C08: CD 64 02                          CALL    L0264
2C0B: 2A A4 40                          LD      HL,(40A4h)
2C0E: EB                                EX      DE,HL
2C0F: 2A F9 40                          LD      HL,(40F9h)
2C12: 1A                         L2C12: LD      A,(DE)
2C13: 13                                INC     DE
2C14: CD 64 02                          CALL    L0264
2C17: DF                                RST     0x18
2C18: 20 F8                             JR      NZ,L2C12
2C1A: CD F8 01                          CALL    L01F8
2C1D: E1                                POP     HL
2C1E: C9                                RET

2C1F: CD 93 02                   L2C1F: CALL    L0293
2C22: 7E                                LD      A,(HL)
2C23: D6 B2                             SUB     0B2h
2C25: 28 02                             JR      Z,L2C28+1       ; reference not aligned to instruction
2C27: AF                                XOR     A
2C28: 01 2F 23                   L2C28: LD      BC,232Fh
2C2B: F5                                PUSH    AF
2C2C: 2B                                DEC     HL
2C2D: D7                                RST     0x10
2C2E: 3E 00                             LD      A,00h
2C30: 28 07                             JR      Z,L2C39
2C32: CD 37 23                          CALL    L2336+1 ; reference not aligned to instruction
2C35: CD 13 2A                          CALL    L2A13
2C38: 1A                                LD      A,(DE)
2C39: 6F                         L2C39: LD      L,A
2C3A: F1                                POP     AF
2C3B: B7                                OR      A
2C3C: 67                                LD      H,A
2C3D: 22 21 41                          LD      (4121h),HL
2C40: CC 4D 1B                          CALL    Z,L1B4D
2C43: 2A 21 41                          LD      HL,(4121h)
2C46: EB                                EX      DE,HL
2C47: 06 03                      L2C47: LD      B,03h
2C49: CD 35 02                   L2C49: CALL    L0235
2C4C: D6 D3                             SUB     0D3h
2C4E: 20 F7                             JR      NZ,L2C47
2C50: 10 F7                             DJNZ    L2C49
2C52: CD 35 02                          CALL    L0235
2C55: 1C                                INC     E
2C56: 1D                                DEC     E
2C57: 28 03                             JR      Z,L2C5C
2C59: BB                                CP      E
2C5A: 20 37                             JR      NZ,L2C93
2C5C: 2A A4 40                   L2C5C: LD      HL,(40A4h)
2C5F: 06 03                      L2C5F: LD      B,03h
2C61: CD 35 02                   L2C61: CALL    L0235
2C64: 5F                                LD      E,A
2C65: 96                                SUB     (HL)
2C66: A2                                AND     D
2C67: 20 21                             JR      NZ,L2C8A
2C69: 73                                LD      (HL),E
2C6A: CD 6C 19                          CALL    L196B+1 ; reference not aligned to instruction
2C6D: 7E                                LD      A,(HL)
2C6E: B7                                OR      A
2C6F: 23                                INC     HL
2C70: 20 ED                             JR      NZ,L2C5F
2C72: CD 2C 02                          CALL    L022C
2C75: 10 EA                             DJNZ    L2C61
2C77: 22 F9 40                          LD      (40F9h),HL
2C7A: 21 29 19                          LD      HL,1929h
2C7D: CD A7 28                          CALL    L28A7
2C80: CD F8 01                          CALL    L01F8
2C83: 2A A4 40                          LD      HL,(40A4h)
2C86: E5                                PUSH    HL
2C87: C3 E8 1A                          JP      L1AE8

2C8A: 21 A5 2C                   L2C8A: LD      HL,2CA5h
2C8D: CD A7 28                          CALL    L28A7
2C90: C3 18 1A                          JP      L1A17+1 ; reference not aligned to instruction

2C93: 32 3E 3C                   L2C93: LD      (3C3Eh),A
2C96: 06 03                      L2C96: LD      B,03h
2C98: CD 35 02                   L2C98: CALL    L0235
2C9B: B7                                OR      A
2C9C: 20 F8                             JR      NZ,L2C96
2C9E: 10 F8                             DJNZ    L2C98
2CA0: CD 96 02                          CALL    L0296
2CA3: 18 A2                             JR      L2C47

2CA5: 42                         L2CA5: LD      B,D
2CA6: 41                                LD      B,C
2CA7: 44                                LD      B,H
2CA8: 0D                                DEC     C
2CA9: 00                                NOP
2CAA: CD 7F 0A                          CALL    L0A7F
2CAD: 7E                                LD      A,(HL)
2CAE: C3 F8 27                          JP      L27F8

2CB1: CD 02 2B                   L2CB1: CALL    L2B02
2CB4: D5                                PUSH    DE
2CB5: CF                                RST     0x08
2CB6: 2C                                INC     L
2CB7: CD 1C 2B                          CALL    L2B1C
2CBA: D1                                POP     DE
2CBB: 12                                LD      (DE),A
2CBC: C9                                RET

2CBD: CD 38 23                   L2CBD: CALL    L2338
2CC0: CD F4 0A                          CALL    L0AF4
2CC3: CF                                RST     0x08
2CC4: 3B                                DEC     SP
2CC5: EB                                EX      DE,HL
2CC6: 2A 21 41                          LD      HL,(4121h)
2CC9: 18 08                             JR      L2CD3

2CCB: 3A DE 40                   L2CCB: LD      A,(40DEh)
2CCE: B7                                OR      A
2CCF: 28 0C                             JR      Z,L2CDD
2CD1: D1                                POP     DE
2CD2: EB                                EX      DE,HL
2CD3: E5                         L2CD3: PUSH    HL
2CD4: AF                                XOR     A
2CD5: 32 DE 40                          LD      (40DEh),A
2CD8: BA                                CP      D
2CD9: F5                                PUSH    AF
2CDA: D5                                PUSH    DE
2CDB: 46                                LD      B,(HL)
2CDC: B0                                OR      B
2CDD: CA 4A 1E                   L2CDD: JP      Z,L1E4A
2CE0: 23                                INC     HL
2CE1: 4E                                LD      C,(HL)
2CE2: 23                                INC     HL
2CE3: 66                                LD      H,(HL)
2CE4: 69                                LD      L,C
2CE5: 18 1C                             JR      L2D03

2CE7: 58                         L2CE7: LD      E,B
2CE8: E5                                PUSH    HL
2CE9: 0E 02                             LD      C,02h
2CEB: 7E                         L2CEB: LD      A,(HL)
2CEC: 23                                INC     HL
2CED: FE 25                             CP      25h     ; '%'
2CEF: CA 17 2E                          JP      Z,L2E16+1       ; reference not aligned to instruction
2CF2: FE 20                             CP      20h     ; ' '
2CF4: 20 03                             JR      NZ,L2CF9
2CF6: 0C                                INC     C
2CF7: 10 F2                             DJNZ    L2CEB
2CF9: E1                         L2CF9: POP     HL
2CFA: 43                                LD      B,E
2CFB: 3E 25                             LD      A,25h   ; '%'
2CFD: CD 49 2E                   L2CFD: CALL    L2E49
2D00: CD 2A 03                          CALL    L032A
2D03: AF                         L2D03: XOR     A
2D04: 5F                                LD      E,A
2D05: 57                                LD      D,A
2D06: CD 49 2E                   L2D06: CALL    L2E49
2D09: 57                                LD      D,A
2D0A: 7E                                LD      A,(HL)
2D0B: 23                                INC     HL
2D0C: FE 21                             CP      21h     ; '!'
2D0E: CA 14 2E                          JP      Z,L2E14
2D11: FE 23                             CP      23h     ; '#'
2D13: 28 37                             JR      Z,L2D4C
2D15: 05                                DEC     B
2D16: CA FE 2D                          JP      Z,L2DFE
2D19: FE 2B                             CP      2Bh     ; '+'
2D1B: 3E 08                             LD      A,08h
2D1D: 28 E7                             JR      Z,L2D06
2D1F: 2B                                DEC     HL
2D20: 7E                                LD      A,(HL)
2D21: 23                                INC     HL
2D22: FE 2E                             CP      2Eh     ; '.'
2D24: 28 40                             JR      Z,L2D66
2D26: FE 25                             CP      25h     ; '%'
2D28: 28 BD                             JR      Z,L2CE7
2D2A: BE                                CP      (HL)
2D2B: 20 D0                             JR      NZ,L2CFD
2D2D: FE 24                             CP      24h     ; '$'
2D2F: 28 14                             JR      Z,L2D44+1       ; reference not aligned to instruction
2D31: FE 2A                             CP      2Ah     ; '*'
2D33: 20 C8                             JR      NZ,L2CFD
2D35: 78                                LD      A,B
2D36: FE 02                             CP      02h
2D38: 23                                INC     HL
2D39: 38 03                             JR      C,L2D3E
2D3B: 7E                                LD      A,(HL)
2D3C: FE 24                             CP      24h     ; '$'
2D3E: 3E 20                      L2D3E: LD      A,20h   ; ' '
2D40: 20 07                             JR      NZ,L2D49
2D42: 05                                DEC     B
2D43: 1C                                INC     E
2D44: FE AF                      L2D44: CP      0AFh
2D46: C6 10                             ADD     A,10h
2D48: 23                                INC     HL
2D49: 1C                         L2D49: INC     E
2D4A: 82                                ADD     A,D
2D4B: 57                                LD      D,A
2D4C: 1C                         L2D4C: INC     E
2D4D: 0E 00                             LD      C,00h
2D4F: 05                                DEC     B
2D50: 28 47                             JR      Z,L2D99
2D52: 7E                                LD      A,(HL)
2D53: 23                                INC     HL
2D54: FE 2E                             CP      2Eh     ; '.'
2D56: 28 18                             JR      Z,L2D70
2D58: FE 23                             CP      23h     ; '#'
2D5A: 28 F0                             JR      Z,L2D4C
2D5C: FE 2C                             CP      2Ch     ; ','
2D5E: 20 1A                             JR      NZ,L2D7A
2D60: 7A                                LD      A,D
2D61: F6 40                             OR      40h     ; '@'
2D63: 57                                LD      D,A
2D64: 18 E6                             JR      L2D4C

2D66: 7E                         L2D66: LD      A,(HL)
2D67: FE 23                             CP      23h     ; '#'
2D69: 3E 2E                             LD      A,2Eh   ; '.'
2D6B: 20 90                             JR      NZ,L2CFD
2D6D: 0E 01                             LD      C,01h
2D6F: 23                                INC     HL
2D70: 0C                         L2D70: INC     C
2D71: 05                                DEC     B
2D72: 28 25                             JR      Z,L2D99
2D74: 7E                                LD      A,(HL)
2D75: 23                                INC     HL
2D76: FE 23                             CP      23h     ; '#'
2D78: 28 F6                             JR      Z,L2D70
2D7A: D5                         L2D7A: PUSH    DE
2D7B: 11 97 2D                          LD      DE,2D97h
2D7E: D5                                PUSH    DE
2D7F: 54                                LD      D,H
2D80: 5D                                LD      E,L
2D81: FE 5B                             CP      5Bh     ; '['
2D83: C0                                RET     NZ
2D84: BE                                CP      (HL)
2D85: C0                                RET     NZ
2D86: 23                                INC     HL
2D87: BE                                CP      (HL)
2D88: C0                                RET     NZ
2D89: 23                                INC     HL
2D8A: BE                                CP      (HL)
2D8B: C0                                RET     NZ
2D8C: 23                                INC     HL
2D8D: 78                                LD      A,B
2D8E: D6 04                             SUB     04h
2D90: D8                                RET     C
2D91: D1                                POP     DE
2D92: D1                                POP     DE
2D93: 47                                LD      B,A
2D94: 14                                INC     D
2D95: 23                                INC     HL
2D96: CA EB D1                          JP      Z,0D1EBh
2D99: 7A                         L2D99: LD      A,D
2D9A: 2B                                DEC     HL
2D9B: 1C                                INC     E
2D9C: E6 08                             AND     08h
2D9E: 20 15                             JR      NZ,L2DB5
2DA0: 1D                                DEC     E
2DA1: 78                                LD      A,B
2DA2: B7                                OR      A
2DA3: 28 10                             JR      Z,L2DB5
2DA5: 7E                                LD      A,(HL)
2DA6: D6 2D                             SUB     2Dh     ; '-'
2DA8: 28 06                             JR      Z,L2DB0
2DAA: FE FE                             CP      0FEh
2DAC: 20 07                             JR      NZ,L2DB5
2DAE: 3E 08                             LD      A,08h
2DB0: C6 04                      L2DB0: ADD     A,04h
2DB2: 82                                ADD     A,D
2DB3: 57                                LD      D,A
2DB4: 05                                DEC     B
2DB5: E1                         L2DB5: POP     HL
2DB6: F1                                POP     AF
2DB7: 28 50                             JR      Z,L2E09
2DB9: C5                                PUSH    BC
2DBA: D5                                PUSH    DE
2DBB: CD 37 23                          CALL    L2336+1 ; reference not aligned to instruction
2DBE: D1                                POP     DE
2DBF: C1                                POP     BC
2DC0: C5                                PUSH    BC
2DC1: E5                                PUSH    HL
2DC2: 43                                LD      B,E
2DC3: 78                                LD      A,B
2DC4: 81                                ADD     A,C
2DC5: FE 19                             CP      19h
2DC7: D2 4A 1E                          JP      NC,L1E4A
2DCA: 7A                                LD      A,D
2DCB: F6 80                             OR      80h
2DCD: CD BE 0F                          CALL    L0FBE
2DD0: CD A7 28                          CALL    L28A7
2DD3: E1                         L2DD3: POP     HL
2DD4: 2B                                DEC     HL
2DD5: D7                                RST     0x10
2DD6: 37                                SCF
2DD7: 28 0D                             JR      Z,L2DE6
2DD9: 32 DE 40                          LD      (40DEh),A
2DDC: FE 3B                             CP      3Bh     ; ';'
2DDE: 28 05                             JR      Z,L2DE5
2DE0: FE 2C                             CP      2Ch     ; ','
2DE2: C2 97 19                          JP      NZ,L1997
2DE5: D7                         L2DE5: RST     0x10
2DE6: C1                         L2DE6: POP     BC
2DE7: EB                                EX      DE,HL
2DE8: E1                                POP     HL
2DE9: E5                                PUSH    HL
2DEA: F5                                PUSH    AF
2DEB: D5                                PUSH    DE
2DEC: 7E                                LD      A,(HL)
2DED: 90                                SUB     B
2DEE: 23                                INC     HL
2DEF: 4E                                LD      C,(HL)
2DF0: 23                                INC     HL
2DF1: 66                                LD      H,(HL)
2DF2: 69                                LD      L,C
2DF3: 16 00                             LD      D,00h
2DF5: 5F                                LD      E,A
2DF6: 19                                ADD     HL,DE
2DF7: 78                                LD      A,B
2DF8: B7                                OR      A
2DF9: C2 03 2D                          JP      NZ,L2D03
2DFC: 18 06                             JR      L2E04

2DFE: CD 49 2E                   L2DFE: CALL    L2E49
2E01: CD 2A 03                          CALL    L032A
2E04: E1                         L2E04: POP     HL
2E05: F1                                POP     AF
2E06: C2 CB 2C                          JP      NZ,L2CCB
2E09: DC FE 20                   L2E09: CALL    C,L20FE
2E0C: E3                                EX      (SP),HL
2E0D: CD DD 29                          CALL    L29DD
2E10: E1                                POP     HL
2E11: C3 69 21                          JP      L2169

2E14: 0E 01                      L2E14: LD      C,01h
2E16: 3E F1                      L2E16: LD      A,0F1h
2E18: 05                                DEC     B
2E19: CD 49 2E                          CALL    L2E49
2E1C: E1                                POP     HL
2E1D: F1                                POP     AF
2E1E: 28 E9                             JR      Z,L2E09
2E20: C5                                PUSH    BC
2E21: CD 37 23                          CALL    L2336+1 ; reference not aligned to instruction
2E24: CD F4 0A                          CALL    L0AF4
2E27: C1                                POP     BC
2E28: C5                                PUSH    BC
2E29: E5                                PUSH    HL
2E2A: 2A 21 41                          LD      HL,(4121h)
2E2D: 41                                LD      B,C
2E2E: 0E 00                             LD      C,00h
2E30: C5                                PUSH    BC
2E31: CD 68 2A                          CALL    L2A67+1 ; reference not aligned to instruction
2E34: CD AA 28                          CALL    L28AA
2E37: 2A 21 41                          LD      HL,(4121h)
2E3A: F1                                POP     AF
2E3B: 96                                SUB     (HL)
2E3C: 47                                LD      B,A
2E3D: 3E 20                             LD      A,20h   ; ' '
2E3F: 04                                INC     B
2E40: 05                         L2E40: DEC     B
2E41: CA D3 2D                          JP      Z,L2DD3
2E44: CD 2A 03                          CALL    L032A
2E47: 18 F7                             JR      L2E40

                                        ; --- START PROC L2E49 ---
2E49: F5                         L2E49: PUSH    AF
2E4A: 7A                                LD      A,D
2E4B: B7                                OR      A
2E4C: 3E 2B                             LD      A,2Bh   ; '+'
2E4E: C4 2A 03                          CALL    NZ,L032A
2E51: F1                                POP     AF
2E52: C9                                RET

                                        ; --- START PROC L2E53 ---
2E53: 32 9A 40                   L2E53: LD      (409Ah),A
2E56: 2A EA 40                          LD      HL,(40EAh)
2E59: B4                                OR      H
2E5A: A5                                AND     L
2E5B: 3C                                INC     A
2E5C: EB                                EX      DE,HL
2E5D: C8                                RET     Z
2E5E: 18 04                             JR      L2E64

2E60: CD 4F 1E                   L2E60: CALL    L1E4F
2E63: C0                                RET     NZ
2E64: E1                         L2E64: POP     HL
                                        ; --- START PROC L2E65 ---
2E65: EB                         L2E65: EX      DE,HL
2E66: 22 EC 40                          LD      (40ECh),HL
2E69: EB                                EX      DE,HL
2E6A: CD 2C 1B                          CALL    L1B2C
2E6D: D2 D9 1E                          JP      NC,L1ED9
2E70: 60                                LD      H,B
2E71: 69                                LD      L,C
2E72: 23                                INC     HL
2E73: 23                                INC     HL
2E74: 4E                                LD      C,(HL)
2E75: 23                                INC     HL
2E76: 46                                LD      B,(HL)
2E77: 23                                INC     HL
2E78: C5                                PUSH    BC
2E79: CD 7E 2B                          CALL    L2B7E
                                        ; --- START PROC L2E7C ---
2E7C: E1                         L2E7C: POP     HL
2E7D: E5                                PUSH    HL
2E7E: CD AF 0F                          CALL    L0FAF
2E81: 3E 20                             LD      A,20h   ; ' '
2E83: CD 2A 03                          CALL    L032A
2E86: 2A A7 40                          LD      HL,(40A7h)
2E89: 3E 0E                             LD      A,0Eh
2E8B: CD 2A 03                          CALL    L032A
2E8E: E5                                PUSH    HL
2E8F: 0E FF                             LD      C,0FFh
2E91: 0C                         L2E91: INC     C
2E92: 7E                                LD      A,(HL)
2E93: B7                                OR      A
2E94: 23                                INC     HL
2E95: 20 FA                             JR      NZ,L2E91
2E97: E1                                POP     HL
2E98: 47                                LD      B,A
2E99: 16 00                             LD      D,00h
2E9B: CD 84 03                   L2E9B: CALL    L0384
2E9E: D6 30                             SUB     30h     ; '0'
2EA0: 38 0E                             JR      C,L2EB0
2EA2: FE 0A                             CP      0Ah
2EA4: 30 0A                             JR      NC,L2EB0
2EA6: 5F                                LD      E,A
2EA7: 7A                                LD      A,D
2EA8: 07                                RLCA
2EA9: 07                                RLCA
2EAA: 82                                ADD     A,D
2EAB: 07                                RLCA
2EAC: 83                                ADD     A,E
2EAD: 57                                LD      D,A
2EAE: 18 EB                             JR      L2E9B

2EB0: E5                         L2EB0: PUSH    HL
2EB1: 21 99 2E                          LD      HL,2E99h
2EB4: E3                                EX      (SP),HL
2EB5: 15                                DEC     D
2EB6: 14                                INC     D
2EB7: C2 BB 2E                          JP      NZ,L2EBB
2EBA: 14                                INC     D
2EBB: FE D8                      L2EBB: CP      0D8h
2EBD: CA D2 2F                          JP      Z,L2FD2
2EC0: FE DD                             CP      0DDh
2EC2: CA E0 2F                          JP      Z,L2FE0
2EC5: FE F0                             CP      0F0h
2EC7: 28 41                             JR      Z,L2F0A
2EC9: FE 31                             CP      31h     ; '1'
2ECB: 38 02                             JR      C,L2ECF
2ECD: D6 20                             SUB     20h     ; ' '
2ECF: FE 21                      L2ECF: CP      21h     ; '!'
2ED1: CA F6 2F                          JP      Z,L2FF6
2ED4: FE 1C                             CP      1Ch
2ED6: CA 40 2F                          JP      Z,L2F40
2ED9: FE 23                             CP      23h     ; '#'
2EDB: 28 3F                             JR      Z,L2F1C
2EDD: FE 19                             CP      19h
2EDF: CA 7D 2F                          JP      Z,L2F7D
2EE2: FE 14                             CP      14h
2EE4: CA 4A 2F                          JP      Z,L2F4A
2EE7: FE 13                             CP      13h
2EE9: CA 65 2F                          JP      Z,L2F65
2EEC: FE 15                             CP      15h
2EEE: CA E3 2F                          JP      Z,L2FE3
2EF1: FE 28                             CP      28h     ; '('
2EF3: CA 78 2F                          JP      Z,L2F78
2EF6: FE 1B                             CP      1Bh
2EF8: 28 1C                             JR      Z,L2F16
2EFA: FE 18                             CP      18h
2EFC: CA 75 2F                          JP      Z,L2F75
2EFF: FE 11                             CP      11h
2F01: C0                                RET     NZ
2F02: C1                                POP     BC
2F03: D1                                POP     DE
2F04: CD FE 20                          CALL    L20FE
2F07: C3 65 2E                          JP      L2E65

                                        ; --- START PROC L2F0A ---
2F0A: 7E                         L2F0A: LD      A,(HL)
2F0B: B7                                OR      A
2F0C: C8                                RET     Z
2F0D: 04                                INC     B
2F0E: CD 2A 03                          CALL    L032A
2F11: 23                                INC     HL
2F12: 15                                DEC     D
2F13: 20 F5                             JR      NZ,L2F0A
2F15: C9                                RET

                                        ; --- START PROC L2F16 ---
2F16: E5                         L2F16: PUSH    HL
2F17: 21 5F 2F                          LD      HL,2F5Fh
2F1A: E3                                EX      (SP),HL
2F1B: 37                                SCF
                                        ; --- START PROC L2F1C ---
2F1C: F5                         L2F1C: PUSH    AF
2F1D: CD 84 03                          CALL    L0384
2F20: 5F                                LD      E,A
2F21: F1                                POP     AF
2F22: F5                                PUSH    AF
2F23: DC 5F 2F                          CALL    C,L2F5F
2F26: 7E                         L2F26: LD      A,(HL)
2F27: B7                                OR      A
2F28: CA 3E 2F                          JP      Z,L2F3E
2F2B: CD 2A 03                          CALL    L032A
2F2E: F1                                POP     AF
2F2F: F5                                PUSH    AF
2F30: DC A1 2F                          CALL    C,L2FA1
2F33: 38 02                             JR      C,L2F37
2F35: 23                                INC     HL
2F36: 04                                INC     B
2F37: 7E                         L2F37: LD      A,(HL)
2F38: BB                                CP      E
2F39: 20 EB                             JR      NZ,L2F26
2F3B: 15                                DEC     D
2F3C: 20 E8                             JR      NZ,L2F26
2F3E: F1                         L2F3E: POP     AF
2F3F: C9                                RET

                                        ; --- START PROC L2F40 ---
2F40: CD 75 2B                   L2F40: CALL    L2B75
2F43: CD FE 20                          CALL    L20FE
2F46: C1                                POP     BC
2F47: C3 7C 2E                          JP      L2E7C

                                        ; --- START PROC L2F4A ---
2F4A: 7E                         L2F4A: LD      A,(HL)
2F4B: B7                                OR      A
2F4C: C8                                RET     Z
2F4D: 3E 21                             LD      A,21h   ; '!'
2F4F: CD 2A 03                          CALL    L032A
2F52: 7E                         L2F52: LD      A,(HL)
2F53: B7                                OR      A
2F54: 28 09                             JR      Z,L2F5F
2F56: CD 2A 03                          CALL    L032A
2F59: CD A1 2F                          CALL    L2FA1
2F5C: 15                                DEC     D
2F5D: 20 F3                             JR      NZ,L2F52
                                        ; --- START PROC L2F5F ---
2F5F: 3E 21                      L2F5F: LD      A,21h   ; '!'
2F61: CD 2A 03                          CALL    L032A
2F64: C9                                RET

                                        ; --- START PROC L2F65 ---
2F65: 7E                         L2F65: LD      A,(HL)
2F66: B7                                OR      A
2F67: C8                                RET     Z
2F68: CD 84 03                          CALL    L0384
2F6B: 77                                LD      (HL),A
2F6C: CD 2A 03                          CALL    L032A
2F6F: 23                                INC     HL
2F70: 04                                INC     B
2F71: 15                                DEC     D
2F72: 20 F1                             JR      NZ,L2F65
2F74: C9                                RET

                                        ; --- START PROC L2F75 ---
2F75: 36 00                      L2F75: LD      (HL),00h
2F77: 48                                LD      C,B
                                        ; --- START PROC L2F78 ---
2F78: 16 FF                      L2F78: LD      D,0FFh
2F7A: CD 0A 2F                          CALL    L2F0A
                                        ; --- START PROC L2F7D ---
2F7D: CD 84 03                   L2F7D: CALL    L0384
2F80: B7                                OR      A
2F81: CA 7D 2F                          JP      Z,L2F7D
2F84: FE 08                             CP      08h
2F86: 28 0A                             JR      Z,L2F92
2F88: FE 0D                             CP      0Dh
2F8A: CA E0 2F                          JP      Z,L2FE0
2F8D: FE 1B                             CP      1Bh
2F8F: C8                                RET     Z
2F90: 20 1E                             JR      NZ,L2FB0
2F92: 3E 08                      L2F92: LD      A,08h
2F94: 05                                DEC     B
2F95: 04                                INC     B
2F96: 28 1F                             JR      Z,L2FB7
2F98: CD 2A 03                          CALL    L032A
2F9B: 2B                                DEC     HL
2F9C: 05                                DEC     B
2F9D: 11 7D 2F                          LD      DE,2F7Dh
2FA0: D5                                PUSH    DE
                                        ; --- START PROC L2FA1 ---
2FA1: E5                         L2FA1: PUSH    HL
2FA2: 0D                                DEC     C
2FA3: 7E                         L2FA3: LD      A,(HL)
2FA4: B7                                OR      A
2FA5: 37                                SCF
2FA6: CA 90 08                          JP      Z,L0890
2FA9: 23                                INC     HL
2FAA: 7E                                LD      A,(HL)
2FAB: 2B                                DEC     HL
2FAC: 77                                LD      (HL),A
2FAD: 23                                INC     HL
2FAE: 18 F3                             JR      L2FA3

                                        ; --- START PROC L2FB0 ---
2FB0: F5                         L2FB0: PUSH    AF
2FB1: 79                                LD      A,C
2FB2: FE FF                             CP      0FFh
2FB4: 38 03                             JR      C,L2FB9
2FB6: F1                                POP     AF
                                        ; --- START PROC L2FB7 ---
2FB7: 18 C4                      L2FB7: JR      L2F7D

                                        ; --- START PROC L2FB9 ---
2FB9: 90                         L2FB9: SUB     B
2FBA: 0C                                INC     C
2FBB: 04                                INC     B
2FBC: C5                                PUSH    BC
2FBD: EB                                EX      DE,HL
2FBE: 6F                                LD      L,A
2FBF: 26 00                             LD      H,00h
2FC1: 19                                ADD     HL,DE
2FC2: 44                                LD      B,H
2FC3: 4D                                LD      C,L
2FC4: 23                                INC     HL
2FC5: CD 58 19                          CALL    L1958
2FC8: C1                                POP     BC
2FC9: F1                                POP     AF
2FCA: 77                                LD      (HL),A
2FCB: CD 2A 03                          CALL    L032A
2FCE: 23                                INC     HL
2FCF: C3 7D 2F                          JP      L2F7D

                                        ; --- START PROC L2FD2 ---
2FD2: 78                         L2FD2: LD      A,B
2FD3: B7                                OR      A
2FD4: C8                                RET     Z
2FD5: 05                                DEC     B
2FD6: 2B                                DEC     HL
2FD7: 3E 08                             LD      A,08h
2FD9: CD 2A 03                          CALL    L032A
2FDC: 15                                DEC     D
2FDD: 20 F3                             JR      NZ,L2FD2
2FDF: C9                                RET

                                        ; --- START PROC L2FE0 ---
2FE0: CD 75 2B                   L2FE0: CALL    L2B75
                                        ; --- START PROC L2FE3 ---
2FE3: CD FE 20                   L2FE3: CALL    L20FE
2FE6: C1                                POP     BC
2FE7: D1                                POP     DE
2FE8: 7A                                LD      A,D
2FE9: A3                                AND     E
2FEA: 3C                                INC     A
                                        ; --- START PROC L2FEB ---
2FEB: 2A A7 40                   L2FEB: LD      HL,(40A7h)
2FEE: 2B                                DEC     HL
2FEF: C8                                RET     Z
2FF0: 37                                SCF
2FF1: 23                                INC     HL
2FF2: F5                                PUSH    AF
2FF3: C3 98 1A                          JP      L1A98

                                        ; --- START PROC L2FF6 ---
2FF6: C1                         L2FF6: POP     BC
2FF7: D1                                POP     DE
2FF8: C3 19 1A                          JP      L1A19

2FFB: DE C3                      L2FFB: SBC     A,0C3h
2FFD: C3 44 B2                          JP      0B244h


references to external address 321Eh:
        0FA1 JP M,321Eh

references to external address 37E1h:
        06A1 LD (37E1h),A

references to external address 37E4h:
        0212 LD (37E4h),A

references to external address 37E8h:
        05AD LD (37E8h),A
        05BB LD (37E8h),A
        05D1 LD A,(37E8h)

references to external address 37ECh:
        0069 LD A,(37ECh)
        0696 LD A,(37ECh)
        06A4 LD HL,37ECh

references to external address 37EEh:
        06B7 LD (37EEh),A

references to external address 3840h:
        041D LD A,(3840h)
        068B LD A,(3840h)

references to external address 3880h:
        040B LD A,(3880h)

references to external address 3B9Ah:
        13B7 JP Z,3B9Ah

references to external address 3C3Eh:
        02A1 LD (3C3Eh),A
        030F LD (3C3Eh),A
        2C93 LD (3C3Eh),A

references to external address 3C3Fh:
        022C LD A,(3C3Fh)
        0231 LD (3C3Fh),A
        02A4 LD (3C3Fh),A

references to external address 4000h:
        0005 JP 4000h
        0008 JP 4000h
        057D LD DE,4000h
        0679 LD DE,4000h

references to external address 4003h:
        0010 JP 4003h

references to external address 4006h:
        0018 JP 4006h

references to external address 4009h:
        0020 JP 4009h

references to external address 400Ch:
        0028 JP 400Ch

references to external address 400Fh:
        0030 JP 400Fh

references to external address 4012h:
        0038 JP 4012h

references to external address 4020h:
        034D LD A,(4020h)
        2083 LD (4020h),HL

references to external address 4033h:
        03D1 JP NZ,4033h

references to external address 403Dh:
        0221 LD A,(403Dh)
        0228 LD (403Dh),A
        0348 LD A,(403Dh)
        04C3 LD A,(403Dh)
        04C8 LD (403Dh),A
        04CF LD A,(403Dh)
        04DA LD A,(403Dh)
        04F6 LD A,(403Dh)
        04FB LD (403Dh),A
        0543 LD A,(403Dh)

references to external address 4080h:
        0075 LD DE,4080h
        08CA CALL 4080h

references to external address 4081h:
        08BB LD (4081h),A

references to external address 4085h:
        08B6 LD (4085h),A

references to external address 4089h:
        08B1 LD (4089h),A

references to external address 408Ch:
        08C4 LD (408Ch),A
        08D2 LD (408Ch),A
        08F0 LD A,(408Ch)
        08F4 LD (408Ch),A

references to external address 408Eh:
        2815 LD HL,(408Eh)

references to external address 4093h:
        2AF5 CALL 4093h

references to external address 4094h:
        2AF2 LD (4094h),A
        2B11 LD (4094h),A

references to external address 4096h:
        2AFE JP 4096h

references to external address 4097h:
        2B14 LD (4097h),A

references to external address 4099h:
        019F LD A,(4099h)
        01AD LD (4099h),A
        0362 LD (4099h),A
        1DA5 LD (4099h),A

references to external address 409Ah:
        19B7 LD (409Ah),A
        1A2B LD A,(409Ah)
        1F8E LD A,(409Ah)
        1FB8 LD (409Ah),A
        24D0 LD A,(409Ah)
        2E53 LD (409Ah),A

references to external address 409Bh:
        038F LD A,(409Bh)
        03B1 LD A,(409Bh)
        03B7 LD (409Bh),A
        20D5 LD A,(409Bh)
        211B LD A,(409Bh)
        214E LD A,(409Bh)

references to external address 409Ch:
        032F LD A,(409Ch)
        038C LD (409Ch),A
        2069 LD (409Ch),A
        2098 LD (409Ch),A
        20CC LD A,(409Ch)
        210B LD A,(409Ch)
        2144 LD A,(409Ch)
        2169 LD A,(409Ch)
        2171 LD (409Ch),A
        2B2B LD (409Ch),A

references to external address 409Dh:
        20DD LD A,(409Dh)

references to external address 409Eh:
        2123 LD A,(409Eh)

references to external address 40A0h:
        00F6 LD (40A0h),HL
        1B90 LD HL,(40A0h)
        1E9C LD (40A0h),HL
        1F4C LD HL,(40A0h)
        27E5 LD HL,(40A0h)
        28C3 LD HL,(40A0h)
        28F0 LD HL,(40A0h)

references to external address 40A2h:
        197E LD HL,(40A2h)
        1994 LD (40A2h),HL
        19A2 LD HL,(40A2h)
        1A36 LD (40A2h),HL
        1CC1 LD HL,(40A2h)
        1D41 LD (40A2h),HL
        1DC1 LD HL,(40A2h)
        1DF2 LD (40A2h),HL
        1EB9 LD HL,(40A2h)
        1EC9 LD HL,(40A2h)
        1EF0 LD (40A2h),HL
        1FD6 LD (40A2h),HL
        231C LD (40A2h),HL
        2829 LD HL,(40A2h)
        2B36 LD (40A2h),HL

references to external address 40A4h:
        1AF8 LD HL,(40A4h)
        1B2C LD HL,(40A4h)
        1B4D LD HL,(40A4h)
        1B5D LD HL,(40A4h)
        1D92 LD HL,(40A4h)
        1F46 LD HL,(40A4h)
        2C0B LD HL,(40A4h)
        2C5C LD HL,(40A4h)
        2C83 LD HL,(40A4h)

references to external address 40A6h:
        0342 LD (40A6h),A
        0365 LD (40A6h),A
        2089 LD (40A6h),A
        20E1 LD A,(40A6h)
        20F9 LD A,(40A6h)
        2127 LD A,(40A6h)
        2153 LD A,(40A6h)
        27F5 LD A,(40A6h)

references to external address 40A7h:
        008B LD (40A7h),HL
        036C LD HL,(40A7h)
        037B LD HL,(40A7h)
        1ADB LD HL,(40A7h)
        1BC6 LD HL,(40A7h)
        1C84 LD HL,(40A7h)
        21AF LD HL,(40A7h)
        21C3 LD HL,(40A7h)
        2B6A LD HL,(40A7h)
        2B7F LD HL,(40A7h)
        2E86 LD HL,(40A7h)
        2FEB LD HL,(40A7h)

references to external address 40A9h:
        2186 LD A,(40A9h)
        21A3 LD (40A9h),A
        220E LD A,(40A9h)

references to external address 40AAh:
        150B LD HL,(40AAh)
        1526 LD (40AAh),HL

references to external address 40ABh:
        01D5 LD (40ABh),A

references to external address 40ACh:
        1510 LD A,(40ACh)
        152F LD (40ACh),A

references to external address 40AEh:
        260E LD (40AEh),A
        26EA LD HL,(40AEh)
        2707 LD (40AEh),HL
        272F LD A,(40AEh)
        2757 LD A,(40AEh)

references to external address 40AFh:
        01C4 LD (40AFh),A
        09D3 LD A,(40AFh)
        0A9F LD (40AFh),A
        0FE1 LD A,(40AFh)
        22FC LD A,(40AFh)
        2374 LD A,(40AFh)
        2399 LD A,(40AFh)
        2410 LD A,(40AFh)
        2465 LD (40AFh),A
        25D9 LD A,(40AFh)
        2653 LD (40AFh),A
        2716 LD A,(40AFh)
        27AF LD A,(40AFh)
        27CB LD (40AFh),A
        280A LD A,(40AFh)
        2891 LD (40AFh),A

references to external address 40B0h:
        1BC1 LD (40B0h),A
        1BDC LD A,(40B0h)
        1C67 LD (40B0h),A
        2408 LD (40B0h),A
        2451 LD A,(40B0h)

references to external address 40B1h:
        00F2 LD (40B1h),HL
        1B7A LD HL,(40B1h)
        1E84 LD HL,(40B1h)
        28E6 LD HL,(40B1h)

references to external address 40B3h:
        1B9E LD (40B3h),HL
        1DBA LD (40B3h),HL
        2889 LD HL,(40B3h)
        289B LD (40B3h),HL
        28F8 LD HL,(40B3h)
        29F5 LD HL,(40B3h)
        29FF LD (40B3h),HL

references to external address 40D4h:
        01B5 LD HL,(40D4h)
        29B4 LD HL,(40D4h)
        2A27 LD HL,(40D4h)
        2A57 LD HL,(40D4h)

references to external address 40D6h:
        1B7D LD (40D6h),HL
        27E9 LD HL,(40D6h)
        2897 LD DE,40D6h
        28C7 LD HL,(40D6h)
        28D3 LD (40D6h),HL
        28E9 LD (40D6h),HL
        2955 LD HL,(40D6h)
        297F LD HL,(40D6h)
        29E8 LD HL,(40D6h)
        29F0 LD (40D6h),HL

references to external address 40D8h:
        0FDC LD A,(40D8h)
        0FFB LD A,(40D8h)
        1034 LD (40D8h),A
        1289 LD A,(40D8h)
        235E LD (40D8h),HL
        236A LD (40D8h),HL
        23CE LD HL,(40D8h)
        2752 LD (40D8h),HL
        2784 LD HL,(40D8h)
        2935 LD (40D8h),HL
        2940 LD HL,(40D8h)

references to external address 40DAh:
        1991 LD HL,(40DAh)
        22AA LD (40DAh),HL

references to external address 40DCh:
        1BAA LD (40DCh),A
        1CA3 LD (40DCh),A
        2657 LD A,(40DCh)
        2665 LD (40DCh),A

references to external address 40DDh:
        1AAA LD (40DDh),A
        1EF8 LD A,(40DDh)
        1FEA LD A,(40DDh)

references to external address 40DEh:
        217F LD A,(40DEh)
        21F5 LD (40DEh),A
        2207 LD A,(40DEh)
        226F LD A,(40DEh)
        2CCB LD A,(40DEh)
        2CD5 LD (40DEh),A
        2DD9 LD (40DEh),A

references to external address 40DFh:
        02AC LD (40DFh),HL
        031E LD HL,(40DFh)
        1B61 LD (40DFh),HL
        1BAF LD HL,(40DFh)
        1D16 LD HL,(40DFh)
        1F27 LD (40DFh),HL
        22BC LD (40DFh),HL
        2328 LD HL,(40DFh)

references to external address 40E1h:
        1A39 LD A,(40E1h)
        1A5B LD (40E1h),A
        1B53 LD (40E1h),A
        202E LD (40E1h),A

references to external address 40E2h:
        1A3F LD HL,(40E2h)
        1A6E LD (40E2h),HL
        2032 LD (40E2h),HL

references to external address 40E4h:
        1A60 LD HL,(40E4h)
        2019 LD HL,(40E4h)
        202B LD (40E4h),HL

references to external address 40E6h:
        19BA LD HL,(40E6h)
        1A9E LD (40E6h),HL
        1D25 LD (40E6h),HL
        1DB4 LD (40E6h),HL
        1DCE LD HL,(40E6h)
        2196 LD HL,(40E6h)

references to external address 40E8h:
        19AE LD HL,(40E8h)
        1B95 LD (40E8h),HL
        1CB2 LD (40E8h),HL
        1D28 LD (40E8h),SP
        1EE5 LD (40E8h),HL
        22C6 LD (40E8h),HL
        2325 LD (40E8h),HL

references to external address 40EAh:
        19A5 LD (40EAh),HL
        19C1 LD HL,(40EAh)
        1A02 LD HL,(40EAh)
        1FD3 LD HL,(40EAh)
        24DF LD HL,(40EAh)
        2E56 LD HL,(40EAh)

references to external address 40ECh:
        19A8 LD (40ECh),HL
        1AB1 LD (40ECh),HL
        1E53 LD HL,(40ECh)
        2B5B LD (40ECh),HL
        2E66 LD (40ECh),HL

references to external address 40EEh:
        19BD LD (40EEh),HL
        1FCF LD HL,(40EEh)

references to external address 40F0h:
        19D0 LD HL,(40F0h)
        1B74 LD (40F0h),HL
        1F84 LD (40F0h),HL

references to external address 40F2h:
        1986 LD A,(40F2h)
        19D6 LD HL,40F2h
        1B6F LD (40F2h),A
        1F89 LD A,(40F2h)
        1FAF LD DE,40F2h

references to external address 40F3h:
        10CE LD A,(40F3h)
        1197 LD HL,(40F3h)
        1296 LD (40F3h),HL
        2343 LD (40F3h),HL
        2346 LD HL,(40F3h)
        2537 LD HL,(40F3h)
        2703 LD (40F3h),HL
        27C5 LD HL,(40F3h)

references to external address 40F5h:
        19C9 LD (40F5h),HL
        1DCB LD (40F5h),HL
        1DEF LD HL,(40F5h)

references to external address 40F7h:
        19CD LD (40F7h),HL
        1B77 LD (40F7h),HL
        1DD1 LD (40F7h),HL
        1DE4 LD HL,(40F7h)

references to external address 40F9h:
        1AC2 LD HL,(40F9h)
        1ACD LD (40F9h),HL
        1B5A LD (40F9h),HL
        1B83 LD HL,(40F9h)
        1E90 LD HL,(40F9h)
        1F53 LD HL,(40F9h)
        266A LD HL,(40F9h)
        2903 LD HL,(40F9h)
        2BE5 LD HL,(40F9h)
        2BF1 LD (40F9h),HL
        2C0F LD HL,(40F9h)
        2C77 LD (40F9h),HL

references to external address 40FBh:
        1B86 LD (40FBh),HL
        266E LD HL,(40FBh)
        26BB LD (40FBh),HL
        270B LD HL,(40FBh)
        2907 LD HL,(40FBh)

references to external address 40FDh:
        1964 LD HL,(40FDh)
        1B89 LD (40FDh),HL
        26AB LD HL,(40FDh)
        26B6 LD (40FDh),HL
        2711 LD HL,(40FDh)
        2779 LD (40FDh),HL
        27D4 LD HL,(40FDh)
        2922 LD HL,(40FDh)

references to external address 40FFh:
        1D96 LD (40FFh),HL
        21F0 LD HL,(40FFh)

references to external address 411Bh:
        1D44 LD A,(411Bh)
        1DF9 LD (411Bh),A

references to external address 411Ch:
        0B98 LD (411Ch),A
        0CB6 LD (411Ch),A
        0CE0 LD HL,411Ch
        0CF7 LD HL,411Ch
        0D0E LD A,(411Ch)
        0D5A LD HL,411Ch

references to external address 411Dh:
        0A08 LD DE,411Dh
        0AE6 LD (411Dh),HL
        0BA0 LD HL,411Dh
        0D20 LD HL,411Dh
        0D36 LD DE,411Dh
        0D48 LD DE,411Dh
        0E1E LD HL,411Dh
        12E2 LD HL,411Dh
        23B7 LD HL,411Dh
        2443 LD (411Dh),HL

references to external address 411Fh:
        0AE9 LD (411Fh),HL
        243F LD (411Fh),HL

references to external address 4121h:
        01BF LD (4121h),HL
        073C LD HL,4121h
        0866 LD HL,4121h
        099B LD HL,(4121h)
        09A5 LD HL,(4121h)
        09B5 LD (4121h),HL
        09BF LD HL,4121h
        09CB LD DE,4121h
        0A03 LD DE,4121h
        0A80 LD HL,(4121h)
        0A9A LD (4121h),HL
        0ACC LD HL,(4121h)
        0B46 LD A,(4121h)
        0C5B LD HL,(4121h)
        0F37 LD HL,(4121h)
        0F4E LD (4121h),HL
        1343 LD HL,(4121h)
        1352 LD (4121h),HL
        1426 LD (4121h),HL
        1F3E LD HL,(4121h)
        20C9 LD HL,(4121h)
        2395 LD HL,4121h
        23FD LD HL,(4121h)
        2433 LD HL,(4121h)
        246D LD (4121h),HL
        248B LD (4121h),HL
        2545 LD (4121h),HL
        2562 LD HL,(4121h)
        25D2 LD (4121h),HL
        26DB LD (4121h),HL
        26E4 LD (4121h),HL
        288C LD (4121h),HL
        2991 LD HL,(4121h)
        299E LD HL,(4121h)
        29DA LD HL,(4121h)
        2C3D LD (4121h),HL
        2C43 LD HL,(4121h)
        2CC6 LD HL,(4121h)
        2E2A LD HL,(4121h)
        2E37 LD HL,(4121h)

references to external address 4123h:
        095A LD A,(4123h)
        0982 LD HL,4123h
        09AA LD HL,(4123h)
        09BA LD (4123h),HL
        09DF LD HL,4123h
        0A1A LD HL,4123h
        0A62 LD HL,4123h
        0B8A LD HL,4123h
        0CDA LD A,(4123h)
        0D90 LD HL,4123h
        0DCC LD HL,4123h
        0E14 LD A,(4123h)
        1422 LD (4123h),HL
        2487 LD (4123h),HL

references to external address 4124h:
        0719 LD A,(4124h)
        0779 LD (4124h),A
        078E LD HL,4124h
        0797 LD HL,4124h
        0810 LD HL,4124h
        08FD LD HL,4124h
        0919 LD HL,4124h
        094D LD HL,4124h
        0955 LD A,(4124h)
        0969 LD HL,4124h
        0A8E LD A,(4124h)
        0B40 LD HL,4124h
        0B59 LD HL,4124h
        0C80 LD DE,4124h
        0D05 LD HL,4124h
        0E30 LD HL,4124h
        1208 LD A,(4124h)
        1445 LD A,(4124h)
        15C6 LD A,(4124h)
        26D5 LD (4124h),A

references to external address 4126h:
        0CB3 LD A,(4126h)

references to external address 412Dh:
        090B LD HL,412Dh
        0C70 LD HL,412Dh
        0CAD LD HL,412Dh
        0E3A LD (412Dh),A

references to external address 412Eh:
        0A4F LD DE,412Eh
        0C77 LD HL,412Eh
        0DE5 LD A,(412Eh)

references to external address 4145h:
        167A JP NC,4145h

references to external address 414Fh:
        0851 LD (414Fh),A
        087D LD A,(414Fh)
        16F4 CALL Z,414Fh

references to external address 4150h:
        0855 LD (4150h),HL
        0877 LD HL,(4150h)
        0E3E LD DE,4150h

references to external address 4153h:
        174A JP 4153h

references to external address 4155h:
        2524 JP Z,4155h

references to external address 4176h:
        2510 JP Z,4176h

references to external address 4194h:
        24C8 JP Z,4194h

references to external address 419Dh:
        2506 JP Z,419Dh

references to external address 41A6h:
        19EC CALL 41A6h

references to external address 41A9h:
        27FE CALL 41A9h

references to external address 41ACh:
        1A1C CALL 41ACh

references to external address 41AFh:
        0368 CALL 41AFh

references to external address 41B2h:
        1AA1 CALL 41B2h

references to external address 41B5h:
        1AEC CALL 41B5h

references to external address 41B8h:
        1AF2 CALL 41B8h

references to external address 41BBh:
        1B8C CALL 41BBh
        1DB0 CALL Z,41BBh

references to external address 41BEh:
        2174 CALL 41BEh

references to external address 41C1h:
        032C CALL 41C1h

references to external address 41C4h:
        0358 CALL 41C4h

references to external address 41C7h:
        1EA6 CALL 41C7h

references to external address 41CAh:
        206F CALL 41CAh

references to external address 41CDh:
        20C6 CALL 41CDh

references to external address 41D0h:
        2103 CALL 41D0h

references to external address 41D3h:
        2108 CALL 41D3h
        2141 CALL 41D3h

references to external address 41D6h:
        219E CALL 41D6h

references to external address 41D9h:
        2AEC JP 41D9h

references to external address 41DCh:
        222D CALL 41DCh

references to external address 41DFh:
        2278 CALL 41DFh
        2B44 CALL 41DFh

references to external address 41E2h:
        02B2 CALL 41E2h

references to external address 4200h:
        06BA LD BC,4200h
        06C9 JP 4200h

references to external address 4241h:
        1752 CALL NC,4241h

references to external address 4244h:
        17F9 JP 4244h

references to external address 434Fh:
        17DF CALL Z,434Fh

references to external address 4449h:
        181C CALL 4449h

references to external address 444Bh:
        17ED CALL 444Bh

references to external address 444Dh:
        1661 JP 444Dh

references to external address 444Eh:
        17BA JP NC,444Eh

references to external address 4456h:
        17D9 JP 4456h

references to external address 4548h:
        178D CALL NC,4548h

references to external address 454Ch:
        1740 JP 454Ch

references to external address 4553h:
        1705 CALL Z,4553h
        1709 JP NC,4553h

references to external address 4645h:
        16B0 CALL NZ,4645h
        16B6 CALL NZ,4645h
        16BC CALL NZ,4645h
        16C2 CALL NZ,4645h
        171D CALL NZ,4645h
        1811 CALL Z,4645h

references to external address 464Fh:
        17E2 CALL Z,464Fh

references to external address 4749h:
        1816 JP NC,4749h

references to external address 474Fh:
        17BD CALL Z,474Fh

references to external address 490Fh:
        15A4 JP C,490Fh

references to external address 494Bh:
        17E5 CALL 494Bh

references to external address 494Ch:
        1731 CALL Z,494Ch

references to external address 4956h:
        17D3 JP 4956h

references to external address 4C45h:
        1736 CALL NZ,4C45h

references to external address 4CBBh:
        15FC CALL PO,4CBBh

references to external address 4D45h:
        169C JP NC,4D45h
        1784 CALL 4D45h

references to external address 4D49h:
        1677 CALL NZ,4D49h
        177F CALL NC,4D49h

references to external address 4E41h:
        1664 JP NC,4E41h
        17C9 CALL NC,4E41h

references to external address 4E45h:
        1800 CALL Z,4E45h

references to external address 4E49h:
        16C8 CALL Z,4E49h
        17F1 JP 4E49h

references to external address 4E4Fh:
        1729 JP 4E4Fh

references to external address 4E53h:
        17F5 JP 4E53h

references to external address 4E55h:
        1685 JP NC,4E55h

references to external address 4F4Ch:
        16EF JP 4F4Ch
        1745 JP 4F4Ch

references to external address 4F52h:
        16A7 CALL NC,4F52h
        16AB CALL NC,4F52h

references to external address 5000h:
        06FF JP 5000h

references to external address 507Ch:
        1488 LD HL,(507Ch)

references to external address 5245h:
        16F8 CALL 5245h

references to external address 5248h:
        180D JP 5248h

references to external address 5250h:
        1717 CALL Z,5250h

references to external address 5345h:
        1656 JP NC,5345h
        168A JP NC,5345h
        16D5 JP NC,5345h

references to external address 5349h:
        172D CALL Z,5349h

references to external address 534Bh:
        17E9 CALL 534Bh

references to external address 534Ch:
        165E JP 534Ch

references to external address 534Fh:
        17C3 JP 534Fh

references to external address 5356h:
        17D6 JP 5356h

references to external address 540Bh:
        13B0 CALL PO,540Bh

references to external address 5441h:
        166E CALL NZ,5441h

references to external address 5445h:
        167E CALL Z,5445h
        1696 JP NC,5445h

references to external address 8076h:
        0802 LD (8076h),HL

references to external address 900Bh:
        18C3 JP P,900Bh

references to external address 0A31Eh:
        183C JP NZ,0A31Eh

references to external address 0B10Ah:
        18A7 CALL P,0B10Ah

references to external address 0B244h:
        2FFD JP 0B244h

references to external address 0C4FFh:
        1B20 JP M,0C4FFh

references to external address 0C70Bh:
        18BF JP NC,0C70Bh

references to external address 0D1EBh:
        2D96 JP Z,0D1EBh

references to external address 0E1C1h:
        08D8 JP NC,0E1C1h
        0C25 LD BC,0E1C1h

references to external address 0EF27h:
        160E CALL NC,0EF27h

possible references to internal address 0000:
        06AC LD BC,0000h
        0837 LD DE,0000h
        0858 LD BC,0000h
        0966 LD DE,0000h
        0AA6 LD DE,0000h
        0AE3 LD HL,0000h
        0BAB LD HL,0000h
        0BFF LD HL,0000h
        0FEF LD BC,0000h
        1471 LD DE,0000h
        14F4 LD DE,0000h
        1B10 LD DE,0000h
        1E5B LD DE,0000h
        22B6 LD DE,0000h
        27D8 LD HL,0000h
        28EC LD HL,0000h
        ----------
        006F JP NC,L0000

possible references to internal address 0001:
        1CDB LD DE,0001h

possible references to internal address 0004:
        1936 LD HL,0004h

possible references to internal address 0005:
        1C7D LD HL,0005h

possible references to internal address 000A:
        2008 LD DE,000Ah

possible references to internal address 000B:
        275C LD BC,000Bh

possible references to internal address 000E:
        194D LD BC,000Eh
        2A6F LD DE,000Eh

possible references to internal address 001E:
        199C LD BC,001Eh

possible references to internal address 0027:
        007B LD BC,0027h

possible references to internal address 0028:
        1E93 LD BC,0028h

possible references to internal address 0036:
        067C LD BC,0036h

possible references to internal address 0040:
        04E7 LD DE,0040h
        0569 LD DE,0040h

possible references to internal address 0050:
        0443 LD HL,0050h

possible references to internal address 00FF:
        0E6E LD BC,00FFh

possible references to internal address 0105:
        00B5 LD HL,0105h

possible references to internal address 0111:
        00FC LD HL,0111h

possible references to internal address 012D:
        008E LD DE,012Dh

possible references to internal address 013E:
        0137 LD BC,013Eh

possible references to internal address 01C9:
        1829 LD BC,01C9h
        ----------
        00B2 CALL L01C9
        0619 CALL L01C9
        1B4A CALL L01C9

possible references to internal address 021E:
        1E02 LD BC,021Eh
        ----------
        024C CALL L021E
        025B CALL L021E

possible references to internal address 0300:
        1048 LD BC,0300h

possible references to internal address 03C0:
        055B LD BC,03C0h

possible references to internal address 03DD:
        03C9 LD HL,03DDh

possible references to internal address 03E3:
        06E7 LD BC,03E3h

possible references to internal address 041E:
        1E05 LD BC,041Eh

possible references to internal address 043E:
        0AEE LD BC,043Eh

possible references to internal address 0480:
        0506 LD DE,0480h

possible references to internal address 04F3:
        0817 LD DE,04F3h

possible references to internal address 05E0:
        05F4 LD DE,05E0h
        ----------
        061F JP L05E0

possible references to internal address 0600:
        0066 LD SP,0600h

possible references to internal address 0603:
        10A6 LD BC,0603h

possible references to internal address 061E:
        11AF LD BC,061Eh

possible references to internal address 06D2:
        0676 LD HL,06D2h

possible references to internal address 0700:
        0E41 LD BC,0700h

possible references to internal address 0710:
        15D5 LD HL,0710h
        ----------
        082B CALL L0710
        1566 CALL L0710

possible references to internal address 0765:
        085D LD HL,0765h
        ----------
        153E JP L0765

possible references to internal address 07B2:
        0A8A LD HL,07B2h
        ----------
        074A JP Z,L07B2
        0904 JP L07B2
        093B JP L07B2
        0946 JP C,L07B2
        0952 JP L07B2
        0CC6 JP Z,L07B2
        0D2C JP Z,L07B2
        0E36 JP L07B2
        0E57 JP C,L07B2
        0E62 JP L07B2
        2301 JP Z,L07B2

possible references to internal address 07F8:
        0828 LD HL,07F8h
        1458 LD HL,07F8h
        14E7 LD HL,07F8h

possible references to internal address 07FC:
        082E LD HL,07FCh

possible references to internal address 0800:
        0D71 LD DE,0800h

possible references to internal address 081E:
        1E08 LD BC,081Eh

possible references to internal address 0869:
        0861 LD HL,0869h

possible references to internal address 0890:
        0EDC LD HL,0890h
        2806 LD HL,0890h
        ----------
        0928 JP Z,L0890
        2FA6 JP Z,L0890

possible references to internal address 095E:
        0A11 LD HL,095Eh
        0A57 LD HL,095Eh
        ----------
        0A7B JP NZ,L095D+1

possible references to internal address 09D2:
        09F7 LD DE,09D2h

possible references to internal address 09D3:
        09FF LD DE,09D3h
        ----------
        0A4C CALL L09D3
        0DE2 CALL L09D3
        1216 CALL L09D3
        1F66 CALL L09D3
        2894 CALL L09D3

possible references to internal address 0C32:
        149D LD DE,0C32h

possible references to internal address 0CCD:
        0F3A LD DE,0CCDh

possible references to internal address 0DAC:
        044C LD BC,0DACh

possible references to internal address 0DD4:
        0DDC LD DE,0DD4h

possible references to internal address 0DD8:
        089A LD HL,0DD8h

possible references to internal address 0E3A:
        1F05 LD BC,0E3Ah

possible references to internal address 0EBD:
        0EA8 LD HL,0EBDh
        ----------
        0FA4 JP L0EBD

possible references to internal address 0FDB:
        154D LD DE,0FDBh

possible references to internal address 10DF:
        10E0 LD BC,10DFh

possible references to internal address 1364:
        1210 LD DE,1364h

possible references to internal address 136C:
        1233 LD DE,136Ch

possible references to internal address 1374:
        125E LD DE,1374h

possible references to internal address 137C:
        12AE LD HL,137Ch

possible references to internal address 1380:
        0708 LD HL,1380h
        13EA LD HL,1380h

possible references to internal address 1384:
        1110 LD DE,1384h

possible references to internal address 138C:
        12BD LD DE,138Ch

possible references to internal address 13D2:
        12F9 LD DE,13D2h

possible references to internal address 13D8:
        1330 LD DE,13D8h

possible references to internal address 13F2:
        23DA LD BC,13F2h

possible references to internal address 141E:
        1999 LD BC,141Eh

possible references to internal address 1479:
        146B LD HL,1479h

possible references to internal address 158B:
        1541 LD HL,158Bh
        15DF LD HL,158Bh

possible references to internal address 158F:
        1563 LD HL,158Fh
        157B LD HL,158Fh

possible references to internal address 1593:
        1585 LD HL,1593h

possible references to internal address 15E3:
        15D9 LD HL,15E3h

possible references to internal address 1608:
        2583 LD BC,1608h

possible references to internal address 164F:
        1BF6 LD DE,164Fh

possible references to internal address 1650:
        2BA9 LD HL,1650h

possible references to internal address 1822:
        1D6F LD HL,1822h

possible references to internal address 189A:
        237D LD HL,189Ah

possible references to internal address 18A1:
        281C LD HL,18A1h

possible references to internal address 18AB:
        244E LD HL,18ABh

possible references to internal address 18B5:
        2477 LD HL,18B5h

possible references to internal address 18BF:
        2428 LD HL,18BFh

possible references to internal address 18C9:
        19E9 LD HL,18C9h

possible references to internal address 18F7:
        0078 LD HL,18F7h

possible references to internal address 191D:
        19FE LD HL,191Dh

possible references to internal address 1924:
        0FA8 LD HL,1924h

possible references to internal address 1928:
        01BC LD HL,1928h
        26E1 LD HL,1928h

possible references to internal address 1929:
        1A25 LD HL,1929h
        2BD9 LD HL,1929h
        2C7A LD HL,1929h

possible references to internal address 1930:
        1DDB LD HL,1930h

possible references to internal address 1997:
        1E0E LD BC,1997h
        ----------
        00DA JP NZ,L1997
        02C7 JP Z,L1997
        0EEF JP P,L1997
        1C9E JP L1997
        1D32 JP NZ,L1997
        1E66 JP C,L1997
        2022 JP NZ,L1997
        235B JP C,L1997
        2615 JP C,L1997
        2AE9 JP NZ,L1997
        2DE2 JP NZ,L1997

possible references to internal address 1998:
        1E62 LD HL,1998h

possible references to internal address 19B4:
        19AB LD BC,19B4h

possible references to internal address 1A18:
        06CC LD BC,1A18h
        ----------
        1DE1 JP L1A17+1
        1EFC JP NZ,L1A17+1
        2B54 JP C,L1A17+1
        2C90 JP L1A17+1

possible references to internal address 1AE8:
        2BE0 LD HL,1AE8h
        ----------
        2C87 JP L1AE8

possible references to internal address 1BCA:
        1127 LD DE,1BCAh

possible references to internal address 1C3D:
        1BFA LD BC,1C3Dh

possible references to internal address 1D1E:
        1D5B LD DE,1D1Eh
        1EAC LD BC,1D1Eh
        1EFF LD HL,1D1Eh
        ----------
        232E JP NZ,L1D1E

possible references to internal address 1F21:
        1839 LD HL,1F21h
        ----------
        1CA6 CALL L1F21
        1D62 JP C,L1F21

possible references to internal address 2100:
        13E0 LD BC,2100h

possible references to internal address 2178:
        2190 LD HL,2178h

possible references to internal address 21DB:
        21C9 LD BC,21DBh

possible references to internal address 2243:
        2250 LD BC,2243h

possible references to internal address 225A:
        2245 LD HL,225Ah

possible references to internal address 2286:
        227C LD HL,2286h

possible references to internal address 232F:
        2C28 LD BC,232Fh

possible references to internal address 2346:
        2386 LD BC,2346h
        ----------
        25D6 JP L2346

possible references to internal address 2349:
        29BE LD HL,2349h

possible references to internal address 23F8:
        1256 LD DE,23F8h

possible references to internal address 2400:
        0F62 LD DE,2400h

possible references to internal address 2406:
        23CA LD BC,2406h

possible references to internal address 241E:
        199F LD BC,241Eh

possible references to internal address 24F1:
        2693 LD DE,24F1h

possible references to internal address 253E:
        257F LD DE,253Eh

possible references to internal address 2543:
        2699 LD DE,2543h

possible references to internal address 258C:
        2401 LD BC,258Ch

possible references to internal address 25B8:
        23F5 LD HL,25B8h

possible references to internal address 25E9:
        23E7 LD BC,25E9h

possible references to internal address 2603:
        2608 LD BC,2603h

possible references to internal address 2608:
        1835 LD HL,2608h

possible references to internal address 2652:
        262B LD DE,2652h

possible references to internal address 2710:
        13D4 LD BC,2710h

possible references to internal address 27F8:
        2A03 LD BC,27F8h
        2A0F LD BC,27F8h
        ----------
        24D4 CALL L27F8
        2AC8 JP Z,L27F8
        2AF8 JP L27F8
        2CAE JP L27F8

possible references to internal address 27FA:
        25EF LD BC,27FAh

possible references to internal address 28C1:
        28E2 LD BC,28C1h

possible references to internal address 28F7:
        28FD LD BC,28F7h

possible references to internal address 293F:
        2947 LD BC,293Fh

possible references to internal address 2A2B:
        283F LD BC,2A2Bh

possible references to internal address 2A69:
        2AB4 LD BC,2A69h

possible references to internal address 2CA5:
        2C8A LD HL,2CA5h

possible references to internal address 2D97:
        2D7B LD DE,2D97h

possible references to internal address 2E99:
        2EB1 LD HL,2E99h

possible references to internal address 2F5F:
        2F17 LD HL,2F5Fh
        ----------
        2F23 CALL C,L2F5F

possible references to internal address 2F7D:
        2F9D LD DE,2F7Dh
        ----------
        2EDF JP Z,L2F7D
        2F81 JP Z,L2F7D
        2FCF JP L2F7D

possible references to external address 37ECh:
        06A4 LD HL,37ECh
        ----------
        0069 LD A,(37ECh)
        0696 LD A,(37ECh)

possible references to external address 37EFh:
        06A7 LD DE,37EFh

possible references to external address 3801h:
        03E6 LD BC,3801h

possible references to external address 3C00h:
        04C0 LD HL,3C00h
        0554 LD DE,3C00h
        207F LD HL,3C00h

possible references to external address 3C40h:
        0557 LD HL,3C40h

possible references to external address 4000h:
        057D LD DE,4000h
        0679 LD DE,4000h
        ----------
        0005 JP 4000h
        0008 JP 4000h

possible references to external address 4015h:
        002B LD DE,4015h

possible references to external address 401Dh:
        0033 LD DE,401Dh

possible references to external address 4025h:
        003B LD DE,4025h

possible references to external address 4036h:
        03E3 LD HL,4036h

possible references to external address 407Dh:
        0693 LD SP,407Dh

possible references to external address 4080h:
        0075 LD DE,4080h
        ----------
        08CA CALL 4080h

possible references to external address 4090h:
        14F0 LD HL,4090h

possible references to external address 40B5h:
        1B9B LD HL,40B5h
        1DB7 LD HL,40B5h
        28F4 LD HL,40B5h

possible references to external address 40D3h:
        285A LD HL,40D3h
        2884 LD DE,40D3h

possible references to external address 40D6h:
        2897 LD DE,40D6h
        ----------
        1B7D LD (40D6h),HL
        27E9 LD HL,(40D6h)
        28C7 LD HL,(40D6h)
        28D3 LD (40D6h),HL
        28E9 LD (40D6h),HL
        2955 LD HL,(40D6h)
        297F LD HL,(40D6h)
        29E8 LD HL,(40D6h)
        29F0 LD (40D6h),HL

possible references to external address 40F2h:
        19D6 LD HL,40F2h
        1FAF LD DE,40F2h
        ----------
        1986 LD A,(40F2h)
        1B6F LD (40F2h),A
        1F89 LD A,(40F2h)

possible references to external address 4101h:
        1B66 LD HL,4101h
        1E2A LD HL,4101h
        264A LD HL,4101h

possible references to external address 411Ch:
        0CE0 LD HL,411Ch
        0CF7 LD HL,411Ch
        0D5A LD HL,411Ch
        ----------
        0B98 LD (411Ch),A
        0CB6 LD (411Ch),A
        0D0E LD A,(411Ch)

possible references to external address 411Dh:
        0A08 LD DE,411Dh
        0BA0 LD HL,411Dh
        0D20 LD HL,411Dh
        0D36 LD DE,411Dh
        0D48 LD DE,411Dh
        0E1E LD HL,411Dh
        12E2 LD HL,411Dh
        23B7 LD HL,411Dh
        ----------
        0AE6 LD (411Dh),HL
        2443 LD (411Dh),HL

possible references to external address 4120h:
        0AC5 LD HL,4120h

possible references to external address 4121h:
        073C LD HL,4121h
        0866 LD HL,4121h
        09BF LD HL,4121h
        09CB LD DE,4121h
        0A03 LD DE,4121h
        2395 LD HL,4121h
        ----------
        01BF LD (4121h),HL
        099B LD HL,(4121h)
        09A5 LD HL,(4121h)
        09B5 LD (4121h),HL
        0A80 LD HL,(4121h)
        0A9A LD (4121h),HL
        0ACC LD HL,(4121h)
        0B46 LD A,(4121h)
        0C5B LD HL,(4121h)
        0F37 LD HL,(4121h)
        0F4E LD (4121h),HL
        1343 LD HL,(4121h)
        1352 LD (4121h),HL
        1426 LD (4121h),HL
        1F3E LD HL,(4121h)
        20C9 LD HL,(4121h)
        23FD LD HL,(4121h)
        2433 LD HL,(4121h)
        246D LD (4121h),HL
        248B LD (4121h),HL
        2545 LD (4121h),HL
        2562 LD HL,(4121h)
        25D2 LD (4121h),HL
        26DB LD (4121h),HL
        26E4 LD (4121h),HL
        288C LD (4121h),HL
        2991 LD HL,(4121h)
        299E LD HL,(4121h)
        29DA LD HL,(4121h)
        2C3D LD (4121h),HL
        2C43 LD HL,(4121h)
        2CC6 LD HL,(4121h)
        2E2A LD HL,(4121h)
        2E37 LD HL,(4121h)

possible references to external address 4123h:
        0982 LD HL,4123h
        09DF LD HL,4123h
        0A1A LD HL,4123h
        0A62 LD HL,4123h
        0B8A LD HL,4123h
        0D90 LD HL,4123h
        0DCC LD HL,4123h
        ----------
        095A LD A,(4123h)
        09AA LD HL,(4123h)
        09BA LD (4123h),HL
        0CDA LD A,(4123h)
        0E14 LD A,(4123h)
        1422 LD (4123h),HL
        2487 LD (4123h),HL

possible references to external address 4124h:
        078E LD HL,4124h
        0797 LD HL,4124h
        0810 LD HL,4124h
        08FD LD HL,4124h
        0919 LD HL,4124h
        094D LD HL,4124h
        0969 LD HL,4124h
        0B40 LD HL,4124h
        0B59 LD HL,4124h
        0C80 LD DE,4124h
        0D05 LD HL,4124h
        0E30 LD HL,4124h
        ----------
        0719 LD A,(4124h)
        0779 LD (4124h),A
        0955 LD A,(4124h)
        0A8E LD A,(4124h)
        1208 LD A,(4124h)
        1445 LD A,(4124h)
        15C6 LD A,(4124h)
        26D5 LD (4124h),A

possible references to external address 4125h:
        07C3 LD HL,4125h
        0CD2 LD HL,4125h
        0D15 LD HL,4125h
        1535 LD HL,4125h

possible references to external address 4127h:
        09F4 LD HL,4127h
        09FC LD HL,4127h
        0A49 LD HL,4127h
        0D33 LD HL,4127h
        0D45 LD HL,4127h
        0DDF LD HL,4127h
        0DFC LD HL,4127h
        0E0A LD HL,4127h
        1213 LD HL,4127h

possible references to external address 412Dh:
        090B LD HL,412Dh
        0C70 LD HL,412Dh
        0CAD LD HL,412Dh
        ----------
        0E3A LD (412Dh),A

possible references to external address 412Eh:
        0A4F LD DE,412Eh
        0C77 LD HL,412Eh
        ----------
        0DE5 LD A,(412Eh)

possible references to external address 412Fh:
        10CA LD HL,412Fh

possible references to external address 4130h:
        0FF5 LD HL,4130h
        1037 LD HL,4130h
        1096 LD HL,4130h

possible references to external address 414Ah:
        0DF9 LD DE,414Ah
        0E07 LD DE,414Ah
        0E26 LD HL,414Ah

possible references to external address 4150h:
        0E3E LD DE,4150h
        ----------
        0855 LD (4150h),HL
        0877 LD HL,(4150h)

possible references to external address 4151h:
        0DF4 LD HL,4151h

possible references to external address 4152h:
        0093 LD HL,4152h

possible references to external address 41E5h:
        0080 LD HL,41E5h

possible references to external address 41F8h:
        00AC LD SP,41F8h

possible references to external address 4200h:
        06BA LD BC,4200h
        ----------
        06C9 JP 4200h

possible references to external address 4288h:
        02B5 LD SP,4288h

possible references to external address 42E8h:
        00A8 LD HL,42E8h

possible references to external address 434Ch:
        00C4 LD HL,434Ch

possible references to external address 4414h:
        00E8 LD DE,4414h

possible references to external address 4FF9h:
        122B LD DE,4FF9h

possible references to external address 5B01h:
        0054 LD BC,5B01h

possible references to external address 5FA9h:
        136F LD SP,5FA9h

possible references to external address 6404h:
        23F2 LD DE,6404h

possible references to external address 7218h:
        0844 LD DE,7218h

possible references to external address 772Bh:
        10F8 LD BC,772Bh

possible references to external address 7D9Ah:
        15F1 LD SP,7D9Ah

possible references to external address 8000h:
        0B71 LD HL,8000h

possible references to external address 8031h:
        0841 LD BC,8031h

possible references to external address 8035h:
        0814 LD BC,8035h

possible references to external address 803Eh:
        0134 LD BC,803Eh

possible references to external address 8080h:
        0834 LD BC,8080h

possible references to external address 8100h:
        15CD LD BC,8100h
        1CF5 LD BC,8100h

possible references to external address 8138h:
        143C LD BC,8138h

possible references to external address 8349h:
        154A LD BC,8349h

possible references to external address 9080h:
        0AA3 LD BC,9080h

possible references to external address 9143h:
        1228 LD BC,9143h

possible references to external address 9474h:
        0F5F LD BC,9474h
        1253 LD BC,9474h

possible references to external address 0AA3Bh:
        143F LD DE,0AA3Bh

possible references to external address 0B065h:
        1522 LD HL,0B065h

possible references to external address 0B60Eh:
        1124 LD BC,0B60Eh

possible references to external address 0E1C1h:
        0C25 LD BC,0E1C1h
        ----------
        08D8 JP NC,0E1C1h

possible references to external address 0FB00h:
        01F9 LD HL,0FB00h

possible references to external address 0FC00h:
        01ED LD HL,0FC00h

possible references to external address 0FC01h:
        01D9 LD HL,0FC01h

possible references to external address 0FC02h:
        01E3 LD HL,0FC02h

possible references to external address 0FF00h:
        021E LD HL,0FF00h

possible references to external address 0FF04h:
        0216 LD HL,0FF04h

possible references to external address 0FFC0h:
        04F1 LD DE,0FFC0h
        054F LD DE,0FFC0h

possible references to external address 0FFCEh:
        00EF LD DE,0FFCEh

possible references to external address 0FFF6h:
        1DBD LD HL,0FFF6h

possible references to external address 0FFF9h:
        1A67 LD DE,0FFF9h

possible references to external address 0FFFEh:
        1A0A LD DE,0FFFEh

possible references to external address 0FFFFh:
        1A33 LD HL,0FFFFh
        2B33 LD HL,0FFFFh

references to port 00h
        190A IN A,(00h)
        190D OUT (00h),A

references to port 01h
        182E OUT (01h),A

references to port 0Ah
        163C IN A,(0Ah)
        18A1 IN A,(0Ah)

references to port 0Fh
        158B IN A,(0Fh)

references to port 41h
        170D OUT (41h),A

references to port 45h
        165B OUT (45h),A

references to port 47h
        17A5 OUT (47h),A

references to port 49h
        17C6 OUT (49h),A

references to port 51h
        17B7 OUT (51h),A

references to port 54h
        169F OUT (54h),A
        176E OUT (54h),A
        1794 OUT (54h),A
        1803 OUT (54h),A

references to port 59h
        1711 OUT (59h),A

references to port 0C1h
        179C IN A,(0C1h)

references to port 0FFh
        0243 IN A,(0FFh)
        0253 IN A,(0FFh)
        0226 OUT (0FFh),A
        04CB OUT (0FFh),A
        04FE OUT (0FFh),A
        0674 OUT (0FFh),A

Procedures (359):
  Proc  Length  References Dependants
  L0013  0005            1          1
  L001B  0005            2          1
  L002B  0005            2          1
  L0033  0005            8          1
  L003B  0005            1          1
  L0046  0003            3          1
  L0049  0007            2          1
  L0060  0006            3          0
  L0075  0076            2          8
  L00E7  0004            2          1
  L00E8  001D            1          4
  L010B  0027            1          6
  L0132  006B            1          4
  L015F  0002            1          1
  L0160  000A            1          2
  L0169  0002            1          1
  L016A  0002            1          1
  L016B  0003            1          1
  L016D  0030            2          1
  L019D  002C            1          3
  L01C9  000A            3          1
  L01D9  001F            2          1
  L01F8  0006            6          1
  L01FE  0020            2          3
  L0219  0005            1          1
  L021E  0006            2          1
  L0221  000B            4          0
  L022C  0009            2          0
  L0235  000C           13          1
  L0241  0020            2          1
  L0261  0004            1          1
  L0264  0020            7          1
  L0284  000F            2          2
  L0293  0004            3          2
  L0296  0013            1          1
  L0314  0009            2          1
  L032A  0011           33          4
  L033A  000E            2          2
  L0348  0010            2          0
  L0358  0009            4          2
  L0361  0023            3          2
  L0384  0007            6          1
  L038B  0011            3          1
  L039C  0026            2          1
  L03C2  001B            1          1
  L0412  0046            1          1
  L04E2  000A            1          0
  L0541  004C            2          0
  L05D1  0008            3          0
  L05D9  0057            2          8
  L0630  0011            2          1
  L0641  0005            1          1
  L0646  001B            1          2
  L0661  0002            1          1
  L0662  0012            1          1
  L0674  0058            2          3
  L0708  0006            2          1
  L070B  0005            5          2
  L0710  0006            2          2
  L0713  0004            2          2
  L0716  004F            6          9
  L0762  0017            2          3
  L0765  0014            1          2
  L0778  0005            5          0
  L077D  000B            1          1
  L0785  0012            1          3
  L0796  0004            4          1
  L0797  0011            1          2
  L07A8  000F            2          1
  L07B2  0005           11          1
  L07B7  000C            2          0
  L07C3  0014            2          0
  L07D7  0015            2          1
  L07E7  0005            1          1
  L07EB  000D            1          1
  L0809  003B            1          8
  L0841  0009            1          1
  L0847  004A            7          4
  L0890  0002            2          0
  L0892  0005            1          0
  L0897  000E            1          3
  L08A2  0065            3          7
  L0907  000E            1          1
  L0914  001C            2          5
  L092F  0002            2          0
  L0936  0002            1          1
  L0937  0007            1          2
  L093E  0017            2          3
  L0955  000F           18          0
  L095F  0002            2          1
  L0960  0004            3          0
  L0964  0008            2          1
  L0969  000E            2          1
  L097B  000A            4          3
  L0982  0008            8          0
  L098D  0007            2          1
  L0994  000B            4          3
  L099E  0006            1          1
  L09A4  000D           16          0
  L09B1  0004            5          2
  L09B4  000B            8          0
  L09BF  0004           11          1
  L09C2  0003            7          1
  L09C4  0006            1          1
  L09C9  0002            3          0
  L09CB  0007            1          1
  L09D3  000C            5          0
  L09D7  0008            2          0
  L09DF  0015            6          0
  L09F4  0006            1          1
  L09F7  0005            2          1
  L09FC  000A            5          1
  L0A02  0004            1          1
  L0A03  0009            1          0
  L0A0C  0018            7          3
  L0A23  0003            1          0
  L0A26  0013            1          0
  L0A39  0010            1          2
  L0A49  0009            3          2
  L0A4F  0029            1          2
  L0A7F  0012            8          3
  L0A8E  000F            1          3
  L0A99  0004            2          1
  L0A9A  0008           10          1
  L0A9F  0004            1          0
  L0AA3  000E            2          2
  L0AB1  000B            7          3
  L0AB9  0013            1          4
  L0ACC  0006            4          1
  L0ACF  000C            8          2
  L0ADB  000B            3          3
  L0AE3  000B            2          1
  L0AEC  0008            1          1
  L0AF4  0004            5          1
  L0AF6  0005           10          1
  L0AFB  0024            3          6
  L0B1F  0006            1          1
  L0B24  0002            1          0
  L0B37  000C            2          4
  L0B40  0019            4          2
  L0B59  0023            1          3
  L0B7B  0025            1          6
  L0BA0  000A            1          0
  L0BAA  001D            2          1
  L0BD2  0020            1          5
  L0C45  0008            1          1
  L0C4C  0006            1          2
  L0C51  000A            2          1
  L0C5B  000C            1          2
  L0C66  0007            2          2
  L0C6B  0005            1          1
  L0C77  00A9            3         10
  L0CD8  003A            2          3
  L0D0E  0004            3          1
  L0D11  000F            1          1
  L0D20  0013            2          1
  L0D33  0006            2          1
  L0D36  0005            1          1
  L0D39  000C            1          0
  L0D45  0006            1          1
  L0D48  0005            1          1
  L0D4B  000C            1          0
  L0D57  0012            1          0
  L0D69  0008            2          2
  L0D6B  0006            1          2
  L0D70  000D            1          1
  L0D7D  0008            1          1
  L0D80  0005            1          1
  L0D84  000C            1          1
  L0D90  0007            2          1
  L0D97  0003            2          1
  L0D99  0008            2          0
  L0DA1  0033            1          7
  L0DDC  005D            1         11
  L0E39  0014            2          0
  L0E4D  0018            2          3
  L0E65  0096            2         11
  L0E83  003B            4          8
  L0EBD  000B            1          2
  L0EC7  001D            4          4
  L0EE4  000A            1          3
  L0EEE  0007            1          2
  L0EF2  0003            1          1
  L0EF5  0004            1          1
  L0EF6  0005            1          2
  L0EFB  000F            3          2
  L0F0A  0002            1          1
  L0F0B  000C            1          3
  L0F16  0002            2          0
  L0F18  0011            4          2
  L0F29  0060            1         10
  L0F89  000B            2          3
  L0F8F  0005            1          1
  L0F94  0013            1          2
  L0FA7  000B            1          2
  L0FAF  000E            4          4
  L0FBD  0004            3          1
  L0FBE  001C            1          4
  L0FD9  001F            2          5
  L0FF5  003F            1          0
  L1034  0009            2          0
  L103D  0038            1          6
  L1074  001F            1          1
  L1092  0008            1          0
  L1093  0007            1          0
  L109A  0167            1         20
  L1201  004E            3          6
  L1243  000C            1          2
  L124F  001A            2          3
  L1269  0008            7          0
  L1271  0003            1          2
  L1273  0006            1          2
  L1277  0006            2          1
  L127D  000F            2          1
  L1289  0008            1          0
  L1291  0005            7          2
  L1294  0008            1          0
  L129C  0008            1          0
  L12A4  008B            4         14
  L132F  0035            2          1
  L1335  002F            2          1
  L149A  0012            3          4
  L14A9  0020            1          5
  L14F0  0051            2          2
  L1541  0009            1          2
  L1547  0044            1         11
  L1936  001F            3          0
  L1955  0004            2          2
  L1958  000B            2          0
  L1963  0019            4          1
  L197A  0004            4          1
  L197E  0013            1          3
  L198E  0003            2          1
  L1997  000E           11          1
  L19A2  0012           20          1
  L1A06  0016            1          4
  L1A19  00DF            4         22
  L1A33  0066            4          9
  L1A98  0060            1         11
  L1AFC  0014            2          0
  L1B10  001B            2          3
  L1B2A  0005            1          1
  L1B2C  0004            5          1
  L1B2F  001A            2          0
  L1B4D  0013            2          2
  L1B5D  0007            2          1
  L1B61  002F            3          3
  L1B8F  0024            1          2
  L1B9A  0019            1          2
  L1BB3  000D            4          2
  L1BC0  00D0            1          0
  L1D1A  0007            1          1
  L1D1E  003D            1          8
  L1D59  0002            1          1
  L1D5A  001F            2          3
  L1D78  0019            8          0
  L1D91  000A            1          0
  L1D9B  0007            1          2
  L1DA0  0044            1          5
  L1DC1  0023            1          4
  L1E3D  0008            6          0
  L1E45  0004            1          1
  L1E46  0006            1          2
  L1E4A  0005           16          1
  L1E4F  000C            3          2
  L1E5A  0004            7          1
  L1E5B  001F            1          1
  L1ED9  0005            2          1
  L1F05  001C            7          0
  L1F21  004B            2          7
  L20F9  0007            3          1
  L20FE  0008            9          2
  L2103  0005            1          1
  L2169  000F            4          2
  L22B9  007D            1         14
  L2335  0005            2          2
  L2338  0003            2          1
  L233A  00CC            3          8
  L2346  00C0            1          7
  L249F  0090            3         22
  L252C  0006            2          1
  L2532  000E            1          2
  L2540  000E            1          2
  L254E  0039            1          7
  L2583  0004            1          1
  L2586  0006            1          0
  L25C4  0015            1          3
  L273D  0005            4          1
  L27C9  000B            1          1
  L27D4  0021            1          3
  L27F8  0006            4          1
  L27FE  001B            1          3
  L2819  000F            1          1
  L2828  000E            1          1
  L2843  0014            1          3
  L2857  0006            4          2
  L285A  000B            3          0
  L2865  0003            3          1
  L2866  0004            2          1
  L2869  003D            1          4
  L2884  0022            4          2
  L28A6  0004            1          1
  L28A7  0006           11          2
  L28AA  0015            4          4
  L28BF  002A            3          2
  L28D8  0002            1          0
  L28E6  0066            1          4
  L28E9  0062            1          4
  L294A  0002            1          1
  L294B  0020            1          0
  L296B  0024            1          2
  L298F  0037            1          8
  L29C6  0009            2          1
  L29CE  0009            2          0
  L29D7  0006            2          2
  L29DA  0004            4          1
  L29DD  0004            2          1
  L29DE  0017            3          1
  L29F5  000E            3          0
  L2A07  0008            2          1
  L2A13  000C            3          2
  L2A2B  0004            2          1
  L2A2F  0032            1          6
  L2ADF  0004            2          1
  L2AE2  0005            1          0
  L2AE7  0008            1          2
  L2B01  0004            3          1
  L2B02  0004            2          2
  L2B05  0009            1          1
  L2B0E  000D            1          1
  L2B1B  0004            1          1
  L2B1C  0006            8          2
  L2B1F  000A            3          2
  L2B75  0009            4          1
  L2B7E  0048            2          2
  L2BE4  0011            1          0
  L2E49  000A            4          1
  L2E53  00B7            1         20
  L2E65  0018            1          4
  L2E7C  008E            1         18
  L2F0A  000C            3          1
  L2F16  0007            1          1
  L2F1C  0024            1          4
  L2F40  000A            1          3
  L2F4A  0017            1          3
  L2F5F  0006            2          1
  L2F65  0010            2          2
  L2F75  0005            1          1
  L2F78  0008            1          2
  L2F7D  0025            4          6
  L2FA1  000F            2          1
  L2FB0  0009            1          2
  L2FB7  0002            1          1
  L2FB9  0019            1          3
  L2FD2  000E            2          1
  L2FE0  0006            2          2
  L2FE3  000B            1          2
  L2FEB  000B            1          1
  L2FF6  0005            1          1

Call Graph:
